
D8M_Test.elf:     file format elf32-littlenios2
D8M_Test.elf
architecture: nios2:r1, flags 0x00000112:
EXEC_P, HAS_SYMS, D_PAGED
start address 0x00020240

Program Header:
    LOAD off    0x00001000 vaddr 0x00020000 paddr 0x00020000 align 2**12
         filesz 0x00000020 memsz 0x00000020 flags r-x
    LOAD off    0x00001020 vaddr 0x00020020 paddr 0x00020020 align 2**12
         filesz 0x00011c10 memsz 0x00011c10 flags r-x
    LOAD off    0x00012c30 vaddr 0x00031c30 paddr 0x00033ec0 align 2**12
         filesz 0x00002290 memsz 0x00002290 flags rw-
    LOAD off    0x00015150 vaddr 0x00036150 paddr 0x00036150 align 2**12
         filesz 0x00000000 memsz 0x00000160 flags rw-

Sections:
Idx Name          Size      VMA       LMA       File off  Algn
  0 .entry        00000020  00020000  00020000  00001000  2**5
                  CONTENTS, ALLOC, LOAD, READONLY, CODE
  1 .exceptions   00000220  00020020  00020020  00001020  2**2
                  CONTENTS, ALLOC, LOAD, READONLY, CODE
  2 .text         00011170  00020240  00020240  00001240  2**2
                  CONTENTS, ALLOC, LOAD, READONLY, CODE
  3 .rodata       00000880  000313b0  000313b0  000123b0  2**2
                  CONTENTS, ALLOC, LOAD, READONLY, DATA
  4 .rwdata       00002290  00031c30  00033ec0  00012c30  2**2
                  CONTENTS, ALLOC, LOAD, DATA, SMALL_DATA
  5 .bss          00000160  00036150  00036150  00015150  2**2
                  ALLOC, SMALL_DATA
  6 .onchip_memory2_0 00000000  000362b0  000362b0  00014ec0  2**0
                  CONTENTS
  7 .comment      00000023  00000000  00000000  00014ec0  2**0
                  CONTENTS, READONLY
  8 .debug_aranges 00001028  00000000  00000000  00014ee8  2**3
                  CONTENTS, READONLY, DEBUGGING
  9 .debug_info   000267e1  00000000  00000000  00015f10  2**0
                  CONTENTS, READONLY, DEBUGGING
 10 .debug_abbrev 00009dba  00000000  00000000  0003c6f1  2**0
                  CONTENTS, READONLY, DEBUGGING
 11 .debug_line   0000c1b4  00000000  00000000  000464ab  2**0
                  CONTENTS, READONLY, DEBUGGING
 12 .debug_frame  000027fc  00000000  00000000  00052660  2**2
                  CONTENTS, READONLY, DEBUGGING
 13 .debug_str    00003bb6  00000000  00000000  00054e5c  2**0
                  CONTENTS, READONLY, DEBUGGING
 14 .debug_loc    00017201  00000000  00000000  00058a12  2**0
                  CONTENTS, READONLY, DEBUGGING
 15 .debug_alt_sim_info 00000060  00000000  00000000  0006fc14  2**2
                  CONTENTS, READONLY, DEBUGGING
 16 .debug_ranges 00001868  00000000  00000000  0006fc78  2**3
                  CONTENTS, READONLY, DEBUGGING
 17 .thread_model 00000003  00000000  00000000  00074dba  2**0
                  CONTENTS, READONLY
 18 .cpu          0000000a  00000000  00000000  00074dbd  2**0
                  CONTENTS, READONLY
 19 .qsys         00000001  00000000  00000000  00074dc7  2**0
                  CONTENTS, READONLY
 20 .simulation_enabled 00000001  00000000  00000000  00074dc8  2**0
                  CONTENTS, READONLY
 21 .sysid_hash   00000004  00000000  00000000  00074dc9  2**0
                  CONTENTS, READONLY
 22 .sysid_base   00000004  00000000  00000000  00074dcd  2**0
                  CONTENTS, READONLY
 23 .sysid_time   00000004  00000000  00000000  00074dd1  2**0
                  CONTENTS, READONLY
 24 .stderr_dev   00000009  00000000  00000000  00074dd5  2**0
                  CONTENTS, READONLY
 25 .stdin_dev    00000009  00000000  00000000  00074dde  2**0
                  CONTENTS, READONLY
 26 .stdout_dev   00000009  00000000  00000000  00074de7  2**0
                  CONTENTS, READONLY
 27 .sopc_system_name 00000004  00000000  00000000  00074df0  2**0
                  CONTENTS, READONLY
 28 .quartus_project_dir 0000002a  00000000  00000000  00074df4  2**0
                  CONTENTS, READONLY
 29 .jdi          00003b33  00000000  00000000  00074e1e  2**0
                  CONTENTS, READONLY
 30 .sopcinfo     0008f7be  00000000  00000000  00078951  2**0
                  CONTENTS, READONLY
SYMBOL TABLE:
00020000 l    d  .entry	00000000 .entry
00020020 l    d  .exceptions	00000000 .exceptions
00020240 l    d  .text	00000000 .text
000313b0 l    d  .rodata	00000000 .rodata
00031c30 l    d  .rwdata	00000000 .rwdata
00036150 l    d  .bss	00000000 .bss
000362b0 l    d  .onchip_memory2_0	00000000 .onchip_memory2_0
00000000 l    d  .comment	00000000 .comment
00000000 l    d  .debug_aranges	00000000 .debug_aranges
00000000 l    d  .debug_info	00000000 .debug_info
00000000 l    d  .debug_abbrev	00000000 .debug_abbrev
00000000 l    d  .debug_line	00000000 .debug_line
00000000 l    d  .debug_frame	00000000 .debug_frame
00000000 l    d  .debug_str	00000000 .debug_str
00000000 l    d  .debug_loc	00000000 .debug_loc
00000000 l    d  .debug_alt_sim_info	00000000 .debug_alt_sim_info
00000000 l    d  .debug_ranges	00000000 .debug_ranges
00000000 l    df *ABS*	00000000 ../D8M_Test_bsp//obj/HAL/src/crt0.o
00020288 l       .text	00000000 alt_after_alt_main
00000000 l    df *ABS*	00000000 alt_irq_handler.c
00000000 l    df *ABS*	00000000 alt_instruction_exception_entry.c
00000000 l    df *ABS*	00000000 I2C_core.c
00000000 l    df *ABS*	00000000 auto_focus.c
00000000 l    df *ABS*	00000000 main.c
00000000 l    df *ABS*	00000000 mipi_bridge_config.c
00031c30 l     O .rwdata	00000034 MipiBridgeReg
00000000 l    df *ABS*	00000000 mipi_camera_config.c
00031c64 l     O .rwdata	00000762 MipiCameraReg
00000000 l    df *ABS*	00000000 queue.c
00000000 l    df *ABS*	00000000 lib2-divmod.c
00022440 l     F .text	0000006c udivmodsi4
00000000 l    df *ABS*	00000000 malloc.c
00000000 l    df *ABS*	00000000 mallocr.c
00000000 l    df *ABS*	00000000 memset.c
00000000 l    df *ABS*	00000000 printf.c
00000000 l    df *ABS*	00000000 putchar.c
00000000 l    df *ABS*	00000000 puts.c
00000000 l    df *ABS*	00000000 sbrkr.c
00000000 l    df *ABS*	00000000 strlen.c
00000000 l    df *ABS*	00000000 vfprintf.c
0003197e l     O .rodata	00000010 zeroes.4255
00025004 l     F .text	000000bc __sbprintf
0003198e l     O .rodata	00000010 blanks.4254
00000000 l    df *ABS*	00000000 wsetup.c
00000000 l    df *ABS*	00000000 dtoa.c
00025214 l     F .text	00000200 quorem
00000000 l    df *ABS*	00000000 fflush.c
00000000 l    df *ABS*	00000000 findfp.c
00026dd0 l     F .text	00000008 __fp_lock
00026dd8 l     F .text	00000008 __fp_unlock
00026dec l     F .text	0000019c __sinit.part.1
00000000 l    df *ABS*	00000000 mallocr.c
00000000 l    df *ABS*	00000000 fvwrite.c
00000000 l    df *ABS*	00000000 fwalk.c
00000000 l    df *ABS*	00000000 impure.c
000327d0 l     O .rwdata	00000424 impure_data
00000000 l    df *ABS*	00000000 int_errno.c
00000000 l    df *ABS*	00000000 locale.c
00032c14 l     O .rwdata	00000020 lc_ctype_charset
00032bf4 l     O .rwdata	00000020 lc_message_charset
00032c34 l     O .rwdata	00000038 lconv
00000000 l    df *ABS*	00000000 makebuf.c
00000000 l    df *ABS*	00000000 memchr.c
00000000 l    df *ABS*	00000000 memcpy.c
00000000 l    df *ABS*	00000000 memmove.c
00000000 l    df *ABS*	00000000 mprec.c
000319c0 l     O .rodata	0000000c p05.2710
00000000 l    df *ABS*	00000000 putc.c
00000000 l    df *ABS*	00000000 mallocr.c
00000000 l    df *ABS*	00000000 s_fpclassify.c
00000000 l    df *ABS*	00000000 stdio.c
00000000 l    df *ABS*	00000000 strcmp.c
00000000 l    df *ABS*	00000000 vfprintf.c
00029aa8 l     F .text	000000fc __sprint_r.part.0
00031af4 l     O .rodata	00000010 blanks.4199
00031ae4 l     O .rodata	00000010 zeroes.4200
0002aeb0 l     F .text	000000bc __sbprintf
00000000 l    df *ABS*	00000000 wbuf.c
00000000 l    df *ABS*	00000000 writer.c
00000000 l    df *ABS*	00000000 closer.c
00000000 l    df *ABS*	00000000 mallocr.c
00000000 l    df *ABS*	00000000 fclose.c
00000000 l    df *ABS*	00000000 fputwc.c
00000000 l    df *ABS*	00000000 fstatr.c
00000000 l    df *ABS*	00000000 isattyr.c
00000000 l    df *ABS*	00000000 lseekr.c
00000000 l    df *ABS*	00000000 readr.c
00000000 l    df *ABS*	00000000 wcrtomb.c
00000000 l    df *ABS*	00000000 wctomb_r.c
00000000 l    df *ABS*	00000000 libgcc2.c
00000000 l    df *ABS*	00000000 libgcc2.c
00000000 l    df *ABS*	00000000 adddf3.c
00000000 l    df *ABS*	00000000 divdf3.c
00000000 l    df *ABS*	00000000 eqdf2.c
00000000 l    df *ABS*	00000000 gedf2.c
00000000 l    df *ABS*	00000000 ledf2.c
00000000 l    df *ABS*	00000000 muldf3.c
00000000 l    df *ABS*	00000000 subdf3.c
00000000 l    df *ABS*	00000000 fixdfsi.c
00000000 l    df *ABS*	00000000 floatsidf.c
00000000 l    df *ABS*	00000000 floatunsidf.c
00000000 l    df *ABS*	00000000 libgcc2.c
00000000 l    df *ABS*	00000000 libgcc2.c
00000000 l    df *ABS*	00000000 alt_close.c
0002e9b4 l     F .text	00000050 alt_get_errno
00000000 l    df *ABS*	00000000 alt_dev.c
0002ead4 l     F .text	0000002c alt_dev_null_write
00000000 l    df *ABS*	00000000 alt_errno.c
00000000 l    df *ABS*	00000000 alt_fstat.c
0002eb00 l     F .text	00000050 alt_get_errno
00000000 l    df *ABS*	00000000 alt_isatty.c
0002ec00 l     F .text	00000050 alt_get_errno
00000000 l    df *ABS*	00000000 alt_load.c
0002ecf4 l     F .text	00000064 alt_load_section
00000000 l    df *ABS*	00000000 alt_lseek.c
0002edd8 l     F .text	00000050 alt_get_errno
00000000 l    df *ABS*	00000000 alt_main.c
00000000 l    df *ABS*	00000000 alt_malloc_lock.c
00000000 l    df *ABS*	00000000 alt_read.c
0002efb4 l     F .text	00000050 alt_get_errno
00000000 l    df *ABS*	00000000 alt_release_fd.c
00000000 l    df *ABS*	00000000 alt_sbrk.c
00033eb0 l     O .rwdata	00000004 heap_end
00000000 l    df *ABS*	00000000 alt_tick.c
00000000 l    df *ABS*	00000000 alt_usleep.c
00000000 l    df *ABS*	00000000 alt_write.c
0002f3dc l     F .text	00000050 alt_get_errno
00000000 l    df *ABS*	00000000 alt_sys_init.c
0002f524 l     F .text	00000038 alt_dev_reg
00032e14 l     O .rwdata	00001060 jtag_uart
00000000 l    df *ABS*	00000000 altera_avalon_jtag_uart_fd.c
00000000 l    df *ABS*	00000000 altera_avalon_jtag_uart_init.c
0002f818 l     F .text	00000204 altera_avalon_jtag_uart_irq
0002fa1c l     F .text	000000a8 altera_avalon_jtag_uart_timeout
00000000 l    df *ABS*	00000000 altera_avalon_jtag_uart_ioctl.c
00000000 l    df *ABS*	00000000 altera_avalon_jtag_uart_read.c
00000000 l    df *ABS*	00000000 altera_avalon_jtag_uart_write.c
00000000 l    df *ABS*	00000000 altera_avalon_timer_sc.c
0003003c l     F .text	00000074 alt_avalon_timer_sc_irq
00000000 l    df *ABS*	00000000 alt_alarm_start.c
00000000 l    df *ABS*	00000000 alt_busy_sleep.c
00000000 l    df *ABS*	00000000 alt_dcache_flush_all.c
00000000 l    df *ABS*	00000000 alt_dev_llist_insert.c
00030414 l     F .text	00000050 alt_get_errno
00000000 l    df *ABS*	00000000 alt_do_ctors.c
00000000 l    df *ABS*	00000000 alt_do_dtors.c
00000000 l    df *ABS*	00000000 alt_icache_flush_all.c
00000000 l    df *ABS*	00000000 alt_iic.c
00000000 l    df *ABS*	00000000 alt_iic_isr_register.c
00000000 l    df *ABS*	00000000 alt_io_redirect.c
000308c0 l     F .text	000000c0 alt_open_fd
00000000 l    df *ABS*	00000000 alt_irq_vars.c
00000000 l    df *ABS*	00000000 alt_open.c
000309f8 l     F .text	00000050 alt_get_errno
00030a48 l     F .text	000000cc alt_file_locked
00000000 l    df *ABS*	00000000 altera_nios2_gen2_irq.c
00000000 l    df *ABS*	00000000 alt_find_dev.c
00000000 l    df *ABS*	00000000 alt_find_file.c
00000000 l    df *ABS*	00000000 alt_get_fd.c
00000000 l    df *ABS*	00000000 alt_icache_flush.c
00000000 l    df *ABS*	00000000 atexit.c
00000000 l    df *ABS*	00000000 exit.c
00000000 l    df *ABS*	00000000 memcmp.c
00000000 l    df *ABS*	00000000 __atexit.c
00000000 l    df *ABS*	00000000 __call_atexit.c
00000000 l    df *ABS*	00000000 alt_exit.c
00036184 g     O .bss	00000004 alt_instruction_exception_handler
00022ed0 g     F .text	00000018 putchar
00029008 g     F .text	00000074 _mprec_log10
000290f4 g     F .text	0000008c __any_on
0002b570 g     F .text	00000054 _isatty_r
000319cc g     O .rodata	00000028 __mprec_tinytens
0002eefc g     F .text	00000078 alt_main
00022ee8 g     F .text	000000a8 _puts_r
000361b0 g     O .bss	00000100 alt_irq
0002b5c4 g     F .text	0000005c _lseek_r
0002133c g     F .text	000000b0 Focus_Released
000205e0 g     F .text	00000060 ACK_check
00033ec0 g       *ABS*	00000000 __flash_rwdata_start
00020554 g     F .text	0000008c ACK_single_check
0002d51c g     F .text	00000084 .hidden __eqdf2
0002115c g     F .text	000001e0 Focus_Window
00021c34 g     F .text	00000060 OV8865_write_AF
000362b0 g       *ABS*	00000000 __alt_heap_start
00022288 g     F .text	00000064 QUEUE_IsFull
00022e8c g     F .text	0000003c printf
0002b67c g     F .text	0000009c _wcrtomb_r
000299a0 g     F .text	0000005c __sseek
00027120 g     F .text	00000010 __sinit
0002af6c g     F .text	00000138 __swbuf_r
00027bcc g     F .text	0000007c _setlocale_r
00026f88 g     F .text	00000068 __sfmoreglue
0002ef94 g     F .text	00000020 __malloc_unlock
00028084 g     F .text	0000015c memmove
00020640 g     F .text	00000200 OC_I2C_Write
00027108 g     F .text	00000018 _cleanup
000281e0 g     F .text	000000a8 _Balloc
00021038 g     F .text	00000124 Focus_Init
0002d5a0 g     F .text	000000e0 .hidden __gtdf2
00030c6c g     F .text	00000020 altera_nios2_gen2_irq_init
00000000  w      *UND*	00000000 __errno
00020000 g     F .entry	0000001c __reset
00020020 g       *ABS*	00000000 __flash_exceptions_start
0002b518 g     F .text	00000058 _fstat_r
00033e7c g     O .rwdata	00000001 focus_scal
0003615c g     O .bss	00000004 errno
0002991c g     F .text	00000008 __seofread
00036170 g     O .bss	00000004 alt_argv
0003be74 g       *ABS*	00000000 _gp
0002f3ac g     F .text	00000030 usleep
00032c94 g     O .rwdata	00000180 alt_fd_list
00022ec8 g     F .text	00000008 _putchar_r
00030c8c g     F .text	00000090 alt_find_dev
00027f4c g     F .text	00000138 memcpy
00020394 g     F .text	0000013c oc_i2c_init_ex
00026de0 g     F .text	0000000c _cleanup_r
0002e7dc g     F .text	000000d0 .hidden __floatsidf
00030980 g     F .text	00000078 alt_io_redirect
0002d680 g     F .text	000000e0 .hidden __ltdf2
000313b0 g       *ABS*	00000000 __DTOR_END__
00022f90 g     F .text	00000014 puts
00030f70 g     F .text	0000009c alt_exception_cause_generated_bad_addr
00029854 g     F .text	00000074 __fpclassifyd
00028f64 g     F .text	000000a4 __ratio
0002ae8c g     F .text	00000024 __vfiprintf_internal
00022248 g     F .text	00000040 QUEUE_IsEmpty
0002fc18 g     F .text	0000020c altera_avalon_jtag_uart_read
0002256c g     F .text	00000014 malloc
00022e60 g     F .text	0000002c _printf_r
00020000 g       *ABS*	00000000 __alt_mem_onchip_memory2_0
0002255c g     F .text	00000008 .hidden __udivsi3
0002ec50 g     F .text	000000a4 isatty
00031a1c g     O .rodata	000000c8 __mprec_tens
00027c48 g     F .text	0000000c __locale_charset
00030ee4 g     F .text	0000008c alt_icache_flush
00036158 g     O .bss	00000004 __malloc_top_pad
00022410 g     F .text	00000030 QUEUE_Empty
00021d10 g     F .text	000000e0 OV8865_FOCUS_Move_to
00033e90 g     O .rwdata	00000004 __mb_cur_max
00027c78 g     F .text	0000000c _localeconv_r
000285ec g     F .text	0000003c __i2b
00027584 g     F .text	000004c0 __sfvwrite_r
00022380 g     F .text	00000090 QUEUE_Pop
00022fa4 g     F .text	00000054 _sbrk_r
0002b620 g     F .text	0000005c _read_r
00033e7a g     O .rwdata	00000002 focus_height
00033ea8 g     O .rwdata	00000004 alt_max_fd
0002b234 g     F .text	000000f0 _fclose_r
00021bd4 g     F .text	00000060 OV8865_write_cmos_sensor_8
00026da0 g     F .text	00000030 fflush
00036154 g     O .bss	00000004 __malloc_max_sbrked_mem
0002c3b4 g     F .text	0000089c .hidden __adddf3
00028d0c g     F .text	0000011c __b2d
0002be24 g     F .text	00000590 .hidden __umoddi3
0002ee28 g     F .text	000000d4 lseek
00033e88 g     O .rwdata	00000004 _global_impure_ptr
000292ec g     F .text	00000568 _realloc_r
000362b0 g       *ABS*	00000000 __bss_end
000307d0 g     F .text	000000f0 alt_iic_isr_register
0002f2a8 g     F .text	00000104 alt_tick
0002b864 g     F .text	000005c0 .hidden __udivdi3
0002b338 g     F .text	00000184 _fputwc_r
000319f4 g     O .rodata	00000028 __mprec_bigtens
000283d0 g     F .text	00000104 __s2b
0002e8ac g     F .text	000000a4 .hidden __floatunsidf
00033e76 g     O .rwdata	00000002 video_h
00028ab4 g     F .text	00000060 __mcmp
00027140 g     F .text	00000018 __fp_lock_all
00030784 g     F .text	0000004c alt_ic_irq_enabled
000213ec g     F .text	000000b4 mipi_clear_error
00020ba8 g     F .text	00000210 OC_I2CL_Write
0002f210 g     F .text	00000098 alt_alarm_stop
00036180 g     O .bss	00000004 alt_irq_active
00020840 g     F .text	00000064 ACK_judge_for_read
000200fc g     F .exceptions	000000d0 alt_irq_handler
00032c6c g     O .rwdata	00000028 alt_dev_null
0002028c g     F .text	00000058 Write32_Data
000303d0 g     F .text	00000044 alt_dcache_flush_all
000284d4 g     F .text	00000068 __hi0bits
0002e754 g     F .text	00000088 .hidden __fixdfsi
00033e7d g     O .rwdata	00000001 focus_scal_f
00033ec0 g       *ABS*	00000000 __ram_rwdata_end
00033ea0 g     O .rwdata	00000008 alt_dev_list
0002f42c g     F .text	000000f8 write
00029180 g     F .text	000000a0 _putc_r
00031c30 g       *ABS*	00000000 __ram_rodata_end
0002eb50 g     F .text	000000b0 fstat
0002d680 g     F .text	000000e0 .hidden __ledf2
00028824 g     F .text	00000140 __pow5mult
00029bbc g     F .text	000012d0 ___vfiprintf_internal_r
00036168 g     O .bss	00000004 __nlocale_changed
00022564 g     F .text	00000008 .hidden __umodsi3
00021528 g     F .text	00000174 mipi_show_error_info_more
000362b0 g       *ABS*	00000000 end
0002f754 g     F .text	000000c4 altera_avalon_jtag_uart_init
000201cc g     F .exceptions	00000074 alt_instruction_exception_entry
000313b0 g       *ABS*	00000000 __CTOR_LIST__
000386a0 g       *ABS*	00000000 __alt_stack_pointer
000300b0 g     F .text	00000088 alt_avalon_timer_sc_init
0002e950 g     F .text	00000064 .hidden __clzsi2
0002fe24 g     F .text	00000218 altera_avalon_jtag_uart_write
00027130 g     F .text	00000004 __sfp_lock_acquire
00027e64 g     F .text	000000e8 memchr
00023090 g     F .text	00001f50 ___vfprintf_internal_r
00027294 g     F .text	000002f0 _free_r
00027c54 g     F .text	00000010 __locale_mb_cur_max
000311e8 g     F .text	00000194 __call_exitprocs
00036164 g     O .bss	00000004 __mlocale_changed
00033e80 g     O .rwdata	00000004 __malloc_sbrk_base
00020240 g     F .text	0000004c _start
00036178 g     O .bss	00000004 _alt_tick_rate
00028964 g     F .text	00000150 __lshift
000222ec g     F .text	00000094 QUEUE_Push
0003617c g     O .bss	00000004 _alt_nticks
0002f004 g     F .text	000000fc read
0002f590 g     F .text	00000060 alt_sys_init
000310d4 g     F .text	00000114 __register_exitproc
00021b78 g     F .text	0000005c OV8865_read_cmos_sensor_8
00028628 g     F .text	000001fc __multiply
0002fac4 g     F .text	00000068 altera_avalon_jtag_uart_close
00021984 g     F .text	00000060 MipiBridgeRegWrite
00031c30 g       *ABS*	00000000 __ram_rwdata_start
000313b0 g       *ABS*	00000000 __ram_rodata_start
00036188 g     O .bss	00000028 __malloc_current_mallinfo
00028e28 g     F .text	0000013c __d2b
0002f5f0 g     F .text	00000060 altera_avalon_jtag_uart_read_fd
00030e30 g     F .text	000000b4 alt_get_fd
00030278 g     F .text	00000158 alt_busy_sleep
0002b11c g     F .text	00000054 _close_r
00031058 g     F .text	0000007c memcmp
0002f6b0 g     F .text	00000050 altera_avalon_jtag_uart_close_fd
000362b0 g       *ABS*	00000000 __alt_stack_base
0002f700 g     F .text	00000054 altera_avalon_jtag_uart_ioctl_fd
000250c0 g     F .text	00000154 __swsetup_r
0002033c g     F .text	00000058 oc_i2c_init
0002cc50 g     F .text	000008cc .hidden __divdf3
00026ff0 g     F .text	00000118 __sfp
0002907c g     F .text	00000078 __copybits
000323c8 g     O .rwdata	00000408 __malloc_av_
0002713c g     F .text	00000004 __sinit_lock_release
0002d760 g     F .text	00000724 .hidden __muldf3
000298c8 g     F .text	00000054 __sread
00030d1c g     F .text	00000114 alt_find_file
00030464 g     F .text	000000a4 alt_dev_llist_insert
0002ef74 g     F .text	00000020 __malloc_lock
0002f160 g     F .text	000000b0 sbrk
00021fac g     F .text	000001fc MipiCameraInit
00021938 g     F .text	0000004c nSWAP16
00026d44 g     F .text	0000005c _fflush_r
0002b170 g     F .text	000000c4 _calloc_r
000221a8 g     F .text	00000070 QUEUE_New
00036150 g       *ABS*	00000000 __bss_start
00022d3c g     F .text	00000124 memset
00021724 g     F .text	00000214 main
00036174 g     O .bss	00000004 alt_envp
00036150 g     O .bss	00000004 __malloc_max_total_mem
0002f650 g     F .text	00000060 altera_avalon_jtag_uart_write_fd
0002b0a4 g     F .text	0000001c __swbuf
000299fc g     F .text	00000008 __sclose
000386a0 g       *ABS*	00000000 __alt_heap_limit
0002b324 g     F .text	00000014 fclose
00025414 g     F .text	00001728 _dtoa_r
00022594 g     F .text	000007a8 _malloc_r
0002b7d8 g     F .text	00000030 __ascii_wctomb
00033eac g     O .rwdata	00000004 alt_errno
00027a44 g     F .text	000000c4 _fwalk
00029220 g     F .text	000000cc putc
000224ac g     F .text	00000054 .hidden __divsi3
000204d0 g     F .text	00000084 oc_i2c_uninit
00027170 g     F .text	00000124 _malloc_trim_r
000313b0 g       *ABS*	00000000 __CTOR_END__
00021df0 g     F .text	000001bc MIPI_BIN_LEVEL
00029a04 g     F .text	000000a4 strcmp
000313b0 g       *ABS*	00000000 __flash_rodata_start
000313b0 g       *ABS*	00000000 __DTOR_LIST__
0002d51c g     F .text	00000084 .hidden __nedf2
0002f55c g     F .text	00000034 alt_irq_init
0002f100 g     F .text	00000060 alt_release_fd
00021a54 g     F .text	00000124 MipiBridgeInit
00031b04 g     O .rodata	00000100 .hidden __clz_tab
00036160 g     O .bss	00000004 _PathLocale
0003100c g     F .text	00000014 atexit
0002b0c0 g     F .text	0000005c _write_r
00027c84 g     F .text	0000001c setlocale
00033e8c g     O .rwdata	00000004 _impure_ptr
0003616c g     O .bss	00000004 alt_argc
000219e4 g     F .text	00000070 MipiBridgeRegRead
00026b3c g     F .text	00000208 __sflush_r
00030564 g     F .text	0000005c _do_dtors
00027c70 g     F .text	00000008 __locale_cjk_lang
00033e74 g     O .rwdata	00000002 video_w
00020020 g       .exceptions	00000000 alt_irq_entry
00028cac g     F .text	00000060 __ulp
00027158 g     F .text	00000018 __fp_unlock_all
00033e98 g     O .rwdata	00000008 alt_fs_list
000202e4 g     F .text	00000058 Read32_Data
000208a4 g     F .text	000001cc OC_I2C_Read
00020020 g       *ABS*	00000000 __ram_exceptions_start
00027ca0 g     F .text	0000000c localeconv
000305f0 g     F .text	00000050 alt_ic_isr_register
00033ec0 g       *ABS*	00000000 _edata
000362b0 g       *ABS*	00000000 _end
00020240 g       *ABS*	00000000 __ram_exceptions_end
0002fb2c g     F .text	000000ec altera_avalon_jtag_uart_ioctl
000306e0 g     F .text	000000a4 alt_ic_irq_disable
00029924 g     F .text	0000007c __swrite
00033e84 g     O .rwdata	00000004 __malloc_trim_threshold
00020a70 g     F .text	00000138 OC_I2C_Read_Continue
00027c64 g     F .text	0000000c __locale_msgcharset
00031020 g     F .text	00000038 exit
00033e7e g     O .rwdata	00000001 focus_th
00027b08 g     F .text	000000c4 _fwalk_reent
00028b14 g     F .text	00000198 __mdiff
00022500 g     F .text	0000005c .hidden __modsi3
000386a0 g       *ABS*	00000000 __alt_data_end
00020020 g     F .exceptions	00000000 alt_exception
00027134 g     F .text	00000004 __sfp_lock_release
000214a0 g     F .text	00000088 mipi_show_error_info
00022218 g     F .text	00000030 QUEUE_Delete
00020db8 g     F .text	00000280 OC_I2CL_Read
0003137c g     F .text	00000034 _exit
00030138 g     F .text	00000140 alt_alarm_start
00027cac g     F .text	000001b8 __smakebuf_r
00022ff8 g     F .text	00000098 strlen
00030b14 g     F .text	00000158 open
0002d5a0 g     F .text	000000e0 .hidden __gedf2
00033e94 g     O .rwdata	00000004 __wctomb
00029ba4 g     F .text	00000018 __sprint_r
000305c0 g     F .text	00000030 alt_icache_flush_all
00033ebc g     O .rwdata	00000004 alt_priority_mask
00033e78 g     O .rwdata	00000002 focus_width
00030640 g     F .text	000000a0 alt_ic_irq_enable
00024fe0 g     F .text	00000024 __vfprintf_internal
0002b808 g     F .text	0000005c _wctomb_r
0002169c g     F .text	00000088 MIPI_Init
0002de84 g     F .text	000008d0 .hidden __subdf3
0002853c g     F .text	000000b0 __lo0bits
00033eb4 g     O .rwdata	00000008 alt_alarm_list
00030508 g     F .text	0000005c _do_ctors
0002b718 g     F .text	000000c0 wcrtomb
0002ea04 g     F .text	000000d0 close
00021c94 g     F .text	0000007c OV8865_read_AF
0002ed58 g     F .text	00000080 alt_load
0002b4bc g     F .text	0000005c fputwc
00022580 g     F .text	00000014 free
00027138 g     F .text	00000004 __sinit_lock_acquire
000282b0 g     F .text	00000120 __multadd
00028288 g     F .text	00000028 _Bfree



Disassembly of section .entry:

00020000 <__reset>:
#if NIOS2_ICACHE_SIZE > 0 && defined(ALT_ALLOW_CODE_AT_RESET) && (!defined(ALT_SIM_OPTIMIZE) || defined(NIOS2_ECC_PRESENT))
    /* Assume the instruction cache size is always a power of two. */
#if NIOS2_ICACHE_SIZE > 0x8000
    movhi r2, %hi(NIOS2_ICACHE_SIZE)
#else
    movui r2, NIOS2_ICACHE_SIZE
   20000:	00840014 	movui	r2,4096
#endif

0:
    initi r2
   20004:	1001483a 	initi	r2
    addi r2, r2, -NIOS2_ICACHE_LINE_SIZE
   20008:	10bff804 	addi	r2,r2,-32
    bgt r2, zero, 0b
   2000c:	00bffd16 	blt	zero,r2,20004 <_gp+0xfffe4190>
 * Jump to the _start entry point in the .text section if reset code
 * is allowed or if optimizing for RTL simulation.
 */
#if defined(ALT_ALLOW_CODE_AT_RESET) || defined(ALT_SIM_OPTIMIZE)
    /* Jump to the _start entry point in the .text section. */
    movhi r1, %hi(_start)
   20010:	004000b4 	movhi	at,2
    ori r1, r1, %lo(_start)
   20014:	08409014 	ori	at,at,576
    jmp r1
   20018:	0800683a 	jmp	at
   2001c:	00000000 	call	0 <__reset-0x20000>

Disassembly of section .exceptions:

00020020 <alt_exception>:

#else /* ALT_EXCEPTION_STACK disabled */
        /* 
         * Reserve space on normal stack for registers about to be pushed.
         */
        addi  sp, sp, -76
   20020:	deffed04 	addi	sp,sp,-76
         * documentation for details).
         *
         * Leave a gap in the stack frame at 4(sp) for the muldiv handler to
         * store zero into.
         */
        stw   ra,  0(sp)
   20024:	dfc00015 	stw	ra,0(sp)
        stw   r1,   8(sp)
   20028:	d8400215 	stw	at,8(sp)
        stw   r2,  12(sp)
   2002c:	d8800315 	stw	r2,12(sp)
        stw   r3,  16(sp)
   20030:	d8c00415 	stw	r3,16(sp)
        stw   r4,  20(sp)
   20034:	d9000515 	stw	r4,20(sp)
        stw   r5,  24(sp)
   20038:	d9400615 	stw	r5,24(sp)
        stw   r6,  28(sp)
   2003c:	d9800715 	stw	r6,28(sp)
        stw   r7,  32(sp)
   20040:	d9c00815 	stw	r7,32(sp)
        rdctl r5, estatus   /* Read early to avoid usage stall */
   20044:	000b307a 	rdctl	r5,estatus
        stw   r8,  36(sp)
   20048:	da000915 	stw	r8,36(sp)
        stw   r9,  40(sp)
   2004c:	da400a15 	stw	r9,40(sp)
        stw   r10, 44(sp)
   20050:	da800b15 	stw	r10,44(sp)
        stw   r11, 48(sp)
   20054:	dac00c15 	stw	r11,48(sp)
        stw   r12, 52(sp)
   20058:	db000d15 	stw	r12,52(sp)
        stw   r13, 56(sp)
   2005c:	db400e15 	stw	r13,56(sp)
        stw   r14, 60(sp)
   20060:	db800f15 	stw	r14,60(sp)
        stw   r15, 64(sp)
   20064:	dbc01015 	stw	r15,64(sp)
        /*
         * ea-4 contains the address of the instruction being executed
         * when the exception occured. For interrupt exceptions, we will
         * will be re-issue the isntruction. Store it in 72(sp)
         */
        stw   r5,  68(sp)  /* estatus */
   20068:	d9401115 	stw	r5,68(sp)
        addi  r15, ea, -4  /* instruction that caused exception */
   2006c:	ebffff04 	addi	r15,ea,-4
        stw   r15,  72(sp)
   20070:	dbc01215 	stw	r15,72(sp)
#else
        /*
         * Test to see if the exception was a software exception or caused 
         * by an external interrupt, and vector accordingly.
         */
        rdctl r4, ipending
   20074:	0009313a 	rdctl	r4,ipending
        andi  r2, r5, 1
   20078:	2880004c 	andi	r2,r5,1
        beq   r2, zero, .Lnot_irq
   2007c:	10000326 	beq	r2,zero,2008c <alt_exception+0x6c>
        beq   r4, zero, .Lnot_irq
   20080:	20000226 	beq	r4,zero,2008c <alt_exception+0x6c>
        /*
         * Now that all necessary registers have been preserved, call 
         * alt_irq_handler() to process the interrupts.
         */

        call alt_irq_handler
   20084:	00200fc0 	call	200fc <alt_irq_handler>

        .section .exceptions.irqreturn, "xa"

        br    .Lexception_exit
   20088:	00000706 	br	200a8 <alt_exception+0x88>
         * upon completion, so we write ea (address of instruction *after*
         * the one where the exception occured) into 72(sp). The actual
         * instruction that caused the exception is written in r2, which these
         * handlers will utilize.
         */
        stw   ea,  72(sp)  /* Don't re-issue */
   2008c:	df401215 	stw	ea,72(sp)
        ldhu.n  r2, 0(r4)
        ldhu.n  r3, 2(r4)
        slli.n  r3, r3, 16
        or.n    r2, r2, r3 /* Instruction that caused exception */
#else
        ldw   r2, -4(ea)   /* Instruction that caused exception */
   20090:	e8bfff17 	ldw	r2,-4(ea)
         * debugger is present) or go into an infinite loop since the
         * handling behavior is undefined; in that case we will not return here.
         */

        /* Load exception-causing address as first argument (r4) */
        addi   r4, ea, -4
   20094:	e93fff04 	addi	r4,ea,-4

        /* Call the instruction-exception entry */
        call   alt_instruction_exception_entry
   20098:	00201cc0 	call	201cc <alt_instruction_exception_entry>
         * instruction
         *
         * Return code was 0: Skip. The instruction after the exception is
         * already stored in 72(sp).
         */
        bne   r2, r0, .Lexception_exit
   2009c:	1000021e 	bne	r2,zero,200a8 <alt_exception+0x88>

        /*
         * Otherwise, modify 72(sp) to re-issue the instruction that caused the
         * exception.
         */
        addi  r15, ea, -4  /* instruction that caused exception */
   200a0:	ebffff04 	addi	r15,ea,-4
        stw   r15,  72(sp)
   200a4:	dbc01215 	stw	r15,72(sp)
        /* 
         * Restore the saved registers, so that all general purpose registers 
         * have been restored to their state at the time the interrupt occured.
         */

        ldw   r5,  68(sp)
   200a8:	d9401117 	ldw	r5,68(sp)
        ldw   ea,  72(sp)  /* This becomes the PC once eret is executed */
   200ac:	df401217 	ldw	ea,72(sp)
        ldw   ra,   0(sp)
   200b0:	dfc00017 	ldw	ra,0(sp)

        wrctl estatus, r5
   200b4:	2801707a 	wrctl	estatus,r5

        ldw   r1,   8(sp)
   200b8:	d8400217 	ldw	at,8(sp)
        ldw   r2,  12(sp)
   200bc:	d8800317 	ldw	r2,12(sp)
        ldw   r3,  16(sp)
   200c0:	d8c00417 	ldw	r3,16(sp)
        ldw   r4,  20(sp)
   200c4:	d9000517 	ldw	r4,20(sp)
        ldw   r5,  24(sp)
   200c8:	d9400617 	ldw	r5,24(sp)
        ldw   r6,  28(sp)
   200cc:	d9800717 	ldw	r6,28(sp)
        ldw   r7,  32(sp)
   200d0:	d9c00817 	ldw	r7,32(sp)

#if defined(ALT_EXCEPTION_STACK) && defined(ALT_STACK_CHECK)
        ldw   et, %gprel(alt_exception_old_stack_limit)(gp)
#endif

        ldw   r8,  36(sp)
   200d4:	da000917 	ldw	r8,36(sp)
        ldw   r9,  40(sp)
   200d8:	da400a17 	ldw	r9,40(sp)
        ldw   r10, 44(sp)
   200dc:	da800b17 	ldw	r10,44(sp)
        ldw   r11, 48(sp)
   200e0:	dac00c17 	ldw	r11,48(sp)
        ldw   r12, 52(sp)
   200e4:	db000d17 	ldw	r12,52(sp)
        ldw   r13, 56(sp)
   200e8:	db400e17 	ldw	r13,56(sp)
        ldw   r14, 60(sp)
   200ec:	db800f17 	ldw	r14,60(sp)
        ldw   r15, 64(sp)
   200f0:	dbc01017 	ldw	r15,64(sp)
        stw   et, %gprel(alt_stack_limit_value)(gp)
        stw   zero, %gprel(alt_exception_old_stack_limit)(gp)
#endif /* ALT_STACK_CHECK */
        ldw   sp,  76(sp)
#else /* ALT_EXCEPTION_STACK disabled */
        addi  sp, sp, 76
   200f4:	dec01304 	addi	sp,sp,76

        /*
         * Return to the interrupted instruction.
         */

        eret
   200f8:	ef80083a 	eret

000200fc <alt_irq_handler>:
 * instruction is present if the macro ALT_CI_INTERRUPT_VECTOR defined.
 */

void alt_irq_handler (void) __attribute__ ((section (".exceptions")));
void alt_irq_handler (void)
{
   200fc:	defff904 	addi	sp,sp,-28
   20100:	dfc00615 	stw	ra,24(sp)
   20104:	df000515 	stw	fp,20(sp)
   20108:	df000504 	addi	fp,sp,20
  
  /*
   * Notify the operating system that we are at interrupt level.
   */ 
  
  ALT_OS_INT_ENTER();
   2010c:	0001883a 	nop
#ifndef NIOS2_EIC_PRESENT
static ALT_INLINE alt_u32 ALT_ALWAYS_INLINE alt_irq_pending (void)
{
  alt_u32 active;

  NIOS2_READ_IPENDING (active);
   20110:	0005313a 	rdctl	r2,ipending
   20114:	e0bffe15 	stw	r2,-8(fp)

  return active;
   20118:	e0bffe17 	ldw	r2,-8(fp)
   * Consider the case where the high priority interupt is asserted during
   * the interrupt entry sequence for a lower priority interrupt to see why
   * this is the case.
   */

  active = alt_irq_pending ();
   2011c:	e0bffb15 	stw	r2,-20(fp)

  do
  {
    i = 0;
   20120:	e03ffd15 	stw	zero,-12(fp)
    mask = 1;
   20124:	00800044 	movi	r2,1
   20128:	e0bffc15 	stw	r2,-16(fp)
     * called to clear the interrupt condition.
     */

    do
    {
      if (active & mask)
   2012c:	e0fffb17 	ldw	r3,-20(fp)
   20130:	e0bffc17 	ldw	r2,-16(fp)
   20134:	1884703a 	and	r2,r3,r2
   20138:	10001426 	beq	r2,zero,2018c <alt_irq_handler+0x90>
      { 
#ifdef ALT_ENHANCED_INTERRUPT_API_PRESENT
        alt_irq[i].handler(alt_irq[i].context); 
   2013c:	008000f4 	movhi	r2,3
   20140:	10986c04 	addi	r2,r2,25008
   20144:	e0fffd17 	ldw	r3,-12(fp)
   20148:	180690fa 	slli	r3,r3,3
   2014c:	10c5883a 	add	r2,r2,r3
   20150:	10c00017 	ldw	r3,0(r2)
   20154:	008000f4 	movhi	r2,3
   20158:	10986c04 	addi	r2,r2,25008
   2015c:	e13ffd17 	ldw	r4,-12(fp)
   20160:	200890fa 	slli	r4,r4,3
   20164:	21000104 	addi	r4,r4,4
   20168:	1105883a 	add	r2,r2,r4
   2016c:	10800017 	ldw	r2,0(r2)
   20170:	1009883a 	mov	r4,r2
   20174:	183ee83a 	callr	r3
#else
        alt_irq[i].handler(alt_irq[i].context, i); 
#endif
        break;
   20178:	0001883a 	nop
#ifndef NIOS2_EIC_PRESENT
static ALT_INLINE alt_u32 ALT_ALWAYS_INLINE alt_irq_pending (void)
{
  alt_u32 active;

  NIOS2_READ_IPENDING (active);
   2017c:	0005313a 	rdctl	r2,ipending
   20180:	e0bfff15 	stw	r2,-4(fp)

  return active;
   20184:	e0bfff17 	ldw	r2,-4(fp)
   20188:	00000706 	br	201a8 <alt_irq_handler+0xac>
      }
      mask <<= 1;
   2018c:	e0bffc17 	ldw	r2,-16(fp)
   20190:	1085883a 	add	r2,r2,r2
   20194:	e0bffc15 	stw	r2,-16(fp)
      i++;
   20198:	e0bffd17 	ldw	r2,-12(fp)
   2019c:	10800044 	addi	r2,r2,1
   201a0:	e0bffd15 	stw	r2,-12(fp)

    } while (1);
   201a4:	003fe106 	br	2012c <_gp+0xfffe42b8>

    active = alt_irq_pending ();
   201a8:	e0bffb15 	stw	r2,-20(fp)
    
  } while (active);
   201ac:	e0bffb17 	ldw	r2,-20(fp)
   201b0:	103fdb1e 	bne	r2,zero,20120 <_gp+0xfffe42ac>

  /*
   * Notify the operating system that interrupt processing is complete.
   */ 

  ALT_OS_INT_EXIT();
   201b4:	0001883a 	nop
}
   201b8:	e037883a 	mov	sp,fp
   201bc:	dfc00117 	ldw	ra,4(sp)
   201c0:	df000017 	ldw	fp,0(sp)
   201c4:	dec00204 	addi	sp,sp,8
   201c8:	f800283a 	ret

000201cc <alt_instruction_exception_entry>:
 * that handler if it has been registered. Absent a handler, it will
 * break break or hang as discussed below.
 */
int 
alt_instruction_exception_entry (alt_u32 exception_pc)
{
   201cc:	defffb04 	addi	sp,sp,-20
   201d0:	dfc00415 	stw	ra,16(sp)
   201d4:	df000315 	stw	fp,12(sp)
   201d8:	df000304 	addi	fp,sp,12
   201dc:	e13fff15 	stw	r4,-4(fp)
 * NIOS2_EXCEPTION_CAUSE_NOT_PRESENT. Your handling routine should
 * check the validity of the cause argument before proceeding.
 */
#ifdef NIOS2_HAS_EXTRA_EXCEPTION_INFO
  /* Get exception cause & "badaddr" */
  NIOS2_READ_EXCEPTION(cause);
   201e0:	000531fa 	rdctl	r2,exception
   201e4:	e0bffd15 	stw	r2,-12(fp)
  cause = ( (cause & NIOS2_EXCEPTION_REG_CAUSE_MASK) >>
   201e8:	e0bffd17 	ldw	r2,-12(fp)
   201ec:	10801f0c 	andi	r2,r2,124
   201f0:	1004d0ba 	srli	r2,r2,2
   201f4:	e0bffd15 	stw	r2,-12(fp)
              NIOS2_EXCEPTION_REG_CAUSE_OFST );

  NIOS2_READ_BADADDR(badaddr);
   201f8:	0005333a 	rdctl	r2,badaddr
   201fc:	e0bffe15 	stw	r2,-8(fp)
#else
  cause = NIOS2_EXCEPTION_CAUSE_NOT_PRESENT;
  badaddr = 0;
#endif /* NIOS2_HAS_EXTRA_EXCEPTION_INFO */

  if(alt_instruction_exception_handler) {
   20200:	d0a8c417 	ldw	r2,-23792(gp)
   20204:	10000726 	beq	r2,zero,20224 <alt_instruction_exception_entry+0x58>
     * Call handler. Its return value indicates whether the exception-causing
     * instruction should be re-issued. The code that called us,
     * alt_eceptions_entry.S, will look at this value and adjust the ea
     * register as necessary
     */
    return alt_instruction_exception_handler(cause, exception_pc, badaddr);
   20208:	d0a8c417 	ldw	r2,-23792(gp)
   2020c:	e0fffd17 	ldw	r3,-12(fp)
   20210:	1809883a 	mov	r4,r3
   20214:	e17fff17 	ldw	r5,-4(fp)
   20218:	e1bffe17 	ldw	r6,-8(fp)
   2021c:	103ee83a 	callr	r2
   20220:	00000206 	br	2022c <alt_instruction_exception_entry+0x60>
   *    (a peripheral which negates its interrupt output before its
   *    interrupt handler has been executed will cause spurious interrupts)
   */
  else {
#ifdef NIOS2_HAS_DEBUG_STUB
    NIOS2_BREAK();
   20224:	003da03a 	break	0
      ;
#endif /* NIOS2_HAS_DEBUG_STUB */
  }

  /* We should not get here. Remove compiler warning. */
  return NIOS2_EXCEPTION_RETURN_REISSUE_INST;
   20228:	0005883a 	mov	r2,zero
}
   2022c:	e037883a 	mov	sp,fp
   20230:	dfc00117 	ldw	ra,4(sp)
   20234:	df000017 	ldw	fp,0(sp)
   20238:	dec00204 	addi	sp,sp,8
   2023c:	f800283a 	ret

Disassembly of section .text:

00020240 <_start>:

    /* Assume the data cache size is always a power of two. */
#if NIOS2_DCACHE_SIZE > 0x8000
    movhi r2, %hi(NIOS2_DCACHE_SIZE)
#else
    movui r2, NIOS2_DCACHE_SIZE
   20240:	00820014 	movui	r2,2048
#endif

0:
    initd 0(r2)
   20244:	10000033 	initd	0(r2)
#ifdef NIOS2_ECC_PRESENT
    addi r2, r2, -4
#else
    addi r2, r2, -NIOS2_DCACHE_LINE_SIZE
   20248:	10bff804 	addi	r2,r2,-32
#endif
    bgt r2, zero, 0b
   2024c:	00bffd16 	blt	zero,r2,20244 <_gp+0xfffe43d0>

    /*
     * Now that the caches are initialized, set up the stack pointer and global pointer.
     * The values provided by the linker are assumed to be correctly aligned.
     */
    movhi sp, %hi(__alt_stack_pointer)
   20250:	06c000f4 	movhi	sp,3
    ori sp, sp, %lo(__alt_stack_pointer)
   20254:	dee1a814 	ori	sp,sp,34464
    movhi gp, %hi(_gp)
   20258:	068000f4 	movhi	gp,3
    ori gp, gp, %lo(_gp)
   2025c:	d6af9d14 	ori	gp,gp,48756
 */
#ifndef ALT_SIM_OPTIMIZE
    /* Log that the BSS is about to be cleared. */
    ALT_LOG_PUTS(alt_log_msg_bss)

    movhi r2, %hi(__bss_start)
   20260:	008000f4 	movhi	r2,3
    ori r2, r2, %lo(__bss_start)
   20264:	10985414 	ori	r2,r2,24912

    movhi r3, %hi(__bss_end)
   20268:	00c000f4 	movhi	r3,3
    ori r3, r3, %lo(__bss_end)
   2026c:	18d8ac14 	ori	r3,r3,25264

    beq r2, r3, 1f
   20270:	10c00326 	beq	r2,r3,20280 <_start+0x40>

0:
    stw zero, (r2)
   20274:	10000015 	stw	zero,0(r2)
    addi r2, r2, 4
   20278:	10800104 	addi	r2,r2,4
    bltu r2, r3, 0b
   2027c:	10fffd36 	bltu	r2,r3,20274 <_gp+0xfffe4400>
     * section aren't defined until alt_load() has been called).
     */
    mov   et, zero
#endif

    call alt_load
   20280:	002ed580 	call	2ed58 <alt_load>

    /* Log that alt_main is about to be called. */
    ALT_LOG_PUTS(alt_log_msg_alt_main)

    /* Call the C entry point. It should never return. */
    call alt_main
   20284:	002eefc0 	call	2eefc <alt_main>

00020288 <alt_after_alt_main>:

    /* Wait in infinite loop in case alt_main does return. */
alt_after_alt_main:
    br alt_after_alt_main
   20288:	003fff06 	br	20288 <_gp+0xfffe4414>

0002028c <Write32_Data>:
#define SLEEP_TIME 250  //us
#define ACK_SLEEP_TIME 250 //us
#define TRUE 1
#define FALSE 0

bool Write32_Data(alt_32 base_address, alt_32 offset_address, alt_32 Data){
   2028c:	defffb04 	addi	sp,sp,-20
   20290:	df000415 	stw	fp,16(sp)
   20294:	df000404 	addi	fp,sp,16
   20298:	e13ffd15 	stw	r4,-12(fp)
   2029c:	e17ffe15 	stw	r5,-8(fp)
   202a0:	e1bfff15 	stw	r6,-4(fp)
	bool bPass;
    IOWR(base_address, offset_address,Data);
   202a4:	e0bffe17 	ldw	r2,-8(fp)
   202a8:	1085883a 	add	r2,r2,r2
   202ac:	1085883a 	add	r2,r2,r2
   202b0:	1007883a 	mov	r3,r2
   202b4:	e0bffd17 	ldw	r2,-12(fp)
   202b8:	1885883a 	add	r2,r3,r2
   202bc:	1007883a 	mov	r3,r2
   202c0:	e0bfff17 	ldw	r2,-4(fp)
   202c4:	18800035 	stwio	r2,0(r3)
    bPass=TRUE;
   202c8:	00800044 	movi	r2,1
   202cc:	e0bffc15 	stw	r2,-16(fp)
    return bPass;
   202d0:	e0bffc17 	ldw	r2,-16(fp)
}
   202d4:	e037883a 	mov	sp,fp
   202d8:	df000017 	ldw	fp,0(sp)
   202dc:	dec00104 	addi	sp,sp,4
   202e0:	f800283a 	ret

000202e4 <Read32_Data>:



bool  Read32_Data(alt_32 base_address, alt_32 offset_address, alt_32 *pData32){
   202e4:	defffb04 	addi	sp,sp,-20
   202e8:	df000415 	stw	fp,16(sp)
   202ec:	df000404 	addi	fp,sp,16
   202f0:	e13ffd15 	stw	r4,-12(fp)
   202f4:	e17ffe15 	stw	r5,-8(fp)
   202f8:	e1bfff15 	stw	r6,-4(fp)
	bool bPass;
	*pData32 =IORD(base_address ,offset_address  );
   202fc:	e0bffe17 	ldw	r2,-8(fp)
   20300:	1085883a 	add	r2,r2,r2
   20304:	1085883a 	add	r2,r2,r2
   20308:	1007883a 	mov	r3,r2
   2030c:	e0bffd17 	ldw	r2,-12(fp)
   20310:	1885883a 	add	r2,r3,r2
   20314:	10c00037 	ldwio	r3,0(r2)
   20318:	e0bfff17 	ldw	r2,-4(fp)
   2031c:	10c00015 	stw	r3,0(r2)
	bPass=TRUE;
   20320:	00800044 	movi	r2,1
   20324:	e0bffc15 	stw	r2,-16(fp)
    return bPass;
   20328:	e0bffc17 	ldw	r2,-16(fp)
}
   2032c:	e037883a 	mov	sp,fp
   20330:	df000017 	ldw	fp,0(sp)
   20334:	dec00104 	addi	sp,sp,4
   20338:	f800283a 	ret

0002033c <oc_i2c_init>:

bool oc_i2c_init(alt_32 i2c_base){
   2033c:	defffa04 	addi	sp,sp,-24
   20340:	dfc00515 	stw	ra,20(sp)
   20344:	df000415 	stw	fp,16(sp)
   20348:	df000404 	addi	fp,sp,16
   2034c:	e13fff15 	stw	r4,-4(fp)
	bool bSuccess;
	const alt_32 ref_clk = 50*1000*1000; // 50MHz
   20350:	0080bef4 	movhi	r2,763
   20354:	10bc2004 	addi	r2,r2,-3968
   20358:	e0bffc15 	stw	r2,-16(fp)
	const alt_32 i2c_clk = 400*1000; // 400KHz
   2035c:	008001b4 	movhi	r2,6
   20360:	1086a004 	addi	r2,r2,6784
   20364:	e0bffd15 	stw	r2,-12(fp)

	bSuccess = oc_i2c_init_ex(i2c_base, ref_clk, i2c_clk);
   20368:	e13fff17 	ldw	r4,-4(fp)
   2036c:	e17ffc17 	ldw	r5,-16(fp)
   20370:	e1bffd17 	ldw	r6,-12(fp)
   20374:	00203940 	call	20394 <oc_i2c_init_ex>
   20378:	e0bffe15 	stw	r2,-8(fp)

	return bSuccess;
   2037c:	e0bffe17 	ldw	r2,-8(fp)
}
   20380:	e037883a 	mov	sp,fp
   20384:	dfc00117 	ldw	ra,4(sp)
   20388:	df000017 	ldw	fp,0(sp)
   2038c:	dec00204 	addi	sp,sp,8
   20390:	f800283a 	ret

00020394 <oc_i2c_init_ex>:

bool  oc_i2c_init_ex(alt_32 i2c_base, alt_32 ref_clk, alt_32 i2c_clk)
{
   20394:	defff604 	addi	sp,sp,-40
   20398:	dfc00915 	stw	ra,36(sp)
   2039c:	df000815 	stw	fp,32(sp)
   203a0:	df000804 	addi	fp,sp,32
   203a4:	e13ffd15 	stw	r4,-12(fp)
   203a8:	e17ffe15 	stw	r5,-8(fp)
   203ac:	e1bfff15 	stw	r6,-4(fp)
	bool bSuccess=TRUE;
   203b0:	00800044 	movi	r2,1
   203b4:	e0bff815 	stw	r2,-32(fp)
	alt_32 read_data;
	alt_32 prescale;
	alt_u8 prescale_high;
	alt_u8 prescale_low;
	const alt_u8 ControlValue = 0x80;
   203b8:	00bfe004 	movi	r2,-128
   203bc:	e0bff905 	stb	r2,-28(fp)

    // I2c sysclock =50M hz
	// i2c scl max 400k
	//scl =sysclock/(prescale*5)
	prescale = (ref_clk/(5*i2c_clk))-1;
   203c0:	e0bfff17 	ldw	r2,-4(fp)
   203c4:	10800164 	muli	r2,r2,5
   203c8:	e13ffe17 	ldw	r4,-8(fp)
   203cc:	100b883a 	mov	r5,r2
   203d0:	00224ac0 	call	224ac <__divsi3>
   203d4:	10bfffc4 	addi	r2,r2,-1
   203d8:	e0bffa15 	stw	r2,-24(fp)
	prescale_low = prescale & 0xFF;
   203dc:	e0bffa17 	ldw	r2,-24(fp)
   203e0:	e0bffb05 	stb	r2,-20(fp)
	prescale_high = (prescale >> 8) & 0xFF;
   203e4:	e0bffa17 	ldw	r2,-24(fp)
   203e8:	1005d23a 	srai	r2,r2,8
   203ec:	e0bffb45 	stb	r2,-19(fp)

   IOWR(i2c_base, 0, prescale_low);//write low byte of  prescale (reg 0)
   203f0:	e0bffd17 	ldw	r2,-12(fp)
   203f4:	e0fffb03 	ldbu	r3,-20(fp)
   203f8:	10c00035 	stwio	r3,0(r2)
   IOWR(i2c_base, 1, prescale_high);//write high byte of prescale (reg 1)
   203fc:	e0bffd17 	ldw	r2,-12(fp)
   20400:	10800104 	addi	r2,r2,4
   20404:	1007883a 	mov	r3,r2
   20408:	e0bffb43 	ldbu	r2,-19(fp)
   2040c:	18800035 	stwio	r2,0(r3)

   //enable the I2C core, but disable the IRQ
   IOWR( i2c_base, 2, ControlValue);
   20410:	e0bffd17 	ldw	r2,-12(fp)
   20414:	10800204 	addi	r2,r2,8
   20418:	1007883a 	mov	r3,r2
   2041c:	e0bff903 	ldbu	r2,-28(fp)
   20420:	18800035 	stwio	r2,0(r3)


    // check prescale low byte
    if (bSuccess){
   20424:	e0bff817 	ldw	r2,-32(fp)
   20428:	10000826 	beq	r2,zero,2044c <oc_i2c_init_ex+0xb8>
    	read_data =IORD(i2c_base, 0);
   2042c:	e0bffd17 	ldw	r2,-12(fp)
   20430:	10800037 	ldwio	r2,0(r2)
   20434:	e0bffc15 	stw	r2,-16(fp)
        if( (read_data & 0x00ff) != prescale_low ){
   20438:	e0bffc17 	ldw	r2,-16(fp)
   2043c:	10c03fcc 	andi	r3,r2,255
   20440:	e0bffb03 	ldbu	r2,-20(fp)
   20444:	18800126 	beq	r3,r2,2044c <oc_i2c_init_ex+0xb8>
            bSuccess = FALSE;
   20448:	e03ff815 	stw	zero,-32(fp)
        }
    }

    // check prescale high byte
    if (bSuccess){
   2044c:	e0bff817 	ldw	r2,-32(fp)
   20450:	10000926 	beq	r2,zero,20478 <oc_i2c_init_ex+0xe4>
    	read_data =IORD(i2c_base, 1);
   20454:	e0bffd17 	ldw	r2,-12(fp)
   20458:	10800104 	addi	r2,r2,4
   2045c:	10800037 	ldwio	r2,0(r2)
   20460:	e0bffc15 	stw	r2,-16(fp)
        if( (read_data & 0x00ff) != prescale_high ){
   20464:	e0bffc17 	ldw	r2,-16(fp)
   20468:	10c03fcc 	andi	r3,r2,255
   2046c:	e0bffb43 	ldbu	r2,-19(fp)
   20470:	18800126 	beq	r3,r2,20478 <oc_i2c_init_ex+0xe4>
            bSuccess = FALSE;
   20474:	e03ff815 	stw	zero,-32(fp)
        }
    }

    // check control
    if (bSuccess){
   20478:	e0bff817 	ldw	r2,-32(fp)
   2047c:	10000926 	beq	r2,zero,204a4 <oc_i2c_init_ex+0x110>
    	read_data =IORD(i2c_base, 2);
   20480:	e0bffd17 	ldw	r2,-12(fp)
   20484:	10800204 	addi	r2,r2,8
   20488:	10800037 	ldwio	r2,0(r2)
   2048c:	e0bffc15 	stw	r2,-16(fp)
        if( (read_data & 0x00ff) != ControlValue ){
   20490:	e0bffc17 	ldw	r2,-16(fp)
   20494:	10c03fcc 	andi	r3,r2,255
   20498:	e0bff903 	ldbu	r2,-28(fp)
   2049c:	18800126 	beq	r3,r2,204a4 <oc_i2c_init_ex+0x110>
            bSuccess = FALSE;
   204a0:	e03ff815 	stw	zero,-32(fp)
        }
    }

   if (bSuccess){
   204a4:	e0bff817 	ldw	r2,-32(fp)
   204a8:	1000031e 	bne	r2,zero,204b8 <oc_i2c_init_ex+0x124>
//       printf("\nI2C core is enabled! \r\n");
   }
   else
       printf("\nI2C core is not enabled successfully! \r\n");
   204ac:	010000f4 	movhi	r4,3
   204b0:	2104ec04 	addi	r4,r4,5040
   204b4:	0022f900 	call	22f90 <puts>

   return bSuccess;
   204b8:	e0bff817 	ldw	r2,-32(fp)

}
   204bc:	e037883a 	mov	sp,fp
   204c0:	dfc00117 	ldw	ra,4(sp)
   204c4:	df000017 	ldw	fp,0(sp)
   204c8:	dec00204 	addi	sp,sp,8
   204cc:	f800283a 	ret

000204d0 <oc_i2c_uninit>:

bool oc_i2c_uninit(alt_32 i2c_base)
{
   204d0:	defffa04 	addi	sp,sp,-24
   204d4:	dfc00515 	stw	ra,20(sp)
   204d8:	df000415 	stw	fp,16(sp)
   204dc:	df000404 	addi	fp,sp,16
   204e0:	e13fff15 	stw	r4,-4(fp)
	bool bSuccess=TRUE;
   204e4:	00800044 	movi	r2,1
   204e8:	e0bffc15 	stw	r2,-16(fp)
	alt_32 read_data;
	const alt_u8 ControlValue = 0x00;
   204ec:	e03ffd05 	stb	zero,-12(fp)

    IOWR( i2c_base, 2, ControlValue);
   204f0:	e0bfff17 	ldw	r2,-4(fp)
   204f4:	10800204 	addi	r2,r2,8
   204f8:	1007883a 	mov	r3,r2
   204fc:	e0bffd03 	ldbu	r2,-12(fp)
   20500:	18800035 	stwio	r2,0(r3)
   	read_data =IORD(i2c_base, 2);
   20504:	e0bfff17 	ldw	r2,-4(fp)
   20508:	10800204 	addi	r2,r2,8
   2050c:	10800037 	ldwio	r2,0(r2)
   20510:	e0bffe15 	stw	r2,-8(fp)
	if( (read_data & 0x00ff) != ControlValue ){
   20514:	e0bffe17 	ldw	r2,-8(fp)
   20518:	10c03fcc 	andi	r3,r2,255
   2051c:	e0bffd03 	ldbu	r2,-12(fp)
   20520:	18800126 	beq	r3,r2,20528 <oc_i2c_uninit+0x58>
            bSuccess = FALSE;
   20524:	e03ffc15 	stw	zero,-16(fp)
    }

   if (bSuccess){
   20528:	e0bffc17 	ldw	r2,-16(fp)
   2052c:	1000031e 	bne	r2,zero,2053c <oc_i2c_uninit+0x6c>
//       printf("\I2C core  is disabled! \r\n");
   }
   else
       printf("\I2C core is failed to disable! \r\n");
   20530:	010000f4 	movhi	r4,3
   20534:	2104f704 	addi	r4,r4,5084
   20538:	0022f900 	call	22f90 <puts>

   return bSuccess;
   2053c:	e0bffc17 	ldw	r2,-16(fp)

}
   20540:	e037883a 	mov	sp,fp
   20544:	dfc00117 	ldw	ra,4(sp)
   20548:	df000017 	ldw	fp,0(sp)
   2054c:	dec00204 	addi	sp,sp,8
   20550:	f800283a 	ret

00020554 <ACK_single_check>:




bool  ACK_single_check(alt_32 i2c_base)
{
   20554:	defffb04 	addi	sp,sp,-20
   20558:	dfc00415 	stw	ra,16(sp)
   2055c:	df000315 	stw	fp,12(sp)
   20560:	df000304 	addi	fp,sp,12
   20564:	e13fff15 	stw	r4,-4(fp)
	bool bSuccess=TRUE;
   20568:	00800044 	movi	r2,1
   2056c:	e0bffd15 	stw	r2,-12(fp)
	alt_32 read_data;

    usleep(ACK_SLEEP_TIME);
   20570:	01003e84 	movi	r4,250
   20574:	002f3ac0 	call	2f3ac <usleep>
    read_data =IORD(i2c_base, 4);
   20578:	e0bfff17 	ldw	r2,-4(fp)
   2057c:	10800404 	addi	r2,r2,16
   20580:	10800037 	ldwio	r2,0(r2)
   20584:	e0bffe15 	stw	r2,-8(fp)
    if(read_data & 0x02)
   20588:	e0bffe17 	ldw	r2,-8(fp)
   2058c:	1080008c 	andi	r2,r2,2
   20590:	10000126 	beq	r2,zero,20598 <ACK_single_check+0x44>
            bSuccess = FALSE;
   20594:	e03ffd15 	stw	zero,-12(fp)
     if (bSuccess){
   20598:	e0bffd17 	ldw	r2,-12(fp)
   2059c:	10000a26 	beq	r2,zero,205c8 <ACK_single_check+0x74>
            usleep(ACK_SLEEP_TIME);
   205a0:	01003e84 	movi	r4,250
   205a4:	002f3ac0 	call	2f3ac <usleep>
            read_data =IORD(i2c_base, 4);
   205a8:	e0bfff17 	ldw	r2,-4(fp)
   205ac:	10800404 	addi	r2,r2,16
   205b0:	10800037 	ldwio	r2,0(r2)
   205b4:	e0bffe15 	stw	r2,-8(fp)
                if(read_data & 0x80)
   205b8:	e0bffe17 	ldw	r2,-8(fp)
   205bc:	1080200c 	andi	r2,r2,128
   205c0:	10000126 	beq	r2,zero,205c8 <ACK_single_check+0x74>
                    bSuccess = FALSE;
   205c4:	e03ffd15 	stw	zero,-12(fp)
     }
    return bSuccess;
   205c8:	e0bffd17 	ldw	r2,-12(fp)
}
   205cc:	e037883a 	mov	sp,fp
   205d0:	dfc00117 	ldw	ra,4(sp)
   205d4:	df000017 	ldw	fp,0(sp)
   205d8:	dec00204 	addi	sp,sp,8
   205dc:	f800283a 	ret

000205e0 <ACK_check>:


bool  ACK_check(alt_32 i2c_base){
   205e0:	defffb04 	addi	sp,sp,-20
   205e4:	dfc00415 	stw	ra,16(sp)
   205e8:	df000315 	stw	fp,12(sp)
   205ec:	df000304 	addi	fp,sp,12
   205f0:	e13fff15 	stw	r4,-4(fp)
    bool bSuccess = FALSE;
   205f4:	e03ffd15 	stw	zero,-12(fp)
    int i=0;
   205f8:	e03ffe15 	stw	zero,-8(fp)

    while(!bSuccess && i++ < 10){
   205fc:	00000306 	br	2060c <ACK_check+0x2c>
        bSuccess = ACK_single_check(i2c_base);
   20600:	e13fff17 	ldw	r4,-4(fp)
   20604:	00205540 	call	20554 <ACK_single_check>
   20608:	e0bffd15 	stw	r2,-12(fp)

bool  ACK_check(alt_32 i2c_base){
    bool bSuccess = FALSE;
    int i=0;

    while(!bSuccess && i++ < 10){
   2060c:	e0bffd17 	ldw	r2,-12(fp)
   20610:	1000051e 	bne	r2,zero,20628 <ACK_check+0x48>
   20614:	e0bffe17 	ldw	r2,-8(fp)
   20618:	10c00044 	addi	r3,r2,1
   2061c:	e0fffe15 	stw	r3,-8(fp)
   20620:	10800290 	cmplti	r2,r2,10
   20624:	103ff61e 	bne	r2,zero,20600 <_gp+0xfffe478c>
        bSuccess = ACK_single_check(i2c_base);
    }

    return bSuccess;
   20628:	e0bffd17 	ldw	r2,-12(fp)
}
   2062c:	e037883a 	mov	sp,fp
   20630:	dfc00117 	ldw	ra,4(sp)
   20634:	df000017 	ldw	fp,0(sp)
   20638:	dec00204 	addi	sp,sp,8
   2063c:	f800283a 	ret

00020640 <OC_I2C_Write>:

bool  OC_I2C_Write(alt_32 i2c_base,alt_u8 device_address,alt_u8 sub_address, alt_u8 *pData, int nWriteLength)
{
   20640:	defff904 	addi	sp,sp,-28
   20644:	dfc00615 	stw	ra,24(sp)
   20648:	df000515 	stw	fp,20(sp)
   2064c:	df000504 	addi	fp,sp,20
   20650:	e13ffc15 	stw	r4,-16(fp)
   20654:	2807883a 	mov	r3,r5
   20658:	3005883a 	mov	r2,r6
   2065c:	e1ffff15 	stw	r7,-4(fp)
   20660:	e0fffd05 	stb	r3,-12(fp)
   20664:	e0bffe05 	stb	r2,-8(fp)
    //DWORD reg_data = 0x0;
    int i;

   //set the tx reg audio chip dev address with write bit
   if (!Write32_Data( i2c_base, 3,device_address)){
   20668:	e0bffd03 	ldbu	r2,-12(fp)
   2066c:	e13ffc17 	ldw	r4,-16(fp)
   20670:	014000c4 	movi	r5,3
   20674:	100d883a 	mov	r6,r2
   20678:	002028c0 	call	2028c <Write32_Data>
   2067c:	1000051e 	bne	r2,zero,20694 <OC_I2C_Write+0x54>
       printf("OC_I2C_Write error[0]\r\n");
   20680:	010000f4 	movhi	r4,3
   20684:	21050004 	addi	r4,r4,5120
   20688:	0022f900 	call	22f90 <puts>
       return FALSE;
   2068c:	0005883a 	mov	r2,zero
   20690:	00006606 	br	2082c <OC_I2C_Write+0x1ec>
   }
   //set STA and WR bits(bit7 and bit4)
   if (!Write32_Data( i2c_base, 4,0x90)){
   20694:	e13ffc17 	ldw	r4,-16(fp)
   20698:	01400104 	movi	r5,4
   2069c:	01802404 	movi	r6,144
   206a0:	002028c0 	call	2028c <Write32_Data>
   206a4:	1000051e 	bne	r2,zero,206bc <OC_I2C_Write+0x7c>
       printf("OC_I2C_Write error[1]\r\n");
   206a8:	010000f4 	movhi	r4,3
   206ac:	21050604 	addi	r4,r4,5144
   206b0:	0022f900 	call	22f90 <puts>
       return FALSE;
   206b4:	0005883a 	mov	r2,zero
   206b8:	00005c06 	br	2082c <OC_I2C_Write+0x1ec>
   }

   //wait TIP bit go to 0 to end Tx
    if(!ACK_check( i2c_base)){
   206bc:	e13ffc17 	ldw	r4,-16(fp)
   206c0:	00205e00 	call	205e0 <ACK_check>
   206c4:	1000051e 	bne	r2,zero,206dc <OC_I2C_Write+0x9c>
        printf("OC_I2C_Write error[2]\r\n");
   206c8:	010000f4 	movhi	r4,3
   206cc:	21050c04 	addi	r4,r4,5168
   206d0:	0022f900 	call	22f90 <puts>
        return FALSE;
   206d4:	0005883a 	mov	r2,zero
   206d8:	00005406 	br	2082c <OC_I2C_Write+0x1ec>
    }
  // printf("\n receive ACK-device address! \n");

   //set the txr reg data with reg address + 1 data MSB
   if (!Write32_Data( i2c_base, 3,sub_address)){
   206dc:	e0bffe03 	ldbu	r2,-8(fp)
   206e0:	e13ffc17 	ldw	r4,-16(fp)
   206e4:	014000c4 	movi	r5,3
   206e8:	100d883a 	mov	r6,r2
   206ec:	002028c0 	call	2028c <Write32_Data>
   206f0:	1000051e 	bne	r2,zero,20708 <OC_I2C_Write+0xc8>
       printf("OC_I2C_Write error[3]\r\n");
   206f4:	010000f4 	movhi	r4,3
   206f8:	21051204 	addi	r4,r4,5192
   206fc:	0022f900 	call	22f90 <puts>
       return FALSE;
   20700:	0005883a 	mov	r2,zero
   20704:	00004906 	br	2082c <OC_I2C_Write+0x1ec>
   }

   //set WR bits(bit4)
    if (!Write32_Data( i2c_base, 4,0x10)){
   20708:	e13ffc17 	ldw	r4,-16(fp)
   2070c:	01400104 	movi	r5,4
   20710:	01800404 	movi	r6,16
   20714:	002028c0 	call	2028c <Write32_Data>
   20718:	1000051e 	bne	r2,zero,20730 <OC_I2C_Write+0xf0>
        printf("OC_I2C_Write error[4]\r\n");
   2071c:	010000f4 	movhi	r4,3
   20720:	21051804 	addi	r4,r4,5216
   20724:	0022f900 	call	22f90 <puts>
        return FALSE;
   20728:	0005883a 	mov	r2,zero
   2072c:	00003f06 	br	2082c <OC_I2C_Write+0x1ec>
    }

   //wait TIP bit go to 0 to end Tx
    if(!ACK_check( i2c_base)){
   20730:	e13ffc17 	ldw	r4,-16(fp)
   20734:	00205e00 	call	205e0 <ACK_check>
   20738:	1000051e 	bne	r2,zero,20750 <OC_I2C_Write+0x110>
        printf("OC_I2C_Write error[5]\r\n");
   2073c:	010000f4 	movhi	r4,3
   20740:	21051e04 	addi	r4,r4,5240
   20744:	0022f900 	call	22f90 <puts>
        return FALSE;
   20748:	0005883a 	mov	r2,zero
   2074c:	00003706 	br	2082c <OC_I2C_Write+0x1ec>
    }
 //  printf("\n receive ACK-reg address! \n");

#if 1
        for( i=nWriteLength-1;i>=0;i--){
   20750:	e0800217 	ldw	r2,8(fp)
   20754:	10bfffc4 	addi	r2,r2,-1
   20758:	e0bffb15 	stw	r2,-20(fp)
   2075c:	00002406 	br	207f0 <OC_I2C_Write+0x1b0>
        //set the txr reg data with the data
          if (!Write32_Data( i2c_base, 3,*(pData+i))){
   20760:	e0bffb17 	ldw	r2,-20(fp)
   20764:	e0ffff17 	ldw	r3,-4(fp)
   20768:	1885883a 	add	r2,r3,r2
   2076c:	10800003 	ldbu	r2,0(r2)
   20770:	10803fcc 	andi	r2,r2,255
   20774:	e13ffc17 	ldw	r4,-16(fp)
   20778:	014000c4 	movi	r5,3
   2077c:	100d883a 	mov	r6,r2
   20780:	002028c0 	call	2028c <Write32_Data>
   20784:	1000051e 	bne	r2,zero,2079c <OC_I2C_Write+0x15c>
              printf("OC_I2C_Write error[6]\r\n");
   20788:	010000f4 	movhi	r4,3
   2078c:	21052404 	addi	r4,r4,5264
   20790:	0022f900 	call	22f90 <puts>
              return FALSE;
   20794:	0005883a 	mov	r2,zero
   20798:	00002406 	br	2082c <OC_I2C_Write+0x1ec>
          }

        //set STO and WR bits(bit7 and bit4)
         if (!Write32_Data( i2c_base, 4,0x10)){
   2079c:	e13ffc17 	ldw	r4,-16(fp)
   207a0:	01400104 	movi	r5,4
   207a4:	01800404 	movi	r6,16
   207a8:	002028c0 	call	2028c <Write32_Data>
   207ac:	1000051e 	bne	r2,zero,207c4 <OC_I2C_Write+0x184>
             printf("OC_I2C_Write error[7]\r\n");
   207b0:	010000f4 	movhi	r4,3
   207b4:	21052a04 	addi	r4,r4,5288
   207b8:	0022f900 	call	22f90 <puts>
              return FALSE;
   207bc:	0005883a 	mov	r2,zero
   207c0:	00001a06 	br	2082c <OC_I2C_Write+0x1ec>
         }

         //wait TIP bit go to 0 to end Tx
          if(!ACK_check( i2c_base)){
   207c4:	e13ffc17 	ldw	r4,-16(fp)
   207c8:	00205e00 	call	205e0 <ACK_check>
   207cc:	1000051e 	bne	r2,zero,207e4 <OC_I2C_Write+0x1a4>
              printf("OC_I2C_Write error[8]\r\n");
   207d0:	010000f4 	movhi	r4,3
   207d4:	21053004 	addi	r4,r4,5312
   207d8:	0022f900 	call	22f90 <puts>
              return FALSE;
   207dc:	0005883a 	mov	r2,zero
   207e0:	00001206 	br	2082c <OC_I2C_Write+0x1ec>
        return FALSE;
    }
 //  printf("\n receive ACK-reg address! \n");

#if 1
        for( i=nWriteLength-1;i>=0;i--){
   207e4:	e0bffb17 	ldw	r2,-20(fp)
   207e8:	10bfffc4 	addi	r2,r2,-1
   207ec:	e0bffb15 	stw	r2,-20(fp)
   207f0:	e0bffb17 	ldw	r2,-20(fp)
   207f4:	103fda0e 	bge	r2,zero,20760 <_gp+0xfffe48ec>
   //wait TIP bit go to 0 to end Tx
    if(!ACK_check( i2c_base))
        return false;
#endif

     if (!Write32_Data( i2c_base, 4,0x40)){
   207f8:	e13ffc17 	ldw	r4,-16(fp)
   207fc:	01400104 	movi	r5,4
   20800:	01801004 	movi	r6,64
   20804:	002028c0 	call	2028c <Write32_Data>
   20808:	1000051e 	bne	r2,zero,20820 <OC_I2C_Write+0x1e0>
         printf("OC_I2C_Write error[9]\r\n");
   2080c:	010000f4 	movhi	r4,3
   20810:	21053604 	addi	r4,r4,5336
   20814:	0022f900 	call	22f90 <puts>
         return FALSE;
   20818:	0005883a 	mov	r2,zero
   2081c:	00000306 	br	2082c <OC_I2C_Write+0x1ec>
     }
         //Sleep(10);
     //OS_msleep(1);
     usleep(SLEEP_TIME);
   20820:	01003e84 	movi	r4,250
   20824:	002f3ac0 	call	2f3ac <usleep>

  // printf("\n receive ACK-data! \n");

     return TRUE;
   20828:	00800044 	movi	r2,1

}
   2082c:	e037883a 	mov	sp,fp
   20830:	dfc00117 	ldw	ra,4(sp)
   20834:	df000017 	ldw	fp,0(sp)
   20838:	dec00204 	addi	sp,sp,8
   2083c:	f800283a 	ret

00020840 <ACK_judge_for_read>:


bool ACK_judge_for_read(alt_32 i2c_base)
{
   20840:	defffb04 	addi	sp,sp,-20
   20844:	dfc00415 	stw	ra,16(sp)
   20848:	df000315 	stw	fp,12(sp)
   2084c:	df000304 	addi	fp,sp,12
   20850:	e13fff15 	stw	r4,-4(fp)
	bool bSuccess;
    alt_32 this_data;

   // OS_msleep( SLEEP_TIME );
     usleep(ACK_SLEEP_TIME);
   20854:	01003e84 	movi	r4,250
   20858:	002f3ac0 	call	2f3ac <usleep>
    //   while(this_data & 0x02)
//   {
//      this_data =  Read32_Data ( hPCIe, i2c_base, 4);
//   }
    bSuccess =  Read32_Data ( i2c_base, 4, &this_data);
   2085c:	e0bffe04 	addi	r2,fp,-8
   20860:	e13fff17 	ldw	r4,-4(fp)
   20864:	01400104 	movi	r5,4
   20868:	100d883a 	mov	r6,r2
   2086c:	00202e40 	call	202e4 <Read32_Data>
   20870:	e0bffd15 	stw	r2,-12(fp)
    if (bSuccess){
   20874:	e0bffd17 	ldw	r2,-12(fp)
   20878:	10000426 	beq	r2,zero,2088c <ACK_judge_for_read+0x4c>
        if(this_data & 0x02)
   2087c:	e0bffe17 	ldw	r2,-8(fp)
   20880:	1080008c 	andi	r2,r2,2
   20884:	10000126 	beq	r2,zero,2088c <ACK_judge_for_read+0x4c>
            bSuccess = FALSE;
   20888:	e03ffd15 	stw	zero,-12(fp)
    }
   //wait the rx ACK signal 0-valid

    return bSuccess;
   2088c:	e0bffd17 	ldw	r2,-12(fp)

}
   20890:	e037883a 	mov	sp,fp
   20894:	dfc00117 	ldw	ra,4(sp)
   20898:	df000017 	ldw	fp,0(sp)
   2089c:	dec00204 	addi	sp,sp,8
   208a0:	f800283a 	ret

000208a4 <OC_I2C_Read>:

bool  OC_I2C_Read(alt_32 i2c_base,alt_u8 device_address,alt_u8 sub_address, alt_u8 *pData8, int nReadLength){
   208a4:	defff804 	addi	sp,sp,-32
   208a8:	dfc00715 	stw	ra,28(sp)
   208ac:	df000615 	stw	fp,24(sp)
   208b0:	df000604 	addi	fp,sp,24
   208b4:	e13ffc15 	stw	r4,-16(fp)
   208b8:	2807883a 	mov	r3,r5
   208bc:	3005883a 	mov	r2,r6
   208c0:	e1ffff15 	stw	r7,-4(fp)
   208c4:	e0fffd05 	stb	r3,-12(fp)
   208c8:	e0bffe05 	stb	r2,-8(fp)
    //BYTE data = 0x0;
    alt_32 Data32;
    int i;

   //set the tx reg audio chip dev address with write bit
   IOWR( i2c_base, 3,device_address);
   208cc:	e0bffc17 	ldw	r2,-16(fp)
   208d0:	10800304 	addi	r2,r2,12
   208d4:	1007883a 	mov	r3,r2
   208d8:	e0bffd03 	ldbu	r2,-12(fp)
   208dc:	18800035 	stwio	r2,0(r3)
   //set STA and WR bits(bit7 and bit4)
   IOWR( i2c_base, 4,0x90);
   208e0:	e0bffc17 	ldw	r2,-16(fp)
   208e4:	10800404 	addi	r2,r2,16
   208e8:	1007883a 	mov	r3,r2
   208ec:	00802404 	movi	r2,144
   208f0:	18800035 	stwio	r2,0(r3)
   //wait TIP bit go to 0 to end Tx
   if (!ACK_check( i2c_base)){
   208f4:	e13ffc17 	ldw	r4,-16(fp)
   208f8:	00205e00 	call	205e0 <ACK_check>
   208fc:	1000051e 	bne	r2,zero,20914 <OC_I2C_Read+0x70>
       printf("OC_I2C_Read error[2]\r\n");
   20900:	010000f4 	movhi	r4,3
   20904:	21053c04 	addi	r4,r4,5360
   20908:	0022f900 	call	22f90 <puts>
       return FALSE;
   2090c:	0005883a 	mov	r2,zero
   20910:	00005206 	br	20a5c <OC_I2C_Read+0x1b8>
   }
   IOWR(i2c_base, 3,sub_address);
   20914:	e0bffc17 	ldw	r2,-16(fp)
   20918:	10800304 	addi	r2,r2,12
   2091c:	1007883a 	mov	r3,r2
   20920:	e0bffe03 	ldbu	r2,-8(fp)
   20924:	18800035 	stwio	r2,0(r3)

   //set WR bits(bit4)
   IOWR( i2c_base, 4,0x10);
   20928:	e0bffc17 	ldw	r2,-16(fp)
   2092c:	10800404 	addi	r2,r2,16
   20930:	1007883a 	mov	r3,r2
   20934:	00800404 	movi	r2,16
   20938:	18800035 	stwio	r2,0(r3)
   //wait TIP bit go to 0 to end Tx
    if (!ACK_check( i2c_base)){
   2093c:	e13ffc17 	ldw	r4,-16(fp)
   20940:	00205e00 	call	205e0 <ACK_check>
   20944:	1000051e 	bne	r2,zero,2095c <OC_I2C_Read+0xb8>
        printf("OC_I2C_Read error[5]\r\n");
   20948:	010000f4 	movhi	r4,3
   2094c:	21054204 	addi	r4,r4,5384
   20950:	0022f900 	call	22f90 <puts>
        return FALSE;
   20954:	0005883a 	mov	r2,zero
   20958:	00004006 	br	20a5c <OC_I2C_Read+0x1b8>
  // printf("\n read receive ACK-reg address! \n");

   //read
    //set the tx reg audio chip dev address with read bit 1

    IOWR(i2c_base, 3,device_address|0x01);
   2095c:	e0bffc17 	ldw	r2,-16(fp)
   20960:	10800304 	addi	r2,r2,12
   20964:	1007883a 	mov	r3,r2
   20968:	e0bffd03 	ldbu	r2,-12(fp)
   2096c:	10800054 	ori	r2,r2,1
   20970:	10803fcc 	andi	r2,r2,255
   20974:	18800035 	stwio	r2,0(r3)

   //set STA and WR bits(bit7 and bit4)
    IOWR( i2c_base, 4,0x90);
   20978:	e0bffc17 	ldw	r2,-16(fp)
   2097c:	10800404 	addi	r2,r2,16
   20980:	1007883a 	mov	r3,r2
   20984:	00802404 	movi	r2,144
   20988:	18800035 	stwio	r2,0(r3)

   //wait TIP bit go to 0 to end Tx
    if (!ACK_check( i2c_base)){
   2098c:	e13ffc17 	ldw	r4,-16(fp)
   20990:	00205e00 	call	205e0 <ACK_check>
   20994:	1000051e 	bne	r2,zero,209ac <OC_I2C_Read+0x108>
        printf("OC_I2C_Read error[8]\r\n");
   20998:	010000f4 	movhi	r4,3
   2099c:	21054804 	addi	r4,r4,5408
   209a0:	0022f900 	call	22f90 <puts>
        return FALSE;
   209a4:	0005883a 	mov	r2,zero
   209a8:	00002c06 	br	20a5c <OC_I2C_Read+0x1b8>
    }

    for(i=0;i<nReadLength;i++){
   209ac:	e03ffa15 	stw	zero,-24(fp)
   209b0:	00001f06 	br	20a30 <OC_I2C_Read+0x18c>
  // printf("\n read receive ACK-device address(read)! \n");
   //set the RD and ACK bit(bit5 and bit3)
    	IOWR( i2c_base, 4,((i+1) == nReadLength)?0x28:0x20);
   209b4:	e0bffc17 	ldw	r2,-16(fp)
   209b8:	10800404 	addi	r2,r2,16
   209bc:	1009883a 	mov	r4,r2
   209c0:	e0bffa17 	ldw	r2,-24(fp)
   209c4:	10c00044 	addi	r3,r2,1
   209c8:	e0800217 	ldw	r2,8(fp)
   209cc:	1880021e 	bne	r3,r2,209d8 <OC_I2C_Read+0x134>
   209d0:	00800a04 	movi	r2,40
   209d4:	00000106 	br	209dc <OC_I2C_Read+0x138>
   209d8:	00800804 	movi	r2,32
   209dc:	20800035 	stwio	r2,0(r4)

        if (!ACK_judge_for_read( i2c_base)){
   209e0:	e13ffc17 	ldw	r4,-16(fp)
   209e4:	00208400 	call	20840 <ACK_judge_for_read>
   209e8:	1000051e 	bne	r2,zero,20a00 <OC_I2C_Read+0x15c>
            printf("OC_I2C_Read error[10]\r\n");
   209ec:	010000f4 	movhi	r4,3
   209f0:	21054e04 	addi	r4,r4,5432
   209f4:	0022f900 	call	22f90 <puts>
            return FALSE;
   209f8:	0005883a 	mov	r2,zero
   209fc:	00001706 	br	20a5c <OC_I2C_Read+0x1b8>
        }
   // printf("\n read receive ACK-device address(read)! \n");

        Data32=IORD( i2c_base, 3);
   20a00:	e0bffc17 	ldw	r2,-16(fp)
   20a04:	10800304 	addi	r2,r2,12
   20a08:	10800037 	ldwio	r2,0(r2)
   20a0c:	e0bffb15 	stw	r2,-20(fp)
        *(pData8+i) =  Data32 & 0xff;
   20a10:	e0bffa17 	ldw	r2,-24(fp)
   20a14:	e0ffff17 	ldw	r3,-4(fp)
   20a18:	1885883a 	add	r2,r3,r2
   20a1c:	e0fffb17 	ldw	r3,-20(fp)
   20a20:	10c00005 	stb	r3,0(r2)
    if (!ACK_check( i2c_base)){
        printf("OC_I2C_Read error[8]\r\n");
        return FALSE;
    }

    for(i=0;i<nReadLength;i++){
   20a24:	e0bffa17 	ldw	r2,-24(fp)
   20a28:	10800044 	addi	r2,r2,1
   20a2c:	e0bffa15 	stw	r2,-24(fp)
   20a30:	e0fffa17 	ldw	r3,-24(fp)
   20a34:	e0800217 	ldw	r2,8(fp)
   20a38:	18bfde16 	blt	r3,r2,209b4 <_gp+0xfffe4b40>

        Data32=IORD( i2c_base, 3);
        *(pData8+i) =  Data32 & 0xff;
    }

    IOWR( i2c_base, 4,0x40);
   20a3c:	e0bffc17 	ldw	r2,-16(fp)
   20a40:	10800404 	addi	r2,r2,16
   20a44:	1007883a 	mov	r3,r2
   20a48:	00801004 	movi	r2,64
   20a4c:	18800035 	stwio	r2,0(r3)

  // Sleep(10);
   //OS_msleep(1);
    usleep(SLEEP_TIME);
   20a50:	01003e84 	movi	r4,250
   20a54:	002f3ac0 	call	2f3ac <usleep>
 //  printf(" Read  [%02X] = %02Xh\r\n", sub_address, data);


   return TRUE;
   20a58:	00800044 	movi	r2,1

}
   20a5c:	e037883a 	mov	sp,fp
   20a60:	dfc00117 	ldw	ra,4(sp)
   20a64:	df000017 	ldw	fp,0(sp)
   20a68:	dec00204 	addi	sp,sp,8
   20a6c:	f800283a 	ret

00020a70 <OC_I2C_Read_Continue>:


bool  OC_I2C_Read_Continue(alt_32 i2c_base,alt_u8 device_address, alt_u8 *pData8, int nReadLength){
   20a70:	defff804 	addi	sp,sp,-32
   20a74:	dfc00715 	stw	ra,28(sp)
   20a78:	df000615 	stw	fp,24(sp)
   20a7c:	df000604 	addi	fp,sp,24
   20a80:	e13ffc15 	stw	r4,-16(fp)
   20a84:	2805883a 	mov	r2,r5
   20a88:	e1bffe15 	stw	r6,-8(fp)
   20a8c:	e1ffff15 	stw	r7,-4(fp)
   20a90:	e0bffd05 	stb	r2,-12(fp)
	int i;
	alt_u32 Data32;

    IOWR(i2c_base, 3,device_address|0x01);
   20a94:	e0bffc17 	ldw	r2,-16(fp)
   20a98:	10800304 	addi	r2,r2,12
   20a9c:	1007883a 	mov	r3,r2
   20aa0:	e0bffd03 	ldbu	r2,-12(fp)
   20aa4:	10800054 	ori	r2,r2,1
   20aa8:	10803fcc 	andi	r2,r2,255
   20aac:	18800035 	stwio	r2,0(r3)

   //set STA and WR bits(bit7 and bit4)
    IOWR( i2c_base, 4,0x90);
   20ab0:	e0bffc17 	ldw	r2,-16(fp)
   20ab4:	10800404 	addi	r2,r2,16
   20ab8:	1007883a 	mov	r3,r2
   20abc:	00802404 	movi	r2,144
   20ac0:	18800035 	stwio	r2,0(r3)
//usleep(5*1000);
   //wait TIP bit go to 0 to end Tx
    if (!ACK_check( i2c_base)){
   20ac4:	e13ffc17 	ldw	r4,-16(fp)
   20ac8:	00205e00 	call	205e0 <ACK_check>
   20acc:	1000051e 	bne	r2,zero,20ae4 <OC_I2C_Read_Continue+0x74>
        printf("OC_I2C_Read error[8]\r\n");
   20ad0:	010000f4 	movhi	r4,3
   20ad4:	21054804 	addi	r4,r4,5408
   20ad8:	0022f900 	call	22f90 <puts>
        return FALSE;
   20adc:	0005883a 	mov	r2,zero
   20ae0:	00002c06 	br	20b94 <OC_I2C_Read_Continue+0x124>
    }

    for(i=0;i<nReadLength;i++){
   20ae4:	e03ffa15 	stw	zero,-24(fp)
   20ae8:	00001f06 	br	20b68 <OC_I2C_Read_Continue+0xf8>
  // printf("\n read receive ACK-device address(read)! \n");
   //set the RD and ACK bit(bit5 and bit3)
    	IOWR( i2c_base, 4,((i+1) == nReadLength)?0x28:0x20);
   20aec:	e0bffc17 	ldw	r2,-16(fp)
   20af0:	10800404 	addi	r2,r2,16
   20af4:	1009883a 	mov	r4,r2
   20af8:	e0bffa17 	ldw	r2,-24(fp)
   20afc:	10c00044 	addi	r3,r2,1
   20b00:	e0bfff17 	ldw	r2,-4(fp)
   20b04:	1880021e 	bne	r3,r2,20b10 <OC_I2C_Read_Continue+0xa0>
   20b08:	00800a04 	movi	r2,40
   20b0c:	00000106 	br	20b14 <OC_I2C_Read_Continue+0xa4>
   20b10:	00800804 	movi	r2,32
   20b14:	20800035 	stwio	r2,0(r4)

        if (!ACK_judge_for_read( i2c_base)){
   20b18:	e13ffc17 	ldw	r4,-16(fp)
   20b1c:	00208400 	call	20840 <ACK_judge_for_read>
   20b20:	1000051e 	bne	r2,zero,20b38 <OC_I2C_Read_Continue+0xc8>
            printf("OC_I2C_Read error[10]\r\n");
   20b24:	010000f4 	movhi	r4,3
   20b28:	21054e04 	addi	r4,r4,5432
   20b2c:	0022f900 	call	22f90 <puts>
            return FALSE;
   20b30:	0005883a 	mov	r2,zero
   20b34:	00001706 	br	20b94 <OC_I2C_Read_Continue+0x124>
        }
   // printf("\n read receive ACK-device address(read)! \n");

        Data32=IORD( i2c_base, 3);
   20b38:	e0bffc17 	ldw	r2,-16(fp)
   20b3c:	10800304 	addi	r2,r2,12
   20b40:	10800037 	ldwio	r2,0(r2)
   20b44:	e0bffb15 	stw	r2,-20(fp)
        *(pData8+i) =  Data32 & 0xff;
   20b48:	e0bffa17 	ldw	r2,-24(fp)
   20b4c:	e0fffe17 	ldw	r3,-8(fp)
   20b50:	1885883a 	add	r2,r3,r2
   20b54:	e0fffb17 	ldw	r3,-20(fp)
   20b58:	10c00005 	stb	r3,0(r2)
    if (!ACK_check( i2c_base)){
        printf("OC_I2C_Read error[8]\r\n");
        return FALSE;
    }

    for(i=0;i<nReadLength;i++){
   20b5c:	e0bffa17 	ldw	r2,-24(fp)
   20b60:	10800044 	addi	r2,r2,1
   20b64:	e0bffa15 	stw	r2,-24(fp)
   20b68:	e0fffa17 	ldw	r3,-24(fp)
   20b6c:	e0bfff17 	ldw	r2,-4(fp)
   20b70:	18bfde16 	blt	r3,r2,20aec <_gp+0xfffe4c78>

        Data32=IORD( i2c_base, 3);
        *(pData8+i) =  Data32 & 0xff;
    }

    IOWR( i2c_base, 4,0x40);
   20b74:	e0bffc17 	ldw	r2,-16(fp)
   20b78:	10800404 	addi	r2,r2,16
   20b7c:	1007883a 	mov	r3,r2
   20b80:	00801004 	movi	r2,64
   20b84:	18800035 	stwio	r2,0(r3)

  // Sleep(10);
   //OS_msleep(1);
    usleep(SLEEP_TIME);
   20b88:	01003e84 	movi	r4,250
   20b8c:	002f3ac0 	call	2f3ac <usleep>
 //  printf(" Read  [%02X] = %02Xh\r\n", sub_address, data);


   return TRUE;
   20b90:	00800044 	movi	r2,1

}
   20b94:	e037883a 	mov	sp,fp
   20b98:	dfc00117 	ldw	ra,4(sp)
   20b9c:	df000017 	ldw	fp,0(sp)
   20ba0:	dec00204 	addi	sp,sp,8
   20ba4:	f800283a 	ret

00020ba8 <OC_I2CL_Write>:


//  size > 2Kb
bool  OC_I2CL_Write(alt_32 i2c_base,alt_u8 device_address,alt_u16 sub_address,alt_u8 *pData, int nWriteLength)
    {
   20ba8:	defff804 	addi	sp,sp,-32
   20bac:	dfc00715 	stw	ra,28(sp)
   20bb0:	df000615 	stw	fp,24(sp)
   20bb4:	df000604 	addi	fp,sp,24
   20bb8:	e13ffc15 	stw	r4,-16(fp)
   20bbc:	2807883a 	mov	r3,r5
   20bc0:	3005883a 	mov	r2,r6
   20bc4:	e1ffff15 	stw	r7,-4(fp)
   20bc8:	e0fffd05 	stb	r3,-12(fp)
   20bcc:	e0bffe0d 	sth	r2,-8(fp)
    //DWORD reg_data = 0x0;
	alt_u8 AddrHigh, AddrLow;
    //int count= 0;

    AddrHigh = (sub_address >> 8) & 0xFF;
   20bd0:	e0bffe0b 	ldhu	r2,-8(fp)
   20bd4:	1004d23a 	srli	r2,r2,8
   20bd8:	e0bffb05 	stb	r2,-20(fp)
    AddrLow  = sub_address & 0xFF;
   20bdc:	e0bffe0b 	ldhu	r2,-8(fp)
   20be0:	e0bffb45 	stb	r2,-19(fp)

    int i;

    //set the tx reg audio chip dev address with write bit
   if (!Write32_Data( i2c_base, 3,device_address))
   20be4:	e0bffd03 	ldbu	r2,-12(fp)
   20be8:	e13ffc17 	ldw	r4,-16(fp)
   20bec:	014000c4 	movi	r5,3
   20bf0:	100d883a 	mov	r6,r2
   20bf4:	002028c0 	call	2028c <Write32_Data>
   20bf8:	1000021e 	bne	r2,zero,20c04 <OC_I2CL_Write+0x5c>
       return FALSE;
   20bfc:	0005883a 	mov	r2,zero
   20c00:	00006806 	br	20da4 <OC_I2CL_Write+0x1fc>
   //set STA and WR bits(bit7 and bit4)
   if (!Write32_Data( i2c_base, 4,0x90))//0x90
   20c04:	e13ffc17 	ldw	r4,-16(fp)
   20c08:	01400104 	movi	r5,4
   20c0c:	01802404 	movi	r6,144
   20c10:	002028c0 	call	2028c <Write32_Data>
   20c14:	1000021e 	bne	r2,zero,20c20 <OC_I2CL_Write+0x78>
       return FALSE;
   20c18:	0005883a 	mov	r2,zero
   20c1c:	00006106 	br	20da4 <OC_I2CL_Write+0x1fc>

   //wait TIP bit go to 0 to end Tx
    if(!ACK_check( i2c_base)){
   20c20:	e13ffc17 	ldw	r4,-16(fp)
   20c24:	00205e00 	call	205e0 <ACK_check>
   20c28:	1000051e 	bne	r2,zero,20c40 <OC_I2CL_Write+0x98>
        printf("OC_I2CL_Write error[0]\r\n");
   20c2c:	010000f4 	movhi	r4,3
   20c30:	21055404 	addi	r4,r4,5456
   20c34:	0022f900 	call	22f90 <puts>
        return FALSE;
   20c38:	0005883a 	mov	r2,zero
   20c3c:	00005906 	br	20da4 <OC_I2CL_Write+0x1fc>
  // printf("\n receive ACK-device address! \n");

   //set the txr reg data with reg address + 1 data MSB
 //  reg_data  = (sub_address << 1) & 0xFE;
   //reg_data |= ((data >> 8) & 0x01);
   if (!Write32_Data( i2c_base, 3,AddrHigh))//reg_data&0xff);
   20c40:	e0bffb03 	ldbu	r2,-20(fp)
   20c44:	e13ffc17 	ldw	r4,-16(fp)
   20c48:	014000c4 	movi	r5,3
   20c4c:	100d883a 	mov	r6,r2
   20c50:	002028c0 	call	2028c <Write32_Data>
   20c54:	1000021e 	bne	r2,zero,20c60 <OC_I2CL_Write+0xb8>
       return FALSE;
   20c58:	0005883a 	mov	r2,zero
   20c5c:	00005106 	br	20da4 <OC_I2CL_Write+0x1fc>

   //set WR bits(bit4)
    if (!Write32_Data( i2c_base, 4,0x10))
   20c60:	e13ffc17 	ldw	r4,-16(fp)
   20c64:	01400104 	movi	r5,4
   20c68:	01800404 	movi	r6,16
   20c6c:	002028c0 	call	2028c <Write32_Data>
   20c70:	1000021e 	bne	r2,zero,20c7c <OC_I2CL_Write+0xd4>
        return FALSE;
   20c74:	0005883a 	mov	r2,zero
   20c78:	00004a06 	br	20da4 <OC_I2CL_Write+0x1fc>

   //wait TIP bit go to 0 to end Tx
    if(!ACK_check( i2c_base)){
   20c7c:	e13ffc17 	ldw	r4,-16(fp)
   20c80:	00205e00 	call	205e0 <ACK_check>
   20c84:	1000051e 	bne	r2,zero,20c9c <OC_I2CL_Write+0xf4>
        printf("OC_I2CL_Write error[1]\r\n");
   20c88:	010000f4 	movhi	r4,3
   20c8c:	21055a04 	addi	r4,r4,5480
   20c90:	0022f900 	call	22f90 <puts>
        return FALSE;
   20c94:	0005883a 	mov	r2,zero
   20c98:	00004206 	br	20da4 <OC_I2CL_Write+0x1fc>
    }
  // printf("\n receive ACK-reg high address! \n");

   //set the txr reg data with reg address + 1 data MSB
   if (!Write32_Data( i2c_base, 3,AddrLow))//reg_data&0xff);
   20c9c:	e0bffb43 	ldbu	r2,-19(fp)
   20ca0:	e13ffc17 	ldw	r4,-16(fp)
   20ca4:	014000c4 	movi	r5,3
   20ca8:	100d883a 	mov	r6,r2
   20cac:	002028c0 	call	2028c <Write32_Data>
   20cb0:	1000021e 	bne	r2,zero,20cbc <OC_I2CL_Write+0x114>
       return FALSE;
   20cb4:	0005883a 	mov	r2,zero
   20cb8:	00003a06 	br	20da4 <OC_I2CL_Write+0x1fc>

   //set WR bits(bit4)
    Write32_Data( i2c_base, 4,0x10);
   20cbc:	e13ffc17 	ldw	r4,-16(fp)
   20cc0:	01400104 	movi	r5,4
   20cc4:	01800404 	movi	r6,16
   20cc8:	002028c0 	call	2028c <Write32_Data>

   //wait TIP bit go to 0 to end Tx
    if(!ACK_check( i2c_base)){
   20ccc:	e13ffc17 	ldw	r4,-16(fp)
   20cd0:	00205e00 	call	205e0 <ACK_check>
   20cd4:	1000051e 	bne	r2,zero,20cec <OC_I2CL_Write+0x144>
        printf("OC_I2CL_Write error[2]\r\n");
   20cd8:	010000f4 	movhi	r4,3
   20cdc:	21056004 	addi	r4,r4,5504
   20ce0:	0022f900 	call	22f90 <puts>
        return FALSE;
   20ce4:	0005883a 	mov	r2,zero
   20ce8:	00002e06 	br	20da4 <OC_I2CL_Write+0x1fc>
    }
  //  printf("\n receive ACK-reg low address! \n");

#if 1
    for( i=nWriteLength-1;i>=0;i--){
   20cec:	e0800217 	ldw	r2,8(fp)
   20cf0:	10bfffc4 	addi	r2,r2,-1
   20cf4:	e0bffa15 	stw	r2,-24(fp)
   20cf8:	00001e06 	br	20d74 <OC_I2CL_Write+0x1cc>
        //set the txr reg data with the other data 8 bit LSB
        if (!Write32_Data( i2c_base, 3,*(pData+i)))
   20cfc:	e0bffa17 	ldw	r2,-24(fp)
   20d00:	e0ffff17 	ldw	r3,-4(fp)
   20d04:	1885883a 	add	r2,r3,r2
   20d08:	10800003 	ldbu	r2,0(r2)
   20d0c:	10803fcc 	andi	r2,r2,255
   20d10:	e13ffc17 	ldw	r4,-16(fp)
   20d14:	014000c4 	movi	r5,3
   20d18:	100d883a 	mov	r6,r2
   20d1c:	002028c0 	call	2028c <Write32_Data>
   20d20:	1000021e 	bne	r2,zero,20d2c <OC_I2CL_Write+0x184>
            return FALSE;
   20d24:	0005883a 	mov	r2,zero
   20d28:	00001e06 	br	20da4 <OC_I2CL_Write+0x1fc>

       //set STO and WR bits(bit7 and bit4)
        if (!Write32_Data( i2c_base, 4,0x10))
   20d2c:	e13ffc17 	ldw	r4,-16(fp)
   20d30:	01400104 	movi	r5,4
   20d34:	01800404 	movi	r6,16
   20d38:	002028c0 	call	2028c <Write32_Data>
   20d3c:	1000021e 	bne	r2,zero,20d48 <OC_I2CL_Write+0x1a0>
            return FALSE;
   20d40:	0005883a 	mov	r2,zero
   20d44:	00001706 	br	20da4 <OC_I2CL_Write+0x1fc>

        //wait TIP bit go to 0 to end Tx
         if(!ACK_check( i2c_base)){
   20d48:	e13ffc17 	ldw	r4,-16(fp)
   20d4c:	00205e00 	call	205e0 <ACK_check>
   20d50:	1000051e 	bne	r2,zero,20d68 <OC_I2CL_Write+0x1c0>
             printf("OC_I2CL_Write error[3]\r\n");
   20d54:	010000f4 	movhi	r4,3
   20d58:	21056604 	addi	r4,r4,5528
   20d5c:	0022f900 	call	22f90 <puts>
             return FALSE;
   20d60:	0005883a 	mov	r2,zero
   20d64:	00000f06 	br	20da4 <OC_I2CL_Write+0x1fc>
        return FALSE;
    }
  //  printf("\n receive ACK-reg low address! \n");

#if 1
    for( i=nWriteLength-1;i>=0;i--){
   20d68:	e0bffa17 	ldw	r2,-24(fp)
   20d6c:	10bfffc4 	addi	r2,r2,-1
   20d70:	e0bffa15 	stw	r2,-24(fp)
   20d74:	e0bffa17 	ldw	r2,-24(fp)
   20d78:	103fe00e 	bge	r2,zero,20cfc <_gp+0xfffe4e88>
   //wait TIP bit go to 0 to end Tx
    if(!ACK_check( i2c_base))
        return FALSE;

#endif
    if (!Write32_Data( i2c_base, 4,0x40))
   20d7c:	e13ffc17 	ldw	r4,-16(fp)
   20d80:	01400104 	movi	r5,4
   20d84:	01801004 	movi	r6,64
   20d88:	002028c0 	call	2028c <Write32_Data>
   20d8c:	1000021e 	bne	r2,zero,20d98 <OC_I2CL_Write+0x1f0>
         return FALSE;
   20d90:	0005883a 	mov	r2,zero
   20d94:	00000306 	br	20da4 <OC_I2CL_Write+0x1fc>

     //OS_msleep(1);
      usleep(SLEEP_TIME);
   20d98:	01003e84 	movi	r4,250
   20d9c:	002f3ac0 	call	2f3ac <usleep>
  //  printf("\n receive ACK-data! \n");

     return TRUE;
   20da0:	00800044 	movi	r2,1
}
   20da4:	e037883a 	mov	sp,fp
   20da8:	dfc00117 	ldw	ra,4(sp)
   20dac:	df000017 	ldw	fp,0(sp)
   20db0:	dec00204 	addi	sp,sp,8
   20db4:	f800283a 	ret

00020db8 <OC_I2CL_Read>:

   return TRUE;

} */

bool  OC_I2CL_Read(alt_32 i2c_base,alt_u8 device_address, alt_u16 sub_address, alt_u8 *pData8, int nReadLength){
   20db8:	defff704 	addi	sp,sp,-36
   20dbc:	dfc00815 	stw	ra,32(sp)
   20dc0:	df000715 	stw	fp,28(sp)
   20dc4:	df000704 	addi	fp,sp,28
   20dc8:	e13ffc15 	stw	r4,-16(fp)
   20dcc:	2807883a 	mov	r3,r5
   20dd0:	3005883a 	mov	r2,r6
   20dd4:	e1ffff15 	stw	r7,-4(fp)
   20dd8:	e0fffd05 	stb	r3,-12(fp)
   20ddc:	e0bffe0d 	sth	r2,-8(fp)
    int i;

    alt_u8 AddrHigh, AddrLow;
    alt_u8 DataHigh, DataLow;

    AddrHigh = (sub_address >> 8) & 0xFF;
   20de0:	e0bffe0b 	ldhu	r2,-8(fp)
   20de4:	1004d23a 	srli	r2,r2,8
   20de8:	e0bffa05 	stb	r2,-24(fp)
    AddrLow  = sub_address & 0xFF;
   20dec:	e0bffe0b 	ldhu	r2,-8(fp)
   20df0:	e0bffa45 	stb	r2,-23(fp)


   //set the tx reg audio chip dev address with write bit
   if (!Write32_Data( i2c_base, 3,device_address))
   20df4:	e0bffd03 	ldbu	r2,-12(fp)
   20df8:	e13ffc17 	ldw	r4,-16(fp)
   20dfc:	014000c4 	movi	r5,3
   20e00:	100d883a 	mov	r6,r2
   20e04:	002028c0 	call	2028c <Write32_Data>
   20e08:	1000021e 	bne	r2,zero,20e14 <OC_I2CL_Read+0x5c>
       return FALSE;
   20e0c:	0005883a 	mov	r2,zero
   20e10:	00008406 	br	21024 <OC_I2CL_Read+0x26c>

   //set STA and WR bits(bit7 and bit4)
   if (!Write32_Data( i2c_base, 4,0x90))
   20e14:	e13ffc17 	ldw	r4,-16(fp)
   20e18:	01400104 	movi	r5,4
   20e1c:	01802404 	movi	r6,144
   20e20:	002028c0 	call	2028c <Write32_Data>
   20e24:	1000021e 	bne	r2,zero,20e30 <OC_I2CL_Read+0x78>
       return FALSE;
   20e28:	0005883a 	mov	r2,zero
   20e2c:	00007d06 	br	21024 <OC_I2CL_Read+0x26c>

   //wait TIP bit go to 0 to end Tx
    if(!ACK_check( i2c_base)){
   20e30:	e13ffc17 	ldw	r4,-16(fp)
   20e34:	00205e00 	call	205e0 <ACK_check>
   20e38:	1000051e 	bne	r2,zero,20e50 <OC_I2CL_Read+0x98>
        printf("OC_I2CL_Read error[0]\r\n");
   20e3c:	010000f4 	movhi	r4,3
   20e40:	21056c04 	addi	r4,r4,5552
   20e44:	0022f900 	call	22f90 <puts>
        return FALSE;
   20e48:	0005883a 	mov	r2,zero
   20e4c:	00007506 	br	21024 <OC_I2CL_Read+0x26c>
 //  printf("\n receive ACK-device address! \n");


   //set the txr reg data with reg address + 0

   if (!Write32_Data( i2c_base, 3,AddrHigh))//reg_data&0xff);
   20e50:	e0bffa03 	ldbu	r2,-24(fp)
   20e54:	e13ffc17 	ldw	r4,-16(fp)
   20e58:	014000c4 	movi	r5,3
   20e5c:	100d883a 	mov	r6,r2
   20e60:	002028c0 	call	2028c <Write32_Data>
   20e64:	1000021e 	bne	r2,zero,20e70 <OC_I2CL_Read+0xb8>
       return FALSE;
   20e68:	0005883a 	mov	r2,zero
   20e6c:	00006d06 	br	21024 <OC_I2CL_Read+0x26c>

   //set WR bits(bit4)
    if (!Write32_Data( i2c_base, 4,0x10))
   20e70:	e13ffc17 	ldw	r4,-16(fp)
   20e74:	01400104 	movi	r5,4
   20e78:	01800404 	movi	r6,16
   20e7c:	002028c0 	call	2028c <Write32_Data>
   20e80:	1000021e 	bne	r2,zero,20e8c <OC_I2CL_Read+0xd4>
        return FALSE;
   20e84:	0005883a 	mov	r2,zero
   20e88:	00006606 	br	21024 <OC_I2CL_Read+0x26c>

   //wait TIP bit go to 0 to end Tx
    if(!ACK_check( i2c_base)){
   20e8c:	e13ffc17 	ldw	r4,-16(fp)
   20e90:	00205e00 	call	205e0 <ACK_check>
   20e94:	1000051e 	bne	r2,zero,20eac <OC_I2CL_Read+0xf4>
        printf("OC_I2CL_Read error[1]\r\n");
   20e98:	010000f4 	movhi	r4,3
   20e9c:	21057204 	addi	r4,r4,5576
   20ea0:	0022f900 	call	22f90 <puts>
        return FALSE;
   20ea4:	0005883a 	mov	r2,zero
   20ea8:	00005e06 	br	21024 <OC_I2CL_Read+0x26c>
    }
//   printf("\n read receive ACK-reg High address! \n");

     //set the txr reg data with reg address + 0
   if (!Write32_Data( i2c_base, 3,AddrLow)) //;//reg_data&0xff);
   20eac:	e0bffa43 	ldbu	r2,-23(fp)
   20eb0:	e13ffc17 	ldw	r4,-16(fp)
   20eb4:	014000c4 	movi	r5,3
   20eb8:	100d883a 	mov	r6,r2
   20ebc:	002028c0 	call	2028c <Write32_Data>
   20ec0:	1000021e 	bne	r2,zero,20ecc <OC_I2CL_Read+0x114>
       return FALSE;
   20ec4:	0005883a 	mov	r2,zero
   20ec8:	00005606 	br	21024 <OC_I2CL_Read+0x26c>
   //set WR bits(bit4)
    if (!Write32_Data( i2c_base, 4,0x10))
   20ecc:	e13ffc17 	ldw	r4,-16(fp)
   20ed0:	01400104 	movi	r5,4
   20ed4:	01800404 	movi	r6,16
   20ed8:	002028c0 	call	2028c <Write32_Data>
   20edc:	1000021e 	bne	r2,zero,20ee8 <OC_I2CL_Read+0x130>
        return FALSE;
   20ee0:	0005883a 	mov	r2,zero
   20ee4:	00004f06 	br	21024 <OC_I2CL_Read+0x26c>

   //wait TIP bit go to 0 to end Tx
    if(!ACK_check( i2c_base)){
   20ee8:	e13ffc17 	ldw	r4,-16(fp)
   20eec:	00205e00 	call	205e0 <ACK_check>
   20ef0:	1000051e 	bne	r2,zero,20f08 <OC_I2CL_Read+0x150>
        printf("OC_I2CL_Read error[2]\r\n");
   20ef4:	010000f4 	movhi	r4,3
   20ef8:	21057804 	addi	r4,r4,5600
   20efc:	0022f900 	call	22f90 <puts>
        return FALSE;
   20f00:	0005883a 	mov	r2,zero
   20f04:	00004706 	br	21024 <OC_I2CL_Read+0x26c>

 //  printf("\n read receive ACK-reg Low address! \n");

   //read
    //set the tx reg audio chip dev address with read bit 1
     if (!Write32_Data( i2c_base, 3,device_address|0x01))
   20f08:	e0bffd03 	ldbu	r2,-12(fp)
   20f0c:	10800054 	ori	r2,r2,1
   20f10:	10803fcc 	andi	r2,r2,255
   20f14:	e13ffc17 	ldw	r4,-16(fp)
   20f18:	014000c4 	movi	r5,3
   20f1c:	100d883a 	mov	r6,r2
   20f20:	002028c0 	call	2028c <Write32_Data>
   20f24:	1000021e 	bne	r2,zero,20f30 <OC_I2CL_Read+0x178>
         return FALSE;
   20f28:	0005883a 	mov	r2,zero
   20f2c:	00003d06 	br	21024 <OC_I2CL_Read+0x26c>

   //set STA and WR bits(bit7 and bit4)
     if (!Write32_Data( i2c_base, 4,0x90))
   20f30:	e13ffc17 	ldw	r4,-16(fp)
   20f34:	01400104 	movi	r5,4
   20f38:	01802404 	movi	r6,144
   20f3c:	002028c0 	call	2028c <Write32_Data>
   20f40:	1000021e 	bne	r2,zero,20f4c <OC_I2CL_Read+0x194>
         return FALSE;
   20f44:	0005883a 	mov	r2,zero
   20f48:	00003606 	br	21024 <OC_I2CL_Read+0x26c>

   //wait TIP bit go to 0 to end Tx
    if(!ACK_check( i2c_base)){
   20f4c:	e13ffc17 	ldw	r4,-16(fp)
   20f50:	00205e00 	call	205e0 <ACK_check>
   20f54:	1000051e 	bne	r2,zero,20f6c <OC_I2CL_Read+0x1b4>
        printf("OC_I2CL_Read error[3]\r\n");
   20f58:	010000f4 	movhi	r4,3
   20f5c:	21057e04 	addi	r4,r4,5624
   20f60:	0022f900 	call	22f90 <puts>
        return FALSE;
   20f64:	0005883a 	mov	r2,zero
   20f68:	00002e06 	br	21024 <OC_I2CL_Read+0x26c>
//   printf("\n read receive ACK-device address(read)! \n");

       //read the rxr data

#if 1
    for(i=0;i<nReadLength;i++){
   20f6c:	e03ff915 	stw	zero,-28(fp)
   20f70:	00001f06 	br	20ff0 <OC_I2CL_Read+0x238>
  // printf("\n read receive ACK-device address(read)! \n");
   //set the RD and ACK bit(bit5 and bit3)
    	IOWR( i2c_base, 4,((i+1) == nReadLength)?0x28:0x20);
   20f74:	e0bffc17 	ldw	r2,-16(fp)
   20f78:	10800404 	addi	r2,r2,16
   20f7c:	1009883a 	mov	r4,r2
   20f80:	e0bff917 	ldw	r2,-28(fp)
   20f84:	10c00044 	addi	r3,r2,1
   20f88:	e0800217 	ldw	r2,8(fp)
   20f8c:	1880021e 	bne	r3,r2,20f98 <OC_I2CL_Read+0x1e0>
   20f90:	00800a04 	movi	r2,40
   20f94:	00000106 	br	20f9c <OC_I2CL_Read+0x1e4>
   20f98:	00800804 	movi	r2,32
   20f9c:	20800035 	stwio	r2,0(r4)

        if (!ACK_judge_for_read( i2c_base)){
   20fa0:	e13ffc17 	ldw	r4,-16(fp)
   20fa4:	00208400 	call	20840 <ACK_judge_for_read>
   20fa8:	1000051e 	bne	r2,zero,20fc0 <OC_I2CL_Read+0x208>
            printf("OC_I2CL_Read error[4]\r\n");
   20fac:	010000f4 	movhi	r4,3
   20fb0:	21058404 	addi	r4,r4,5648
   20fb4:	0022f900 	call	22f90 <puts>
            return FALSE;
   20fb8:	0005883a 	mov	r2,zero
   20fbc:	00001906 	br	21024 <OC_I2CL_Read+0x26c>
        }
   // printf("\n read receive ACK-device address(read)! \n");

        Data32=IORD( i2c_base, 3);
   20fc0:	e0bffc17 	ldw	r2,-16(fp)
   20fc4:	10800304 	addi	r2,r2,12
   20fc8:	10800037 	ldwio	r2,0(r2)
   20fcc:	e0bffb15 	stw	r2,-20(fp)
        *(pData8+i) =  Data32 & 0xff;
   20fd0:	e0bff917 	ldw	r2,-28(fp)
   20fd4:	e0ffff17 	ldw	r3,-4(fp)
   20fd8:	1885883a 	add	r2,r3,r2
   20fdc:	e0fffb17 	ldw	r3,-20(fp)
   20fe0:	10c00005 	stb	r3,0(r2)
//   printf("\n read receive ACK-device address(read)! \n");

       //read the rxr data

#if 1
    for(i=0;i<nReadLength;i++){
   20fe4:	e0bff917 	ldw	r2,-28(fp)
   20fe8:	10800044 	addi	r2,r2,1
   20fec:	e0bff915 	stw	r2,-28(fp)
   20ff0:	e0fff917 	ldw	r3,-28(fp)
   20ff4:	e0800217 	ldw	r2,8(fp)
   20ff8:	18bfde16 	blt	r3,r2,20f74 <_gp+0xfffe5100>
    DataLow =  Data32 & 0xff;

    pData16 = (DataHigh << 8) | DataLow;
#endif

   if (!Write32_Data( i2c_base, 4,0x40))
   20ffc:	e13ffc17 	ldw	r4,-16(fp)
   21000:	01400104 	movi	r5,4
   21004:	01801004 	movi	r6,64
   21008:	002028c0 	call	2028c <Write32_Data>
   2100c:	1000021e 	bne	r2,zero,21018 <OC_I2CL_Read+0x260>
       return FALSE;
   21010:	0005883a 	mov	r2,zero
   21014:	00000306 	br	21024 <OC_I2CL_Read+0x26c>

   //OS_msleep(1);
    usleep(SLEEP_TIME);
   21018:	01003e84 	movi	r4,250
   2101c:	002f3ac0 	call	2f3ac <usleep>

   return TRUE;
   21020:	00800044 	movi	r2,1

}
   21024:	e037883a 	mov	sp,fp
   21028:	dfc00117 	ldw	ra,4(sp)
   2102c:	df000017 	ldw	fp,0(sp)
   21030:	dec00204 	addi	sp,sp,8
   21034:	f800283a 	ret

00021038 <Focus_Init>:
// please observe focus performance when change the scal ,scal_f. or when change camera frame rate
alt_u8  focus_scal   =   3;  // scan 0 -> 1023 , step: SCAL , to find STEP_UP
alt_u8  focus_scal_f =   1;  //  scan STEP_UP + - SCAL/2 , step: SCAL_F
alt_u8  focus_th     =   20;

void Focus_Init(void){
   21038:	defffe04 	addi	sp,sp,-8
   2103c:	dfc00115 	stw	ra,4(sp)
   21040:	df000015 	stw	fp,0(sp)
   21044:	d839883a 	mov	fp,sp
  // please look at TERASIC_AUTO_FOCUS IP to see register's detail.
  IOWR(TERASIC_AUTO_FOCUS_0_BASE,REG_CTRL, 0);// focus mode : 1: window-screen, 0: full-screen
   21048:	0007883a 	mov	r3,zero
   2104c:	00800134 	movhi	r2,4
   21050:	10840104 	addi	r2,r2,4100
   21054:	10c00035 	stwio	r3,0(r2)
  IOWR(TERASIC_AUTO_FOCUS_0_BASE,REG_FOCUS_W, focus_width);// focus_width
   21058:	d0a0010b 	ldhu	r2,-32764(gp)
   2105c:	10ffffcc 	andi	r3,r2,65535
   21060:	00800134 	movhi	r2,4
   21064:	10840204 	addi	r2,r2,4104
   21068:	10c00035 	stwio	r3,0(r2)
  IOWR(TERASIC_AUTO_FOCUS_0_BASE,REG_FOCUS_H, focus_height);// focus_height
   2106c:	d0a0018b 	ldhu	r2,-32762(gp)
   21070:	10ffffcc 	andi	r3,r2,65535
   21074:	00800134 	movhi	r2,4
   21078:	10840304 	addi	r2,r2,4108
   2107c:	10c00035 	stwio	r3,0(r2)
  IOWR(TERASIC_AUTO_FOCUS_0_BASE,REG_FOCUS_X_START, video_w/2-focus_width/2);//x_start
   21080:	d0a0000b 	ldhu	r2,-32768(gp)
   21084:	10bfffcc 	andi	r2,r2,65535
   21088:	1004d07a 	srli	r2,r2,1
   2108c:	10ffffcc 	andi	r3,r2,65535
   21090:	d0a0010b 	ldhu	r2,-32764(gp)
   21094:	10bfffcc 	andi	r2,r2,65535
   21098:	1004d07a 	srli	r2,r2,1
   2109c:	10bfffcc 	andi	r2,r2,65535
   210a0:	1887c83a 	sub	r3,r3,r2
   210a4:	00800134 	movhi	r2,4
   210a8:	10840404 	addi	r2,r2,4112
   210ac:	10c00035 	stwio	r3,0(r2)
  IOWR(TERASIC_AUTO_FOCUS_0_BASE,REG_FOCUS_Y_START, video_h/2-focus_height/2);// y_start
   210b0:	d0a0008b 	ldhu	r2,-32766(gp)
   210b4:	10bfffcc 	andi	r2,r2,65535
   210b8:	1004d07a 	srli	r2,r2,1
   210bc:	10ffffcc 	andi	r3,r2,65535
   210c0:	d0a0018b 	ldhu	r2,-32762(gp)
   210c4:	10bfffcc 	andi	r2,r2,65535
   210c8:	1004d07a 	srli	r2,r2,1
   210cc:	10bfffcc 	andi	r2,r2,65535
   210d0:	1887c83a 	sub	r3,r3,r2
   210d4:	00800134 	movhi	r2,4
   210d8:	10840504 	addi	r2,r2,4116
   210dc:	10c00035 	stwio	r3,0(r2)

  IOWR(TERASIC_AUTO_FOCUS_0_BASE,REG_SCAL, focus_scal*256 + focus_scal_f); // scan 0 -> 1023 , step: SCAL , to find STEP_UP
   210e0:	d0a00203 	ldbu	r2,-32760(gp)
   210e4:	10803fcc 	andi	r2,r2,255
   210e8:	1006923a 	slli	r3,r2,8
   210ec:	d0a00243 	ldbu	r2,-32759(gp)
   210f0:	10803fcc 	andi	r2,r2,255
   210f4:	1887883a 	add	r3,r3,r2
   210f8:	00800134 	movhi	r2,4
   210fc:	10840604 	addi	r2,r2,4120
   21100:	10c00035 	stwio	r3,0(r2)
                                                                          //  scan STEP_UP + - SCAL/2 , step: SCAL_F
  IOWR(TERASIC_AUTO_FOCUS_0_BASE,REG_TH, focus_th);
   21104:	d0a00283 	ldbu	r2,-32758(gp)
   21108:	10c03fcc 	andi	r3,r2,255
   2110c:	00800134 	movhi	r2,4
   21110:	10840704 	addi	r2,r2,4124
   21114:	10c00035 	stwio	r3,0(r2)

  //////////// focus at initial time
  usleep(100);
   21118:	01001904 	movi	r4,100
   2111c:	002f3ac0 	call	2f3ac <usleep>
  IOWR(TERASIC_AUTO_FOCUS_0_BASE,REG_GO, 1);
   21120:	00c00044 	movi	r3,1
   21124:	00800134 	movhi	r2,4
   21128:	10840004 	addi	r2,r2,4096
   2112c:	10c00035 	stwio	r3,0(r2)
  usleep(2);
   21130:	01000084 	movi	r4,2
   21134:	002f3ac0 	call	2f3ac <usleep>
  IOWR(TERASIC_AUTO_FOCUS_0_BASE,REG_GO, 0);
   21138:	0007883a 	mov	r3,zero
   2113c:	00800134 	movhi	r2,4
   21140:	10840004 	addi	r2,r2,4096
   21144:	10c00035 	stwio	r3,0(r2)
}
   21148:	e037883a 	mov	sp,fp
   2114c:	dfc00117 	ldw	ra,4(sp)
   21150:	df000017 	ldw	fp,0(sp)
   21154:	dec00204 	addi	sp,sp,8
   21158:	f800283a 	ret

0002115c <Focus_Window>:

alt_u16 Focus_Window(int x,int y){
   2115c:	defffa04 	addi	sp,sp,-24
   21160:	dfc00515 	stw	ra,20(sp)
   21164:	df000415 	stw	fp,16(sp)
   21168:	df000404 	addi	fp,sp,16
   2116c:	e13ffe15 	stw	r4,-8(fp)
   21170:	e17fff15 	stw	r5,-4(fp)
   alt_u16 x_start,y_start;
   alt_u16 end_focus;

   if(Focus_Released()) { // pre focus done
   21174:	002133c0 	call	2133c <Focus_Released>
   21178:	10006a26 	beq	r2,zero,21324 <Focus_Window+0x1c8>
	   IOWR(TERASIC_AUTO_FOCUS_0_BASE,REG_CTRL, 1);// focus mode : 1: window-screen, 0: full-screen
   2117c:	00c00044 	movi	r3,1
   21180:	00800134 	movhi	r2,4
   21184:	10840104 	addi	r2,r2,4100
   21188:	10c00035 	stwio	r3,0(r2)

	   if(( x -  focus_width/2) < 0 ) x_start = 0;
   2118c:	d0a0010b 	ldhu	r2,-32764(gp)
   21190:	10bfffcc 	andi	r2,r2,65535
   21194:	1004d07a 	srli	r2,r2,1
   21198:	10bfffcc 	andi	r2,r2,65535
   2119c:	e0fffe17 	ldw	r3,-8(fp)
   211a0:	1885c83a 	sub	r2,r3,r2
   211a4:	1000020e 	bge	r2,zero,211b0 <Focus_Window+0x54>
   211a8:	e03ffc0d 	sth	zero,-16(fp)
   211ac:	00001606 	br	21208 <Focus_Window+0xac>
	   else if(( x + focus_width/2 ) > video_w )  x_start = video_w -1 -focus_width;
   211b0:	d0a0010b 	ldhu	r2,-32764(gp)
   211b4:	10bfffcc 	andi	r2,r2,65535
   211b8:	1004d07a 	srli	r2,r2,1
   211bc:	10ffffcc 	andi	r3,r2,65535
   211c0:	e0bffe17 	ldw	r2,-8(fp)
   211c4:	1885883a 	add	r2,r3,r2
   211c8:	d0e0000b 	ldhu	r3,-32768(gp)
   211cc:	18ffffcc 	andi	r3,r3,65535
   211d0:	1880060e 	bge	r3,r2,211ec <Focus_Window+0x90>
   211d4:	d0e0000b 	ldhu	r3,-32768(gp)
   211d8:	d0a0010b 	ldhu	r2,-32764(gp)
   211dc:	1885c83a 	sub	r2,r3,r2
   211e0:	10bfffc4 	addi	r2,r2,-1
   211e4:	e0bffc0d 	sth	r2,-16(fp)
   211e8:	00000706 	br	21208 <Focus_Window+0xac>
	   else x_start = x - focus_width/2;
   211ec:	e0bffe17 	ldw	r2,-8(fp)
   211f0:	1007883a 	mov	r3,r2
   211f4:	d0a0010b 	ldhu	r2,-32764(gp)
   211f8:	10bfffcc 	andi	r2,r2,65535
   211fc:	1004d07a 	srli	r2,r2,1
   21200:	1885c83a 	sub	r2,r3,r2
   21204:	e0bffc0d 	sth	r2,-16(fp)

	   if(( y -  focus_height/2) < 0 ) y_start = 0;
   21208:	d0a0018b 	ldhu	r2,-32762(gp)
   2120c:	10bfffcc 	andi	r2,r2,65535
   21210:	1004d07a 	srli	r2,r2,1
   21214:	10bfffcc 	andi	r2,r2,65535
   21218:	e0ffff17 	ldw	r3,-4(fp)
   2121c:	1885c83a 	sub	r2,r3,r2
   21220:	1000020e 	bge	r2,zero,2122c <Focus_Window+0xd0>
   21224:	e03ffc8d 	sth	zero,-14(fp)
   21228:	00001606 	br	21284 <Focus_Window+0x128>
	   else if(( y + focus_height/2 ) > video_h )  y_start = video_h -1 -focus_height;
   2122c:	d0a0018b 	ldhu	r2,-32762(gp)
   21230:	10bfffcc 	andi	r2,r2,65535
   21234:	1004d07a 	srli	r2,r2,1
   21238:	10ffffcc 	andi	r3,r2,65535
   2123c:	e0bfff17 	ldw	r2,-4(fp)
   21240:	1885883a 	add	r2,r3,r2
   21244:	d0e0008b 	ldhu	r3,-32766(gp)
   21248:	18ffffcc 	andi	r3,r3,65535
   2124c:	1880060e 	bge	r3,r2,21268 <Focus_Window+0x10c>
   21250:	d0e0008b 	ldhu	r3,-32766(gp)
   21254:	d0a0018b 	ldhu	r2,-32762(gp)
   21258:	1885c83a 	sub	r2,r3,r2
   2125c:	10bfffc4 	addi	r2,r2,-1
   21260:	e0bffc8d 	sth	r2,-14(fp)
   21264:	00000706 	br	21284 <Focus_Window+0x128>
	   else y_start = y - focus_height/2;
   21268:	e0bfff17 	ldw	r2,-4(fp)
   2126c:	1007883a 	mov	r3,r2
   21270:	d0a0018b 	ldhu	r2,-32762(gp)
   21274:	10bfffcc 	andi	r2,r2,65535
   21278:	1004d07a 	srli	r2,r2,1
   2127c:	1885c83a 	sub	r2,r3,r2
   21280:	e0bffc8d 	sth	r2,-14(fp)

	   printf("x_start= %d,y_start= %d\n",x_start,y_start);
   21284:	e0fffc0b 	ldhu	r3,-16(fp)
   21288:	e0bffc8b 	ldhu	r2,-14(fp)
   2128c:	010000f4 	movhi	r4,3
   21290:	21058a04 	addi	r4,r4,5672
   21294:	180b883a 	mov	r5,r3
   21298:	100d883a 	mov	r6,r2
   2129c:	0022e8c0 	call	22e8c <printf>

	   IOWR(TERASIC_AUTO_FOCUS_0_BASE,REG_FOCUS_X_START, x_start);//x_start
   212a0:	e0fffc0b 	ldhu	r3,-16(fp)
   212a4:	00800134 	movhi	r2,4
   212a8:	10840404 	addi	r2,r2,4112
   212ac:	10c00035 	stwio	r3,0(r2)
	   IOWR(TERASIC_AUTO_FOCUS_0_BASE,REG_FOCUS_Y_START, y_start);//y_start
   212b0:	e0fffc8b 	ldhu	r3,-14(fp)
   212b4:	00800134 	movhi	r2,4
   212b8:	10840504 	addi	r2,r2,4116
   212bc:	10c00035 	stwio	r3,0(r2)

	   usleep(10);
   212c0:	01000284 	movi	r4,10
   212c4:	002f3ac0 	call	2f3ac <usleep>

	   IOWR(TERASIC_AUTO_FOCUS_0_BASE,REG_GO, 1);
   212c8:	00c00044 	movi	r3,1
   212cc:	00800134 	movhi	r2,4
   212d0:	10840004 	addi	r2,r2,4096
   212d4:	10c00035 	stwio	r3,0(r2)
	   usleep(2);
   212d8:	01000084 	movi	r4,2
   212dc:	002f3ac0 	call	2f3ac <usleep>
	   IOWR(TERASIC_AUTO_FOCUS_0_BASE,REG_GO, 0);
   212e0:	0007883a 	mov	r3,zero
   212e4:	00800134 	movhi	r2,4
   212e8:	10840004 	addi	r2,r2,4096
   212ec:	10c00035 	stwio	r3,0(r2)
	   Focus_Released();
   212f0:	002133c0 	call	2133c <Focus_Released>

	   end_focus = IORD(TERASIC_AUTO_FOCUS_0_BASE,REG_STATUS)&0x0FFF;
   212f4:	00800134 	movhi	r2,4
   212f8:	10840004 	addi	r2,r2,4096
   212fc:	10800037 	ldwio	r2,0(r2)
   21300:	1083ffcc 	andi	r2,r2,4095
   21304:	e0bffd0d 	sth	r2,-12(fp)
	   printf("end_focus = %d \n",end_focus);
   21308:	e0bffd0b 	ldhu	r2,-12(fp)
   2130c:	010000f4 	movhi	r4,3
   21310:	21059104 	addi	r4,r4,5700
   21314:	100b883a 	mov	r5,r2
   21318:	0022e8c0 	call	22e8c <printf>

	   return end_focus;
   2131c:	e0bffd0b 	ldhu	r2,-12(fp)
   21320:	00000106 	br	21328 <Focus_Window+0x1cc>

   }
   return end_focus;
   21324:	e0bffd0b 	ldhu	r2,-12(fp)

}
   21328:	e037883a 	mov	sp,fp
   2132c:	dfc00117 	ldw	ra,4(sp)
   21330:	df000017 	ldw	fp,0(sp)
   21334:	dec00204 	addi	sp,sp,8
   21338:	f800283a 	ret

0002133c <Focus_Released>:

int Focus_Released(void){
   2133c:	defffc04 	addi	sp,sp,-16
   21340:	dfc00315 	stw	ra,12(sp)
   21344:	df000215 	stw	fp,8(sp)
   21348:	df000204 	addi	fp,sp,8
  int Released = FALSE;
   2134c:	e03ffe15 	stw	zero,-8(fp)
 * alt_nticks() returns the elapsed number of system clock ticks since reset.
 */

static ALT_INLINE alt_u32 ALT_ALWAYS_INLINE alt_nticks (void)
{
  return _alt_nticks;
   21350:	008000f4 	movhi	r2,3
   21354:	10985f04 	addi	r2,r2,24956
   21358:	10c00017 	ldw	r3,0(r2)
 * Obtain the system clock rate in ticks/s. 
 */

static ALT_INLINE alt_u32 ALT_ALWAYS_INLINE alt_ticks_per_second (void)
{
  return _alt_tick_rate;
   2135c:	008000f4 	movhi	r2,3
   21360:	10985e04 	addi	r2,r2,24952
   21364:	10800017 	ldw	r2,0(r2)
  alt_u32 TimeOut;

  TimeOut = alt_nticks() + alt_ticks_per_second()*8;
   21368:	100490fa 	slli	r2,r2,3
   2136c:	1885883a 	add	r2,r3,r2
   21370:	e0bfff15 	stw	r2,-4(fp)

  while((IORD(TERASIC_AUTO_FOCUS_0_BASE,REG_STATUS)&0x8000) ==0 && alt_nticks() < TimeOut ); // waiting for VCM release I2C bus
   21374:	0001883a 	nop
   21378:	00800134 	movhi	r2,4
   2137c:	10840004 	addi	r2,r2,4096
   21380:	10800037 	ldwio	r2,0(r2)
   21384:	10a0000c 	andi	r2,r2,32768
   21388:	1000051e 	bne	r2,zero,213a0 <Focus_Released+0x64>
 * alt_nticks() returns the elapsed number of system clock ticks since reset.
 */

static ALT_INLINE alt_u32 ALT_ALWAYS_INLINE alt_nticks (void)
{
  return _alt_nticks;
   2138c:	008000f4 	movhi	r2,3
   21390:	10985f04 	addi	r2,r2,24956
   21394:	10c00017 	ldw	r3,0(r2)
   21398:	e0bfff17 	ldw	r2,-4(fp)
   2139c:	18bff636 	bltu	r3,r2,21378 <_gp+0xfffe5504>
   213a0:	008000f4 	movhi	r2,3
   213a4:	10985f04 	addi	r2,r2,24956
   213a8:	10c00017 	ldw	r3,0(r2)

  if(alt_nticks() < TimeOut ) Released = TRUE;
   213ac:	e0bfff17 	ldw	r2,-4(fp)
   213b0:	1880032e 	bgeu	r3,r2,213c0 <Focus_Released+0x84>
   213b4:	00800044 	movi	r2,1
   213b8:	e0bffe15 	stw	r2,-8(fp)
   213bc:	00000306 	br	213cc <Focus_Released+0x90>
  else printf("\n =>Released check TimeOut!\n");
   213c0:	010000f4 	movhi	r4,3
   213c4:	21059604 	addi	r4,r4,5720
   213c8:	0022f900 	call	22f90 <puts>

  usleep(10000);
   213cc:	0109c404 	movi	r4,10000
   213d0:	002f3ac0 	call	2f3ac <usleep>

  return Released;
   213d4:	e0bffe17 	ldw	r2,-8(fp)
}
   213d8:	e037883a 	mov	sp,fp
   213dc:	dfc00117 	ldw	ra,4(sp)
   213e0:	df000017 	ldw	fp,0(sp)
   213e4:	dec00204 	addi	sp,sp,8
   213e8:	f800283a 	ret

000213ec <mipi_clear_error>:
#define MIPI_REG_CSIErrEn		0x0066
#define MIPI_REG_MDLSynErr		0x0068
#define MIPI_REG_FrmErrCnt		0x0080
#define MIPI_REG_MDLErrCnt		0x0090

void mipi_clear_error(void){
   213ec:	defffe04 	addi	sp,sp,-8
   213f0:	dfc00115 	stw	ra,4(sp)
   213f4:	df000015 	stw	fp,0(sp)
   213f8:	d839883a 	mov	fp,sp
	MipiBridgeRegWrite(MIPI_REG_CSIStatus,0x01FF); // clear error
   213fc:	01001904 	movi	r4,100
   21400:	01407fc4 	movi	r5,511
   21404:	00219840 	call	21984 <MipiBridgeRegWrite>
	MipiBridgeRegWrite(MIPI_REG_MDLSynErr,0x0000); // clear error
   21408:	01001a04 	movi	r4,104
   2140c:	000b883a 	mov	r5,zero
   21410:	00219840 	call	21984 <MipiBridgeRegWrite>
	MipiBridgeRegWrite(MIPI_REG_FrmErrCnt,0x0000); // clear error
   21414:	01002004 	movi	r4,128
   21418:	000b883a 	mov	r5,zero
   2141c:	00219840 	call	21984 <MipiBridgeRegWrite>
	MipiBridgeRegWrite(MIPI_REG_MDLErrCnt, 0x0000); // clear error
   21420:	01002404 	movi	r4,144
   21424:	000b883a 	mov	r5,zero
   21428:	00219840 	call	21984 <MipiBridgeRegWrite>

  	MipiBridgeRegWrite(0x0082,0x00);
   2142c:	01002084 	movi	r4,130
   21430:	000b883a 	mov	r5,zero
   21434:	00219840 	call	21984 <MipiBridgeRegWrite>
  	MipiBridgeRegWrite(0x0084,0x00);
   21438:	01002104 	movi	r4,132
   2143c:	000b883a 	mov	r5,zero
   21440:	00219840 	call	21984 <MipiBridgeRegWrite>
  	MipiBridgeRegWrite(0x0086,0x00);
   21444:	01002184 	movi	r4,134
   21448:	000b883a 	mov	r5,zero
   2144c:	00219840 	call	21984 <MipiBridgeRegWrite>
  	MipiBridgeRegWrite(0x0088,0x00);
   21450:	01002204 	movi	r4,136
   21454:	000b883a 	mov	r5,zero
   21458:	00219840 	call	21984 <MipiBridgeRegWrite>
  	MipiBridgeRegWrite(0x008A,0x00);
   2145c:	01002284 	movi	r4,138
   21460:	000b883a 	mov	r5,zero
   21464:	00219840 	call	21984 <MipiBridgeRegWrite>
  	MipiBridgeRegWrite(0x008C,0x00);
   21468:	01002304 	movi	r4,140
   2146c:	000b883a 	mov	r5,zero
   21470:	00219840 	call	21984 <MipiBridgeRegWrite>
  	MipiBridgeRegWrite(0x008E,0x00);
   21474:	01002384 	movi	r4,142
   21478:	000b883a 	mov	r5,zero
   2147c:	00219840 	call	21984 <MipiBridgeRegWrite>
  	MipiBridgeRegWrite(0x0090,0x00);
   21480:	01002404 	movi	r4,144
   21484:	000b883a 	mov	r5,zero
   21488:	00219840 	call	21984 <MipiBridgeRegWrite>
}
   2148c:	e037883a 	mov	sp,fp
   21490:	dfc00117 	ldw	ra,4(sp)
   21494:	df000017 	ldw	fp,0(sp)
   21498:	dec00204 	addi	sp,sp,8
   2149c:	f800283a 	ret

000214a0 <mipi_show_error_info>:

void mipi_show_error_info(void){
   214a0:	defff904 	addi	sp,sp,-28
   214a4:	dfc00615 	stw	ra,24(sp)
   214a8:	df000515 	stw	fp,20(sp)
   214ac:	df000504 	addi	fp,sp,20

	alt_u16 PHY_status, SCI_status, MDLSynErr, FrmErrCnt, MDLErrCnt;

	PHY_status = MipiBridgeRegRead(MIPI_REG_PHYSta);
   214b0:	01001884 	movi	r4,98
   214b4:	00219e40 	call	219e4 <MipiBridgeRegRead>
   214b8:	e0bffd0d 	sth	r2,-12(fp)
	SCI_status = MipiBridgeRegRead(MIPI_REG_CSIStatus);
   214bc:	01001904 	movi	r4,100
   214c0:	00219e40 	call	219e4 <MipiBridgeRegRead>
   214c4:	e0bffd8d 	sth	r2,-10(fp)
	MDLSynErr = MipiBridgeRegRead(MIPI_REG_MDLSynErr);
   214c8:	01001a04 	movi	r4,104
   214cc:	00219e40 	call	219e4 <MipiBridgeRegRead>
   214d0:	e0bffe0d 	sth	r2,-8(fp)
	FrmErrCnt = MipiBridgeRegRead(MIPI_REG_FrmErrCnt);
   214d4:	01002004 	movi	r4,128
   214d8:	00219e40 	call	219e4 <MipiBridgeRegRead>
   214dc:	e0bffe8d 	sth	r2,-6(fp)
	MDLErrCnt = MipiBridgeRegRead(MIPI_REG_MDLErrCnt);
   214e0:	01002404 	movi	r4,144
   214e4:	00219e40 	call	219e4 <MipiBridgeRegRead>
   214e8:	e0bfff0d 	sth	r2,-4(fp)
	printf("PHY_status=%xh, CSI_status=%xh, MDLSynErr=%xh, FrmErrCnt=%xh, MDLErrCnt=%xh\r\n", PHY_status, SCI_status, MDLSynErr,FrmErrCnt, MDLErrCnt);
   214ec:	e17ffd0b 	ldhu	r5,-12(fp)
   214f0:	e1bffd8b 	ldhu	r6,-10(fp)
   214f4:	e1fffe0b 	ldhu	r7,-8(fp)
   214f8:	e0fffe8b 	ldhu	r3,-6(fp)
   214fc:	e0bfff0b 	ldhu	r2,-4(fp)
   21500:	d8c00015 	stw	r3,0(sp)
   21504:	d8800115 	stw	r2,4(sp)
   21508:	010000f4 	movhi	r4,3
   2150c:	21059e04 	addi	r4,r4,5752
   21510:	0022e8c0 	call	22e8c <printf>
}
   21514:	e037883a 	mov	sp,fp
   21518:	dfc00117 	ldw	ra,4(sp)
   2151c:	df000017 	ldw	fp,0(sp)
   21520:	dec00204 	addi	sp,sp,8
   21524:	f800283a 	ret

00021528 <mipi_show_error_info_more>:

void mipi_show_error_info_more(void){
   21528:	defffe04 	addi	sp,sp,-8
   2152c:	dfc00115 	stw	ra,4(sp)
   21530:	df000015 	stw	fp,0(sp)
   21534:	d839883a 	mov	fp,sp
    printf("FrmErrCnt = %d\n",MipiBridgeRegRead(0x0080));
   21538:	01002004 	movi	r4,128
   2153c:	00219e40 	call	219e4 <MipiBridgeRegRead>
   21540:	10bfffcc 	andi	r2,r2,65535
   21544:	010000f4 	movhi	r4,3
   21548:	2105b204 	addi	r4,r4,5832
   2154c:	100b883a 	mov	r5,r2
   21550:	0022e8c0 	call	22e8c <printf>
    printf("CRCErrCnt = %d\n",MipiBridgeRegRead(0x0082));
   21554:	01002084 	movi	r4,130
   21558:	00219e40 	call	219e4 <MipiBridgeRegRead>
   2155c:	10bfffcc 	andi	r2,r2,65535
   21560:	010000f4 	movhi	r4,3
   21564:	2105b604 	addi	r4,r4,5848
   21568:	100b883a 	mov	r5,r2
   2156c:	0022e8c0 	call	22e8c <printf>
    printf("CorErrCnt = %d\n",MipiBridgeRegRead(0x0084));
   21570:	01002104 	movi	r4,132
   21574:	00219e40 	call	219e4 <MipiBridgeRegRead>
   21578:	10bfffcc 	andi	r2,r2,65535
   2157c:	010000f4 	movhi	r4,3
   21580:	2105ba04 	addi	r4,r4,5864
   21584:	100b883a 	mov	r5,r2
   21588:	0022e8c0 	call	22e8c <printf>
    printf("HdrErrCnt = %d\n",MipiBridgeRegRead(0x0086));
   2158c:	01002184 	movi	r4,134
   21590:	00219e40 	call	219e4 <MipiBridgeRegRead>
   21594:	10bfffcc 	andi	r2,r2,65535
   21598:	010000f4 	movhi	r4,3
   2159c:	2105be04 	addi	r4,r4,5880
   215a0:	100b883a 	mov	r5,r2
   215a4:	0022e8c0 	call	22e8c <printf>
    printf("EIDErrCnt = %d\n",MipiBridgeRegRead(0x0088));
   215a8:	01002204 	movi	r4,136
   215ac:	00219e40 	call	219e4 <MipiBridgeRegRead>
   215b0:	10bfffcc 	andi	r2,r2,65535
   215b4:	010000f4 	movhi	r4,3
   215b8:	2105c204 	addi	r4,r4,5896
   215bc:	100b883a 	mov	r5,r2
   215c0:	0022e8c0 	call	22e8c <printf>
    printf("CtlErrCnt = %d\n",MipiBridgeRegRead(0x008A));
   215c4:	01002284 	movi	r4,138
   215c8:	00219e40 	call	219e4 <MipiBridgeRegRead>
   215cc:	10bfffcc 	andi	r2,r2,65535
   215d0:	010000f4 	movhi	r4,3
   215d4:	2105c604 	addi	r4,r4,5912
   215d8:	100b883a 	mov	r5,r2
   215dc:	0022e8c0 	call	22e8c <printf>
    printf("SoTErrCnt = %d\n",MipiBridgeRegRead(0x008C));
   215e0:	01002304 	movi	r4,140
   215e4:	00219e40 	call	219e4 <MipiBridgeRegRead>
   215e8:	10bfffcc 	andi	r2,r2,65535
   215ec:	010000f4 	movhi	r4,3
   215f0:	2105ca04 	addi	r4,r4,5928
   215f4:	100b883a 	mov	r5,r2
   215f8:	0022e8c0 	call	22e8c <printf>
    printf("SynErrCnt = %d\n",MipiBridgeRegRead(0x008E));
   215fc:	01002384 	movi	r4,142
   21600:	00219e40 	call	219e4 <MipiBridgeRegRead>
   21604:	10bfffcc 	andi	r2,r2,65535
   21608:	010000f4 	movhi	r4,3
   2160c:	2105ce04 	addi	r4,r4,5944
   21610:	100b883a 	mov	r5,r2
   21614:	0022e8c0 	call	22e8c <printf>
    printf("MDLErrCnt = %d\n",MipiBridgeRegRead(0x0090));
   21618:	01002404 	movi	r4,144
   2161c:	00219e40 	call	219e4 <MipiBridgeRegRead>
   21620:	10bfffcc 	andi	r2,r2,65535
   21624:	010000f4 	movhi	r4,3
   21628:	2105d204 	addi	r4,r4,5960
   2162c:	100b883a 	mov	r5,r2
   21630:	0022e8c0 	call	22e8c <printf>
    printf("FIFOSTATUS = %d\n",MipiBridgeRegRead(0x00F8));
   21634:	01003e04 	movi	r4,248
   21638:	00219e40 	call	219e4 <MipiBridgeRegRead>
   2163c:	10bfffcc 	andi	r2,r2,65535
   21640:	010000f4 	movhi	r4,3
   21644:	2105d604 	addi	r4,r4,5976
   21648:	100b883a 	mov	r5,r2
   2164c:	0022e8c0 	call	22e8c <printf>
    printf("DataType = 0x%04x\n",MipiBridgeRegRead(0x006A));
   21650:	01001a84 	movi	r4,106
   21654:	00219e40 	call	219e4 <MipiBridgeRegRead>
   21658:	10bfffcc 	andi	r2,r2,65535
   2165c:	010000f4 	movhi	r4,3
   21660:	2105db04 	addi	r4,r4,5996
   21664:	100b883a 	mov	r5,r2
   21668:	0022e8c0 	call	22e8c <printf>
    printf("CSIPktLen = %d\n",MipiBridgeRegRead(0x006E));
   2166c:	01001b84 	movi	r4,110
   21670:	00219e40 	call	219e4 <MipiBridgeRegRead>
   21674:	10bfffcc 	andi	r2,r2,65535
   21678:	010000f4 	movhi	r4,3
   2167c:	2105e004 	addi	r4,r4,6016
   21680:	100b883a 	mov	r5,r2
   21684:	0022e8c0 	call	22e8c <printf>
}
   21688:	e037883a 	mov	sp,fp
   2168c:	dfc00117 	ldw	ra,4(sp)
   21690:	df000017 	ldw	fp,0(sp)
   21694:	dec00204 	addi	sp,sp,8
   21698:	f800283a 	ret

0002169c <MIPI_Init>:



bool MIPI_Init(void){
   2169c:	defffd04 	addi	sp,sp,-12
   216a0:	dfc00215 	stw	ra,8(sp)
   216a4:	df000115 	stw	fp,4(sp)
   216a8:	df000104 	addi	fp,sp,4
	bool bSuccess;


	bSuccess = oc_i2c_init_ex(I2C_OPENCORES_MIPI_BASE, 50*1000*1000,400*1000); //I2C: 400K
   216ac:	01000134 	movhi	r4,4
   216b0:	21042004 	addi	r4,r4,4224
   216b4:	0140bef4 	movhi	r5,763
   216b8:	297c2004 	addi	r5,r5,-3968
   216bc:	018001b4 	movhi	r6,6
   216c0:	3186a004 	addi	r6,r6,6784
   216c4:	00203940 	call	20394 <oc_i2c_init_ex>
   216c8:	e0bfff15 	stw	r2,-4(fp)
	if (!bSuccess)
   216cc:	e0bfff17 	ldw	r2,-4(fp)
   216d0:	1000031e 	bne	r2,zero,216e0 <MIPI_Init+0x44>
		printf("failed to init MIPI- Bridge i2c\r\n");
   216d4:	010000f4 	movhi	r4,3
   216d8:	2105e404 	addi	r4,r4,6032
   216dc:	0022f900 	call	22f90 <puts>

    usleep(50*1000);
   216e0:	0130d414 	movui	r4,50000
   216e4:	002f3ac0 	call	2f3ac <usleep>
    MipiBridgeInit();
   216e8:	0021a540 	call	21a54 <MipiBridgeInit>

    usleep(500*1000);
   216ec:	01000234 	movhi	r4,8
   216f0:	21284804 	addi	r4,r4,-24288
   216f4:	002f3ac0 	call	2f3ac <usleep>

//	bSuccess = oc_i2c_init_ex(I2C_OPENCORES_CAMERA_BASE, 50*1000*1000,400*1000); //I2C: 400K
//	if (!bSuccess)
//		printf("failed to init MIPI- Camera i2c\r\n");

    MipiCameraInit();
   216f8:	0021fac0 	call	21fac <MipiCameraInit>
    MIPI_BIN_LEVEL(DEFAULT_LEVEL);
   216fc:	01000084 	movi	r4,2
   21700:	0021df00 	call	21df0 <MIPI_BIN_LEVEL>
//    OV8865_FOCUS_Move_to(340);

//    oc_i2c_uninit(I2C_OPENCORES_CAMERA_BASE);  // Release I2C bus , due to two I2C master shared!


 	usleep(1000);
   21704:	0100fa04 	movi	r4,1000
   21708:	002f3ac0 	call	2f3ac <usleep>


//    oc_i2c_uninit(I2C_OPENCORES_MIPI_BASE);

	return bSuccess;
   2170c:	e0bfff17 	ldw	r2,-4(fp)
}
   21710:	e037883a 	mov	sp,fp
   21714:	dfc00117 	ldw	ra,4(sp)
   21718:	df000017 	ldw	fp,0(sp)
   2171c:	dec00204 	addi	sp,sp,8
   21720:	f800283a 	ret

00021724 <main>:




int main()
{
   21724:	defffc04 	addi	sp,sp,-16
   21728:	dfc00315 	stw	ra,12(sp)
   2172c:	df000215 	stw	fp,8(sp)
   21730:	df000204 	addi	fp,sp,8


  printf("DE1-SoC D8M VGA Demo\n");
   21734:	010000f4 	movhi	r4,3
   21738:	2105ed04 	addi	r4,r4,6068
   2173c:	0022f900 	call	22f90 <puts>
  IOWR(MIPI_PWDN_N_BASE, 0x00, 0x00);
   21740:	0007883a 	mov	r3,zero
   21744:	00800134 	movhi	r2,4
   21748:	10842804 	addi	r2,r2,4256
   2174c:	10c00035 	stwio	r3,0(r2)
  IOWR(MIPI_RESET_N_BASE, 0x00, 0x00);
   21750:	0007883a 	mov	r3,zero
   21754:	00800134 	movhi	r2,4
   21758:	10842c04 	addi	r2,r2,4272
   2175c:	10c00035 	stwio	r3,0(r2)

  usleep(2000);
   21760:	0101f404 	movi	r4,2000
   21764:	002f3ac0 	call	2f3ac <usleep>
  IOWR(MIPI_PWDN_N_BASE, 0x00, 0xFF);
   21768:	00c03fc4 	movi	r3,255
   2176c:	00800134 	movhi	r2,4
   21770:	10842804 	addi	r2,r2,4256
   21774:	10c00035 	stwio	r3,0(r2)
  usleep(2000);
   21778:	0101f404 	movi	r4,2000
   2177c:	002f3ac0 	call	2f3ac <usleep>
  IOWR(MIPI_RESET_N_BASE, 0x00, 0xFF);
   21780:	00c03fc4 	movi	r3,255
   21784:	00800134 	movhi	r2,4
   21788:	10842c04 	addi	r2,r2,4272
   2178c:	10c00035 	stwio	r3,0(r2)


  usleep(2000);
   21790:	0101f404 	movi	r4,2000
   21794:	002f3ac0 	call	2f3ac <usleep>


  // MIPI Init
   if (!MIPI_Init()){
   21798:	002169c0 	call	2169c <MIPI_Init>
   2179c:	1000041e 	bne	r2,zero,217b0 <main+0x8c>
	  printf("MIPI_Init Init failed!\r\n");
   217a0:	010000f4 	movhi	r4,3
   217a4:	2105f304 	addi	r4,r4,6092
   217a8:	0022f900 	call	22f90 <puts>
   217ac:	00000306 	br	217bc <main+0x98>
  }else{
	  printf("MIPI_Init Init successfully!\r\n");
   217b0:	010000f4 	movhi	r4,3
   217b4:	2105f904 	addi	r4,r4,6116
   217b8:	0022f900 	call	22f90 <puts>
  }

//   while(1){
 	    mipi_clear_error();
   217bc:	00213ec0 	call	213ec <mipi_clear_error>
	 	usleep(50*1000);
   217c0:	0130d414 	movui	r4,50000
   217c4:	002f3ac0 	call	2f3ac <usleep>
 	    mipi_clear_error();
   217c8:	00213ec0 	call	213ec <mipi_clear_error>
	 	usleep(1000*1000);
   217cc:	010003f4 	movhi	r4,15
   217d0:	21109004 	addi	r4,r4,16960
   217d4:	002f3ac0 	call	2f3ac <usleep>
	    mipi_show_error_info();
   217d8:	00214a00 	call	214a0 <mipi_show_error_info>
//	    mipi_show_error_info_more();
	    printf("\n");
   217dc:	01000284 	movi	r4,10
   217e0:	0022ed00 	call	22ed0 <putchar>




    //////////////////////////////////////////////////////////
        alt_u16 bin_level = DEFAULT_LEVEL;
   217e4:	00800084 	movi	r2,2
   217e8:	e0bffe0d 	sth	r2,-8(fp)
        alt_u8  manual_focus_step = 10;
   217ec:	00800284 	movi	r2,10
   217f0:	e0bfff05 	stb	r2,-4(fp)
        alt_u16  current_focus = 300;
   217f4:	00804b04 	movi	r2,300
   217f8:	e0bffe8d 	sth	r2,-6(fp)
        Focus_Init();
   217fc:	00210380 	call	21038 <Focus_Init>
  while(1){

       // touch KEY0 to trigger Auto focus
       if((IORD(KEY_BASE,0)&0x0F) == 0x0E){
   21800:	00800134 	movhi	r2,4
   21804:	10843004 	addi	r2,r2,4288
   21808:	10800037 	ldwio	r2,0(r2)
   2180c:	108003cc 	andi	r2,r2,15
   21810:	10800398 	cmpnei	r2,r2,14
   21814:	1000041e 	bne	r2,zero,21828 <main+0x104>

    	   current_focus = Focus_Window(400,300);
   21818:	01006404 	movi	r4,400
   2181c:	01404b04 	movi	r5,300
   21820:	002115c0 	call	2115c <Focus_Window>
   21824:	e0bffe8d 	sth	r2,-6(fp)
       }

       // touch KEY1 to trigger Manual focus  - step
       if((IORD(KEY_BASE,0)&0x0F) == 0x0D){
   21828:	00800134 	movhi	r2,4
   2182c:	10843004 	addi	r2,r2,4288
   21830:	10800037 	ldwio	r2,0(r2)
   21834:	108003cc 	andi	r2,r2,15
   21838:	10800358 	cmpnei	r2,r2,13
   2183c:	10000d1e 	bne	r2,zero,21874 <main+0x150>

    	   if(current_focus > manual_focus_step) current_focus -= manual_focus_step;
   21840:	e0bfff03 	ldbu	r2,-4(fp)
   21844:	10ffffcc 	andi	r3,r2,65535
   21848:	e0bffe8b 	ldhu	r2,-6(fp)
   2184c:	1880052e 	bgeu	r3,r2,21864 <main+0x140>
   21850:	e0bfff03 	ldbu	r2,-4(fp)
   21854:	e0fffe8b 	ldhu	r3,-6(fp)
   21858:	1885c83a 	sub	r2,r3,r2
   2185c:	e0bffe8d 	sth	r2,-6(fp)
   21860:	00000106 	br	21868 <main+0x144>
    	   else current_focus = 0;
   21864:	e03ffe8d 	sth	zero,-6(fp)
    	   OV8865_FOCUS_Move_to(current_focus);
   21868:	e0bffe8b 	ldhu	r2,-6(fp)
   2186c:	1009883a 	mov	r4,r2
   21870:	0021d100 	call	21d10 <OV8865_FOCUS_Move_to>

       }

       // touch KEY2 to trigger Manual focus  + step
       if((IORD(KEY_BASE,0)&0x0F) == 0x0B){
   21874:	00800134 	movhi	r2,4
   21878:	10843004 	addi	r2,r2,4288
   2187c:	10800037 	ldwio	r2,0(r2)
   21880:	108003cc 	andi	r2,r2,15
   21884:	108002d8 	cmpnei	r2,r2,11
   21888:	10000c1e 	bne	r2,zero,218bc <main+0x198>
    	   current_focus += manual_focus_step;
   2188c:	e0ffff03 	ldbu	r3,-4(fp)
   21890:	e0bffe8b 	ldhu	r2,-6(fp)
   21894:	1885883a 	add	r2,r3,r2
   21898:	e0bffe8d 	sth	r2,-6(fp)
    	   if(current_focus >1023) current_focus = 1023;
   2189c:	e0bffe8b 	ldhu	r2,-6(fp)
   218a0:	10810030 	cmpltui	r2,r2,1024
   218a4:	1000021e 	bne	r2,zero,218b0 <main+0x18c>
   218a8:	0080ffc4 	movi	r2,1023
   218ac:	e0bffe8d 	sth	r2,-6(fp)
    	   OV8865_FOCUS_Move_to(current_focus);
   218b0:	e0bffe8b 	ldhu	r2,-6(fp)
   218b4:	1009883a 	mov	r4,r2
   218b8:	0021d100 	call	21d10 <OV8865_FOCUS_Move_to>
       }

       // touch KEY3 to ZOOM
       if((IORD(KEY_BASE,0)&0x0F) == 0x07){
   218bc:	00800134 	movhi	r2,4
   218c0:	10843004 	addi	r2,r2,4288
   218c4:	10800037 	ldwio	r2,0(r2)
   218c8:	108003cc 	andi	r2,r2,15
   218cc:	108001d8 	cmpnei	r2,r2,7
   218d0:	1000151e 	bne	r2,zero,21928 <main+0x204>
    	   if(bin_level == 3 )bin_level = 1;
   218d4:	e0bffe0b 	ldhu	r2,-8(fp)
   218d8:	108000d8 	cmpnei	r2,r2,3
   218dc:	1000031e 	bne	r2,zero,218ec <main+0x1c8>
   218e0:	00800044 	movi	r2,1
   218e4:	e0bffe0d 	sth	r2,-8(fp)
   218e8:	00000306 	br	218f8 <main+0x1d4>
    	   else bin_level ++;
   218ec:	e0bffe0b 	ldhu	r2,-8(fp)
   218f0:	10800044 	addi	r2,r2,1
   218f4:	e0bffe0d 	sth	r2,-8(fp)
    	   printf("set bin level to %d\n",bin_level);
   218f8:	e0bffe0b 	ldhu	r2,-8(fp)
   218fc:	010000f4 	movhi	r4,3
   21900:	21060104 	addi	r4,r4,6148
   21904:	100b883a 	mov	r5,r2
   21908:	0022e8c0 	call	22e8c <printf>
    	   MIPI_BIN_LEVEL(bin_level);
   2190c:	e0bffe0b 	ldhu	r2,-8(fp)
   21910:	10803fcc 	andi	r2,r2,255
   21914:	1009883a 	mov	r4,r2
   21918:	0021df00 	call	21df0 <MIPI_BIN_LEVEL>
    	 	usleep(500000);
   2191c:	01000234 	movhi	r4,8
   21920:	21284804 	addi	r4,r4,-24288
   21924:	002f3ac0 	call	2f3ac <usleep>

       }

       usleep(200000);
   21928:	010000f4 	movhi	r4,3
   2192c:	21035004 	addi	r4,r4,3392
   21930:	002f3ac0 	call	2f3ac <usleep>



   };
   21934:	003fb206 	br	21800 <_gp+0xfffe598c>

00021938 <nSWAP16>:
	{0x0004,0x8047} // Configuration Control Register

};


alt_u16 nSWAP16(alt_u16 x){
   21938:	defffd04 	addi	sp,sp,-12
   2193c:	df000215 	stw	fp,8(sp)
   21940:	df000204 	addi	fp,sp,8
   21944:	2005883a 	mov	r2,r4
   21948:	e0bfff0d 	sth	r2,-4(fp)
	alt_u16 y;
	//y =  (((x) >> 8) & 0xff) | (((x) & 0xff) << 8);

//	y = x;
	y = (x >> 8) & 0x00ff;
   2194c:	e0bfff0b 	ldhu	r2,-4(fp)
   21950:	1004d23a 	srli	r2,r2,8
   21954:	e0bffe0d 	sth	r2,-8(fp)
	y |= (x << 8) & 0xff00;
   21958:	e0bfff0b 	ldhu	r2,-4(fp)
   2195c:	1004923a 	slli	r2,r2,8
   21960:	1007883a 	mov	r3,r2
   21964:	e0bffe0b 	ldhu	r2,-8(fp)
   21968:	1884b03a 	or	r2,r3,r2
   2196c:	e0bffe0d 	sth	r2,-8(fp)
	return y;
   21970:	e0bffe0b 	ldhu	r2,-8(fp)
}
   21974:	e037883a 	mov	sp,fp
   21978:	df000017 	ldw	fp,0(sp)
   2197c:	dec00104 	addi	sp,sp,4
   21980:	f800283a 	ret

00021984 <MipiBridgeRegWrite>:


void MipiBridgeRegWrite(alt_u16 Addr, alt_u16 Value){
   21984:	defffa04 	addi	sp,sp,-24
   21988:	dfc00515 	stw	ra,20(sp)
   2198c:	df000415 	stw	fp,16(sp)
   21990:	df000404 	addi	fp,sp,16
   21994:	2007883a 	mov	r3,r4
   21998:	2805883a 	mov	r2,r5
   2199c:	e0fffe0d 	sth	r3,-8(fp)
   219a0:	e0bfff0d 	sth	r2,-4(fp)
	const alt_u8 device_address = MIPI_BRIDGE_I2C_ADDR;
   219a4:	00800704 	movi	r2,28
   219a8:	e0bffd05 	stb	r2,-12(fp)
	OC_I2CL_Write(I2C_OPENCORES_MIPI_BASE, device_address, Addr, (alt_u8 *)&Value, sizeof(Value));
   219ac:	e17ffd03 	ldbu	r5,-12(fp)
   219b0:	e1bffe0b 	ldhu	r6,-8(fp)
   219b4:	e0ffff04 	addi	r3,fp,-4
   219b8:	00800084 	movi	r2,2
   219bc:	d8800015 	stw	r2,0(sp)
   219c0:	01000134 	movhi	r4,4
   219c4:	21042004 	addi	r4,r4,4224
   219c8:	180f883a 	mov	r7,r3
   219cc:	0020ba80 	call	20ba8 <OC_I2CL_Write>
}
   219d0:	e037883a 	mov	sp,fp
   219d4:	dfc00117 	ldw	ra,4(sp)
   219d8:	df000017 	ldw	fp,0(sp)
   219dc:	dec00204 	addi	sp,sp,8
   219e0:	f800283a 	ret

000219e4 <MipiBridgeRegRead>:

alt_u16 MipiBridgeRegRead(alt_u16 Addr){
   219e4:	defffa04 	addi	sp,sp,-24
   219e8:	dfc00515 	stw	ra,20(sp)
   219ec:	df000415 	stw	fp,16(sp)
   219f0:	df000404 	addi	fp,sp,16
   219f4:	2005883a 	mov	r2,r4
   219f8:	e0bfff0d 	sth	r2,-4(fp)
	alt_u16 Value,tValue;
	const alt_u8 device_address = MIPI_BRIDGE_I2C_ADDR;
   219fc:	00800704 	movi	r2,28
   21a00:	e0bffd05 	stb	r2,-12(fp)

	OC_I2CL_Read(I2C_OPENCORES_MIPI_BASE,device_address, Addr,(alt_u8 *)&Value,sizeof(Value));
   21a04:	e17ffd03 	ldbu	r5,-12(fp)
   21a08:	e1bfff0b 	ldhu	r6,-4(fp)
   21a0c:	e0fffe04 	addi	r3,fp,-8
   21a10:	00800084 	movi	r2,2
   21a14:	d8800015 	stw	r2,0(sp)
   21a18:	01000134 	movhi	r4,4
   21a1c:	21042004 	addi	r4,r4,4224
   21a20:	180f883a 	mov	r7,r3
   21a24:	0020db80 	call	20db8 <OC_I2CL_Read>

	tValue = nSWAP16(Value);
   21a28:	e0bffe0b 	ldhu	r2,-8(fp)
   21a2c:	10bfffcc 	andi	r2,r2,65535
   21a30:	1009883a 	mov	r4,r2
   21a34:	00219380 	call	21938 <nSWAP16>
   21a38:	e0bffd8d 	sth	r2,-10(fp)

	return (tValue);
   21a3c:	e0bffd8b 	ldhu	r2,-10(fp)
}
   21a40:	e037883a 	mov	sp,fp
   21a44:	dfc00117 	ldw	ra,4(sp)
   21a48:	df000017 	ldw	fp,0(sp)
   21a4c:	dec00204 	addi	sp,sp,8
   21a50:	f800283a 	ret

00021a54 <MipiBridgeInit>:




void MipiBridgeInit(void){
   21a54:	defffb04 	addi	sp,sp,-20
   21a58:	dfc00415 	stw	ra,16(sp)
   21a5c:	df000315 	stw	fp,12(sp)
   21a60:	df000304 	addi	fp,sp,12

	alt_u16 data;
    int i, num;

	printf("\nStart MipiBridgeInit!\n");
   21a64:	010000f4 	movhi	r4,3
   21a68:	21060704 	addi	r4,r4,6172
   21a6c:	0022f900 	call	22f90 <puts>

	data = MipiBridgeRegRead(0x0000); // read chip and revision id;
   21a70:	0009883a 	mov	r4,zero
   21a74:	00219e40 	call	219e4 <MipiBridgeRegRead>
   21a78:	e0bffe0d 	sth	r2,-8(fp)

	printf("Chip and Revision ID is 0x%04xh(expected: 0x4401);\n",data);
   21a7c:	e0bffe0b 	ldhu	r2,-8(fp)
   21a80:	010000f4 	movhi	r4,3
   21a84:	21060d04 	addi	r4,r4,6196
   21a88:	100b883a 	mov	r5,r2
   21a8c:	0022e8c0 	call	22e8c <printf>


    num = sizeof(MipiBridgeReg)/sizeof(MipiBridgeReg[0]);
   21a90:	00800344 	movi	r2,13
   21a94:	e0bfff15 	stw	r2,-4(fp)

    for(i=0;i<num;i++){
   21a98:	e03ffd15 	stw	zero,-12(fp)
   21a9c:	00002b06 	br	21b4c <MipiBridgeInit+0xf8>
   	 if (MipiBridgeReg[i].Addr == 0xFFFF)   usleep(MipiBridgeReg[i].Data*1000);
   21aa0:	008000f4 	movhi	r2,3
   21aa4:	10870c04 	addi	r2,r2,7216
   21aa8:	e0fffd17 	ldw	r3,-12(fp)
   21aac:	18c7883a 	add	r3,r3,r3
   21ab0:	18c7883a 	add	r3,r3,r3
   21ab4:	10c5883a 	add	r2,r2,r3
   21ab8:	1080000b 	ldhu	r2,0(r2)
   21abc:	10ffffcc 	andi	r3,r2,65535
   21ac0:	00bfffd4 	movui	r2,65535
   21ac4:	18800c1e 	bne	r3,r2,21af8 <MipiBridgeInit+0xa4>
   21ac8:	008000f4 	movhi	r2,3
   21acc:	10870c04 	addi	r2,r2,7216
   21ad0:	e0fffd17 	ldw	r3,-12(fp)
   21ad4:	18c7883a 	add	r3,r3,r3
   21ad8:	18c7883a 	add	r3,r3,r3
   21adc:	10c5883a 	add	r2,r2,r3
   21ae0:	1080008b 	ldhu	r2,2(r2)
   21ae4:	10bfffcc 	andi	r2,r2,65535
   21ae8:	1080fa24 	muli	r2,r2,1000
   21aec:	1009883a 	mov	r4,r2
   21af0:	002f3ac0 	call	2f3ac <usleep>
   21af4:	00001206 	br	21b40 <MipiBridgeInit+0xec>
        else MipiBridgeRegWrite(MipiBridgeReg[i].Addr,  MipiBridgeReg[i].Data);
   21af8:	008000f4 	movhi	r2,3
   21afc:	10870c04 	addi	r2,r2,7216
   21b00:	e0fffd17 	ldw	r3,-12(fp)
   21b04:	18c7883a 	add	r3,r3,r3
   21b08:	18c7883a 	add	r3,r3,r3
   21b0c:	10c5883a 	add	r2,r2,r3
   21b10:	1080000b 	ldhu	r2,0(r2)
   21b14:	113fffcc 	andi	r4,r2,65535
   21b18:	008000f4 	movhi	r2,3
   21b1c:	10870c04 	addi	r2,r2,7216
   21b20:	e0fffd17 	ldw	r3,-12(fp)
   21b24:	18c7883a 	add	r3,r3,r3
   21b28:	18c7883a 	add	r3,r3,r3
   21b2c:	10c5883a 	add	r2,r2,r3
   21b30:	1080008b 	ldhu	r2,2(r2)
   21b34:	10bfffcc 	andi	r2,r2,65535
   21b38:	100b883a 	mov	r5,r2
   21b3c:	00219840 	call	21984 <MipiBridgeRegWrite>
	printf("Chip and Revision ID is 0x%04xh(expected: 0x4401);\n",data);


    num = sizeof(MipiBridgeReg)/sizeof(MipiBridgeReg[0]);

    for(i=0;i<num;i++){
   21b40:	e0bffd17 	ldw	r2,-12(fp)
   21b44:	10800044 	addi	r2,r2,1
   21b48:	e0bffd15 	stw	r2,-12(fp)
   21b4c:	e0fffd17 	ldw	r3,-12(fp)
   21b50:	e0bfff17 	ldw	r2,-4(fp)
   21b54:	18bfd216 	blt	r3,r2,21aa0 <_gp+0xfffe5c2c>
//     MipiBridgeRegWrite(0x005A,((cap<<6) + (HsRxRs<<4) + ClkDly_data));
//     MipiBridgeRegWrite(0x005C,((cap<<6) + (HsRxRs<<4) + ClkDly_data));
//     MipiBridgeRegWrite(0x005E,((cap<<6) + (HsRxRs<<4) + ClkDly_data));
//

    printf("End MipiBridgeInit!\n\n");
   21b58:	010000f4 	movhi	r4,3
   21b5c:	21061a04 	addi	r4,r4,6248
   21b60:	0022f900 	call	22f90 <puts>

}
   21b64:	e037883a 	mov	sp,fp
   21b68:	dfc00117 	ldw	ra,4(sp)
   21b6c:	df000017 	ldw	fp,0(sp)
   21b70:	dec00204 	addi	sp,sp,8
   21b74:	f800283a 	ret

00021b78 <OV8865_read_cmos_sensor_8>:
   };




alt_u8 OV8865_read_cmos_sensor_8(alt_u16 Addr){
   21b78:	defffb04 	addi	sp,sp,-20
   21b7c:	dfc00415 	stw	ra,16(sp)
   21b80:	df000315 	stw	fp,12(sp)
   21b84:	df000304 	addi	fp,sp,12
   21b88:	2005883a 	mov	r2,r4
   21b8c:	e0bfff0d 	sth	r2,-4(fp)
	const alt_u8 device_address = MIPI_I2C_ADDR;
   21b90:	00801b04 	movi	r2,108
   21b94:	e0bffe05 	stb	r2,-8(fp)
	alt_u8 Value;

	//OC_I2CL_Write(I2C_OPENCORES_CAMERA_BASE, device_address, SWAP16(Addr), (alt_u8 *)&Value, sizeof(Value));
	OC_I2CL_Read(I2C_OPENCORES_CAMERA_BASE, device_address, Addr, (alt_u8 *)&Value, sizeof(Value));
   21b98:	e17ffe03 	ldbu	r5,-8(fp)
   21b9c:	e1bfff0b 	ldhu	r6,-4(fp)
   21ba0:	e0fffe44 	addi	r3,fp,-7
   21ba4:	00800044 	movi	r2,1
   21ba8:	d8800015 	stw	r2,0(sp)
   21bac:	01000134 	movhi	r4,4
   21bb0:	21041804 	addi	r4,r4,4192
   21bb4:	180f883a 	mov	r7,r3
   21bb8:	0020db80 	call	20db8 <OC_I2CL_Read>

	return (Value);
   21bbc:	e0bffe43 	ldbu	r2,-7(fp)
}
   21bc0:	e037883a 	mov	sp,fp
   21bc4:	dfc00117 	ldw	ra,4(sp)
   21bc8:	df000017 	ldw	fp,0(sp)
   21bcc:	dec00204 	addi	sp,sp,8
   21bd0:	f800283a 	ret

00021bd4 <OV8865_write_cmos_sensor_8>:


void OV8865_write_cmos_sensor_8(alt_u16 Addr, alt_u8 Value){
   21bd4:	defffa04 	addi	sp,sp,-24
   21bd8:	dfc00515 	stw	ra,20(sp)
   21bdc:	df000415 	stw	fp,16(sp)
   21be0:	df000404 	addi	fp,sp,16
   21be4:	2007883a 	mov	r3,r4
   21be8:	2805883a 	mov	r2,r5
   21bec:	e0fffe0d 	sth	r3,-8(fp)
   21bf0:	e0bfff05 	stb	r2,-4(fp)
	const alt_u8 device_address = MIPI_I2C_ADDR;
   21bf4:	00801b04 	movi	r2,108
   21bf8:	e0bffd05 	stb	r2,-12(fp)
	//OC_I2CL_Write(I2C_OPENCORES_CAMERA_BASE, device_address, SWAP16(Addr), (alt_u8 *)&Value, sizeof(Value));
	OC_I2CL_Write(I2C_OPENCORES_CAMERA_BASE, device_address, Addr, (alt_u8 *)&Value, sizeof(Value));
   21bfc:	e17ffd03 	ldbu	r5,-12(fp)
   21c00:	e1bffe0b 	ldhu	r6,-8(fp)
   21c04:	e0ffff04 	addi	r3,fp,-4
   21c08:	00800044 	movi	r2,1
   21c0c:	d8800015 	stw	r2,0(sp)
   21c10:	01000134 	movhi	r4,4
   21c14:	21041804 	addi	r4,r4,4192
   21c18:	180f883a 	mov	r7,r3
   21c1c:	0020ba80 	call	20ba8 <OC_I2CL_Write>
}
   21c20:	e037883a 	mov	sp,fp
   21c24:	dfc00117 	ldw	ra,4(sp)
   21c28:	df000017 	ldw	fp,0(sp)
   21c2c:	dec00204 	addi	sp,sp,8
   21c30:	f800283a 	ret

00021c34 <OV8865_write_AF>:


void OV8865_write_AF(alt_u8 msb, alt_u8 lsb){
   21c34:	defffa04 	addi	sp,sp,-24
   21c38:	dfc00515 	stw	ra,20(sp)
   21c3c:	df000415 	stw	fp,16(sp)
   21c40:	df000404 	addi	fp,sp,16
   21c44:	2007883a 	mov	r3,r4
   21c48:	2805883a 	mov	r2,r5
   21c4c:	e0fffe05 	stb	r3,-8(fp)
   21c50:	e0bfff05 	stb	r2,-4(fp)
	// VCM149C
	const alt_u8 device_address = MIPI_AF_I2C_ADDR;
   21c54:	00800604 	movi	r2,24
   21c58:	e0bffd05 	stb	r2,-12(fp)
	OC_I2C_Write(I2C_OPENCORES_CAMERA_BASE, device_address, msb, (alt_u8 *)&lsb, sizeof(lsb));
   21c5c:	e17ffd03 	ldbu	r5,-12(fp)
   21c60:	e1bffe03 	ldbu	r6,-8(fp)
   21c64:	e0ffff04 	addi	r3,fp,-4
   21c68:	00800044 	movi	r2,1
   21c6c:	d8800015 	stw	r2,0(sp)
   21c70:	01000134 	movhi	r4,4
   21c74:	21041804 	addi	r4,r4,4192
   21c78:	180f883a 	mov	r7,r3
   21c7c:	00206400 	call	20640 <OC_I2C_Write>
}
   21c80:	e037883a 	mov	sp,fp
   21c84:	dfc00117 	ldw	ra,4(sp)
   21c88:	df000017 	ldw	fp,0(sp)
   21c8c:	dec00204 	addi	sp,sp,8
   21c90:	f800283a 	ret

00021c94 <OV8865_read_AF>:

void OV8865_read_AF(void){
   21c94:	defffb04 	addi	sp,sp,-20
   21c98:	dfc00415 	stw	ra,16(sp)
   21c9c:	df000315 	stw	fp,12(sp)
   21ca0:	df000304 	addi	fp,sp,12
	// VCM149C
	const alt_u8 device_address = MIPI_AF_I2C_ADDR;
   21ca4:	00800604 	movi	r2,24
   21ca8:	e0bffd05 	stb	r2,-12(fp)
	alt_u8 szData8[2];
	bool bSuccess;

		bSuccess = OC_I2C_Read_Continue(I2C_OPENCORES_CAMERA_BASE, device_address, szData8, sizeof(szData8));
   21cac:	e0fffd03 	ldbu	r3,-12(fp)
   21cb0:	e0bfff04 	addi	r2,fp,-4
   21cb4:	01000134 	movhi	r4,4
   21cb8:	21041804 	addi	r4,r4,4192
   21cbc:	180b883a 	mov	r5,r3
   21cc0:	100d883a 	mov	r6,r2
   21cc4:	01c00084 	movi	r7,2
   21cc8:	0020a700 	call	20a70 <OC_I2C_Read_Continue>
   21ccc:	e0bffe15 	stw	r2,-8(fp)
		if (bSuccess)
   21cd0:	e0bffe17 	ldw	r2,-8(fp)
   21cd4:	10000926 	beq	r2,zero,21cfc <OV8865_read_AF+0x68>
			printf("Read MSB=%xh, LSB=%xh\r\n", szData8[0], szData8[1]);
   21cd8:	e0bfff03 	ldbu	r2,-4(fp)
   21cdc:	10c03fcc 	andi	r3,r2,255
   21ce0:	e0bfff43 	ldbu	r2,-3(fp)
   21ce4:	10803fcc 	andi	r2,r2,255
   21ce8:	010000f4 	movhi	r4,3
   21cec:	21062004 	addi	r4,r4,6272
   21cf0:	180b883a 	mov	r5,r3
   21cf4:	100d883a 	mov	r6,r2
   21cf8:	0022e8c0 	call	22e8c <printf>
}
   21cfc:	e037883a 	mov	sp,fp
   21d00:	dfc00117 	ldw	ra,4(sp)
   21d04:	df000017 	ldw	fp,0(sp)
   21d08:	dec00204 	addi	sp,sp,8
   21d0c:	f800283a 	ret

00021d10 <OV8865_FOCUS_Move_to>:

void OV8865_FOCUS_Move_to(alt_u16 a_u2MovePosition)
{
   21d10:	defffb04 	addi	sp,sp,-20
   21d14:	dfc00415 	stw	ra,16(sp)
   21d18:	df000315 	stw	fp,12(sp)
   21d1c:	df000304 	addi	fp,sp,12
   21d20:	2005883a 	mov	r2,r4
   21d24:	e0bfff0d 	sth	r2,-4(fp)
  if (a_u2MovePosition > 1023)   {a_u2MovePosition = 1023;}
   21d28:	e0bfff0b 	ldhu	r2,-4(fp)
   21d2c:	10810030 	cmpltui	r2,r2,1024
   21d30:	1000021e 	bne	r2,zero,21d3c <OV8865_FOCUS_Move_to+0x2c>
   21d34:	0080ffc4 	movi	r2,1023
   21d38:	e0bfff0d 	sth	r2,-4(fp)
  if (a_u2MovePosition < 0)     {a_u2MovePosition = 0;}
  int bSuccess;

  Focus_Released(); // waiting for VCM release I2C bus
   21d3c:	002133c0 	call	2133c <Focus_Released>

	bSuccess = oc_i2c_init_ex(I2C_OPENCORES_CAMERA_BASE, 50*1000*1000,400*1000); //I2C: 400K
   21d40:	01000134 	movhi	r4,4
   21d44:	21041804 	addi	r4,r4,4192
   21d48:	0140bef4 	movhi	r5,763
   21d4c:	297c2004 	addi	r5,r5,-3968
   21d50:	018001b4 	movhi	r6,6
   21d54:	3186a004 	addi	r6,r6,6784
   21d58:	00203940 	call	20394 <oc_i2c_init_ex>
   21d5c:	e0bffd15 	stw	r2,-12(fp)
	if (!bSuccess)
   21d60:	e0bffd17 	ldw	r2,-12(fp)
   21d64:	1000031e 	bne	r2,zero,21d74 <OV8865_FOCUS_Move_to+0x64>
		printf("failed to init MIPI- Camera i2c\r\n");
   21d68:	010000f4 	movhi	r4,3
   21d6c:	21062604 	addi	r4,r4,6296
   21d70:	0022f900 	call	22f90 <puts>

	printf("Manual set focus to %d\r\n",a_u2MovePosition);
   21d74:	e0bfff0b 	ldhu	r2,-4(fp)
   21d78:	010000f4 	movhi	r4,3
   21d7c:	21062f04 	addi	r4,r4,6332
   21d80:	100b883a 	mov	r5,r2
   21d84:	0022e8c0 	call	22e8c <printf>
  alt_u8 msb,lsb;
  msb = (a_u2MovePosition >> 4)&0x00FF;
   21d88:	e0bfff0b 	ldhu	r2,-4(fp)
   21d8c:	1004d13a 	srli	r2,r2,4
   21d90:	e0bffe05 	stb	r2,-8(fp)
  lsb = (a_u2MovePosition << 4 )&0x00F0;
   21d94:	e0bfff0b 	ldhu	r2,-4(fp)
   21d98:	1004913a 	slli	r2,r2,4
   21d9c:	e0bffe45 	stb	r2,-7(fp)
  lsb += 0x06;
   21da0:	e0bffe43 	ldbu	r2,-7(fp)
   21da4:	10800184 	addi	r2,r2,6
   21da8:	e0bffe45 	stb	r2,-7(fp)
//	printf("Write MSB=%xh, LSB=%xh\r\n", msb, lsb);
	OV8865_write_AF(msb, lsb+0x6);
   21dac:	e0fffe03 	ldbu	r3,-8(fp)
   21db0:	e0bffe43 	ldbu	r2,-7(fp)
   21db4:	10800184 	addi	r2,r2,6
   21db8:	10803fcc 	andi	r2,r2,255
   21dbc:	1809883a 	mov	r4,r3
   21dc0:	100b883a 	mov	r5,r2
   21dc4:	0021c340 	call	21c34 <OV8865_write_AF>
	usleep(1000);
   21dc8:	0100fa04 	movi	r4,1000
   21dcc:	002f3ac0 	call	2f3ac <usleep>
//	OV8865_read_AF();

	oc_i2c_uninit(I2C_OPENCORES_CAMERA_BASE);  // Release I2C bus , due to two I2C master shared!
   21dd0:	01000134 	movhi	r4,4
   21dd4:	21041804 	addi	r4,r4,4192
   21dd8:	00204d00 	call	204d0 <oc_i2c_uninit>

}
   21ddc:	e037883a 	mov	sp,fp
   21de0:	dfc00117 	ldw	ra,4(sp)
   21de4:	df000017 	ldw	fp,0(sp)
   21de8:	dec00204 	addi	sp,sp,8
   21dec:	f800283a 	ret

00021df0 <MIPI_BIN_LEVEL>:




//ZOOM
void MIPI_BIN_LEVEL(alt_u8 level){
   21df0:	defffc04 	addi	sp,sp,-16
   21df4:	dfc00315 	stw	ra,12(sp)
   21df8:	df000215 	stw	fp,8(sp)
   21dfc:	df000204 	addi	fp,sp,8
   21e00:	2005883a 	mov	r2,r4
   21e04:	e0bfff05 	stb	r2,-4(fp)
	if(level <= 1) level = 1;
   21e08:	e0bfff03 	ldbu	r2,-4(fp)
   21e0c:	108000a8 	cmpgeui	r2,r2,2
   21e10:	1000021e 	bne	r2,zero,21e1c <MIPI_BIN_LEVEL+0x2c>
   21e14:	00800044 	movi	r2,1
   21e18:	e0bfff05 	stb	r2,-4(fp)
	if(level >= 3) level = 3;
   21e1c:	e0bfff03 	ldbu	r2,-4(fp)
   21e20:	108000f0 	cmpltui	r2,r2,3
   21e24:	1000021e 	bne	r2,zero,21e30 <MIPI_BIN_LEVEL+0x40>
   21e28:	008000c4 	movi	r2,3
   21e2c:	e0bfff05 	stb	r2,-4(fp)

	  Focus_Released(); // waiting for VCM release I2C bus
   21e30:	002133c0 	call	2133c <Focus_Released>

	  int bSuccess;
		bSuccess = oc_i2c_init_ex(I2C_OPENCORES_CAMERA_BASE, 50*1000*1000,400*1000); //I2C: 400K
   21e34:	01000134 	movhi	r4,4
   21e38:	21041804 	addi	r4,r4,4192
   21e3c:	0140bef4 	movhi	r5,763
   21e40:	297c2004 	addi	r5,r5,-3968
   21e44:	018001b4 	movhi	r6,6
   21e48:	3186a004 	addi	r6,r6,6784
   21e4c:	00203940 	call	20394 <oc_i2c_init_ex>
   21e50:	e0bffe15 	stw	r2,-8(fp)
		if (!bSuccess)
   21e54:	e0bffe17 	ldw	r2,-8(fp)
   21e58:	1000031e 	bne	r2,zero,21e68 <MIPI_BIN_LEVEL+0x78>
			printf("failed to init MIPI- Camera i2c\r\n");
   21e5c:	010000f4 	movhi	r4,3
   21e60:	21062604 	addi	r4,r4,6296
   21e64:	0022f900 	call	22f90 <puts>


	OV8865_write_cmos_sensor_8(0x0100, 0x00);
   21e68:	01004004 	movi	r4,256
   21e6c:	000b883a 	mov	r5,zero
   21e70:	0021bd40 	call	21bd4 <OV8865_write_cmos_sensor_8>

	if(level == 1){
   21e74:	e0bfff03 	ldbu	r2,-4(fp)
   21e78:	10800058 	cmpnei	r2,r2,1
   21e7c:	1000131e 	bne	r2,zero,21ecc <MIPI_BIN_LEVEL+0xdc>
		OV8865_write_cmos_sensor_8(0x3814, 0x01);
   21e80:	010e0504 	movi	r4,14356
   21e84:	01400044 	movi	r5,1
   21e88:	0021bd40 	call	21bd4 <OV8865_write_cmos_sensor_8>
		OV8865_write_cmos_sensor_8(0x3815, 0x01);
   21e8c:	010e0544 	movi	r4,14357
   21e90:	01400044 	movi	r5,1
   21e94:	0021bd40 	call	21bd4 <OV8865_write_cmos_sensor_8>
		OV8865_write_cmos_sensor_8(0x382a, 0x01);
   21e98:	010e0a84 	movi	r4,14378
   21e9c:	01400044 	movi	r5,1
   21ea0:	0021bd40 	call	21bd4 <OV8865_write_cmos_sensor_8>
		OV8865_write_cmos_sensor_8(0x382b, 0x01);
   21ea4:	010e0ac4 	movi	r4,14379
   21ea8:	01400044 	movi	r5,1
   21eac:	0021bd40 	call	21bd4 <OV8865_write_cmos_sensor_8>

		OV8865_write_cmos_sensor_8(0x3830, 8);
   21eb0:	010e0c04 	movi	r4,14384
   21eb4:	01400204 	movi	r5,8
   21eb8:	0021bd40 	call	21bd4 <OV8865_write_cmos_sensor_8>
		OV8865_write_cmos_sensor_8(0x3836, 2);
   21ebc:	010e0d84 	movi	r4,14390
   21ec0:	01400084 	movi	r5,2
   21ec4:	0021bd40 	call	21bd4 <OV8865_write_cmos_sensor_8>
   21ec8:	00002b06 	br	21f78 <MIPI_BIN_LEVEL+0x188>
	}
	else if(level == 2){
   21ecc:	e0bfff03 	ldbu	r2,-4(fp)
   21ed0:	10800098 	cmpnei	r2,r2,2
   21ed4:	1000131e 	bne	r2,zero,21f24 <MIPI_BIN_LEVEL+0x134>
		OV8865_write_cmos_sensor_8(0x3814, 0x03);
   21ed8:	010e0504 	movi	r4,14356
   21edc:	014000c4 	movi	r5,3
   21ee0:	0021bd40 	call	21bd4 <OV8865_write_cmos_sensor_8>
		OV8865_write_cmos_sensor_8(0x3815, 0x01);
   21ee4:	010e0544 	movi	r4,14357
   21ee8:	01400044 	movi	r5,1
   21eec:	0021bd40 	call	21bd4 <OV8865_write_cmos_sensor_8>
		OV8865_write_cmos_sensor_8(0x382a, 0x03);
   21ef0:	010e0a84 	movi	r4,14378
   21ef4:	014000c4 	movi	r5,3
   21ef8:	0021bd40 	call	21bd4 <OV8865_write_cmos_sensor_8>
		OV8865_write_cmos_sensor_8(0x382b, 0x01);
   21efc:	010e0ac4 	movi	r4,14379
   21f00:	01400044 	movi	r5,1
   21f04:	0021bd40 	call	21bd4 <OV8865_write_cmos_sensor_8>

		OV8865_write_cmos_sensor_8(0x3830, 4);
   21f08:	010e0c04 	movi	r4,14384
   21f0c:	01400104 	movi	r5,4
   21f10:	0021bd40 	call	21bd4 <OV8865_write_cmos_sensor_8>
		OV8865_write_cmos_sensor_8(0x3836, 1);
   21f14:	010e0d84 	movi	r4,14390
   21f18:	01400044 	movi	r5,1
   21f1c:	0021bd40 	call	21bd4 <OV8865_write_cmos_sensor_8>
   21f20:	00001506 	br	21f78 <MIPI_BIN_LEVEL+0x188>

	}
	else if(level == 3){
   21f24:	e0bfff03 	ldbu	r2,-4(fp)
   21f28:	108000d8 	cmpnei	r2,r2,3
   21f2c:	1000121e 	bne	r2,zero,21f78 <MIPI_BIN_LEVEL+0x188>
		OV8865_write_cmos_sensor_8(0x3814, 0x07);
   21f30:	010e0504 	movi	r4,14356
   21f34:	014001c4 	movi	r5,7
   21f38:	0021bd40 	call	21bd4 <OV8865_write_cmos_sensor_8>
		OV8865_write_cmos_sensor_8(0x3815, 0x01);
   21f3c:	010e0544 	movi	r4,14357
   21f40:	01400044 	movi	r5,1
   21f44:	0021bd40 	call	21bd4 <OV8865_write_cmos_sensor_8>
		OV8865_write_cmos_sensor_8(0x382a, 0x07);
   21f48:	010e0a84 	movi	r4,14378
   21f4c:	014001c4 	movi	r5,7
   21f50:	0021bd40 	call	21bd4 <OV8865_write_cmos_sensor_8>
		OV8865_write_cmos_sensor_8(0x382b, 0x01);
   21f54:	010e0ac4 	movi	r4,14379
   21f58:	01400044 	movi	r5,1
   21f5c:	0021bd40 	call	21bd4 <OV8865_write_cmos_sensor_8>

		OV8865_write_cmos_sensor_8(0x3830, 8);
   21f60:	010e0c04 	movi	r4,14384
   21f64:	01400204 	movi	r5,8
   21f68:	0021bd40 	call	21bd4 <OV8865_write_cmos_sensor_8>
		OV8865_write_cmos_sensor_8(0x3836, 2);
   21f6c:	010e0d84 	movi	r4,14390
   21f70:	01400084 	movi	r5,2
   21f74:	0021bd40 	call	21bd4 <OV8865_write_cmos_sensor_8>
	}
    usleep(10000);
   21f78:	0109c404 	movi	r4,10000
   21f7c:	002f3ac0 	call	2f3ac <usleep>
	OV8865_write_cmos_sensor_8(0x0100, 0x01);
   21f80:	01004004 	movi	r4,256
   21f84:	01400044 	movi	r5,1
   21f88:	0021bd40 	call	21bd4 <OV8865_write_cmos_sensor_8>

	oc_i2c_uninit(I2C_OPENCORES_CAMERA_BASE);  // Release I2C bus , due to two I2C master shared!
   21f8c:	01000134 	movhi	r4,4
   21f90:	21041804 	addi	r4,r4,4192
   21f94:	00204d00 	call	204d0 <oc_i2c_uninit>

}
   21f98:	e037883a 	mov	sp,fp
   21f9c:	dfc00117 	ldw	ra,4(sp)
   21fa0:	df000017 	ldw	fp,0(sp)
   21fa4:	dec00204 	addi	sp,sp,8
   21fa8:	f800283a 	ret

00021fac <MipiCameraInit>:
//		OV8865_write_cmos_sensor_8(0x0100, 0x01);
//}


void MipiCameraInit(void)
{
   21fac:	defffb04 	addi	sp,sp,-20
   21fb0:	dfc00415 	stw	ra,16(sp)
   21fb4:	df000315 	stw	fp,12(sp)
   21fb8:	df000304 	addi	fp,sp,12

    int i, num;
    int bSuccess;

    Focus_Released(); // waiting for VCM release I2C bus
   21fbc:	002133c0 	call	2133c <Focus_Released>


		bSuccess = oc_i2c_init_ex(I2C_OPENCORES_CAMERA_BASE, 50*1000*1000,400*1000); //I2C: 400K
   21fc0:	01000134 	movhi	r4,4
   21fc4:	21041804 	addi	r4,r4,4192
   21fc8:	0140bef4 	movhi	r5,763
   21fcc:	297c2004 	addi	r5,r5,-3968
   21fd0:	018001b4 	movhi	r6,6
   21fd4:	3186a004 	addi	r6,r6,6784
   21fd8:	00203940 	call	20394 <oc_i2c_init_ex>
   21fdc:	e0bffe15 	stw	r2,-8(fp)
		if (!bSuccess)
   21fe0:	e0bffe17 	ldw	r2,-8(fp)
   21fe4:	1000031e 	bne	r2,zero,21ff4 <MipiCameraInit+0x48>
			printf("failed to init MIPI- Camera i2c\r\n");
   21fe8:	010000f4 	movhi	r4,3
   21fec:	21062604 	addi	r4,r4,6296
   21ff0:	0022f900 	call	22f90 <puts>
//        usleep(10000);
//    }
//


	 OV8865DB("\nStart MipiCameraInit -OV8865!\r\n");
   21ff4:	010000f4 	movhi	r4,3
   21ff8:	21063604 	addi	r4,r4,6360
   21ffc:	0022f900 	call	22f90 <puts>
	 OV8865DB("Write Read Test!\n");
   22000:	010000f4 	movhi	r4,3
   22004:	21063e04 	addi	r4,r4,6392
   22008:	0022f900 	call	22f90 <puts>

	    for(i=0;i<10;i++){
   2200c:	e03ffd15 	stw	zero,-12(fp)
   22010:	00001406 	br	22064 <MipiCameraInit+0xb8>
	       OV8865_write_cmos_sensor_8(0x3809,i);
   22014:	e0bffd17 	ldw	r2,-12(fp)
   22018:	10803fcc 	andi	r2,r2,255
   2201c:	010e0244 	movi	r4,14345
   22020:	100b883a 	mov	r5,r2
   22024:	0021bd40 	call	21bd4 <OV8865_write_cmos_sensor_8>
	      usleep(100);
   22028:	01001904 	movi	r4,100
   2202c:	002f3ac0 	call	2f3ac <usleep>
	        printf("%d (%d)\n",OV8865_read_cmos_sensor_8(0x3809),i);
   22030:	010e0244 	movi	r4,14345
   22034:	0021b780 	call	21b78 <OV8865_read_cmos_sensor_8>
   22038:	10803fcc 	andi	r2,r2,255
   2203c:	010000f4 	movhi	r4,3
   22040:	21064304 	addi	r4,r4,6412
   22044:	100b883a 	mov	r5,r2
   22048:	e1bffd17 	ldw	r6,-12(fp)
   2204c:	0022e8c0 	call	22e8c <printf>
	      usleep(100);
   22050:	01001904 	movi	r4,100
   22054:	002f3ac0 	call	2f3ac <usleep>


	 OV8865DB("\nStart MipiCameraInit -OV8865!\r\n");
	 OV8865DB("Write Read Test!\n");

	    for(i=0;i<10;i++){
   22058:	e0bffd17 	ldw	r2,-12(fp)
   2205c:	10800044 	addi	r2,r2,1
   22060:	e0bffd15 	stw	r2,-12(fp)
   22064:	e0bffd17 	ldw	r2,-12(fp)
   22068:	10800290 	cmplti	r2,r2,10
   2206c:	103fe91e 	bne	r2,zero,22014 <_gp+0xfffe61a0>
	       OV8865_write_cmos_sensor_8(0x3809,i);
	      usleep(100);
	        printf("%d (%d)\n",OV8865_read_cmos_sensor_8(0x3809),i);
	      usleep(100);
	    }
	 num = sizeof(MipiCameraReg)/sizeof(MipiCameraReg[0]);
   22070:	00804ec4 	movi	r2,315
   22074:	e0bfff15 	stw	r2,-4(fp)
     for(i=0;i<num;i++){
   22078:	e03ffd15 	stw	zero,-12(fp)
   2207c:	00003c06 	br	22170 <MipiCameraInit+0x1c4>

    	 if (MipiCameraReg[i].Type == TIME_DELAY)   usleep(MipiCameraReg[i].Data*100);
   22080:	008000f4 	movhi	r2,3
   22084:	10871904 	addi	r2,r2,7268
   22088:	e0fffd17 	ldw	r3,-12(fp)
   2208c:	18c001a4 	muli	r3,r3,6
   22090:	10c5883a 	add	r2,r2,r3
   22094:	10800003 	ldbu	r2,0(r2)
   22098:	10803fcc 	andi	r2,r2,255
   2209c:	108000d8 	cmpnei	r2,r2,3
   220a0:	10000c1e 	bne	r2,zero,220d4 <MipiCameraInit+0x128>
   220a4:	008000f4 	movhi	r2,3
   220a8:	10871904 	addi	r2,r2,7268
   220ac:	e0fffd17 	ldw	r3,-12(fp)
   220b0:	18c001a4 	muli	r3,r3,6
   220b4:	18c00104 	addi	r3,r3,4
   220b8:	10c5883a 	add	r2,r2,r3
   220bc:	10800003 	ldbu	r2,0(r2)
   220c0:	10803fcc 	andi	r2,r2,255
   220c4:	10801924 	muli	r2,r2,100
   220c8:	1009883a 	mov	r4,r2
   220cc:	002f3ac0 	call	2f3ac <usleep>
   220d0:	00002406 	br	22164 <MipiCameraInit+0x1b8>
    	 else if(MipiCameraReg[i].Type == END_OF_SCRIPT)   break;
   220d4:	008000f4 	movhi	r2,3
   220d8:	10871904 	addi	r2,r2,7268
   220dc:	e0fffd17 	ldw	r3,-12(fp)
   220e0:	18c001a4 	muli	r3,r3,6
   220e4:	10c5883a 	add	r2,r2,r3
   220e8:	10800003 	ldbu	r2,0(r2)
   220ec:	10803fcc 	andi	r2,r2,255
   220f0:	10800118 	cmpnei	r2,r2,4
   220f4:	1000011e 	bne	r2,zero,220fc <MipiCameraInit+0x150>
   220f8:	00002006 	br	2217c <MipiCameraInit+0x1d0>
    	 else if(MipiCameraReg[i].Type == 0x6c)   OV8865_write_cmos_sensor_8(MipiCameraReg[i].Addr, MipiCameraReg[i].Data);
   220fc:	008000f4 	movhi	r2,3
   22100:	10871904 	addi	r2,r2,7268
   22104:	e0fffd17 	ldw	r3,-12(fp)
   22108:	18c001a4 	muli	r3,r3,6
   2210c:	10c5883a 	add	r2,r2,r3
   22110:	10800003 	ldbu	r2,0(r2)
   22114:	10803fcc 	andi	r2,r2,255
   22118:	10801b18 	cmpnei	r2,r2,108
   2211c:	1000111e 	bne	r2,zero,22164 <MipiCameraInit+0x1b8>
   22120:	008000f4 	movhi	r2,3
   22124:	10871904 	addi	r2,r2,7268
   22128:	e0fffd17 	ldw	r3,-12(fp)
   2212c:	18c001a4 	muli	r3,r3,6
   22130:	10c5883a 	add	r2,r2,r3
   22134:	1080008b 	ldhu	r2,2(r2)
   22138:	113fffcc 	andi	r4,r2,65535
   2213c:	008000f4 	movhi	r2,3
   22140:	10871904 	addi	r2,r2,7268
   22144:	e0fffd17 	ldw	r3,-12(fp)
   22148:	18c001a4 	muli	r3,r3,6
   2214c:	18c00104 	addi	r3,r3,4
   22150:	10c5883a 	add	r2,r2,r3
   22154:	10800003 	ldbu	r2,0(r2)
   22158:	10803fcc 	andi	r2,r2,255
   2215c:	100b883a 	mov	r5,r2
   22160:	0021bd40 	call	21bd4 <OV8865_write_cmos_sensor_8>
	      usleep(100);
	        printf("%d (%d)\n",OV8865_read_cmos_sensor_8(0x3809),i);
	      usleep(100);
	    }
	 num = sizeof(MipiCameraReg)/sizeof(MipiCameraReg[0]);
     for(i=0;i<num;i++){
   22164:	e0bffd17 	ldw	r2,-12(fp)
   22168:	10800044 	addi	r2,r2,1
   2216c:	e0bffd15 	stw	r2,-12(fp)
   22170:	e0fffd17 	ldw	r3,-12(fp)
   22174:	e0bfff17 	ldw	r2,-4(fp)
   22178:	18bfc116 	blt	r3,r2,22080 <_gp+0xfffe620c>
    	 else if(MipiCameraReg[i].Type == END_OF_SCRIPT)   break;
    	 else if(MipiCameraReg[i].Type == 0x6c)   OV8865_write_cmos_sensor_8(MipiCameraReg[i].Addr, MipiCameraReg[i].Data);
     }


 	oc_i2c_uninit(I2C_OPENCORES_CAMERA_BASE);  // Release I2C bus , due to two I2C master shared!
   2217c:	01000134 	movhi	r4,4
   22180:	21041804 	addi	r4,r4,4192
   22184:	00204d00 	call	204d0 <oc_i2c_uninit>



	 OV8865DB("\nEnd MipiCameraInit! -OV8865!\r\n\n");
   22188:	010000f4 	movhi	r4,3
   2218c:	21064604 	addi	r4,r4,6424
   22190:	0022f900 	call	22f90 <puts>

}
   22194:	e037883a 	mov	sp,fp
   22198:	dfc00117 	ldw	ra,4(sp)
   2219c:	df000017 	ldw	fp,0(sp)
   221a0:	dec00204 	addi	sp,sp,8
   221a4:	f800283a 	ret

000221a8 <QUEUE_New>:
#include "queue.h"




QUEUE_STRUCT* QUEUE_New(int nQueueNum){
   221a8:	defffb04 	addi	sp,sp,-20
   221ac:	dfc00415 	stw	ra,16(sp)
   221b0:	df000315 	stw	fp,12(sp)
   221b4:	df000304 	addi	fp,sp,12
   221b8:	e13fff15 	stw	r4,-4(fp)
    int nSize;
    QUEUE_STRUCT *pQueue;
    nSize = sizeof(QUEUE_STRUCT)+nQueueNum*sizeof(alt_u32);
   221bc:	e0bfff17 	ldw	r2,-4(fp)
   221c0:	10800144 	addi	r2,r2,5
   221c4:	1085883a 	add	r2,r2,r2
   221c8:	1085883a 	add	r2,r2,r2
   221cc:	e0bffd15 	stw	r2,-12(fp)
    pQueue = (QUEUE_STRUCT *)malloc(nSize);
   221d0:	e0bffd17 	ldw	r2,-12(fp)
   221d4:	1009883a 	mov	r4,r2
   221d8:	002256c0 	call	2256c <malloc>
   221dc:	e0bffe15 	stw	r2,-8(fp)
    memset((void *)pQueue, 0, nSize);
   221e0:	e0bffd17 	ldw	r2,-12(fp)
   221e4:	e13ffe17 	ldw	r4,-8(fp)
   221e8:	000b883a 	mov	r5,zero
   221ec:	100d883a 	mov	r6,r2
   221f0:	0022d3c0 	call	22d3c <memset>
    pQueue->num = nQueueNum;
   221f4:	e0ffff17 	ldw	r3,-4(fp)
   221f8:	e0bffe17 	ldw	r2,-8(fp)
   221fc:	10c00015 	stw	r3,0(r2)
    return pQueue;
   22200:	e0bffe17 	ldw	r2,-8(fp)
}
   22204:	e037883a 	mov	sp,fp
   22208:	dfc00117 	ldw	ra,4(sp)
   2220c:	df000017 	ldw	fp,0(sp)
   22210:	dec00204 	addi	sp,sp,8
   22214:	f800283a 	ret

00022218 <QUEUE_Delete>:

void QUEUE_Delete(QUEUE_STRUCT *pQueue){
   22218:	defffd04 	addi	sp,sp,-12
   2221c:	dfc00215 	stw	ra,8(sp)
   22220:	df000115 	stw	fp,4(sp)
   22224:	df000104 	addi	fp,sp,4
   22228:	e13fff15 	stw	r4,-4(fp)
    free(pQueue);
   2222c:	e13fff17 	ldw	r4,-4(fp)
   22230:	00225800 	call	22580 <free>
}
   22234:	e037883a 	mov	sp,fp
   22238:	dfc00117 	ldw	ra,4(sp)
   2223c:	df000017 	ldw	fp,0(sp)
   22240:	dec00204 	addi	sp,sp,8
   22244:	f800283a 	ret

00022248 <QUEUE_IsEmpty>:

bool QUEUE_IsEmpty(QUEUE_STRUCT *pQueue){
   22248:	defffe04 	addi	sp,sp,-8
   2224c:	df000115 	stw	fp,4(sp)
   22250:	df000104 	addi	fp,sp,4
   22254:	e13fff15 	stw	r4,-4(fp)
    if (pQueue->front == pQueue->rear)
   22258:	e0bfff17 	ldw	r2,-4(fp)
   2225c:	10c00117 	ldw	r3,4(r2)
   22260:	e0bfff17 	ldw	r2,-4(fp)
   22264:	10800217 	ldw	r2,8(r2)
   22268:	1880021e 	bne	r3,r2,22274 <QUEUE_IsEmpty+0x2c>
        return TRUE;
   2226c:	00800044 	movi	r2,1
   22270:	00000106 	br	22278 <QUEUE_IsEmpty+0x30>
    return FALSE;
   22274:	0005883a 	mov	r2,zero
}
   22278:	e037883a 	mov	sp,fp
   2227c:	df000017 	ldw	fp,0(sp)
   22280:	dec00104 	addi	sp,sp,4
   22284:	f800283a 	ret

00022288 <QUEUE_IsFull>:

bool QUEUE_IsFull(QUEUE_STRUCT *pQueue){
   22288:	defffd04 	addi	sp,sp,-12
   2228c:	dfc00215 	stw	ra,8(sp)
   22290:	df000115 	stw	fp,4(sp)
   22294:	df000104 	addi	fp,sp,4
   22298:	e13fff15 	stw	r4,-4(fp)
    if (((pQueue->front+1)%pQueue->num) == pQueue->rear)
   2229c:	e0bfff17 	ldw	r2,-4(fp)
   222a0:	10800117 	ldw	r2,4(r2)
   222a4:	10c00044 	addi	r3,r2,1
   222a8:	e0bfff17 	ldw	r2,-4(fp)
   222ac:	10800017 	ldw	r2,0(r2)
   222b0:	1809883a 	mov	r4,r3
   222b4:	100b883a 	mov	r5,r2
   222b8:	00225640 	call	22564 <__umodsi3>
   222bc:	1007883a 	mov	r3,r2
   222c0:	e0bfff17 	ldw	r2,-4(fp)
   222c4:	10800217 	ldw	r2,8(r2)
   222c8:	1880021e 	bne	r3,r2,222d4 <QUEUE_IsFull+0x4c>
        return TRUE;
   222cc:	00800044 	movi	r2,1
   222d0:	00000106 	br	222d8 <QUEUE_IsFull+0x50>
    return FALSE;
   222d4:	0005883a 	mov	r2,zero
}
   222d8:	e037883a 	mov	sp,fp
   222dc:	dfc00117 	ldw	ra,4(sp)
   222e0:	df000017 	ldw	fp,0(sp)
   222e4:	dec00204 	addi	sp,sp,8
   222e8:	f800283a 	ret

000222ec <QUEUE_Push>:

bool QUEUE_Push(QUEUE_STRUCT *pQueue, alt_u32 data32){
   222ec:	defffc04 	addi	sp,sp,-16
   222f0:	dfc00315 	stw	ra,12(sp)
   222f4:	df000215 	stw	fp,8(sp)
   222f8:	df000204 	addi	fp,sp,8
   222fc:	e13ffe15 	stw	r4,-8(fp)
   22300:	e17fff15 	stw	r5,-4(fp)
    if (QUEUE_IsFull(pQueue))
   22304:	e13ffe17 	ldw	r4,-8(fp)
   22308:	00222880 	call	22288 <QUEUE_IsFull>
   2230c:	10000226 	beq	r2,zero,22318 <QUEUE_Push+0x2c>
        return FALSE;
   22310:	0005883a 	mov	r2,zero
   22314:	00001506 	br	2236c <QUEUE_Push+0x80>
    pQueue->data[pQueue->front] = data32;
   22318:	e0bffe17 	ldw	r2,-8(fp)
   2231c:	10800117 	ldw	r2,4(r2)
   22320:	e0fffe17 	ldw	r3,-8(fp)
   22324:	108000c4 	addi	r2,r2,3
   22328:	1085883a 	add	r2,r2,r2
   2232c:	1085883a 	add	r2,r2,r2
   22330:	1885883a 	add	r2,r3,r2
   22334:	e0ffff17 	ldw	r3,-4(fp)
   22338:	10c00015 	stw	r3,0(r2)
    pQueue->front = (pQueue->front+1)%pQueue->num;        
   2233c:	e0bffe17 	ldw	r2,-8(fp)
   22340:	10800117 	ldw	r2,4(r2)
   22344:	10c00044 	addi	r3,r2,1
   22348:	e0bffe17 	ldw	r2,-8(fp)
   2234c:	10800017 	ldw	r2,0(r2)
   22350:	1809883a 	mov	r4,r3
   22354:	100b883a 	mov	r5,r2
   22358:	00225640 	call	22564 <__umodsi3>
   2235c:	1007883a 	mov	r3,r2
   22360:	e0bffe17 	ldw	r2,-8(fp)
   22364:	10c00115 	stw	r3,4(r2)
    return TRUE;
   22368:	00800044 	movi	r2,1
}
   2236c:	e037883a 	mov	sp,fp
   22370:	dfc00117 	ldw	ra,4(sp)
   22374:	df000017 	ldw	fp,0(sp)
   22378:	dec00204 	addi	sp,sp,8
   2237c:	f800283a 	ret

00022380 <QUEUE_Pop>:

alt_u32 QUEUE_Pop(QUEUE_STRUCT *pQueue){
   22380:	defffc04 	addi	sp,sp,-16
   22384:	dfc00315 	stw	ra,12(sp)
   22388:	df000215 	stw	fp,8(sp)
   2238c:	df000204 	addi	fp,sp,8
   22390:	e13fff15 	stw	r4,-4(fp)
    alt_u32 data32;
    if (QUEUE_IsEmpty(pQueue))
   22394:	e13fff17 	ldw	r4,-4(fp)
   22398:	00222480 	call	22248 <QUEUE_IsEmpty>
   2239c:	10000226 	beq	r2,zero,223a8 <QUEUE_Pop+0x28>
        return 0;
   223a0:	0005883a 	mov	r2,zero
   223a4:	00001506 	br	223fc <QUEUE_Pop+0x7c>
    data32 = pQueue->data[pQueue->rear];
   223a8:	e0bfff17 	ldw	r2,-4(fp)
   223ac:	10800217 	ldw	r2,8(r2)
   223b0:	e0ffff17 	ldw	r3,-4(fp)
   223b4:	108000c4 	addi	r2,r2,3
   223b8:	1085883a 	add	r2,r2,r2
   223bc:	1085883a 	add	r2,r2,r2
   223c0:	1885883a 	add	r2,r3,r2
   223c4:	10800017 	ldw	r2,0(r2)
   223c8:	e0bffe15 	stw	r2,-8(fp)
    pQueue->rear = (pQueue->rear+1)%pQueue->num;        
   223cc:	e0bfff17 	ldw	r2,-4(fp)
   223d0:	10800217 	ldw	r2,8(r2)
   223d4:	10c00044 	addi	r3,r2,1
   223d8:	e0bfff17 	ldw	r2,-4(fp)
   223dc:	10800017 	ldw	r2,0(r2)
   223e0:	1809883a 	mov	r4,r3
   223e4:	100b883a 	mov	r5,r2
   223e8:	00225640 	call	22564 <__umodsi3>
   223ec:	1007883a 	mov	r3,r2
   223f0:	e0bfff17 	ldw	r2,-4(fp)
   223f4:	10c00215 	stw	r3,8(r2)
    return data32;
   223f8:	e0bffe17 	ldw	r2,-8(fp)
}
   223fc:	e037883a 	mov	sp,fp
   22400:	dfc00117 	ldw	ra,4(sp)
   22404:	df000017 	ldw	fp,0(sp)
   22408:	dec00204 	addi	sp,sp,8
   2240c:	f800283a 	ret

00022410 <QUEUE_Empty>:

void QUEUE_Empty(QUEUE_STRUCT *pQueue){
   22410:	defffe04 	addi	sp,sp,-8
   22414:	df000115 	stw	fp,4(sp)
   22418:	df000104 	addi	fp,sp,4
   2241c:	e13fff15 	stw	r4,-4(fp)
    pQueue->front = 0;
   22420:	e0bfff17 	ldw	r2,-4(fp)
   22424:	10000115 	stw	zero,4(r2)
    pQueue->rear = 0;
   22428:	e0bfff17 	ldw	r2,-4(fp)
   2242c:	10000215 	stw	zero,8(r2)
}
   22430:	e037883a 	mov	sp,fp
   22434:	df000017 	ldw	fp,0(sp)
   22438:	dec00104 	addi	sp,sp,4
   2243c:	f800283a 	ret

00022440 <udivmodsi4>:
   22440:	2900182e 	bgeu	r5,r4,224a4 <udivmodsi4+0x64>
   22444:	28001716 	blt	r5,zero,224a4 <udivmodsi4+0x64>
   22448:	00800804 	movi	r2,32
   2244c:	00c00044 	movi	r3,1
   22450:	00000206 	br	2245c <udivmodsi4+0x1c>
   22454:	10001126 	beq	r2,zero,2249c <udivmodsi4+0x5c>
   22458:	28000516 	blt	r5,zero,22470 <udivmodsi4+0x30>
   2245c:	294b883a 	add	r5,r5,r5
   22460:	10bfffc4 	addi	r2,r2,-1
   22464:	18c7883a 	add	r3,r3,r3
   22468:	293ffa36 	bltu	r5,r4,22454 <_gp+0xfffe65e0>
   2246c:	18000b26 	beq	r3,zero,2249c <udivmodsi4+0x5c>
   22470:	0005883a 	mov	r2,zero
   22474:	21400236 	bltu	r4,r5,22480 <udivmodsi4+0x40>
   22478:	2149c83a 	sub	r4,r4,r5
   2247c:	10c4b03a 	or	r2,r2,r3
   22480:	1806d07a 	srli	r3,r3,1
   22484:	280ad07a 	srli	r5,r5,1
   22488:	183ffa1e 	bne	r3,zero,22474 <_gp+0xfffe6600>
   2248c:	3000011e 	bne	r6,zero,22494 <udivmodsi4+0x54>
   22490:	f800283a 	ret
   22494:	2005883a 	mov	r2,r4
   22498:	f800283a 	ret
   2249c:	0005883a 	mov	r2,zero
   224a0:	003ffa06 	br	2248c <_gp+0xfffe6618>
   224a4:	00c00044 	movi	r3,1
   224a8:	003ff106 	br	22470 <_gp+0xfffe65fc>

000224ac <__divsi3>:
   224ac:	defffe04 	addi	sp,sp,-8
   224b0:	dfc00115 	stw	ra,4(sp)
   224b4:	dc000015 	stw	r16,0(sp)
   224b8:	20000b16 	blt	r4,zero,224e8 <__divsi3+0x3c>
   224bc:	0021883a 	mov	r16,zero
   224c0:	28000c16 	blt	r5,zero,224f4 <__divsi3+0x48>
   224c4:	000d883a 	mov	r6,zero
   224c8:	00224400 	call	22440 <udivmodsi4>
   224cc:	0407c83a 	sub	r3,zero,r16
   224d0:	1884f03a 	xor	r2,r3,r2
   224d4:	1405883a 	add	r2,r2,r16
   224d8:	dfc00117 	ldw	ra,4(sp)
   224dc:	dc000017 	ldw	r16,0(sp)
   224e0:	dec00204 	addi	sp,sp,8
   224e4:	f800283a 	ret
   224e8:	0109c83a 	sub	r4,zero,r4
   224ec:	04000044 	movi	r16,1
   224f0:	283ff40e 	bge	r5,zero,224c4 <_gp+0xfffe6650>
   224f4:	014bc83a 	sub	r5,zero,r5
   224f8:	8400005c 	xori	r16,r16,1
   224fc:	003ff106 	br	224c4 <_gp+0xfffe6650>

00022500 <__modsi3>:
   22500:	defffd04 	addi	sp,sp,-12
   22504:	dfc00215 	stw	ra,8(sp)
   22508:	dc400115 	stw	r17,4(sp)
   2250c:	dc000015 	stw	r16,0(sp)
   22510:	20000c16 	blt	r4,zero,22544 <__modsi3+0x44>
   22514:	0023883a 	mov	r17,zero
   22518:	0021883a 	mov	r16,zero
   2251c:	28000d16 	blt	r5,zero,22554 <__modsi3+0x54>
   22520:	01800044 	movi	r6,1
   22524:	00224400 	call	22440 <udivmodsi4>
   22528:	1404f03a 	xor	r2,r2,r16
   2252c:	8885883a 	add	r2,r17,r2
   22530:	dfc00217 	ldw	ra,8(sp)
   22534:	dc400117 	ldw	r17,4(sp)
   22538:	dc000017 	ldw	r16,0(sp)
   2253c:	dec00304 	addi	sp,sp,12
   22540:	f800283a 	ret
   22544:	0109c83a 	sub	r4,zero,r4
   22548:	04400044 	movi	r17,1
   2254c:	043fffc4 	movi	r16,-1
   22550:	283ff30e 	bge	r5,zero,22520 <_gp+0xfffe66ac>
   22554:	014bc83a 	sub	r5,zero,r5
   22558:	003ff106 	br	22520 <_gp+0xfffe66ac>

0002255c <__udivsi3>:
   2255c:	000d883a 	mov	r6,zero
   22560:	00224401 	jmpi	22440 <udivmodsi4>

00022564 <__umodsi3>:
   22564:	01800044 	movi	r6,1
   22568:	00224401 	jmpi	22440 <udivmodsi4>

0002256c <malloc>:
   2256c:	008000f4 	movhi	r2,3
   22570:	108fa304 	addi	r2,r2,16012
   22574:	200b883a 	mov	r5,r4
   22578:	11000017 	ldw	r4,0(r2)
   2257c:	00225941 	jmpi	22594 <_malloc_r>

00022580 <free>:
   22580:	008000f4 	movhi	r2,3
   22584:	108fa304 	addi	r2,r2,16012
   22588:	200b883a 	mov	r5,r4
   2258c:	11000017 	ldw	r4,0(r2)
   22590:	00272941 	jmpi	27294 <_free_r>

00022594 <_malloc_r>:
   22594:	defff504 	addi	sp,sp,-44
   22598:	dc800315 	stw	r18,12(sp)
   2259c:	dfc00a15 	stw	ra,40(sp)
   225a0:	df000915 	stw	fp,36(sp)
   225a4:	ddc00815 	stw	r23,32(sp)
   225a8:	dd800715 	stw	r22,28(sp)
   225ac:	dd400615 	stw	r21,24(sp)
   225b0:	dd000515 	stw	r20,20(sp)
   225b4:	dcc00415 	stw	r19,16(sp)
   225b8:	dc400215 	stw	r17,8(sp)
   225bc:	dc000115 	stw	r16,4(sp)
   225c0:	288002c4 	addi	r2,r5,11
   225c4:	00c00584 	movi	r3,22
   225c8:	2025883a 	mov	r18,r4
   225cc:	18802a2e 	bgeu	r3,r2,22678 <_malloc_r+0xe4>
   225d0:	047ffe04 	movi	r17,-8
   225d4:	1462703a 	and	r17,r2,r17
   225d8:	88009e16 	blt	r17,zero,22854 <_malloc_r+0x2c0>
   225dc:	89409d36 	bltu	r17,r5,22854 <_malloc_r+0x2c0>
   225e0:	002ef740 	call	2ef74 <__malloc_lock>
   225e4:	00807dc4 	movi	r2,503
   225e8:	14402736 	bltu	r2,r17,22688 <_malloc_r+0xf4>
   225ec:	8806d0fa 	srli	r3,r17,3
   225f0:	04c000f4 	movhi	r19,3
   225f4:	9cc8f204 	addi	r19,r19,9160
   225f8:	18c5883a 	add	r2,r3,r3
   225fc:	1085883a 	add	r2,r2,r2
   22600:	1085883a 	add	r2,r2,r2
   22604:	9885883a 	add	r2,r19,r2
   22608:	14000317 	ldw	r16,12(r2)
   2260c:	80814a26 	beq	r16,r2,22b38 <_malloc_r+0x5a4>
   22610:	80c00117 	ldw	r3,4(r16)
   22614:	81000317 	ldw	r4,12(r16)
   22618:	00bfff04 	movi	r2,-4
   2261c:	1884703a 	and	r2,r3,r2
   22620:	81400217 	ldw	r5,8(r16)
   22624:	8085883a 	add	r2,r16,r2
   22628:	10c00117 	ldw	r3,4(r2)
   2262c:	29000315 	stw	r4,12(r5)
   22630:	21400215 	stw	r5,8(r4)
   22634:	18c00054 	ori	r3,r3,1
   22638:	10c00115 	stw	r3,4(r2)
   2263c:	9009883a 	mov	r4,r18
   22640:	002ef940 	call	2ef94 <__malloc_unlock>
   22644:	80800204 	addi	r2,r16,8
   22648:	dfc00a17 	ldw	ra,40(sp)
   2264c:	df000917 	ldw	fp,36(sp)
   22650:	ddc00817 	ldw	r23,32(sp)
   22654:	dd800717 	ldw	r22,28(sp)
   22658:	dd400617 	ldw	r21,24(sp)
   2265c:	dd000517 	ldw	r20,20(sp)
   22660:	dcc00417 	ldw	r19,16(sp)
   22664:	dc800317 	ldw	r18,12(sp)
   22668:	dc400217 	ldw	r17,8(sp)
   2266c:	dc000117 	ldw	r16,4(sp)
   22670:	dec00b04 	addi	sp,sp,44
   22674:	f800283a 	ret
   22678:	04400404 	movi	r17,16
   2267c:	89407536 	bltu	r17,r5,22854 <_malloc_r+0x2c0>
   22680:	002ef740 	call	2ef74 <__malloc_lock>
   22684:	003fd906 	br	225ec <_gp+0xfffe6778>
   22688:	8806d27a 	srli	r3,r17,9
   2268c:	18007526 	beq	r3,zero,22864 <_malloc_r+0x2d0>
   22690:	00800104 	movi	r2,4
   22694:	10c0ef36 	bltu	r2,r3,22a54 <_malloc_r+0x4c0>
   22698:	8806d1ba 	srli	r3,r17,6
   2269c:	19c00e04 	addi	r7,r3,56
   226a0:	39cb883a 	add	r5,r7,r7
   226a4:	04c000f4 	movhi	r19,3
   226a8:	294b883a 	add	r5,r5,r5
   226ac:	9cc8f204 	addi	r19,r19,9160
   226b0:	294b883a 	add	r5,r5,r5
   226b4:	994b883a 	add	r5,r19,r5
   226b8:	2c000317 	ldw	r16,12(r5)
   226bc:	2c000e26 	beq	r5,r16,226f8 <_malloc_r+0x164>
   226c0:	80800117 	ldw	r2,4(r16)
   226c4:	01bfff04 	movi	r6,-4
   226c8:	010003c4 	movi	r4,15
   226cc:	1184703a 	and	r2,r2,r6
   226d0:	1447c83a 	sub	r3,r2,r17
   226d4:	20c00716 	blt	r4,r3,226f4 <_malloc_r+0x160>
   226d8:	1800650e 	bge	r3,zero,22870 <_malloc_r+0x2dc>
   226dc:	84000317 	ldw	r16,12(r16)
   226e0:	2c000526 	beq	r5,r16,226f8 <_malloc_r+0x164>
   226e4:	80800117 	ldw	r2,4(r16)
   226e8:	1184703a 	and	r2,r2,r6
   226ec:	1447c83a 	sub	r3,r2,r17
   226f0:	20fff90e 	bge	r4,r3,226d8 <_gp+0xfffe6864>
   226f4:	39ffffc4 	addi	r7,r7,-1
   226f8:	38c00044 	addi	r3,r7,1
   226fc:	018000f4 	movhi	r6,3
   22700:	9c000417 	ldw	r16,16(r19)
   22704:	3188f204 	addi	r6,r6,9160
   22708:	32400204 	addi	r9,r6,8
   2270c:	82410326 	beq	r16,r9,22b1c <_malloc_r+0x588>
   22710:	81000117 	ldw	r4,4(r16)
   22714:	00bfff04 	movi	r2,-4
   22718:	208e703a 	and	r7,r4,r2
   2271c:	3c45c83a 	sub	r2,r7,r17
   22720:	010003c4 	movi	r4,15
   22724:	2080ee16 	blt	r4,r2,22ae0 <_malloc_r+0x54c>
   22728:	32400515 	stw	r9,20(r6)
   2272c:	32400415 	stw	r9,16(r6)
   22730:	1000510e 	bge	r2,zero,22878 <_malloc_r+0x2e4>
   22734:	00807fc4 	movi	r2,511
   22738:	11c0ce36 	bltu	r2,r7,22a74 <_malloc_r+0x4e0>
   2273c:	3808d0fa 	srli	r4,r7,3
   22740:	01c00044 	movi	r7,1
   22744:	30800117 	ldw	r2,4(r6)
   22748:	210b883a 	add	r5,r4,r4
   2274c:	294b883a 	add	r5,r5,r5
   22750:	2009d0ba 	srai	r4,r4,2
   22754:	294b883a 	add	r5,r5,r5
   22758:	298b883a 	add	r5,r5,r6
   2275c:	2a000217 	ldw	r8,8(r5)
   22760:	3908983a 	sll	r4,r7,r4
   22764:	81400315 	stw	r5,12(r16)
   22768:	82000215 	stw	r8,8(r16)
   2276c:	2088b03a 	or	r4,r4,r2
   22770:	2c000215 	stw	r16,8(r5)
   22774:	31000115 	stw	r4,4(r6)
   22778:	44000315 	stw	r16,12(r8)
   2277c:	1805d0ba 	srai	r2,r3,2
   22780:	01400044 	movi	r5,1
   22784:	288a983a 	sll	r5,r5,r2
   22788:	21404336 	bltu	r4,r5,22898 <_malloc_r+0x304>
   2278c:	2144703a 	and	r2,r4,r5
   22790:	10000a1e 	bne	r2,zero,227bc <_malloc_r+0x228>
   22794:	00bfff04 	movi	r2,-4
   22798:	294b883a 	add	r5,r5,r5
   2279c:	1886703a 	and	r3,r3,r2
   227a0:	2144703a 	and	r2,r4,r5
   227a4:	18c00104 	addi	r3,r3,4
   227a8:	1000041e 	bne	r2,zero,227bc <_malloc_r+0x228>
   227ac:	294b883a 	add	r5,r5,r5
   227b0:	2144703a 	and	r2,r4,r5
   227b4:	18c00104 	addi	r3,r3,4
   227b8:	103ffc26 	beq	r2,zero,227ac <_gp+0xfffe6938>
   227bc:	023fff04 	movi	r8,-4
   227c0:	01c003c4 	movi	r7,15
   227c4:	18c5883a 	add	r2,r3,r3
   227c8:	1085883a 	add	r2,r2,r2
   227cc:	1085883a 	add	r2,r2,r2
   227d0:	9895883a 	add	r10,r19,r2
   227d4:	52c00304 	addi	r11,r10,12
   227d8:	1819883a 	mov	r12,r3
   227dc:	5c000017 	ldw	r16,0(r11)
   227e0:	59bffd04 	addi	r6,r11,-12
   227e4:	8180041e 	bne	r16,r6,227f8 <_malloc_r+0x264>
   227e8:	0000ce06 	br	22b24 <_malloc_r+0x590>
   227ec:	2000d70e 	bge	r4,zero,22b4c <_malloc_r+0x5b8>
   227f0:	84000317 	ldw	r16,12(r16)
   227f4:	8180cb26 	beq	r16,r6,22b24 <_malloc_r+0x590>
   227f8:	80800117 	ldw	r2,4(r16)
   227fc:	1204703a 	and	r2,r2,r8
   22800:	1449c83a 	sub	r4,r2,r17
   22804:	393ff90e 	bge	r7,r4,227ec <_gp+0xfffe6978>
   22808:	80800317 	ldw	r2,12(r16)
   2280c:	80c00217 	ldw	r3,8(r16)
   22810:	89400054 	ori	r5,r17,1
   22814:	81400115 	stw	r5,4(r16)
   22818:	18800315 	stw	r2,12(r3)
   2281c:	10c00215 	stw	r3,8(r2)
   22820:	8463883a 	add	r17,r16,r17
   22824:	9c400515 	stw	r17,20(r19)
   22828:	9c400415 	stw	r17,16(r19)
   2282c:	20800054 	ori	r2,r4,1
   22830:	88800115 	stw	r2,4(r17)
   22834:	8a400315 	stw	r9,12(r17)
   22838:	8a400215 	stw	r9,8(r17)
   2283c:	8923883a 	add	r17,r17,r4
   22840:	89000015 	stw	r4,0(r17)
   22844:	9009883a 	mov	r4,r18
   22848:	002ef940 	call	2ef94 <__malloc_unlock>
   2284c:	80800204 	addi	r2,r16,8
   22850:	003f7d06 	br	22648 <_gp+0xfffe67d4>
   22854:	00800304 	movi	r2,12
   22858:	90800015 	stw	r2,0(r18)
   2285c:	0005883a 	mov	r2,zero
   22860:	003f7906 	br	22648 <_gp+0xfffe67d4>
   22864:	01401f84 	movi	r5,126
   22868:	01c00fc4 	movi	r7,63
   2286c:	003f8d06 	br	226a4 <_gp+0xfffe6830>
   22870:	81000317 	ldw	r4,12(r16)
   22874:	003f6a06 	br	22620 <_gp+0xfffe67ac>
   22878:	81c5883a 	add	r2,r16,r7
   2287c:	10c00117 	ldw	r3,4(r2)
   22880:	9009883a 	mov	r4,r18
   22884:	18c00054 	ori	r3,r3,1
   22888:	10c00115 	stw	r3,4(r2)
   2288c:	002ef940 	call	2ef94 <__malloc_unlock>
   22890:	80800204 	addi	r2,r16,8
   22894:	003f6c06 	br	22648 <_gp+0xfffe67d4>
   22898:	9c000217 	ldw	r16,8(r19)
   2289c:	00bfff04 	movi	r2,-4
   228a0:	85800117 	ldw	r22,4(r16)
   228a4:	b0ac703a 	and	r22,r22,r2
   228a8:	b4400336 	bltu	r22,r17,228b8 <_malloc_r+0x324>
   228ac:	b445c83a 	sub	r2,r22,r17
   228b0:	00c003c4 	movi	r3,15
   228b4:	18805d16 	blt	r3,r2,22a2c <_malloc_r+0x498>
   228b8:	05c000f4 	movhi	r23,3
   228bc:	008000f4 	movhi	r2,3
   228c0:	bdcfa004 	addi	r23,r23,16000
   228c4:	10985604 	addi	r2,r2,24920
   228c8:	15400017 	ldw	r21,0(r2)
   228cc:	b9000017 	ldw	r4,0(r23)
   228d0:	00ffffc4 	movi	r3,-1
   228d4:	858d883a 	add	r6,r16,r22
   228d8:	8d6b883a 	add	r21,r17,r21
   228dc:	20c0e426 	beq	r4,r3,22c70 <_malloc_r+0x6dc>
   228e0:	ad4403c4 	addi	r21,r21,4111
   228e4:	00fc0004 	movi	r3,-4096
   228e8:	a8ea703a 	and	r21,r21,r3
   228ec:	9009883a 	mov	r4,r18
   228f0:	a80b883a 	mov	r5,r21
   228f4:	d9800015 	stw	r6,0(sp)
   228f8:	0022fa40 	call	22fa4 <_sbrk_r>
   228fc:	00ffffc4 	movi	r3,-1
   22900:	1029883a 	mov	r20,r2
   22904:	d9800017 	ldw	r6,0(sp)
   22908:	10c0a426 	beq	r2,r3,22b9c <_malloc_r+0x608>
   2290c:	1180a236 	bltu	r2,r6,22b98 <_malloc_r+0x604>
   22910:	070000f4 	movhi	fp,3
   22914:	e7186204 	addi	fp,fp,24968
   22918:	e0c00017 	ldw	r3,0(fp)
   2291c:	a8c7883a 	add	r3,r21,r3
   22920:	e0c00015 	stw	r3,0(fp)
   22924:	3500da26 	beq	r6,r20,22c90 <_malloc_r+0x6fc>
   22928:	b9000017 	ldw	r4,0(r23)
   2292c:	00bfffc4 	movi	r2,-1
   22930:	2080e426 	beq	r4,r2,22cc4 <_malloc_r+0x730>
   22934:	a185c83a 	sub	r2,r20,r6
   22938:	1885883a 	add	r2,r3,r2
   2293c:	e0800015 	stw	r2,0(fp)
   22940:	a0c001cc 	andi	r3,r20,7
   22944:	1800b526 	beq	r3,zero,22c1c <_malloc_r+0x688>
   22948:	a0e9c83a 	sub	r20,r20,r3
   2294c:	00840204 	movi	r2,4104
   22950:	a5000204 	addi	r20,r20,8
   22954:	10c7c83a 	sub	r3,r2,r3
   22958:	a545883a 	add	r2,r20,r21
   2295c:	1083ffcc 	andi	r2,r2,4095
   22960:	18abc83a 	sub	r21,r3,r2
   22964:	9009883a 	mov	r4,r18
   22968:	a80b883a 	mov	r5,r21
   2296c:	0022fa40 	call	22fa4 <_sbrk_r>
   22970:	00ffffc4 	movi	r3,-1
   22974:	10c0d026 	beq	r2,r3,22cb8 <_malloc_r+0x724>
   22978:	1507c83a 	sub	r3,r2,r20
   2297c:	a8c7883a 	add	r3,r21,r3
   22980:	18c00054 	ori	r3,r3,1
   22984:	e0800017 	ldw	r2,0(fp)
   22988:	9d000215 	stw	r20,8(r19)
   2298c:	a0c00115 	stw	r3,4(r20)
   22990:	a887883a 	add	r3,r21,r2
   22994:	e0c00015 	stw	r3,0(fp)
   22998:	84c00e26 	beq	r16,r19,229d4 <_malloc_r+0x440>
   2299c:	018003c4 	movi	r6,15
   229a0:	3580a02e 	bgeu	r6,r22,22c24 <_malloc_r+0x690>
   229a4:	81400117 	ldw	r5,4(r16)
   229a8:	013ffe04 	movi	r4,-8
   229ac:	b0bffd04 	addi	r2,r22,-12
   229b0:	1104703a 	and	r2,r2,r4
   229b4:	2900004c 	andi	r4,r5,1
   229b8:	1108b03a 	or	r4,r2,r4
   229bc:	81000115 	stw	r4,4(r16)
   229c0:	01400144 	movi	r5,5
   229c4:	8089883a 	add	r4,r16,r2
   229c8:	21400115 	stw	r5,4(r4)
   229cc:	21400215 	stw	r5,8(r4)
   229d0:	3080c036 	bltu	r6,r2,22cd4 <_malloc_r+0x740>
   229d4:	008000f4 	movhi	r2,3
   229d8:	10985504 	addi	r2,r2,24916
   229dc:	11000017 	ldw	r4,0(r2)
   229e0:	20c0012e 	bgeu	r4,r3,229e8 <_malloc_r+0x454>
   229e4:	10c00015 	stw	r3,0(r2)
   229e8:	008000f4 	movhi	r2,3
   229ec:	10985404 	addi	r2,r2,24912
   229f0:	11000017 	ldw	r4,0(r2)
   229f4:	9c000217 	ldw	r16,8(r19)
   229f8:	20c0012e 	bgeu	r4,r3,22a00 <_malloc_r+0x46c>
   229fc:	10c00015 	stw	r3,0(r2)
   22a00:	80c00117 	ldw	r3,4(r16)
   22a04:	00bfff04 	movi	r2,-4
   22a08:	1886703a 	and	r3,r3,r2
   22a0c:	1c45c83a 	sub	r2,r3,r17
   22a10:	1c400236 	bltu	r3,r17,22a1c <_malloc_r+0x488>
   22a14:	00c003c4 	movi	r3,15
   22a18:	18800416 	blt	r3,r2,22a2c <_malloc_r+0x498>
   22a1c:	9009883a 	mov	r4,r18
   22a20:	002ef940 	call	2ef94 <__malloc_unlock>
   22a24:	0005883a 	mov	r2,zero
   22a28:	003f0706 	br	22648 <_gp+0xfffe67d4>
   22a2c:	88c00054 	ori	r3,r17,1
   22a30:	80c00115 	stw	r3,4(r16)
   22a34:	8463883a 	add	r17,r16,r17
   22a38:	10800054 	ori	r2,r2,1
   22a3c:	9c400215 	stw	r17,8(r19)
   22a40:	88800115 	stw	r2,4(r17)
   22a44:	9009883a 	mov	r4,r18
   22a48:	002ef940 	call	2ef94 <__malloc_unlock>
   22a4c:	80800204 	addi	r2,r16,8
   22a50:	003efd06 	br	22648 <_gp+0xfffe67d4>
   22a54:	00800504 	movi	r2,20
   22a58:	10c0482e 	bgeu	r2,r3,22b7c <_malloc_r+0x5e8>
   22a5c:	00801504 	movi	r2,84
   22a60:	10c06836 	bltu	r2,r3,22c04 <_malloc_r+0x670>
   22a64:	8806d33a 	srli	r3,r17,12
   22a68:	19c01b84 	addi	r7,r3,110
   22a6c:	39cb883a 	add	r5,r7,r7
   22a70:	003f0c06 	br	226a4 <_gp+0xfffe6830>
   22a74:	3804d27a 	srli	r2,r7,9
   22a78:	01000104 	movi	r4,4
   22a7c:	2080422e 	bgeu	r4,r2,22b88 <_malloc_r+0x5f4>
   22a80:	01000504 	movi	r4,20
   22a84:	20807c36 	bltu	r4,r2,22c78 <_malloc_r+0x6e4>
   22a88:	110016c4 	addi	r4,r2,91
   22a8c:	210b883a 	add	r5,r4,r4
   22a90:	294b883a 	add	r5,r5,r5
   22a94:	294b883a 	add	r5,r5,r5
   22a98:	994b883a 	add	r5,r19,r5
   22a9c:	28800217 	ldw	r2,8(r5)
   22aa0:	020000f4 	movhi	r8,3
   22aa4:	4208f204 	addi	r8,r8,9160
   22aa8:	11406326 	beq	r2,r5,22c38 <_malloc_r+0x6a4>
   22aac:	01bfff04 	movi	r6,-4
   22ab0:	11000117 	ldw	r4,4(r2)
   22ab4:	2188703a 	and	r4,r4,r6
   22ab8:	3900022e 	bgeu	r7,r4,22ac4 <_malloc_r+0x530>
   22abc:	10800217 	ldw	r2,8(r2)
   22ac0:	28bffb1e 	bne	r5,r2,22ab0 <_gp+0xfffe6c3c>
   22ac4:	11800317 	ldw	r6,12(r2)
   22ac8:	99000117 	ldw	r4,4(r19)
   22acc:	81800315 	stw	r6,12(r16)
   22ad0:	80800215 	stw	r2,8(r16)
   22ad4:	34000215 	stw	r16,8(r6)
   22ad8:	14000315 	stw	r16,12(r2)
   22adc:	003f2706 	br	2277c <_gp+0xfffe6908>
   22ae0:	88c00054 	ori	r3,r17,1
   22ae4:	80c00115 	stw	r3,4(r16)
   22ae8:	8463883a 	add	r17,r16,r17
   22aec:	34400515 	stw	r17,20(r6)
   22af0:	34400415 	stw	r17,16(r6)
   22af4:	10c00054 	ori	r3,r2,1
   22af8:	8a400315 	stw	r9,12(r17)
   22afc:	8a400215 	stw	r9,8(r17)
   22b00:	88c00115 	stw	r3,4(r17)
   22b04:	88a3883a 	add	r17,r17,r2
   22b08:	88800015 	stw	r2,0(r17)
   22b0c:	9009883a 	mov	r4,r18
   22b10:	002ef940 	call	2ef94 <__malloc_unlock>
   22b14:	80800204 	addi	r2,r16,8
   22b18:	003ecb06 	br	22648 <_gp+0xfffe67d4>
   22b1c:	31000117 	ldw	r4,4(r6)
   22b20:	003f1606 	br	2277c <_gp+0xfffe6908>
   22b24:	63000044 	addi	r12,r12,1
   22b28:	608000cc 	andi	r2,r12,3
   22b2c:	5ac00204 	addi	r11,r11,8
   22b30:	103f2a1e 	bne	r2,zero,227dc <_gp+0xfffe6968>
   22b34:	00002106 	br	22bbc <_malloc_r+0x628>
   22b38:	80800204 	addi	r2,r16,8
   22b3c:	84000517 	ldw	r16,20(r16)
   22b40:	143eb31e 	bne	r2,r16,22610 <_gp+0xfffe679c>
   22b44:	18c00084 	addi	r3,r3,2
   22b48:	003eec06 	br	226fc <_gp+0xfffe6888>
   22b4c:	8085883a 	add	r2,r16,r2
   22b50:	10c00117 	ldw	r3,4(r2)
   22b54:	81000317 	ldw	r4,12(r16)
   22b58:	81400217 	ldw	r5,8(r16)
   22b5c:	18c00054 	ori	r3,r3,1
   22b60:	10c00115 	stw	r3,4(r2)
   22b64:	29000315 	stw	r4,12(r5)
   22b68:	21400215 	stw	r5,8(r4)
   22b6c:	9009883a 	mov	r4,r18
   22b70:	002ef940 	call	2ef94 <__malloc_unlock>
   22b74:	80800204 	addi	r2,r16,8
   22b78:	003eb306 	br	22648 <_gp+0xfffe67d4>
   22b7c:	19c016c4 	addi	r7,r3,91
   22b80:	39cb883a 	add	r5,r7,r7
   22b84:	003ec706 	br	226a4 <_gp+0xfffe6830>
   22b88:	3804d1ba 	srli	r2,r7,6
   22b8c:	11000e04 	addi	r4,r2,56
   22b90:	210b883a 	add	r5,r4,r4
   22b94:	003fbe06 	br	22a90 <_gp+0xfffe6c1c>
   22b98:	84ff5d26 	beq	r16,r19,22910 <_gp+0xfffe6a9c>
   22b9c:	9c000217 	ldw	r16,8(r19)
   22ba0:	00bfff04 	movi	r2,-4
   22ba4:	80c00117 	ldw	r3,4(r16)
   22ba8:	1886703a 	and	r3,r3,r2
   22bac:	003f9706 	br	22a0c <_gp+0xfffe6b98>
   22bb0:	52800017 	ldw	r10,0(r10)
   22bb4:	18ffffc4 	addi	r3,r3,-1
   22bb8:	50805c1e 	bne	r10,r2,22d2c <_malloc_r+0x798>
   22bbc:	190000cc 	andi	r4,r3,3
   22bc0:	50bffe04 	addi	r2,r10,-8
   22bc4:	203ffa1e 	bne	r4,zero,22bb0 <_gp+0xfffe6d3c>
   22bc8:	98800117 	ldw	r2,4(r19)
   22bcc:	0146303a 	nor	r3,zero,r5
   22bd0:	1884703a 	and	r2,r3,r2
   22bd4:	98800115 	stw	r2,4(r19)
   22bd8:	294b883a 	add	r5,r5,r5
   22bdc:	117f2e36 	bltu	r2,r5,22898 <_gp+0xfffe6a24>
   22be0:	283f2d26 	beq	r5,zero,22898 <_gp+0xfffe6a24>
   22be4:	1146703a 	and	r3,r2,r5
   22be8:	1800521e 	bne	r3,zero,22d34 <_malloc_r+0x7a0>
   22bec:	6007883a 	mov	r3,r12
   22bf0:	294b883a 	add	r5,r5,r5
   22bf4:	1148703a 	and	r4,r2,r5
   22bf8:	18c00104 	addi	r3,r3,4
   22bfc:	203ffc26 	beq	r4,zero,22bf0 <_gp+0xfffe6d7c>
   22c00:	003ef006 	br	227c4 <_gp+0xfffe6950>
   22c04:	00805504 	movi	r2,340
   22c08:	10c01336 	bltu	r2,r3,22c58 <_malloc_r+0x6c4>
   22c0c:	8806d3fa 	srli	r3,r17,15
   22c10:	19c01dc4 	addi	r7,r3,119
   22c14:	39cb883a 	add	r5,r7,r7
   22c18:	003ea206 	br	226a4 <_gp+0xfffe6830>
   22c1c:	00c40004 	movi	r3,4096
   22c20:	003f4d06 	br	22958 <_gp+0xfffe6ae4>
   22c24:	00800044 	movi	r2,1
   22c28:	a0800115 	stw	r2,4(r20)
   22c2c:	a021883a 	mov	r16,r20
   22c30:	0007883a 	mov	r3,zero
   22c34:	003f7506 	br	22a0c <_gp+0xfffe6b98>
   22c38:	200bd0ba 	srai	r5,r4,2
   22c3c:	01800044 	movi	r6,1
   22c40:	41000117 	ldw	r4,4(r8)
   22c44:	314a983a 	sll	r5,r6,r5
   22c48:	100d883a 	mov	r6,r2
   22c4c:	2908b03a 	or	r4,r5,r4
   22c50:	41000115 	stw	r4,4(r8)
   22c54:	003f9d06 	br	22acc <_gp+0xfffe6c58>
   22c58:	00815504 	movi	r2,1364
   22c5c:	10c01336 	bltu	r2,r3,22cac <_malloc_r+0x718>
   22c60:	8806d4ba 	srli	r3,r17,18
   22c64:	19c01f04 	addi	r7,r3,124
   22c68:	39cb883a 	add	r5,r7,r7
   22c6c:	003e8d06 	br	226a4 <_gp+0xfffe6830>
   22c70:	ad400404 	addi	r21,r21,16
   22c74:	003f1d06 	br	228ec <_gp+0xfffe6a78>
   22c78:	01001504 	movi	r4,84
   22c7c:	20801c36 	bltu	r4,r2,22cf0 <_malloc_r+0x75c>
   22c80:	3804d33a 	srli	r2,r7,12
   22c84:	11001b84 	addi	r4,r2,110
   22c88:	210b883a 	add	r5,r4,r4
   22c8c:	003f8006 	br	22a90 <_gp+0xfffe6c1c>
   22c90:	3083ffcc 	andi	r2,r6,4095
   22c94:	103f241e 	bne	r2,zero,22928 <_gp+0xfffe6ab4>
   22c98:	99000217 	ldw	r4,8(r19)
   22c9c:	ad85883a 	add	r2,r21,r22
   22ca0:	10800054 	ori	r2,r2,1
   22ca4:	20800115 	stw	r2,4(r4)
   22ca8:	003f4a06 	br	229d4 <_gp+0xfffe6b60>
   22cac:	01403f04 	movi	r5,252
   22cb0:	01c01f84 	movi	r7,126
   22cb4:	003e7b06 	br	226a4 <_gp+0xfffe6830>
   22cb8:	00c00044 	movi	r3,1
   22cbc:	002b883a 	mov	r21,zero
   22cc0:	003f3006 	br	22984 <_gp+0xfffe6b10>
   22cc4:	008000f4 	movhi	r2,3
   22cc8:	108fa004 	addi	r2,r2,16000
   22ccc:	15000015 	stw	r20,0(r2)
   22cd0:	003f1b06 	br	22940 <_gp+0xfffe6acc>
   22cd4:	9009883a 	mov	r4,r18
   22cd8:	81400204 	addi	r5,r16,8
   22cdc:	00272940 	call	27294 <_free_r>
   22ce0:	008000f4 	movhi	r2,3
   22ce4:	10986204 	addi	r2,r2,24968
   22ce8:	10c00017 	ldw	r3,0(r2)
   22cec:	003f3906 	br	229d4 <_gp+0xfffe6b60>
   22cf0:	01005504 	movi	r4,340
   22cf4:	20800436 	bltu	r4,r2,22d08 <_malloc_r+0x774>
   22cf8:	3804d3fa 	srli	r2,r7,15
   22cfc:	11001dc4 	addi	r4,r2,119
   22d00:	210b883a 	add	r5,r4,r4
   22d04:	003f6206 	br	22a90 <_gp+0xfffe6c1c>
   22d08:	01015504 	movi	r4,1364
   22d0c:	20800436 	bltu	r4,r2,22d20 <_malloc_r+0x78c>
   22d10:	3804d4ba 	srli	r2,r7,18
   22d14:	11001f04 	addi	r4,r2,124
   22d18:	210b883a 	add	r5,r4,r4
   22d1c:	003f5c06 	br	22a90 <_gp+0xfffe6c1c>
   22d20:	01403f04 	movi	r5,252
   22d24:	01001f84 	movi	r4,126
   22d28:	003f5906 	br	22a90 <_gp+0xfffe6c1c>
   22d2c:	98800117 	ldw	r2,4(r19)
   22d30:	003fa906 	br	22bd8 <_gp+0xfffe6d64>
   22d34:	6007883a 	mov	r3,r12
   22d38:	003ea206 	br	227c4 <_gp+0xfffe6950>

00022d3c <memset>:
   22d3c:	20c000cc 	andi	r3,r4,3
   22d40:	2005883a 	mov	r2,r4
   22d44:	18004326 	beq	r3,zero,22e54 <memset+0x118>
   22d48:	31ffffc4 	addi	r7,r6,-1
   22d4c:	30004026 	beq	r6,zero,22e50 <memset+0x114>
   22d50:	2813883a 	mov	r9,r5
   22d54:	200d883a 	mov	r6,r4
   22d58:	2007883a 	mov	r3,r4
   22d5c:	00000406 	br	22d70 <memset+0x34>
   22d60:	3a3fffc4 	addi	r8,r7,-1
   22d64:	31800044 	addi	r6,r6,1
   22d68:	38003926 	beq	r7,zero,22e50 <memset+0x114>
   22d6c:	400f883a 	mov	r7,r8
   22d70:	18c00044 	addi	r3,r3,1
   22d74:	32400005 	stb	r9,0(r6)
   22d78:	1a0000cc 	andi	r8,r3,3
   22d7c:	403ff81e 	bne	r8,zero,22d60 <_gp+0xfffe6eec>
   22d80:	010000c4 	movi	r4,3
   22d84:	21c02d2e 	bgeu	r4,r7,22e3c <memset+0x100>
   22d88:	29803fcc 	andi	r6,r5,255
   22d8c:	3008923a 	slli	r4,r6,8
   22d90:	218cb03a 	or	r6,r4,r6
   22d94:	3008943a 	slli	r4,r6,16
   22d98:	218cb03a 	or	r6,r4,r6
   22d9c:	010003c4 	movi	r4,15
   22da0:	21c0182e 	bgeu	r4,r7,22e04 <memset+0xc8>
   22da4:	3b3ffc04 	addi	r12,r7,-16
   22da8:	6018d13a 	srli	r12,r12,4
   22dac:	1a000104 	addi	r8,r3,4
   22db0:	1ac00204 	addi	r11,r3,8
   22db4:	6008913a 	slli	r4,r12,4
   22db8:	1a800304 	addi	r10,r3,12
   22dbc:	1813883a 	mov	r9,r3
   22dc0:	21000504 	addi	r4,r4,20
   22dc4:	1909883a 	add	r4,r3,r4
   22dc8:	49800015 	stw	r6,0(r9)
   22dcc:	41800015 	stw	r6,0(r8)
   22dd0:	59800015 	stw	r6,0(r11)
   22dd4:	51800015 	stw	r6,0(r10)
   22dd8:	42000404 	addi	r8,r8,16
   22ddc:	4a400404 	addi	r9,r9,16
   22de0:	5ac00404 	addi	r11,r11,16
   22de4:	52800404 	addi	r10,r10,16
   22de8:	413ff71e 	bne	r8,r4,22dc8 <_gp+0xfffe6f54>
   22dec:	63000044 	addi	r12,r12,1
   22df0:	6018913a 	slli	r12,r12,4
   22df4:	39c003cc 	andi	r7,r7,15
   22df8:	010000c4 	movi	r4,3
   22dfc:	1b07883a 	add	r3,r3,r12
   22e00:	21c00e2e 	bgeu	r4,r7,22e3c <memset+0x100>
   22e04:	1813883a 	mov	r9,r3
   22e08:	3811883a 	mov	r8,r7
   22e0c:	010000c4 	movi	r4,3
   22e10:	49800015 	stw	r6,0(r9)
   22e14:	423fff04 	addi	r8,r8,-4
   22e18:	4a400104 	addi	r9,r9,4
   22e1c:	223ffc36 	bltu	r4,r8,22e10 <_gp+0xfffe6f9c>
   22e20:	393fff04 	addi	r4,r7,-4
   22e24:	2008d0ba 	srli	r4,r4,2
   22e28:	39c000cc 	andi	r7,r7,3
   22e2c:	21000044 	addi	r4,r4,1
   22e30:	2109883a 	add	r4,r4,r4
   22e34:	2109883a 	add	r4,r4,r4
   22e38:	1907883a 	add	r3,r3,r4
   22e3c:	38000426 	beq	r7,zero,22e50 <memset+0x114>
   22e40:	19cf883a 	add	r7,r3,r7
   22e44:	19400005 	stb	r5,0(r3)
   22e48:	18c00044 	addi	r3,r3,1
   22e4c:	19fffd1e 	bne	r3,r7,22e44 <_gp+0xfffe6fd0>
   22e50:	f800283a 	ret
   22e54:	2007883a 	mov	r3,r4
   22e58:	300f883a 	mov	r7,r6
   22e5c:	003fc806 	br	22d80 <_gp+0xfffe6f0c>

00022e60 <_printf_r>:
   22e60:	defffd04 	addi	sp,sp,-12
   22e64:	dfc00015 	stw	ra,0(sp)
   22e68:	d9800115 	stw	r6,4(sp)
   22e6c:	d9c00215 	stw	r7,8(sp)
   22e70:	280d883a 	mov	r6,r5
   22e74:	21400217 	ldw	r5,8(r4)
   22e78:	d9c00104 	addi	r7,sp,4
   22e7c:	00230900 	call	23090 <___vfprintf_internal_r>
   22e80:	dfc00017 	ldw	ra,0(sp)
   22e84:	dec00304 	addi	sp,sp,12
   22e88:	f800283a 	ret

00022e8c <printf>:
   22e8c:	defffc04 	addi	sp,sp,-16
   22e90:	dfc00015 	stw	ra,0(sp)
   22e94:	d9400115 	stw	r5,4(sp)
   22e98:	d9800215 	stw	r6,8(sp)
   22e9c:	d9c00315 	stw	r7,12(sp)
   22ea0:	008000f4 	movhi	r2,3
   22ea4:	108fa304 	addi	r2,r2,16012
   22ea8:	10800017 	ldw	r2,0(r2)
   22eac:	200b883a 	mov	r5,r4
   22eb0:	d9800104 	addi	r6,sp,4
   22eb4:	11000217 	ldw	r4,8(r2)
   22eb8:	0024fe00 	call	24fe0 <__vfprintf_internal>
   22ebc:	dfc00017 	ldw	ra,0(sp)
   22ec0:	dec00404 	addi	sp,sp,16
   22ec4:	f800283a 	ret

00022ec8 <_putchar_r>:
   22ec8:	21800217 	ldw	r6,8(r4)
   22ecc:	00291801 	jmpi	29180 <_putc_r>

00022ed0 <putchar>:
   22ed0:	008000f4 	movhi	r2,3
   22ed4:	108fa304 	addi	r2,r2,16012
   22ed8:	200b883a 	mov	r5,r4
   22edc:	11000017 	ldw	r4,0(r2)
   22ee0:	21800217 	ldw	r6,8(r4)
   22ee4:	00291801 	jmpi	29180 <_putc_r>

00022ee8 <_puts_r>:
   22ee8:	defff604 	addi	sp,sp,-40
   22eec:	dc000715 	stw	r16,28(sp)
   22ef0:	2021883a 	mov	r16,r4
   22ef4:	2809883a 	mov	r4,r5
   22ef8:	dc400815 	stw	r17,32(sp)
   22efc:	dfc00915 	stw	ra,36(sp)
   22f00:	2823883a 	mov	r17,r5
   22f04:	0022ff80 	call	22ff8 <strlen>
   22f08:	81400217 	ldw	r5,8(r16)
   22f0c:	11000044 	addi	r4,r2,1
   22f10:	d8800115 	stw	r2,4(sp)
   22f14:	008000f4 	movhi	r2,3
   22f18:	2980030b 	ldhu	r6,12(r5)
   22f1c:	10864e04 	addi	r2,r2,6456
   22f20:	d8800215 	stw	r2,8(sp)
   22f24:	00800044 	movi	r2,1
   22f28:	d8800315 	stw	r2,12(sp)
   22f2c:	00800084 	movi	r2,2
   22f30:	d8800515 	stw	r2,20(sp)
   22f34:	dc400015 	stw	r17,0(sp)
   22f38:	d9000615 	stw	r4,24(sp)
   22f3c:	dec00415 	stw	sp,16(sp)
   22f40:	3088000c 	andi	r2,r6,8192
   22f44:	1000061e 	bne	r2,zero,22f60 <_puts_r+0x78>
   22f48:	29001917 	ldw	r4,100(r5)
   22f4c:	00b7ffc4 	movi	r2,-8193
   22f50:	31880014 	ori	r6,r6,8192
   22f54:	2084703a 	and	r2,r4,r2
   22f58:	2980030d 	sth	r6,12(r5)
   22f5c:	28801915 	stw	r2,100(r5)
   22f60:	8009883a 	mov	r4,r16
   22f64:	d9800404 	addi	r6,sp,16
   22f68:	00275840 	call	27584 <__sfvwrite_r>
   22f6c:	1000061e 	bne	r2,zero,22f88 <_puts_r+0xa0>
   22f70:	00800284 	movi	r2,10
   22f74:	dfc00917 	ldw	ra,36(sp)
   22f78:	dc400817 	ldw	r17,32(sp)
   22f7c:	dc000717 	ldw	r16,28(sp)
   22f80:	dec00a04 	addi	sp,sp,40
   22f84:	f800283a 	ret
   22f88:	00bfffc4 	movi	r2,-1
   22f8c:	003ff906 	br	22f74 <_gp+0xfffe7100>

00022f90 <puts>:
   22f90:	008000f4 	movhi	r2,3
   22f94:	108fa304 	addi	r2,r2,16012
   22f98:	200b883a 	mov	r5,r4
   22f9c:	11000017 	ldw	r4,0(r2)
   22fa0:	0022ee81 	jmpi	22ee8 <_puts_r>

00022fa4 <_sbrk_r>:
   22fa4:	defffd04 	addi	sp,sp,-12
   22fa8:	dc000015 	stw	r16,0(sp)
   22fac:	040000f4 	movhi	r16,3
   22fb0:	dc400115 	stw	r17,4(sp)
   22fb4:	84185704 	addi	r16,r16,24924
   22fb8:	2023883a 	mov	r17,r4
   22fbc:	2809883a 	mov	r4,r5
   22fc0:	dfc00215 	stw	ra,8(sp)
   22fc4:	80000015 	stw	zero,0(r16)
   22fc8:	002f1600 	call	2f160 <sbrk>
   22fcc:	00ffffc4 	movi	r3,-1
   22fd0:	10c00526 	beq	r2,r3,22fe8 <_sbrk_r+0x44>
   22fd4:	dfc00217 	ldw	ra,8(sp)
   22fd8:	dc400117 	ldw	r17,4(sp)
   22fdc:	dc000017 	ldw	r16,0(sp)
   22fe0:	dec00304 	addi	sp,sp,12
   22fe4:	f800283a 	ret
   22fe8:	80c00017 	ldw	r3,0(r16)
   22fec:	183ff926 	beq	r3,zero,22fd4 <_gp+0xfffe7160>
   22ff0:	88c00015 	stw	r3,0(r17)
   22ff4:	003ff706 	br	22fd4 <_gp+0xfffe7160>

00022ff8 <strlen>:
   22ff8:	208000cc 	andi	r2,r4,3
   22ffc:	10002026 	beq	r2,zero,23080 <strlen+0x88>
   23000:	20800007 	ldb	r2,0(r4)
   23004:	10002026 	beq	r2,zero,23088 <strlen+0x90>
   23008:	2005883a 	mov	r2,r4
   2300c:	00000206 	br	23018 <strlen+0x20>
   23010:	10c00007 	ldb	r3,0(r2)
   23014:	18001826 	beq	r3,zero,23078 <strlen+0x80>
   23018:	10800044 	addi	r2,r2,1
   2301c:	10c000cc 	andi	r3,r2,3
   23020:	183ffb1e 	bne	r3,zero,23010 <_gp+0xfffe719c>
   23024:	10c00017 	ldw	r3,0(r2)
   23028:	01ffbff4 	movhi	r7,65279
   2302c:	39ffbfc4 	addi	r7,r7,-257
   23030:	00ca303a 	nor	r5,zero,r3
   23034:	01a02074 	movhi	r6,32897
   23038:	19c7883a 	add	r3,r3,r7
   2303c:	31a02004 	addi	r6,r6,-32640
   23040:	1946703a 	and	r3,r3,r5
   23044:	1986703a 	and	r3,r3,r6
   23048:	1800091e 	bne	r3,zero,23070 <strlen+0x78>
   2304c:	10800104 	addi	r2,r2,4
   23050:	10c00017 	ldw	r3,0(r2)
   23054:	19cb883a 	add	r5,r3,r7
   23058:	00c6303a 	nor	r3,zero,r3
   2305c:	28c6703a 	and	r3,r5,r3
   23060:	1986703a 	and	r3,r3,r6
   23064:	183ff926 	beq	r3,zero,2304c <_gp+0xfffe71d8>
   23068:	00000106 	br	23070 <strlen+0x78>
   2306c:	10800044 	addi	r2,r2,1
   23070:	10c00007 	ldb	r3,0(r2)
   23074:	183ffd1e 	bne	r3,zero,2306c <_gp+0xfffe71f8>
   23078:	1105c83a 	sub	r2,r2,r4
   2307c:	f800283a 	ret
   23080:	2005883a 	mov	r2,r4
   23084:	003fe706 	br	23024 <_gp+0xfffe71b0>
   23088:	0005883a 	mov	r2,zero
   2308c:	f800283a 	ret

00023090 <___vfprintf_internal_r>:
   23090:	deffb604 	addi	sp,sp,-296
   23094:	dfc04915 	stw	ra,292(sp)
   23098:	ddc04715 	stw	r23,284(sp)
   2309c:	dd804615 	stw	r22,280(sp)
   230a0:	282f883a 	mov	r23,r5
   230a4:	202d883a 	mov	r22,r4
   230a8:	d9802a15 	stw	r6,168(sp)
   230ac:	d9c02d15 	stw	r7,180(sp)
   230b0:	df004815 	stw	fp,288(sp)
   230b4:	dd404515 	stw	r21,276(sp)
   230b8:	dd004415 	stw	r20,272(sp)
   230bc:	dcc04315 	stw	r19,268(sp)
   230c0:	dc804215 	stw	r18,264(sp)
   230c4:	dc404115 	stw	r17,260(sp)
   230c8:	dc004015 	stw	r16,256(sp)
   230cc:	0027c780 	call	27c78 <_localeconv_r>
   230d0:	10800017 	ldw	r2,0(r2)
   230d4:	1009883a 	mov	r4,r2
   230d8:	d8803515 	stw	r2,212(sp)
   230dc:	0022ff80 	call	22ff8 <strlen>
   230e0:	d8803815 	stw	r2,224(sp)
   230e4:	b0000226 	beq	r22,zero,230f0 <___vfprintf_internal_r+0x60>
   230e8:	b0800e17 	ldw	r2,56(r22)
   230ec:	1000e126 	beq	r2,zero,23474 <___vfprintf_internal_r+0x3e4>
   230f0:	b880030b 	ldhu	r2,12(r23)
   230f4:	10c8000c 	andi	r3,r2,8192
   230f8:	1800061e 	bne	r3,zero,23114 <___vfprintf_internal_r+0x84>
   230fc:	b9001917 	ldw	r4,100(r23)
   23100:	00f7ffc4 	movi	r3,-8193
   23104:	10880014 	ori	r2,r2,8192
   23108:	20c6703a 	and	r3,r4,r3
   2310c:	b880030d 	sth	r2,12(r23)
   23110:	b8c01915 	stw	r3,100(r23)
   23114:	10c0020c 	andi	r3,r2,8
   23118:	1800a726 	beq	r3,zero,233b8 <___vfprintf_internal_r+0x328>
   2311c:	b8c00417 	ldw	r3,16(r23)
   23120:	1800a526 	beq	r3,zero,233b8 <___vfprintf_internal_r+0x328>
   23124:	1080068c 	andi	r2,r2,26
   23128:	00c00284 	movi	r3,10
   2312c:	10c0aa26 	beq	r2,r3,233d8 <___vfprintf_internal_r+0x348>
   23130:	dac01e04 	addi	r11,sp,120
   23134:	db001dc4 	addi	r12,sp,119
   23138:	d8800404 	addi	r2,sp,16
   2313c:	050000f4 	movhi	r20,3
   23140:	dac02815 	stw	r11,160(sp)
   23144:	5b17c83a 	sub	r11,r11,r12
   23148:	a5065f84 	addi	r20,r20,6526
   2314c:	db002915 	stw	r12,164(sp)
   23150:	d8801e15 	stw	r2,120(sp)
   23154:	d8002015 	stw	zero,128(sp)
   23158:	d8001f15 	stw	zero,124(sp)
   2315c:	d8003315 	stw	zero,204(sp)
   23160:	d8003715 	stw	zero,220(sp)
   23164:	d8003915 	stw	zero,228(sp)
   23168:	1011883a 	mov	r8,r2
   2316c:	d8003b15 	stw	zero,236(sp)
   23170:	d8003a15 	stw	zero,232(sp)
   23174:	d8002f15 	stw	zero,188(sp)
   23178:	dac03c15 	stw	r11,240(sp)
   2317c:	db002a17 	ldw	r12,168(sp)
   23180:	60800007 	ldb	r2,0(r12)
   23184:	1000be26 	beq	r2,zero,23480 <___vfprintf_internal_r+0x3f0>
   23188:	00c00944 	movi	r3,37
   2318c:	10c0bc26 	beq	r2,r3,23480 <___vfprintf_internal_r+0x3f0>
   23190:	6021883a 	mov	r16,r12
   23194:	00000106 	br	2319c <___vfprintf_internal_r+0x10c>
   23198:	10c08426 	beq	r2,r3,233ac <___vfprintf_internal_r+0x31c>
   2319c:	84000044 	addi	r16,r16,1
   231a0:	80800007 	ldb	r2,0(r16)
   231a4:	103ffc1e 	bne	r2,zero,23198 <_gp+0xfffe7324>
   231a8:	dac02a17 	ldw	r11,168(sp)
   231ac:	82e3c83a 	sub	r17,r16,r11
   231b0:	88000f26 	beq	r17,zero,231f0 <___vfprintf_internal_r+0x160>
   231b4:	d8c02017 	ldw	r3,128(sp)
   231b8:	d8801f17 	ldw	r2,124(sp)
   231bc:	dac02a17 	ldw	r11,168(sp)
   231c0:	1c47883a 	add	r3,r3,r17
   231c4:	10800044 	addi	r2,r2,1
   231c8:	d8c02015 	stw	r3,128(sp)
   231cc:	42c00015 	stw	r11,0(r8)
   231d0:	44400115 	stw	r17,4(r8)
   231d4:	d8801f15 	stw	r2,124(sp)
   231d8:	00c001c4 	movi	r3,7
   231dc:	18809316 	blt	r3,r2,2342c <___vfprintf_internal_r+0x39c>
   231e0:	42000204 	addi	r8,r8,8
   231e4:	db002f17 	ldw	r12,188(sp)
   231e8:	6459883a 	add	r12,r12,r17
   231ec:	db002f15 	stw	r12,188(sp)
   231f0:	80800007 	ldb	r2,0(r16)
   231f4:	10009426 	beq	r2,zero,23448 <___vfprintf_internal_r+0x3b8>
   231f8:	80800044 	addi	r2,r16,1
   231fc:	84000047 	ldb	r16,1(r16)
   23200:	d8002785 	stb	zero,158(sp)
   23204:	000d883a 	mov	r6,zero
   23208:	027fffc4 	movi	r9,-1
   2320c:	d8002e15 	stw	zero,184(sp)
   23210:	0023883a 	mov	r17,zero
   23214:	01001604 	movi	r4,88
   23218:	01400244 	movi	r5,9
   2321c:	02800a84 	movi	r10,42
   23220:	01c01b04 	movi	r7,108
   23224:	10c00044 	addi	r3,r2,1
   23228:	80bff804 	addi	r2,r16,-32
   2322c:	2082cd36 	bltu	r4,r2,23d64 <___vfprintf_internal_r+0xcd4>
   23230:	100490ba 	slli	r2,r2,2
   23234:	02c000b4 	movhi	r11,2
   23238:	5acc9204 	addi	r11,r11,12872
   2323c:	12c5883a 	add	r2,r2,r11
   23240:	10800017 	ldw	r2,0(r2)
   23244:	1000683a 	jmp	r2
   23248:	00023b7c 	xorhi	zero,zero,2285
   2324c:	00023d64 	muli	zero,zero,2293
   23250:	00023d64 	muli	zero,zero,2293
   23254:	00023ccc 	andi	zero,zero,2291
   23258:	00023d64 	muli	zero,zero,2293
   2325c:	00023d64 	muli	zero,zero,2293
   23260:	00023d64 	muli	zero,zero,2293
   23264:	00023d64 	muli	zero,zero,2293
   23268:	00023d64 	muli	zero,zero,2293
   2326c:	00023d64 	muli	zero,zero,2293
   23270:	00023b9c 	xori	zero,zero,2286
   23274:	00023bc8 	cmpgei	zero,zero,2287
   23278:	00023d64 	muli	zero,zero,2293
   2327c:	00023488 	cmpgei	zero,zero,2258
   23280:	00023498 	cmpnei	zero,zero,2258
   23284:	00023d64 	muli	zero,zero,2293
   23288:	000234d8 	cmpnei	zero,zero,2259
   2328c:	000234e8 	cmpgeui	zero,zero,2259
   23290:	000234e8 	cmpgeui	zero,zero,2259
   23294:	000234e8 	cmpgeui	zero,zero,2259
   23298:	000234e8 	cmpgeui	zero,zero,2259
   2329c:	000234e8 	cmpgeui	zero,zero,2259
   232a0:	000234e8 	cmpgeui	zero,zero,2259
   232a4:	000234e8 	cmpgeui	zero,zero,2259
   232a8:	000234e8 	cmpgeui	zero,zero,2259
   232ac:	000234e8 	cmpgeui	zero,zero,2259
   232b0:	00023d64 	muli	zero,zero,2293
   232b4:	00023d64 	muli	zero,zero,2293
   232b8:	00023d64 	muli	zero,zero,2293
   232bc:	00023d64 	muli	zero,zero,2293
   232c0:	00023d64 	muli	zero,zero,2293
   232c4:	00023d64 	muli	zero,zero,2293
   232c8:	00023d64 	muli	zero,zero,2293
   232cc:	00023d64 	muli	zero,zero,2293
   232d0:	00023d64 	muli	zero,zero,2293
   232d4:	00023d64 	muli	zero,zero,2293
   232d8:	0002351c 	xori	zero,zero,2260
   232dc:	0002398c 	andi	zero,zero,2278
   232e0:	00023d64 	muli	zero,zero,2293
   232e4:	0002398c 	andi	zero,zero,2278
   232e8:	00023d64 	muli	zero,zero,2293
   232ec:	00023d64 	muli	zero,zero,2293
   232f0:	00023d64 	muli	zero,zero,2293
   232f4:	00023d64 	muli	zero,zero,2293
   232f8:	00023a78 	rdprs	zero,zero,2281
   232fc:	00023d64 	muli	zero,zero,2293
   23300:	00023d64 	muli	zero,zero,2293
   23304:	00023920 	cmpeqi	zero,zero,2276
   23308:	00023d64 	muli	zero,zero,2293
   2330c:	00023d64 	muli	zero,zero,2293
   23310:	00023d64 	muli	zero,zero,2293
   23314:	00023d64 	muli	zero,zero,2293
   23318:	00023d64 	muli	zero,zero,2293
   2331c:	0002395c 	xori	zero,zero,2277
   23320:	00023d64 	muli	zero,zero,2293
   23324:	00023d64 	muli	zero,zero,2293
   23328:	00023b20 	cmpeqi	zero,zero,2284
   2332c:	00023d64 	muli	zero,zero,2293
   23330:	00023d64 	muli	zero,zero,2293
   23334:	00023d64 	muli	zero,zero,2293
   23338:	00023d64 	muli	zero,zero,2293
   2333c:	00023d64 	muli	zero,zero,2293
   23340:	00023d64 	muli	zero,zero,2293
   23344:	00023d64 	muli	zero,zero,2293
   23348:	00023d64 	muli	zero,zero,2293
   2334c:	00023d64 	muli	zero,zero,2293
   23350:	00023d64 	muli	zero,zero,2293
   23354:	00023bd8 	cmpnei	zero,zero,2287
   23358:	00023a88 	cmpgei	zero,zero,2282
   2335c:	0002398c 	andi	zero,zero,2278
   23360:	0002398c 	andi	zero,zero,2278
   23364:	0002398c 	andi	zero,zero,2278
   23368:	00023ac8 	cmpgei	zero,zero,2283
   2336c:	00023a88 	cmpgei	zero,zero,2282
   23370:	00023d64 	muli	zero,zero,2293
   23374:	00023d64 	muli	zero,zero,2293
   23378:	00023ad8 	cmpnei	zero,zero,2283
   2337c:	00023d64 	muli	zero,zero,2293
   23380:	00023aec 	andhi	zero,zero,2283
   23384:	00023d28 	cmpgeui	zero,zero,2292
   23388:	00023a30 	cmpltui	zero,zero,2280
   2338c:	00023cdc 	xori	zero,zero,2291
   23390:	00023d64 	muli	zero,zero,2293
   23394:	00023c18 	cmpnei	zero,zero,2288
   23398:	00023d64 	muli	zero,zero,2293
   2339c:	00023cec 	andhi	zero,zero,2291
   233a0:	00023d64 	muli	zero,zero,2293
   233a4:	00023d64 	muli	zero,zero,2293
   233a8:	00023c8c 	andi	zero,zero,2290
   233ac:	db002a17 	ldw	r12,168(sp)
   233b0:	8323c83a 	sub	r17,r16,r12
   233b4:	003f7e06 	br	231b0 <_gp+0xfffe733c>
   233b8:	b009883a 	mov	r4,r22
   233bc:	b80b883a 	mov	r5,r23
   233c0:	00250c00 	call	250c0 <__swsetup_r>
   233c4:	10000c1e 	bne	r2,zero,233f8 <___vfprintf_internal_r+0x368>
   233c8:	b880030b 	ldhu	r2,12(r23)
   233cc:	00c00284 	movi	r3,10
   233d0:	1080068c 	andi	r2,r2,26
   233d4:	10ff561e 	bne	r2,r3,23130 <_gp+0xfffe72bc>
   233d8:	b880038f 	ldh	r2,14(r23)
   233dc:	103f5416 	blt	r2,zero,23130 <_gp+0xfffe72bc>
   233e0:	d9802a17 	ldw	r6,168(sp)
   233e4:	d9c02d17 	ldw	r7,180(sp)
   233e8:	b009883a 	mov	r4,r22
   233ec:	b80b883a 	mov	r5,r23
   233f0:	00250040 	call	25004 <__sbprintf>
   233f4:	00000106 	br	233fc <___vfprintf_internal_r+0x36c>
   233f8:	00bfffc4 	movi	r2,-1
   233fc:	dfc04917 	ldw	ra,292(sp)
   23400:	df004817 	ldw	fp,288(sp)
   23404:	ddc04717 	ldw	r23,284(sp)
   23408:	dd804617 	ldw	r22,280(sp)
   2340c:	dd404517 	ldw	r21,276(sp)
   23410:	dd004417 	ldw	r20,272(sp)
   23414:	dcc04317 	ldw	r19,268(sp)
   23418:	dc804217 	ldw	r18,264(sp)
   2341c:	dc404117 	ldw	r17,260(sp)
   23420:	dc004017 	ldw	r16,256(sp)
   23424:	dec04a04 	addi	sp,sp,296
   23428:	f800283a 	ret
   2342c:	b009883a 	mov	r4,r22
   23430:	b80b883a 	mov	r5,r23
   23434:	d9801e04 	addi	r6,sp,120
   23438:	0029ba40 	call	29ba4 <__sprint_r>
   2343c:	1000081e 	bne	r2,zero,23460 <___vfprintf_internal_r+0x3d0>
   23440:	da000404 	addi	r8,sp,16
   23444:	003f6706 	br	231e4 <_gp+0xfffe7370>
   23448:	d8802017 	ldw	r2,128(sp)
   2344c:	10000426 	beq	r2,zero,23460 <___vfprintf_internal_r+0x3d0>
   23450:	b009883a 	mov	r4,r22
   23454:	b80b883a 	mov	r5,r23
   23458:	d9801e04 	addi	r6,sp,120
   2345c:	0029ba40 	call	29ba4 <__sprint_r>
   23460:	b880030b 	ldhu	r2,12(r23)
   23464:	1080100c 	andi	r2,r2,64
   23468:	103fe31e 	bne	r2,zero,233f8 <_gp+0xfffe7584>
   2346c:	d8802f17 	ldw	r2,188(sp)
   23470:	003fe206 	br	233fc <_gp+0xfffe7588>
   23474:	b009883a 	mov	r4,r22
   23478:	00271200 	call	27120 <__sinit>
   2347c:	003f1c06 	br	230f0 <_gp+0xfffe727c>
   23480:	dc002a17 	ldw	r16,168(sp)
   23484:	003f5a06 	br	231f0 <_gp+0xfffe737c>
   23488:	1805883a 	mov	r2,r3
   2348c:	8c400114 	ori	r17,r17,4
   23490:	1c000007 	ldb	r16,0(r3)
   23494:	003f6306 	br	23224 <_gp+0xfffe73b0>
   23498:	1c000007 	ldb	r16,0(r3)
   2349c:	18800044 	addi	r2,r3,1
   234a0:	8286ad26 	beq	r16,r10,24f58 <___vfprintf_internal_r+0x1ec8>
   234a4:	82fff404 	addi	r11,r16,-48
   234a8:	1007883a 	mov	r3,r2
   234ac:	0013883a 	mov	r9,zero
   234b0:	2aff5d36 	bltu	r5,r11,23228 <_gp+0xfffe73b4>
   234b4:	1c000007 	ldb	r16,0(r3)
   234b8:	4a4002a4 	muli	r9,r9,10
   234bc:	18c00044 	addi	r3,r3,1
   234c0:	5a53883a 	add	r9,r11,r9
   234c4:	82fff404 	addi	r11,r16,-48
   234c8:	2afffa2e 	bgeu	r5,r11,234b4 <_gp+0xfffe7640>
   234cc:	483f560e 	bge	r9,zero,23228 <_gp+0xfffe73b4>
   234d0:	027fffc4 	movi	r9,-1
   234d4:	003f5406 	br	23228 <_gp+0xfffe73b4>
   234d8:	8c402014 	ori	r17,r17,128
   234dc:	1805883a 	mov	r2,r3
   234e0:	1c000007 	ldb	r16,0(r3)
   234e4:	003f4f06 	br	23224 <_gp+0xfffe73b0>
   234e8:	1805883a 	mov	r2,r3
   234ec:	d8002e15 	stw	zero,184(sp)
   234f0:	82fff404 	addi	r11,r16,-48
   234f4:	0019883a 	mov	r12,zero
   234f8:	14000007 	ldb	r16,0(r2)
   234fc:	630002a4 	muli	r12,r12,10
   23500:	18c00044 	addi	r3,r3,1
   23504:	1805883a 	mov	r2,r3
   23508:	62d9883a 	add	r12,r12,r11
   2350c:	82fff404 	addi	r11,r16,-48
   23510:	2afff92e 	bgeu	r5,r11,234f8 <_gp+0xfffe7684>
   23514:	db002e15 	stw	r12,184(sp)
   23518:	003f4306 	br	23228 <_gp+0xfffe73b4>
   2351c:	8c400414 	ori	r17,r17,16
   23520:	d8c02a15 	stw	r3,168(sp)
   23524:	d9802785 	stb	r6,158(sp)
   23528:	8880080c 	andi	r2,r17,32
   2352c:	d8c02d17 	ldw	r3,180(sp)
   23530:	10015a26 	beq	r2,zero,23a9c <___vfprintf_internal_r+0xa0c>
   23534:	db002d17 	ldw	r12,180(sp)
   23538:	18800117 	ldw	r2,4(r3)
   2353c:	1cc00017 	ldw	r19,0(r3)
   23540:	63000204 	addi	r12,r12,8
   23544:	db002d15 	stw	r12,180(sp)
   23548:	1039883a 	mov	fp,r2
   2354c:	10044516 	blt	r2,zero,24664 <___vfprintf_internal_r+0x15d4>
   23550:	dd402783 	ldbu	r21,158(sp)
   23554:	da403215 	stw	r9,200(sp)
   23558:	00800044 	movi	r2,1
   2355c:	9f06b03a 	or	r3,r19,fp
   23560:	48000216 	blt	r9,zero,2356c <___vfprintf_internal_r+0x4dc>
   23564:	013fdfc4 	movi	r4,-129
   23568:	8922703a 	and	r17,r17,r4
   2356c:	1802071e 	bne	r3,zero,23d8c <___vfprintf_internal_r+0xcfc>
   23570:	4802fa26 	beq	r9,zero,2415c <___vfprintf_internal_r+0x10cc>
   23574:	10803fcc 	andi	r2,r2,255
   23578:	00c00044 	movi	r3,1
   2357c:	10c22926 	beq	r2,r3,23e24 <___vfprintf_internal_r+0xd94>
   23580:	00c00084 	movi	r3,2
   23584:	10c31726 	beq	r2,r3,241e4 <___vfprintf_internal_r+0x1154>
   23588:	d8c01e04 	addi	r3,sp,120
   2358c:	9808d0fa 	srli	r4,r19,3
   23590:	e00a977a 	slli	r5,fp,29
   23594:	e038d0fa 	srli	fp,fp,3
   23598:	9cc001cc 	andi	r19,r19,7
   2359c:	98800c04 	addi	r2,r19,48
   235a0:	18ffffc4 	addi	r3,r3,-1
   235a4:	2926b03a 	or	r19,r5,r4
   235a8:	18800005 	stb	r2,0(r3)
   235ac:	9f08b03a 	or	r4,r19,fp
   235b0:	203ff61e 	bne	r4,zero,2358c <_gp+0xfffe7718>
   235b4:	8900004c 	andi	r4,r17,1
   235b8:	d8c03115 	stw	r3,196(sp)
   235bc:	2003931e 	bne	r4,zero,2440c <___vfprintf_internal_r+0x137c>
   235c0:	dac02817 	ldw	r11,160(sp)
   235c4:	58e5c83a 	sub	r18,r11,r3
   235c8:	9005883a 	mov	r2,r18
   235cc:	9240010e 	bge	r18,r9,235d4 <___vfprintf_internal_r+0x544>
   235d0:	4805883a 	mov	r2,r9
   235d4:	d8802b15 	stw	r2,172(sp)
   235d8:	d8003415 	stw	zero,208(sp)
   235dc:	a8803fcc 	andi	r2,r21,255
   235e0:	1080201c 	xori	r2,r2,128
   235e4:	10bfe004 	addi	r2,r2,-128
   235e8:	10000326 	beq	r2,zero,235f8 <___vfprintf_internal_r+0x568>
   235ec:	db002b17 	ldw	r12,172(sp)
   235f0:	63000044 	addi	r12,r12,1
   235f4:	db002b15 	stw	r12,172(sp)
   235f8:	88c0008c 	andi	r3,r17,2
   235fc:	d8c02c15 	stw	r3,176(sp)
   23600:	18000326 	beq	r3,zero,23610 <___vfprintf_internal_r+0x580>
   23604:	dac02b17 	ldw	r11,172(sp)
   23608:	5ac00084 	addi	r11,r11,2
   2360c:	dac02b15 	stw	r11,172(sp)
   23610:	8b00210c 	andi	r12,r17,132
   23614:	db003015 	stw	r12,192(sp)
   23618:	6001da1e 	bne	r12,zero,23d84 <___vfprintf_internal_r+0xcf4>
   2361c:	dac02e17 	ldw	r11,184(sp)
   23620:	db002b17 	ldw	r12,172(sp)
   23624:	5b39c83a 	sub	fp,r11,r12
   23628:	0701d60e 	bge	zero,fp,23d84 <___vfprintf_internal_r+0xcf4>
   2362c:	02400404 	movi	r9,16
   23630:	d8c02017 	ldw	r3,128(sp)
   23634:	d8801f17 	ldw	r2,124(sp)
   23638:	4f053c0e 	bge	r9,fp,24b2c <___vfprintf_internal_r+0x1a9c>
   2363c:	014000f4 	movhi	r5,3
   23640:	29466384 	addi	r5,r5,6542
   23644:	d9403615 	stw	r5,216(sp)
   23648:	482b883a 	mov	r21,r9
   2364c:	04c001c4 	movi	r19,7
   23650:	00000306 	br	23660 <___vfprintf_internal_r+0x5d0>
   23654:	e73ffc04 	addi	fp,fp,-16
   23658:	42000204 	addi	r8,r8,8
   2365c:	af00130e 	bge	r21,fp,236ac <___vfprintf_internal_r+0x61c>
   23660:	02c000f4 	movhi	r11,3
   23664:	18c00404 	addi	r3,r3,16
   23668:	10800044 	addi	r2,r2,1
   2366c:	5ac66384 	addi	r11,r11,6542
   23670:	42c00015 	stw	r11,0(r8)
   23674:	45400115 	stw	r21,4(r8)
   23678:	d8c02015 	stw	r3,128(sp)
   2367c:	d8801f15 	stw	r2,124(sp)
   23680:	98bff40e 	bge	r19,r2,23654 <_gp+0xfffe77e0>
   23684:	b009883a 	mov	r4,r22
   23688:	b80b883a 	mov	r5,r23
   2368c:	d9801e04 	addi	r6,sp,120
   23690:	0029ba40 	call	29ba4 <__sprint_r>
   23694:	103f721e 	bne	r2,zero,23460 <_gp+0xfffe75ec>
   23698:	e73ffc04 	addi	fp,fp,-16
   2369c:	d8c02017 	ldw	r3,128(sp)
   236a0:	d8801f17 	ldw	r2,124(sp)
   236a4:	da000404 	addi	r8,sp,16
   236a8:	af3fed16 	blt	r21,fp,23660 <_gp+0xfffe77ec>
   236ac:	db003617 	ldw	r12,216(sp)
   236b0:	e0c7883a 	add	r3,fp,r3
   236b4:	10800044 	addi	r2,r2,1
   236b8:	43000015 	stw	r12,0(r8)
   236bc:	47000115 	stw	fp,4(r8)
   236c0:	d8c02015 	stw	r3,128(sp)
   236c4:	d8801f15 	stw	r2,124(sp)
   236c8:	010001c4 	movi	r4,7
   236cc:	20830e16 	blt	r4,r2,24308 <___vfprintf_internal_r+0x1278>
   236d0:	d8802787 	ldb	r2,158(sp)
   236d4:	42000204 	addi	r8,r8,8
   236d8:	10000c26 	beq	r2,zero,2370c <___vfprintf_internal_r+0x67c>
   236dc:	d8801f17 	ldw	r2,124(sp)
   236e0:	d9002784 	addi	r4,sp,158
   236e4:	18c00044 	addi	r3,r3,1
   236e8:	10800044 	addi	r2,r2,1
   236ec:	41000015 	stw	r4,0(r8)
   236f0:	01000044 	movi	r4,1
   236f4:	41000115 	stw	r4,4(r8)
   236f8:	d8c02015 	stw	r3,128(sp)
   236fc:	d8801f15 	stw	r2,124(sp)
   23700:	010001c4 	movi	r4,7
   23704:	2082a716 	blt	r4,r2,241a4 <___vfprintf_internal_r+0x1114>
   23708:	42000204 	addi	r8,r8,8
   2370c:	dac02c17 	ldw	r11,176(sp)
   23710:	58000c26 	beq	r11,zero,23744 <___vfprintf_internal_r+0x6b4>
   23714:	d8801f17 	ldw	r2,124(sp)
   23718:	d9002704 	addi	r4,sp,156
   2371c:	18c00084 	addi	r3,r3,2
   23720:	10800044 	addi	r2,r2,1
   23724:	41000015 	stw	r4,0(r8)
   23728:	01000084 	movi	r4,2
   2372c:	41000115 	stw	r4,4(r8)
   23730:	d8c02015 	stw	r3,128(sp)
   23734:	d8801f15 	stw	r2,124(sp)
   23738:	010001c4 	movi	r4,7
   2373c:	2082a116 	blt	r4,r2,241c4 <___vfprintf_internal_r+0x1134>
   23740:	42000204 	addi	r8,r8,8
   23744:	db003017 	ldw	r12,192(sp)
   23748:	00802004 	movi	r2,128
   2374c:	60820326 	beq	r12,r2,23f5c <___vfprintf_internal_r+0xecc>
   23750:	db003217 	ldw	r12,200(sp)
   23754:	64abc83a 	sub	r21,r12,r18
   23758:	0540260e 	bge	zero,r21,237f4 <___vfprintf_internal_r+0x764>
   2375c:	07000404 	movi	fp,16
   23760:	d8801f17 	ldw	r2,124(sp)
   23764:	e544570e 	bge	fp,r21,248c4 <___vfprintf_internal_r+0x1834>
   23768:	014000f4 	movhi	r5,3
   2376c:	29465f84 	addi	r5,r5,6526
   23770:	d9402c15 	stw	r5,176(sp)
   23774:	04c001c4 	movi	r19,7
   23778:	00000306 	br	23788 <___vfprintf_internal_r+0x6f8>
   2377c:	ad7ffc04 	addi	r21,r21,-16
   23780:	42000204 	addi	r8,r8,8
   23784:	e540110e 	bge	fp,r21,237cc <___vfprintf_internal_r+0x73c>
   23788:	18c00404 	addi	r3,r3,16
   2378c:	10800044 	addi	r2,r2,1
   23790:	45000015 	stw	r20,0(r8)
   23794:	47000115 	stw	fp,4(r8)
   23798:	d8c02015 	stw	r3,128(sp)
   2379c:	d8801f15 	stw	r2,124(sp)
   237a0:	98bff60e 	bge	r19,r2,2377c <_gp+0xfffe7908>
   237a4:	b009883a 	mov	r4,r22
   237a8:	b80b883a 	mov	r5,r23
   237ac:	d9801e04 	addi	r6,sp,120
   237b0:	0029ba40 	call	29ba4 <__sprint_r>
   237b4:	103f2a1e 	bne	r2,zero,23460 <_gp+0xfffe75ec>
   237b8:	ad7ffc04 	addi	r21,r21,-16
   237bc:	d8c02017 	ldw	r3,128(sp)
   237c0:	d8801f17 	ldw	r2,124(sp)
   237c4:	da000404 	addi	r8,sp,16
   237c8:	e57fef16 	blt	fp,r21,23788 <_gp+0xfffe7914>
   237cc:	dac02c17 	ldw	r11,176(sp)
   237d0:	1d47883a 	add	r3,r3,r21
   237d4:	10800044 	addi	r2,r2,1
   237d8:	42c00015 	stw	r11,0(r8)
   237dc:	45400115 	stw	r21,4(r8)
   237e0:	d8c02015 	stw	r3,128(sp)
   237e4:	d8801f15 	stw	r2,124(sp)
   237e8:	010001c4 	movi	r4,7
   237ec:	20826516 	blt	r4,r2,24184 <___vfprintf_internal_r+0x10f4>
   237f0:	42000204 	addi	r8,r8,8
   237f4:	8880400c 	andi	r2,r17,256
   237f8:	1001901e 	bne	r2,zero,23e3c <___vfprintf_internal_r+0xdac>
   237fc:	d8801f17 	ldw	r2,124(sp)
   23800:	db003117 	ldw	r12,196(sp)
   23804:	1c87883a 	add	r3,r3,r18
   23808:	10800044 	addi	r2,r2,1
   2380c:	43000015 	stw	r12,0(r8)
   23810:	44800115 	stw	r18,4(r8)
   23814:	d8c02015 	stw	r3,128(sp)
   23818:	d8801f15 	stw	r2,124(sp)
   2381c:	010001c4 	movi	r4,7
   23820:	20824016 	blt	r4,r2,24124 <___vfprintf_internal_r+0x1094>
   23824:	42000204 	addi	r8,r8,8
   23828:	8c40010c 	andi	r17,r17,4
   2382c:	88003126 	beq	r17,zero,238f4 <___vfprintf_internal_r+0x864>
   23830:	db002e17 	ldw	r12,184(sp)
   23834:	dac02b17 	ldw	r11,172(sp)
   23838:	62e1c83a 	sub	r16,r12,r11
   2383c:	04002d0e 	bge	zero,r16,238f4 <___vfprintf_internal_r+0x864>
   23840:	04400404 	movi	r17,16
   23844:	d8801f17 	ldw	r2,124(sp)
   23848:	8c05150e 	bge	r17,r16,24ca0 <___vfprintf_internal_r+0x1c10>
   2384c:	010000f4 	movhi	r4,3
   23850:	21066384 	addi	r4,r4,6542
   23854:	d9003615 	stw	r4,216(sp)
   23858:	048001c4 	movi	r18,7
   2385c:	00000306 	br	2386c <___vfprintf_internal_r+0x7dc>
   23860:	843ffc04 	addi	r16,r16,-16
   23864:	42000204 	addi	r8,r8,8
   23868:	8c00130e 	bge	r17,r16,238b8 <___vfprintf_internal_r+0x828>
   2386c:	014000f4 	movhi	r5,3
   23870:	18c00404 	addi	r3,r3,16
   23874:	10800044 	addi	r2,r2,1
   23878:	29466384 	addi	r5,r5,6542
   2387c:	41400015 	stw	r5,0(r8)
   23880:	44400115 	stw	r17,4(r8)
   23884:	d8c02015 	stw	r3,128(sp)
   23888:	d8801f15 	stw	r2,124(sp)
   2388c:	90bff40e 	bge	r18,r2,23860 <_gp+0xfffe79ec>
   23890:	b009883a 	mov	r4,r22
   23894:	b80b883a 	mov	r5,r23
   23898:	d9801e04 	addi	r6,sp,120
   2389c:	0029ba40 	call	29ba4 <__sprint_r>
   238a0:	103eef1e 	bne	r2,zero,23460 <_gp+0xfffe75ec>
   238a4:	843ffc04 	addi	r16,r16,-16
   238a8:	d8c02017 	ldw	r3,128(sp)
   238ac:	d8801f17 	ldw	r2,124(sp)
   238b0:	da000404 	addi	r8,sp,16
   238b4:	8c3fed16 	blt	r17,r16,2386c <_gp+0xfffe79f8>
   238b8:	dac03617 	ldw	r11,216(sp)
   238bc:	1c07883a 	add	r3,r3,r16
   238c0:	10800044 	addi	r2,r2,1
   238c4:	42c00015 	stw	r11,0(r8)
   238c8:	44000115 	stw	r16,4(r8)
   238cc:	d8c02015 	stw	r3,128(sp)
   238d0:	d8801f15 	stw	r2,124(sp)
   238d4:	010001c4 	movi	r4,7
   238d8:	2080060e 	bge	r4,r2,238f4 <___vfprintf_internal_r+0x864>
   238dc:	b009883a 	mov	r4,r22
   238e0:	b80b883a 	mov	r5,r23
   238e4:	d9801e04 	addi	r6,sp,120
   238e8:	0029ba40 	call	29ba4 <__sprint_r>
   238ec:	103edc1e 	bne	r2,zero,23460 <_gp+0xfffe75ec>
   238f0:	d8c02017 	ldw	r3,128(sp)
   238f4:	d8802b17 	ldw	r2,172(sp)
   238f8:	db002e17 	ldw	r12,184(sp)
   238fc:	1300010e 	bge	r2,r12,23904 <___vfprintf_internal_r+0x874>
   23900:	6005883a 	mov	r2,r12
   23904:	dac02f17 	ldw	r11,188(sp)
   23908:	5897883a 	add	r11,r11,r2
   2390c:	dac02f15 	stw	r11,188(sp)
   23910:	18020c1e 	bne	r3,zero,24144 <___vfprintf_internal_r+0x10b4>
   23914:	d8001f15 	stw	zero,124(sp)
   23918:	da000404 	addi	r8,sp,16
   2391c:	003e1706 	br	2317c <_gp+0xfffe7308>
   23920:	8c400414 	ori	r17,r17,16
   23924:	d8c02a15 	stw	r3,168(sp)
   23928:	8880080c 	andi	r2,r17,32
   2392c:	10010126 	beq	r2,zero,23d34 <___vfprintf_internal_r+0xca4>
   23930:	db002d17 	ldw	r12,180(sp)
   23934:	0005883a 	mov	r2,zero
   23938:	64c00017 	ldw	r19,0(r12)
   2393c:	67000117 	ldw	fp,4(r12)
   23940:	63000204 	addi	r12,r12,8
   23944:	db002d15 	stw	r12,180(sp)
   23948:	9f06b03a 	or	r3,r19,fp
   2394c:	d8002785 	stb	zero,158(sp)
   23950:	da403215 	stw	r9,200(sp)
   23954:	002b883a 	mov	r21,zero
   23958:	003f0106 	br	23560 <_gp+0xfffe76ec>
   2395c:	8c400414 	ori	r17,r17,16
   23960:	d8c02a15 	stw	r3,168(sp)
   23964:	8880080c 	andi	r2,r17,32
   23968:	1000e326 	beq	r2,zero,23cf8 <___vfprintf_internal_r+0xc68>
   2396c:	dac02d17 	ldw	r11,180(sp)
   23970:	00800044 	movi	r2,1
   23974:	5cc00017 	ldw	r19,0(r11)
   23978:	5f000117 	ldw	fp,4(r11)
   2397c:	5ac00204 	addi	r11,r11,8
   23980:	dac02d15 	stw	r11,180(sp)
   23984:	9f06b03a 	or	r3,r19,fp
   23988:	003ff006 	br	2394c <_gp+0xfffe7ad8>
   2398c:	db002d17 	ldw	r12,180(sp)
   23990:	dac02d17 	ldw	r11,180(sp)
   23994:	d8c02a15 	stw	r3,168(sp)
   23998:	63000017 	ldw	r12,0(r12)
   2399c:	5ac00117 	ldw	r11,4(r11)
   239a0:	d9802785 	stb	r6,158(sp)
   239a4:	6009883a 	mov	r4,r12
   239a8:	580b883a 	mov	r5,r11
   239ac:	db003715 	stw	r12,220(sp)
   239b0:	da003f15 	stw	r8,252(sp)
   239b4:	da403e15 	stw	r9,248(sp)
   239b8:	dac03915 	stw	r11,228(sp)
   239bc:	00298540 	call	29854 <__fpclassifyd>
   239c0:	db002d17 	ldw	r12,180(sp)
   239c4:	04800044 	movi	r18,1
   239c8:	da003f17 	ldw	r8,252(sp)
   239cc:	64c00204 	addi	r19,r12,8
   239d0:	da403e17 	ldw	r9,248(sp)
   239d4:	d9003717 	ldw	r4,220(sp)
   239d8:	d9403917 	ldw	r5,228(sp)
   239dc:	14832b1e 	bne	r2,r18,2468c <___vfprintf_internal_r+0x15fc>
   239e0:	000d883a 	mov	r6,zero
   239e4:	000f883a 	mov	r7,zero
   239e8:	002d6800 	call	2d680 <__ledf2>
   239ec:	da003f17 	ldw	r8,252(sp)
   239f0:	1004b716 	blt	r2,zero,24cd0 <___vfprintf_internal_r+0x1c40>
   239f4:	dd402783 	ldbu	r21,158(sp)
   239f8:	008011c4 	movi	r2,71
   239fc:	14040e0e 	bge	r2,r16,24a38 <___vfprintf_internal_r+0x19a8>
   23a00:	00c000f4 	movhi	r3,3
   23a04:	18c65004 	addi	r3,r3,6464
   23a08:	d8c03115 	stw	r3,196(sp)
   23a0c:	02c000c4 	movi	r11,3
   23a10:	00bfdfc4 	movi	r2,-129
   23a14:	dac02b15 	stw	r11,172(sp)
   23a18:	88a2703a 	and	r17,r17,r2
   23a1c:	dcc02d15 	stw	r19,180(sp)
   23a20:	5825883a 	mov	r18,r11
   23a24:	d8003215 	stw	zero,200(sp)
   23a28:	d8003415 	stw	zero,208(sp)
   23a2c:	003eeb06 	br	235dc <_gp+0xfffe7768>
   23a30:	db002d17 	ldw	r12,180(sp)
   23a34:	00800c04 	movi	r2,48
   23a38:	d8802705 	stb	r2,156(sp)
   23a3c:	64c00017 	ldw	r19,0(r12)
   23a40:	00801e04 	movi	r2,120
   23a44:	d8802745 	stb	r2,157(sp)
   23a48:	008000f4 	movhi	r2,3
   23a4c:	10865804 	addi	r2,r2,6496
   23a50:	63000104 	addi	r12,r12,4
   23a54:	d8c02a15 	stw	r3,168(sp)
   23a58:	d8803b15 	stw	r2,236(sp)
   23a5c:	0039883a 	mov	fp,zero
   23a60:	8c400094 	ori	r17,r17,2
   23a64:	db002d15 	stw	r12,180(sp)
   23a68:	00800084 	movi	r2,2
   23a6c:	04001e04 	movi	r16,120
   23a70:	9807883a 	mov	r3,r19
   23a74:	003fb506 	br	2394c <_gp+0xfffe7ad8>
   23a78:	8c400214 	ori	r17,r17,8
   23a7c:	1805883a 	mov	r2,r3
   23a80:	1c000007 	ldb	r16,0(r3)
   23a84:	003de706 	br	23224 <_gp+0xfffe73b0>
   23a88:	d8c02a15 	stw	r3,168(sp)
   23a8c:	d9802785 	stb	r6,158(sp)
   23a90:	8880080c 	andi	r2,r17,32
   23a94:	d8c02d17 	ldw	r3,180(sp)
   23a98:	103ea61e 	bne	r2,zero,23534 <_gp+0xfffe76c0>
   23a9c:	8880040c 	andi	r2,r17,16
   23aa0:	1002221e 	bne	r2,zero,2432c <___vfprintf_internal_r+0x129c>
   23aa4:	8880100c 	andi	r2,r17,64
   23aa8:	10022026 	beq	r2,zero,2432c <___vfprintf_internal_r+0x129c>
   23aac:	1cc0000f 	ldh	r19,0(r3)
   23ab0:	db002d17 	ldw	r12,180(sp)
   23ab4:	9839d7fa 	srai	fp,r19,31
   23ab8:	63000104 	addi	r12,r12,4
   23abc:	db002d15 	stw	r12,180(sp)
   23ac0:	e005883a 	mov	r2,fp
   23ac4:	003ea106 	br	2354c <_gp+0xfffe76d8>
   23ac8:	8c401014 	ori	r17,r17,64
   23acc:	1805883a 	mov	r2,r3
   23ad0:	1c000007 	ldb	r16,0(r3)
   23ad4:	003dd306 	br	23224 <_gp+0xfffe73b0>
   23ad8:	1c000007 	ldb	r16,0(r3)
   23adc:	81c3e926 	beq	r16,r7,24a84 <___vfprintf_internal_r+0x19f4>
   23ae0:	8c400414 	ori	r17,r17,16
   23ae4:	1805883a 	mov	r2,r3
   23ae8:	003dce06 	br	23224 <_gp+0xfffe73b0>
   23aec:	d8c02a15 	stw	r3,168(sp)
   23af0:	d9802785 	stb	r6,158(sp)
   23af4:	8880080c 	andi	r2,r17,32
   23af8:	10034726 	beq	r2,zero,24818 <___vfprintf_internal_r+0x1788>
   23afc:	db002d17 	ldw	r12,180(sp)
   23b00:	dac02f17 	ldw	r11,188(sp)
   23b04:	60800017 	ldw	r2,0(r12)
   23b08:	5807d7fa 	srai	r3,r11,31
   23b0c:	63000104 	addi	r12,r12,4
   23b10:	db002d15 	stw	r12,180(sp)
   23b14:	12c00015 	stw	r11,0(r2)
   23b18:	10c00115 	stw	r3,4(r2)
   23b1c:	003d9706 	br	2317c <_gp+0xfffe7308>
   23b20:	030000f4 	movhi	r12,3
   23b24:	63065304 	addi	r12,r12,6476
   23b28:	d8c02a15 	stw	r3,168(sp)
   23b2c:	d9802785 	stb	r6,158(sp)
   23b30:	db003b15 	stw	r12,236(sp)
   23b34:	88c0080c 	andi	r3,r17,32
   23b38:	d8802d17 	ldw	r2,180(sp)
   23b3c:	18005b26 	beq	r3,zero,23cac <___vfprintf_internal_r+0xc1c>
   23b40:	dac02d17 	ldw	r11,180(sp)
   23b44:	14c00017 	ldw	r19,0(r2)
   23b48:	17000117 	ldw	fp,4(r2)
   23b4c:	5ac00204 	addi	r11,r11,8
   23b50:	dac02d15 	stw	r11,180(sp)
   23b54:	8880004c 	andi	r2,r17,1
   23b58:	10022926 	beq	r2,zero,24400 <___vfprintf_internal_r+0x1370>
   23b5c:	9f06b03a 	or	r3,r19,fp
   23b60:	18032b26 	beq	r3,zero,24810 <___vfprintf_internal_r+0x1780>
   23b64:	00800c04 	movi	r2,48
   23b68:	d8802705 	stb	r2,156(sp)
   23b6c:	dc002745 	stb	r16,157(sp)
   23b70:	8c400094 	ori	r17,r17,2
   23b74:	00800084 	movi	r2,2
   23b78:	003f7406 	br	2394c <_gp+0xfffe7ad8>
   23b7c:	30803fcc 	andi	r2,r6,255
   23b80:	1080201c 	xori	r2,r2,128
   23b84:	10bfe004 	addi	r2,r2,-128
   23b88:	1003351e 	bne	r2,zero,24860 <___vfprintf_internal_r+0x17d0>
   23b8c:	1805883a 	mov	r2,r3
   23b90:	01800804 	movi	r6,32
   23b94:	1c000007 	ldb	r16,0(r3)
   23b98:	003da206 	br	23224 <_gp+0xfffe73b0>
   23b9c:	dac02d17 	ldw	r11,180(sp)
   23ba0:	db002d17 	ldw	r12,180(sp)
   23ba4:	5ac00017 	ldw	r11,0(r11)
   23ba8:	dac02e15 	stw	r11,184(sp)
   23bac:	62c00104 	addi	r11,r12,4
   23bb0:	db002e17 	ldw	r12,184(sp)
   23bb4:	6003ad16 	blt	r12,zero,24a6c <___vfprintf_internal_r+0x19dc>
   23bb8:	dac02d15 	stw	r11,180(sp)
   23bbc:	1805883a 	mov	r2,r3
   23bc0:	1c000007 	ldb	r16,0(r3)
   23bc4:	003d9706 	br	23224 <_gp+0xfffe73b0>
   23bc8:	1805883a 	mov	r2,r3
   23bcc:	01800ac4 	movi	r6,43
   23bd0:	1c000007 	ldb	r16,0(r3)
   23bd4:	003d9306 	br	23224 <_gp+0xfffe73b0>
   23bd8:	db002d17 	ldw	r12,180(sp)
   23bdc:	d8c02a15 	stw	r3,168(sp)
   23be0:	00c00044 	movi	r3,1
   23be4:	60800017 	ldw	r2,0(r12)
   23be8:	63000104 	addi	r12,r12,4
   23bec:	d8c02b15 	stw	r3,172(sp)
   23bf0:	d8002785 	stb	zero,158(sp)
   23bf4:	d8801405 	stb	r2,80(sp)
   23bf8:	db002d15 	stw	r12,180(sp)
   23bfc:	dac01404 	addi	r11,sp,80
   23c00:	1825883a 	mov	r18,r3
   23c04:	d8003215 	stw	zero,200(sp)
   23c08:	d8003415 	stw	zero,208(sp)
   23c0c:	dac03115 	stw	r11,196(sp)
   23c10:	0005883a 	mov	r2,zero
   23c14:	003e7806 	br	235f8 <_gp+0xfffe7784>
   23c18:	dac02d17 	ldw	r11,180(sp)
   23c1c:	db002d17 	ldw	r12,180(sp)
   23c20:	d8c02a15 	stw	r3,168(sp)
   23c24:	5ac00017 	ldw	r11,0(r11)
   23c28:	d8002785 	stb	zero,158(sp)
   23c2c:	64c00104 	addi	r19,r12,4
   23c30:	dac03115 	stw	r11,196(sp)
   23c34:	5803fe26 	beq	r11,zero,24c30 <___vfprintf_internal_r+0x1ba0>
   23c38:	d9003117 	ldw	r4,196(sp)
   23c3c:	4803b416 	blt	r9,zero,24b10 <___vfprintf_internal_r+0x1a80>
   23c40:	480d883a 	mov	r6,r9
   23c44:	000b883a 	mov	r5,zero
   23c48:	da003f15 	stw	r8,252(sp)
   23c4c:	da403e15 	stw	r9,248(sp)
   23c50:	0027e640 	call	27e64 <memchr>
   23c54:	da003f17 	ldw	r8,252(sp)
   23c58:	da403e17 	ldw	r9,248(sp)
   23c5c:	10043026 	beq	r2,zero,24d20 <___vfprintf_internal_r+0x1c90>
   23c60:	d8c03117 	ldw	r3,196(sp)
   23c64:	10e5c83a 	sub	r18,r2,r3
   23c68:	4c836b16 	blt	r9,r18,24a18 <___vfprintf_internal_r+0x1988>
   23c6c:	9005883a 	mov	r2,r18
   23c70:	9003ac16 	blt	r18,zero,24b24 <___vfprintf_internal_r+0x1a94>
   23c74:	dd402783 	ldbu	r21,158(sp)
   23c78:	d8802b15 	stw	r2,172(sp)
   23c7c:	dcc02d15 	stw	r19,180(sp)
   23c80:	d8003215 	stw	zero,200(sp)
   23c84:	d8003415 	stw	zero,208(sp)
   23c88:	003e5406 	br	235dc <_gp+0xfffe7768>
   23c8c:	008000f4 	movhi	r2,3
   23c90:	10865804 	addi	r2,r2,6496
   23c94:	d8c02a15 	stw	r3,168(sp)
   23c98:	d8803b15 	stw	r2,236(sp)
   23c9c:	d9802785 	stb	r6,158(sp)
   23ca0:	88c0080c 	andi	r3,r17,32
   23ca4:	d8802d17 	ldw	r2,180(sp)
   23ca8:	183fa51e 	bne	r3,zero,23b40 <_gp+0xfffe7ccc>
   23cac:	88c0040c 	andi	r3,r17,16
   23cb0:	1802ee26 	beq	r3,zero,2486c <___vfprintf_internal_r+0x17dc>
   23cb4:	db002d17 	ldw	r12,180(sp)
   23cb8:	14c00017 	ldw	r19,0(r2)
   23cbc:	0039883a 	mov	fp,zero
   23cc0:	63000104 	addi	r12,r12,4
   23cc4:	db002d15 	stw	r12,180(sp)
   23cc8:	003fa206 	br	23b54 <_gp+0xfffe7ce0>
   23ccc:	8c400054 	ori	r17,r17,1
   23cd0:	1805883a 	mov	r2,r3
   23cd4:	1c000007 	ldb	r16,0(r3)
   23cd8:	003d5206 	br	23224 <_gp+0xfffe73b0>
   23cdc:	8c400814 	ori	r17,r17,32
   23ce0:	1805883a 	mov	r2,r3
   23ce4:	1c000007 	ldb	r16,0(r3)
   23ce8:	003d4e06 	br	23224 <_gp+0xfffe73b0>
   23cec:	d8c02a15 	stw	r3,168(sp)
   23cf0:	8880080c 	andi	r2,r17,32
   23cf4:	103f1d1e 	bne	r2,zero,2396c <_gp+0xfffe7af8>
   23cf8:	8880040c 	andi	r2,r17,16
   23cfc:	1001b81e 	bne	r2,zero,243e0 <___vfprintf_internal_r+0x1350>
   23d00:	8880100c 	andi	r2,r17,64
   23d04:	1001b626 	beq	r2,zero,243e0 <___vfprintf_internal_r+0x1350>
   23d08:	dac02d17 	ldw	r11,180(sp)
   23d0c:	0039883a 	mov	fp,zero
   23d10:	00800044 	movi	r2,1
   23d14:	5cc0000b 	ldhu	r19,0(r11)
   23d18:	5ac00104 	addi	r11,r11,4
   23d1c:	dac02d15 	stw	r11,180(sp)
   23d20:	9807883a 	mov	r3,r19
   23d24:	003f0906 	br	2394c <_gp+0xfffe7ad8>
   23d28:	d8c02a15 	stw	r3,168(sp)
   23d2c:	8880080c 	andi	r2,r17,32
   23d30:	103eff1e 	bne	r2,zero,23930 <_gp+0xfffe7abc>
   23d34:	8880040c 	andi	r2,r17,16
   23d38:	1001a11e 	bne	r2,zero,243c0 <___vfprintf_internal_r+0x1330>
   23d3c:	8880100c 	andi	r2,r17,64
   23d40:	10019f26 	beq	r2,zero,243c0 <___vfprintf_internal_r+0x1330>
   23d44:	db002d17 	ldw	r12,180(sp)
   23d48:	0039883a 	mov	fp,zero
   23d4c:	0005883a 	mov	r2,zero
   23d50:	64c0000b 	ldhu	r19,0(r12)
   23d54:	63000104 	addi	r12,r12,4
   23d58:	db002d15 	stw	r12,180(sp)
   23d5c:	9807883a 	mov	r3,r19
   23d60:	003efa06 	br	2394c <_gp+0xfffe7ad8>
   23d64:	d8c02a15 	stw	r3,168(sp)
   23d68:	d9802785 	stb	r6,158(sp)
   23d6c:	803db626 	beq	r16,zero,23448 <_gp+0xfffe75d4>
   23d70:	00c00044 	movi	r3,1
   23d74:	d8c02b15 	stw	r3,172(sp)
   23d78:	dc001405 	stb	r16,80(sp)
   23d7c:	d8002785 	stb	zero,158(sp)
   23d80:	003f9e06 	br	23bfc <_gp+0xfffe7d88>
   23d84:	d8c02017 	ldw	r3,128(sp)
   23d88:	003e5306 	br	236d8 <_gp+0xfffe7864>
   23d8c:	10803fcc 	andi	r2,r2,255
   23d90:	00c00044 	movi	r3,1
   23d94:	10fdfa1e 	bne	r2,r3,23580 <_gp+0xfffe770c>
   23d98:	e000021e 	bne	fp,zero,23da4 <___vfprintf_internal_r+0xd14>
   23d9c:	00800244 	movi	r2,9
   23da0:	14c0202e 	bgeu	r2,r19,23e24 <___vfprintf_internal_r+0xd94>
   23da4:	dc002b15 	stw	r16,172(sp)
   23da8:	dc402c15 	stw	r17,176(sp)
   23dac:	9821883a 	mov	r16,r19
   23db0:	e023883a 	mov	r17,fp
   23db4:	dc801e04 	addi	r18,sp,120
   23db8:	4827883a 	mov	r19,r9
   23dbc:	4039883a 	mov	fp,r8
   23dc0:	8009883a 	mov	r4,r16
   23dc4:	880b883a 	mov	r5,r17
   23dc8:	01800284 	movi	r6,10
   23dcc:	000f883a 	mov	r7,zero
   23dd0:	002be240 	call	2be24 <__umoddi3>
   23dd4:	10800c04 	addi	r2,r2,48
   23dd8:	94bfffc4 	addi	r18,r18,-1
   23ddc:	8009883a 	mov	r4,r16
   23de0:	880b883a 	mov	r5,r17
   23de4:	01800284 	movi	r6,10
   23de8:	000f883a 	mov	r7,zero
   23dec:	90800005 	stb	r2,0(r18)
   23df0:	002b8640 	call	2b864 <__udivdi3>
   23df4:	1021883a 	mov	r16,r2
   23df8:	10c4b03a 	or	r2,r2,r3
   23dfc:	1823883a 	mov	r17,r3
   23e00:	103fef1e 	bne	r2,zero,23dc0 <_gp+0xfffe7f4c>
   23e04:	dac02817 	ldw	r11,160(sp)
   23e08:	dc803115 	stw	r18,196(sp)
   23e0c:	dc002b17 	ldw	r16,172(sp)
   23e10:	dc402c17 	ldw	r17,176(sp)
   23e14:	9813883a 	mov	r9,r19
   23e18:	e011883a 	mov	r8,fp
   23e1c:	5ca5c83a 	sub	r18,r11,r18
   23e20:	003de906 	br	235c8 <_gp+0xfffe7754>
   23e24:	9cc00c04 	addi	r19,r19,48
   23e28:	d8c01dc4 	addi	r3,sp,119
   23e2c:	dcc01dc5 	stb	r19,119(sp)
   23e30:	dc803c17 	ldw	r18,240(sp)
   23e34:	d8c03115 	stw	r3,196(sp)
   23e38:	003de306 	br	235c8 <_gp+0xfffe7754>
   23e3c:	00801944 	movi	r2,101
   23e40:	1400710e 	bge	r2,r16,24008 <___vfprintf_internal_r+0xf78>
   23e44:	d9003717 	ldw	r4,220(sp)
   23e48:	d9403917 	ldw	r5,228(sp)
   23e4c:	000d883a 	mov	r6,zero
   23e50:	000f883a 	mov	r7,zero
   23e54:	d8c03d15 	stw	r3,244(sp)
   23e58:	da003f15 	stw	r8,252(sp)
   23e5c:	002d51c0 	call	2d51c <__eqdf2>
   23e60:	d8c03d17 	ldw	r3,244(sp)
   23e64:	da003f17 	ldw	r8,252(sp)
   23e68:	1000ef1e 	bne	r2,zero,24228 <___vfprintf_internal_r+0x1198>
   23e6c:	d8801f17 	ldw	r2,124(sp)
   23e70:	010000f4 	movhi	r4,3
   23e74:	21065f04 	addi	r4,r4,6524
   23e78:	18c00044 	addi	r3,r3,1
   23e7c:	10800044 	addi	r2,r2,1
   23e80:	41000015 	stw	r4,0(r8)
   23e84:	01000044 	movi	r4,1
   23e88:	41000115 	stw	r4,4(r8)
   23e8c:	d8c02015 	stw	r3,128(sp)
   23e90:	d8801f15 	stw	r2,124(sp)
   23e94:	010001c4 	movi	r4,7
   23e98:	20828e16 	blt	r4,r2,248d4 <___vfprintf_internal_r+0x1844>
   23e9c:	42000204 	addi	r8,r8,8
   23ea0:	d8802617 	ldw	r2,152(sp)
   23ea4:	dac03317 	ldw	r11,204(sp)
   23ea8:	12c00216 	blt	r2,r11,23eb4 <___vfprintf_internal_r+0xe24>
   23eac:	8880004c 	andi	r2,r17,1
   23eb0:	103e5d26 	beq	r2,zero,23828 <_gp+0xfffe79b4>
   23eb4:	db003817 	ldw	r12,224(sp)
   23eb8:	d8801f17 	ldw	r2,124(sp)
   23ebc:	dac03517 	ldw	r11,212(sp)
   23ec0:	1b07883a 	add	r3,r3,r12
   23ec4:	10800044 	addi	r2,r2,1
   23ec8:	42c00015 	stw	r11,0(r8)
   23ecc:	43000115 	stw	r12,4(r8)
   23ed0:	d8c02015 	stw	r3,128(sp)
   23ed4:	d8801f15 	stw	r2,124(sp)
   23ed8:	010001c4 	movi	r4,7
   23edc:	2082ed16 	blt	r4,r2,24a94 <___vfprintf_internal_r+0x1a04>
   23ee0:	42000204 	addi	r8,r8,8
   23ee4:	db003317 	ldw	r12,204(sp)
   23ee8:	643fffc4 	addi	r16,r12,-1
   23eec:	043e4e0e 	bge	zero,r16,23828 <_gp+0xfffe79b4>
   23ef0:	04800404 	movi	r18,16
   23ef4:	d8801f17 	ldw	r2,124(sp)
   23ef8:	94007e0e 	bge	r18,r16,240f4 <___vfprintf_internal_r+0x1064>
   23efc:	014000f4 	movhi	r5,3
   23f00:	29465f84 	addi	r5,r5,6526
   23f04:	d9402c15 	stw	r5,176(sp)
   23f08:	054001c4 	movi	r21,7
   23f0c:	00000306 	br	23f1c <___vfprintf_internal_r+0xe8c>
   23f10:	42000204 	addi	r8,r8,8
   23f14:	843ffc04 	addi	r16,r16,-16
   23f18:	9400790e 	bge	r18,r16,24100 <___vfprintf_internal_r+0x1070>
   23f1c:	18c00404 	addi	r3,r3,16
   23f20:	10800044 	addi	r2,r2,1
   23f24:	45000015 	stw	r20,0(r8)
   23f28:	44800115 	stw	r18,4(r8)
   23f2c:	d8c02015 	stw	r3,128(sp)
   23f30:	d8801f15 	stw	r2,124(sp)
   23f34:	a8bff60e 	bge	r21,r2,23f10 <_gp+0xfffe809c>
   23f38:	b009883a 	mov	r4,r22
   23f3c:	b80b883a 	mov	r5,r23
   23f40:	d9801e04 	addi	r6,sp,120
   23f44:	0029ba40 	call	29ba4 <__sprint_r>
   23f48:	103d451e 	bne	r2,zero,23460 <_gp+0xfffe75ec>
   23f4c:	d8c02017 	ldw	r3,128(sp)
   23f50:	d8801f17 	ldw	r2,124(sp)
   23f54:	da000404 	addi	r8,sp,16
   23f58:	003fee06 	br	23f14 <_gp+0xfffe80a0>
   23f5c:	dac02e17 	ldw	r11,184(sp)
   23f60:	db002b17 	ldw	r12,172(sp)
   23f64:	5b2bc83a 	sub	r21,r11,r12
   23f68:	057df90e 	bge	zero,r21,23750 <_gp+0xfffe78dc>
   23f6c:	07000404 	movi	fp,16
   23f70:	d8801f17 	ldw	r2,124(sp)
   23f74:	e543640e 	bge	fp,r21,24d08 <___vfprintf_internal_r+0x1c78>
   23f78:	014000f4 	movhi	r5,3
   23f7c:	29465f84 	addi	r5,r5,6526
   23f80:	d9402c15 	stw	r5,176(sp)
   23f84:	04c001c4 	movi	r19,7
   23f88:	00000306 	br	23f98 <___vfprintf_internal_r+0xf08>
   23f8c:	ad7ffc04 	addi	r21,r21,-16
   23f90:	42000204 	addi	r8,r8,8
   23f94:	e540110e 	bge	fp,r21,23fdc <___vfprintf_internal_r+0xf4c>
   23f98:	18c00404 	addi	r3,r3,16
   23f9c:	10800044 	addi	r2,r2,1
   23fa0:	45000015 	stw	r20,0(r8)
   23fa4:	47000115 	stw	fp,4(r8)
   23fa8:	d8c02015 	stw	r3,128(sp)
   23fac:	d8801f15 	stw	r2,124(sp)
   23fb0:	98bff60e 	bge	r19,r2,23f8c <_gp+0xfffe8118>
   23fb4:	b009883a 	mov	r4,r22
   23fb8:	b80b883a 	mov	r5,r23
   23fbc:	d9801e04 	addi	r6,sp,120
   23fc0:	0029ba40 	call	29ba4 <__sprint_r>
   23fc4:	103d261e 	bne	r2,zero,23460 <_gp+0xfffe75ec>
   23fc8:	ad7ffc04 	addi	r21,r21,-16
   23fcc:	d8c02017 	ldw	r3,128(sp)
   23fd0:	d8801f17 	ldw	r2,124(sp)
   23fd4:	da000404 	addi	r8,sp,16
   23fd8:	e57fef16 	blt	fp,r21,23f98 <_gp+0xfffe8124>
   23fdc:	dac02c17 	ldw	r11,176(sp)
   23fe0:	1d47883a 	add	r3,r3,r21
   23fe4:	10800044 	addi	r2,r2,1
   23fe8:	42c00015 	stw	r11,0(r8)
   23fec:	45400115 	stw	r21,4(r8)
   23ff0:	d8c02015 	stw	r3,128(sp)
   23ff4:	d8801f15 	stw	r2,124(sp)
   23ff8:	010001c4 	movi	r4,7
   23ffc:	20819116 	blt	r4,r2,24644 <___vfprintf_internal_r+0x15b4>
   24000:	42000204 	addi	r8,r8,8
   24004:	003dd206 	br	23750 <_gp+0xfffe78dc>
   24008:	db003317 	ldw	r12,204(sp)
   2400c:	00800044 	movi	r2,1
   24010:	18c00044 	addi	r3,r3,1
   24014:	1301530e 	bge	r2,r12,24564 <___vfprintf_internal_r+0x14d4>
   24018:	dc001f17 	ldw	r16,124(sp)
   2401c:	dac03117 	ldw	r11,196(sp)
   24020:	00800044 	movi	r2,1
   24024:	84000044 	addi	r16,r16,1
   24028:	40800115 	stw	r2,4(r8)
   2402c:	42c00015 	stw	r11,0(r8)
   24030:	d8c02015 	stw	r3,128(sp)
   24034:	dc001f15 	stw	r16,124(sp)
   24038:	008001c4 	movi	r2,7
   2403c:	14016b16 	blt	r2,r16,245ec <___vfprintf_internal_r+0x155c>
   24040:	42000204 	addi	r8,r8,8
   24044:	db003817 	ldw	r12,224(sp)
   24048:	dac03517 	ldw	r11,212(sp)
   2404c:	84000044 	addi	r16,r16,1
   24050:	1b07883a 	add	r3,r3,r12
   24054:	42c00015 	stw	r11,0(r8)
   24058:	43000115 	stw	r12,4(r8)
   2405c:	d8c02015 	stw	r3,128(sp)
   24060:	dc001f15 	stw	r16,124(sp)
   24064:	008001c4 	movi	r2,7
   24068:	14016916 	blt	r2,r16,24610 <___vfprintf_internal_r+0x1580>
   2406c:	44800204 	addi	r18,r8,8
   24070:	d9003717 	ldw	r4,220(sp)
   24074:	d9403917 	ldw	r5,228(sp)
   24078:	000d883a 	mov	r6,zero
   2407c:	000f883a 	mov	r7,zero
   24080:	d8c03d15 	stw	r3,244(sp)
   24084:	002d51c0 	call	2d51c <__eqdf2>
   24088:	d8c03d17 	ldw	r3,244(sp)
   2408c:	db003317 	ldw	r12,204(sp)
   24090:	1000ad26 	beq	r2,zero,24348 <___vfprintf_internal_r+0x12b8>
   24094:	dac03117 	ldw	r11,196(sp)
   24098:	60bfffc4 	addi	r2,r12,-1
   2409c:	1887883a 	add	r3,r3,r2
   240a0:	59000044 	addi	r4,r11,1
   240a4:	84000044 	addi	r16,r16,1
   240a8:	90800115 	stw	r2,4(r18)
   240ac:	91000015 	stw	r4,0(r18)
   240b0:	d8c02015 	stw	r3,128(sp)
   240b4:	dc001f15 	stw	r16,124(sp)
   240b8:	008001c4 	movi	r2,7
   240bc:	14014216 	blt	r2,r16,245c8 <___vfprintf_internal_r+0x1538>
   240c0:	94800204 	addi	r18,r18,8
   240c4:	dac03a17 	ldw	r11,232(sp)
   240c8:	dd4022c4 	addi	r21,sp,139
   240cc:	84000044 	addi	r16,r16,1
   240d0:	1ac7883a 	add	r3,r3,r11
   240d4:	95400015 	stw	r21,0(r18)
   240d8:	92c00115 	stw	r11,4(r18)
   240dc:	d8c02015 	stw	r3,128(sp)
   240e0:	dc001f15 	stw	r16,124(sp)
   240e4:	008001c4 	movi	r2,7
   240e8:	14000e16 	blt	r2,r16,24124 <___vfprintf_internal_r+0x1094>
   240ec:	92000204 	addi	r8,r18,8
   240f0:	003dcd06 	br	23828 <_gp+0xfffe79b4>
   240f4:	010000f4 	movhi	r4,3
   240f8:	21065f84 	addi	r4,r4,6526
   240fc:	d9002c15 	stw	r4,176(sp)
   24100:	dac02c17 	ldw	r11,176(sp)
   24104:	1c07883a 	add	r3,r3,r16
   24108:	44000115 	stw	r16,4(r8)
   2410c:	42c00015 	stw	r11,0(r8)
   24110:	10800044 	addi	r2,r2,1
   24114:	d8c02015 	stw	r3,128(sp)
   24118:	d8801f15 	stw	r2,124(sp)
   2411c:	010001c4 	movi	r4,7
   24120:	20bdc00e 	bge	r4,r2,23824 <_gp+0xfffe79b0>
   24124:	b009883a 	mov	r4,r22
   24128:	b80b883a 	mov	r5,r23
   2412c:	d9801e04 	addi	r6,sp,120
   24130:	0029ba40 	call	29ba4 <__sprint_r>
   24134:	103cca1e 	bne	r2,zero,23460 <_gp+0xfffe75ec>
   24138:	d8c02017 	ldw	r3,128(sp)
   2413c:	da000404 	addi	r8,sp,16
   24140:	003db906 	br	23828 <_gp+0xfffe79b4>
   24144:	b009883a 	mov	r4,r22
   24148:	b80b883a 	mov	r5,r23
   2414c:	d9801e04 	addi	r6,sp,120
   24150:	0029ba40 	call	29ba4 <__sprint_r>
   24154:	103def26 	beq	r2,zero,23914 <_gp+0xfffe7aa0>
   24158:	003cc106 	br	23460 <_gp+0xfffe75ec>
   2415c:	10803fcc 	andi	r2,r2,255
   24160:	1000651e 	bne	r2,zero,242f8 <___vfprintf_internal_r+0x1268>
   24164:	8880004c 	andi	r2,r17,1
   24168:	10013226 	beq	r2,zero,24634 <___vfprintf_internal_r+0x15a4>
   2416c:	00800c04 	movi	r2,48
   24170:	d8c01dc4 	addi	r3,sp,119
   24174:	d8801dc5 	stb	r2,119(sp)
   24178:	dc803c17 	ldw	r18,240(sp)
   2417c:	d8c03115 	stw	r3,196(sp)
   24180:	003d1106 	br	235c8 <_gp+0xfffe7754>
   24184:	b009883a 	mov	r4,r22
   24188:	b80b883a 	mov	r5,r23
   2418c:	d9801e04 	addi	r6,sp,120
   24190:	0029ba40 	call	29ba4 <__sprint_r>
   24194:	103cb21e 	bne	r2,zero,23460 <_gp+0xfffe75ec>
   24198:	d8c02017 	ldw	r3,128(sp)
   2419c:	da000404 	addi	r8,sp,16
   241a0:	003d9406 	br	237f4 <_gp+0xfffe7980>
   241a4:	b009883a 	mov	r4,r22
   241a8:	b80b883a 	mov	r5,r23
   241ac:	d9801e04 	addi	r6,sp,120
   241b0:	0029ba40 	call	29ba4 <__sprint_r>
   241b4:	103caa1e 	bne	r2,zero,23460 <_gp+0xfffe75ec>
   241b8:	d8c02017 	ldw	r3,128(sp)
   241bc:	da000404 	addi	r8,sp,16
   241c0:	003d5206 	br	2370c <_gp+0xfffe7898>
   241c4:	b009883a 	mov	r4,r22
   241c8:	b80b883a 	mov	r5,r23
   241cc:	d9801e04 	addi	r6,sp,120
   241d0:	0029ba40 	call	29ba4 <__sprint_r>
   241d4:	103ca21e 	bne	r2,zero,23460 <_gp+0xfffe75ec>
   241d8:	d8c02017 	ldw	r3,128(sp)
   241dc:	da000404 	addi	r8,sp,16
   241e0:	003d5806 	br	23744 <_gp+0xfffe78d0>
   241e4:	d9403b17 	ldw	r5,236(sp)
   241e8:	d8c01e04 	addi	r3,sp,120
   241ec:	988003cc 	andi	r2,r19,15
   241f0:	e008973a 	slli	r4,fp,28
   241f4:	2885883a 	add	r2,r5,r2
   241f8:	9826d13a 	srli	r19,r19,4
   241fc:	10800003 	ldbu	r2,0(r2)
   24200:	e038d13a 	srli	fp,fp,4
   24204:	18ffffc4 	addi	r3,r3,-1
   24208:	24e6b03a 	or	r19,r4,r19
   2420c:	18800005 	stb	r2,0(r3)
   24210:	9f04b03a 	or	r2,r19,fp
   24214:	103ff51e 	bne	r2,zero,241ec <_gp+0xfffe8378>
   24218:	db002817 	ldw	r12,160(sp)
   2421c:	d8c03115 	stw	r3,196(sp)
   24220:	60e5c83a 	sub	r18,r12,r3
   24224:	003ce806 	br	235c8 <_gp+0xfffe7754>
   24228:	dc002617 	ldw	r16,152(sp)
   2422c:	0401b10e 	bge	zero,r16,248f4 <___vfprintf_internal_r+0x1864>
   24230:	db003117 	ldw	r12,196(sp)
   24234:	dac03317 	ldw	r11,204(sp)
   24238:	62e1883a 	add	r16,r12,r11
   2423c:	db003417 	ldw	r12,208(sp)
   24240:	5825883a 	mov	r18,r11
   24244:	62c0010e 	bge	r12,r11,2424c <___vfprintf_internal_r+0x11bc>
   24248:	6025883a 	mov	r18,r12
   2424c:	04800b0e 	bge	zero,r18,2427c <___vfprintf_internal_r+0x11ec>
   24250:	d8801f17 	ldw	r2,124(sp)
   24254:	dac03117 	ldw	r11,196(sp)
   24258:	1c87883a 	add	r3,r3,r18
   2425c:	10800044 	addi	r2,r2,1
   24260:	42c00015 	stw	r11,0(r8)
   24264:	44800115 	stw	r18,4(r8)
   24268:	d8c02015 	stw	r3,128(sp)
   2426c:	d8801f15 	stw	r2,124(sp)
   24270:	010001c4 	movi	r4,7
   24274:	20824f16 	blt	r4,r2,24bb4 <___vfprintf_internal_r+0x1b24>
   24278:	42000204 	addi	r8,r8,8
   2427c:	90024b16 	blt	r18,zero,24bac <___vfprintf_internal_r+0x1b1c>
   24280:	db003417 	ldw	r12,208(sp)
   24284:	64a5c83a 	sub	r18,r12,r18
   24288:	0480730e 	bge	zero,r18,24458 <___vfprintf_internal_r+0x13c8>
   2428c:	05400404 	movi	r21,16
   24290:	d8801f17 	ldw	r2,124(sp)
   24294:	ac817d0e 	bge	r21,r18,2488c <___vfprintf_internal_r+0x17fc>
   24298:	014000f4 	movhi	r5,3
   2429c:	29465f84 	addi	r5,r5,6526
   242a0:	d9402c15 	stw	r5,176(sp)
   242a4:	070001c4 	movi	fp,7
   242a8:	00000306 	br	242b8 <___vfprintf_internal_r+0x1228>
   242ac:	42000204 	addi	r8,r8,8
   242b0:	94bffc04 	addi	r18,r18,-16
   242b4:	ac81780e 	bge	r21,r18,24898 <___vfprintf_internal_r+0x1808>
   242b8:	18c00404 	addi	r3,r3,16
   242bc:	10800044 	addi	r2,r2,1
   242c0:	45000015 	stw	r20,0(r8)
   242c4:	45400115 	stw	r21,4(r8)
   242c8:	d8c02015 	stw	r3,128(sp)
   242cc:	d8801f15 	stw	r2,124(sp)
   242d0:	e0bff60e 	bge	fp,r2,242ac <_gp+0xfffe8438>
   242d4:	b009883a 	mov	r4,r22
   242d8:	b80b883a 	mov	r5,r23
   242dc:	d9801e04 	addi	r6,sp,120
   242e0:	0029ba40 	call	29ba4 <__sprint_r>
   242e4:	103c5e1e 	bne	r2,zero,23460 <_gp+0xfffe75ec>
   242e8:	d8c02017 	ldw	r3,128(sp)
   242ec:	d8801f17 	ldw	r2,124(sp)
   242f0:	da000404 	addi	r8,sp,16
   242f4:	003fee06 	br	242b0 <_gp+0xfffe843c>
   242f8:	dac01e04 	addi	r11,sp,120
   242fc:	0025883a 	mov	r18,zero
   24300:	dac03115 	stw	r11,196(sp)
   24304:	003cb006 	br	235c8 <_gp+0xfffe7754>
   24308:	b009883a 	mov	r4,r22
   2430c:	b80b883a 	mov	r5,r23
   24310:	d9801e04 	addi	r6,sp,120
   24314:	0029ba40 	call	29ba4 <__sprint_r>
   24318:	103c511e 	bne	r2,zero,23460 <_gp+0xfffe75ec>
   2431c:	d8c02017 	ldw	r3,128(sp)
   24320:	d8802787 	ldb	r2,158(sp)
   24324:	da000404 	addi	r8,sp,16
   24328:	003ceb06 	br	236d8 <_gp+0xfffe7864>
   2432c:	1cc00017 	ldw	r19,0(r3)
   24330:	dac02d17 	ldw	r11,180(sp)
   24334:	9839d7fa 	srai	fp,r19,31
   24338:	5ac00104 	addi	r11,r11,4
   2433c:	dac02d15 	stw	r11,180(sp)
   24340:	e005883a 	mov	r2,fp
   24344:	003c8106 	br	2354c <_gp+0xfffe76d8>
   24348:	657fffc4 	addi	r21,r12,-1
   2434c:	057f5d0e 	bge	zero,r21,240c4 <_gp+0xfffe8250>
   24350:	07000404 	movi	fp,16
   24354:	e540900e 	bge	fp,r21,24598 <___vfprintf_internal_r+0x1508>
   24358:	010000f4 	movhi	r4,3
   2435c:	21065f84 	addi	r4,r4,6526
   24360:	d9002c15 	stw	r4,176(sp)
   24364:	01c001c4 	movi	r7,7
   24368:	00000306 	br	24378 <___vfprintf_internal_r+0x12e8>
   2436c:	94800204 	addi	r18,r18,8
   24370:	ad7ffc04 	addi	r21,r21,-16
   24374:	e5408b0e 	bge	fp,r21,245a4 <___vfprintf_internal_r+0x1514>
   24378:	18c00404 	addi	r3,r3,16
   2437c:	84000044 	addi	r16,r16,1
   24380:	95000015 	stw	r20,0(r18)
   24384:	97000115 	stw	fp,4(r18)
   24388:	d8c02015 	stw	r3,128(sp)
   2438c:	dc001f15 	stw	r16,124(sp)
   24390:	3c3ff60e 	bge	r7,r16,2436c <_gp+0xfffe84f8>
   24394:	b009883a 	mov	r4,r22
   24398:	b80b883a 	mov	r5,r23
   2439c:	d9801e04 	addi	r6,sp,120
   243a0:	d9c03d15 	stw	r7,244(sp)
   243a4:	0029ba40 	call	29ba4 <__sprint_r>
   243a8:	d9c03d17 	ldw	r7,244(sp)
   243ac:	103c2c1e 	bne	r2,zero,23460 <_gp+0xfffe75ec>
   243b0:	d8c02017 	ldw	r3,128(sp)
   243b4:	dc001f17 	ldw	r16,124(sp)
   243b8:	dc800404 	addi	r18,sp,16
   243bc:	003fec06 	br	24370 <_gp+0xfffe84fc>
   243c0:	dac02d17 	ldw	r11,180(sp)
   243c4:	0039883a 	mov	fp,zero
   243c8:	0005883a 	mov	r2,zero
   243cc:	5cc00017 	ldw	r19,0(r11)
   243d0:	5ac00104 	addi	r11,r11,4
   243d4:	dac02d15 	stw	r11,180(sp)
   243d8:	9807883a 	mov	r3,r19
   243dc:	003d5b06 	br	2394c <_gp+0xfffe7ad8>
   243e0:	db002d17 	ldw	r12,180(sp)
   243e4:	0039883a 	mov	fp,zero
   243e8:	00800044 	movi	r2,1
   243ec:	64c00017 	ldw	r19,0(r12)
   243f0:	63000104 	addi	r12,r12,4
   243f4:	db002d15 	stw	r12,180(sp)
   243f8:	9807883a 	mov	r3,r19
   243fc:	003d5306 	br	2394c <_gp+0xfffe7ad8>
   24400:	00800084 	movi	r2,2
   24404:	9f06b03a 	or	r3,r19,fp
   24408:	003d5006 	br	2394c <_gp+0xfffe7ad8>
   2440c:	10803fcc 	andi	r2,r2,255
   24410:	1080201c 	xori	r2,r2,128
   24414:	10bfe004 	addi	r2,r2,-128
   24418:	01000c04 	movi	r4,48
   2441c:	1101a526 	beq	r2,r4,24ab4 <___vfprintf_internal_r+0x1a24>
   24420:	dac03117 	ldw	r11,196(sp)
   24424:	db002817 	ldw	r12,160(sp)
   24428:	193fffc5 	stb	r4,-1(r3)
   2442c:	5affffc4 	addi	r11,r11,-1
   24430:	dac03115 	stw	r11,196(sp)
   24434:	62e5c83a 	sub	r18,r12,r11
   24438:	003c6306 	br	235c8 <_gp+0xfffe7754>
   2443c:	b009883a 	mov	r4,r22
   24440:	b80b883a 	mov	r5,r23
   24444:	d9801e04 	addi	r6,sp,120
   24448:	0029ba40 	call	29ba4 <__sprint_r>
   2444c:	103c041e 	bne	r2,zero,23460 <_gp+0xfffe75ec>
   24450:	d8c02017 	ldw	r3,128(sp)
   24454:	da000404 	addi	r8,sp,16
   24458:	db003117 	ldw	r12,196(sp)
   2445c:	dac03417 	ldw	r11,208(sp)
   24460:	d8802617 	ldw	r2,152(sp)
   24464:	62e5883a 	add	r18,r12,r11
   24468:	db003317 	ldw	r12,204(sp)
   2446c:	13000216 	blt	r2,r12,24478 <___vfprintf_internal_r+0x13e8>
   24470:	8900004c 	andi	r4,r17,1
   24474:	20000c26 	beq	r4,zero,244a8 <___vfprintf_internal_r+0x1418>
   24478:	dac03817 	ldw	r11,224(sp)
   2447c:	d9001f17 	ldw	r4,124(sp)
   24480:	db003517 	ldw	r12,212(sp)
   24484:	1ac7883a 	add	r3,r3,r11
   24488:	21000044 	addi	r4,r4,1
   2448c:	43000015 	stw	r12,0(r8)
   24490:	42c00115 	stw	r11,4(r8)
   24494:	d8c02015 	stw	r3,128(sp)
   24498:	d9001f15 	stw	r4,124(sp)
   2449c:	014001c4 	movi	r5,7
   244a0:	2901cc16 	blt	r5,r4,24bd4 <___vfprintf_internal_r+0x1b44>
   244a4:	42000204 	addi	r8,r8,8
   244a8:	dac03317 	ldw	r11,204(sp)
   244ac:	8489c83a 	sub	r4,r16,r18
   244b0:	5885c83a 	sub	r2,r11,r2
   244b4:	1021883a 	mov	r16,r2
   244b8:	2080010e 	bge	r4,r2,244c0 <___vfprintf_internal_r+0x1430>
   244bc:	2021883a 	mov	r16,r4
   244c0:	04000a0e 	bge	zero,r16,244ec <___vfprintf_internal_r+0x145c>
   244c4:	d9001f17 	ldw	r4,124(sp)
   244c8:	1c07883a 	add	r3,r3,r16
   244cc:	44800015 	stw	r18,0(r8)
   244d0:	21000044 	addi	r4,r4,1
   244d4:	44000115 	stw	r16,4(r8)
   244d8:	d8c02015 	stw	r3,128(sp)
   244dc:	d9001f15 	stw	r4,124(sp)
   244e0:	014001c4 	movi	r5,7
   244e4:	2901e316 	blt	r5,r4,24c74 <___vfprintf_internal_r+0x1be4>
   244e8:	42000204 	addi	r8,r8,8
   244ec:	8001df16 	blt	r16,zero,24c6c <___vfprintf_internal_r+0x1bdc>
   244f0:	1421c83a 	sub	r16,r2,r16
   244f4:	043ccc0e 	bge	zero,r16,23828 <_gp+0xfffe79b4>
   244f8:	04800404 	movi	r18,16
   244fc:	d8801f17 	ldw	r2,124(sp)
   24500:	943efc0e 	bge	r18,r16,240f4 <_gp+0xfffe8280>
   24504:	014000f4 	movhi	r5,3
   24508:	29465f84 	addi	r5,r5,6526
   2450c:	d9402c15 	stw	r5,176(sp)
   24510:	054001c4 	movi	r21,7
   24514:	00000306 	br	24524 <___vfprintf_internal_r+0x1494>
   24518:	42000204 	addi	r8,r8,8
   2451c:	843ffc04 	addi	r16,r16,-16
   24520:	943ef70e 	bge	r18,r16,24100 <_gp+0xfffe828c>
   24524:	18c00404 	addi	r3,r3,16
   24528:	10800044 	addi	r2,r2,1
   2452c:	45000015 	stw	r20,0(r8)
   24530:	44800115 	stw	r18,4(r8)
   24534:	d8c02015 	stw	r3,128(sp)
   24538:	d8801f15 	stw	r2,124(sp)
   2453c:	a8bff60e 	bge	r21,r2,24518 <_gp+0xfffe86a4>
   24540:	b009883a 	mov	r4,r22
   24544:	b80b883a 	mov	r5,r23
   24548:	d9801e04 	addi	r6,sp,120
   2454c:	0029ba40 	call	29ba4 <__sprint_r>
   24550:	103bc31e 	bne	r2,zero,23460 <_gp+0xfffe75ec>
   24554:	d8c02017 	ldw	r3,128(sp)
   24558:	d8801f17 	ldw	r2,124(sp)
   2455c:	da000404 	addi	r8,sp,16
   24560:	003fee06 	br	2451c <_gp+0xfffe86a8>
   24564:	8888703a 	and	r4,r17,r2
   24568:	203eab1e 	bne	r4,zero,24018 <_gp+0xfffe81a4>
   2456c:	dc001f17 	ldw	r16,124(sp)
   24570:	db003117 	ldw	r12,196(sp)
   24574:	40800115 	stw	r2,4(r8)
   24578:	84000044 	addi	r16,r16,1
   2457c:	43000015 	stw	r12,0(r8)
   24580:	d8c02015 	stw	r3,128(sp)
   24584:	dc001f15 	stw	r16,124(sp)
   24588:	008001c4 	movi	r2,7
   2458c:	14000e16 	blt	r2,r16,245c8 <___vfprintf_internal_r+0x1538>
   24590:	44800204 	addi	r18,r8,8
   24594:	003ecb06 	br	240c4 <_gp+0xfffe8250>
   24598:	008000f4 	movhi	r2,3
   2459c:	10865f84 	addi	r2,r2,6526
   245a0:	d8802c15 	stw	r2,176(sp)
   245a4:	dac02c17 	ldw	r11,176(sp)
   245a8:	1d47883a 	add	r3,r3,r21
   245ac:	84000044 	addi	r16,r16,1
   245b0:	92c00015 	stw	r11,0(r18)
   245b4:	95400115 	stw	r21,4(r18)
   245b8:	d8c02015 	stw	r3,128(sp)
   245bc:	dc001f15 	stw	r16,124(sp)
   245c0:	008001c4 	movi	r2,7
   245c4:	143ebe0e 	bge	r2,r16,240c0 <_gp+0xfffe824c>
   245c8:	b009883a 	mov	r4,r22
   245cc:	b80b883a 	mov	r5,r23
   245d0:	d9801e04 	addi	r6,sp,120
   245d4:	0029ba40 	call	29ba4 <__sprint_r>
   245d8:	103ba11e 	bne	r2,zero,23460 <_gp+0xfffe75ec>
   245dc:	d8c02017 	ldw	r3,128(sp)
   245e0:	dc001f17 	ldw	r16,124(sp)
   245e4:	dc800404 	addi	r18,sp,16
   245e8:	003eb606 	br	240c4 <_gp+0xfffe8250>
   245ec:	b009883a 	mov	r4,r22
   245f0:	b80b883a 	mov	r5,r23
   245f4:	d9801e04 	addi	r6,sp,120
   245f8:	0029ba40 	call	29ba4 <__sprint_r>
   245fc:	103b981e 	bne	r2,zero,23460 <_gp+0xfffe75ec>
   24600:	d8c02017 	ldw	r3,128(sp)
   24604:	dc001f17 	ldw	r16,124(sp)
   24608:	da000404 	addi	r8,sp,16
   2460c:	003e8d06 	br	24044 <_gp+0xfffe81d0>
   24610:	b009883a 	mov	r4,r22
   24614:	b80b883a 	mov	r5,r23
   24618:	d9801e04 	addi	r6,sp,120
   2461c:	0029ba40 	call	29ba4 <__sprint_r>
   24620:	103b8f1e 	bne	r2,zero,23460 <_gp+0xfffe75ec>
   24624:	d8c02017 	ldw	r3,128(sp)
   24628:	dc001f17 	ldw	r16,124(sp)
   2462c:	dc800404 	addi	r18,sp,16
   24630:	003e8f06 	br	24070 <_gp+0xfffe81fc>
   24634:	db001e04 	addi	r12,sp,120
   24638:	0025883a 	mov	r18,zero
   2463c:	db003115 	stw	r12,196(sp)
   24640:	003be106 	br	235c8 <_gp+0xfffe7754>
   24644:	b009883a 	mov	r4,r22
   24648:	b80b883a 	mov	r5,r23
   2464c:	d9801e04 	addi	r6,sp,120
   24650:	0029ba40 	call	29ba4 <__sprint_r>
   24654:	103b821e 	bne	r2,zero,23460 <_gp+0xfffe75ec>
   24658:	d8c02017 	ldw	r3,128(sp)
   2465c:	da000404 	addi	r8,sp,16
   24660:	003c3b06 	br	23750 <_gp+0xfffe78dc>
   24664:	04e7c83a 	sub	r19,zero,r19
   24668:	9804c03a 	cmpne	r2,r19,zero
   2466c:	0739c83a 	sub	fp,zero,fp
   24670:	e0b9c83a 	sub	fp,fp,r2
   24674:	05400b44 	movi	r21,45
   24678:	dd402785 	stb	r21,158(sp)
   2467c:	da403215 	stw	r9,200(sp)
   24680:	00800044 	movi	r2,1
   24684:	9f06b03a 	or	r3,r19,fp
   24688:	003bb506 	br	23560 <_gp+0xfffe76ec>
   2468c:	da003f15 	stw	r8,252(sp)
   24690:	da403e15 	stw	r9,248(sp)
   24694:	00298540 	call	29854 <__fpclassifyd>
   24698:	da003f17 	ldw	r8,252(sp)
   2469c:	da403e17 	ldw	r9,248(sp)
   246a0:	1000ce26 	beq	r2,zero,249dc <___vfprintf_internal_r+0x194c>
   246a4:	057ff7c4 	movi	r21,-33
   246a8:	00bfffc4 	movi	r2,-1
   246ac:	856a703a 	and	r21,r16,r21
   246b0:	4881e826 	beq	r9,r2,24e54 <___vfprintf_internal_r+0x1dc4>
   246b4:	008011c4 	movi	r2,71
   246b8:	a881e326 	beq	r21,r2,24e48 <___vfprintf_internal_r+0x1db8>
   246bc:	db003917 	ldw	r12,228(sp)
   246c0:	8ac04014 	ori	r11,r17,256
   246c4:	dac02d15 	stw	r11,180(sp)
   246c8:	6001ed16 	blt	r12,zero,24e80 <___vfprintf_internal_r+0x1df0>
   246cc:	dc803917 	ldw	r18,228(sp)
   246d0:	d8002b05 	stb	zero,172(sp)
   246d4:	00801984 	movi	r2,102
   246d8:	80811826 	beq	r16,r2,24b3c <___vfprintf_internal_r+0x1aac>
   246dc:	00801184 	movi	r2,70
   246e0:	80811626 	beq	r16,r2,24b3c <___vfprintf_internal_r+0x1aac>
   246e4:	00801144 	movi	r2,69
   246e8:	a881e926 	beq	r21,r2,24e90 <___vfprintf_internal_r+0x1e00>
   246ec:	4839883a 	mov	fp,r9
   246f0:	d8802604 	addi	r2,sp,152
   246f4:	d8800115 	stw	r2,4(sp)
   246f8:	d9403717 	ldw	r5,220(sp)
   246fc:	d8802504 	addi	r2,sp,148
   24700:	d8800215 	stw	r2,8(sp)
   24704:	d8802104 	addi	r2,sp,132
   24708:	df000015 	stw	fp,0(sp)
   2470c:	d8800315 	stw	r2,12(sp)
   24710:	b009883a 	mov	r4,r22
   24714:	900d883a 	mov	r6,r18
   24718:	01c00084 	movi	r7,2
   2471c:	da003f15 	stw	r8,252(sp)
   24720:	da403e15 	stw	r9,248(sp)
   24724:	00254140 	call	25414 <_dtoa_r>
   24728:	d8803115 	stw	r2,196(sp)
   2472c:	008019c4 	movi	r2,103
   24730:	da003f17 	ldw	r8,252(sp)
   24734:	da403e17 	ldw	r9,248(sp)
   24738:	80800226 	beq	r16,r2,24744 <___vfprintf_internal_r+0x16b4>
   2473c:	008011c4 	movi	r2,71
   24740:	8081101e 	bne	r16,r2,24b84 <___vfprintf_internal_r+0x1af4>
   24744:	8880004c 	andi	r2,r17,1
   24748:	1001dd26 	beq	r2,zero,24ec0 <___vfprintf_internal_r+0x1e30>
   2474c:	db003117 	ldw	r12,196(sp)
   24750:	6715883a 	add	r10,r12,fp
   24754:	d9003717 	ldw	r4,220(sp)
   24758:	900b883a 	mov	r5,r18
   2475c:	000d883a 	mov	r6,zero
   24760:	000f883a 	mov	r7,zero
   24764:	da003f15 	stw	r8,252(sp)
   24768:	da403e15 	stw	r9,248(sp)
   2476c:	da803d15 	stw	r10,244(sp)
   24770:	002d51c0 	call	2d51c <__eqdf2>
   24774:	da003f17 	ldw	r8,252(sp)
   24778:	da403e17 	ldw	r9,248(sp)
   2477c:	da803d17 	ldw	r10,244(sp)
   24780:	10016526 	beq	r2,zero,24d18 <___vfprintf_internal_r+0x1c88>
   24784:	d8802117 	ldw	r2,132(sp)
   24788:	1280062e 	bgeu	r2,r10,247a4 <___vfprintf_internal_r+0x1714>
   2478c:	01000c04 	movi	r4,48
   24790:	10c00044 	addi	r3,r2,1
   24794:	d8c02115 	stw	r3,132(sp)
   24798:	11000005 	stb	r4,0(r2)
   2479c:	d8802117 	ldw	r2,132(sp)
   247a0:	12bffb36 	bltu	r2,r10,24790 <_gp+0xfffe891c>
   247a4:	db003117 	ldw	r12,196(sp)
   247a8:	1305c83a 	sub	r2,r2,r12
   247ac:	d8803315 	stw	r2,204(sp)
   247b0:	008011c4 	movi	r2,71
   247b4:	a8814d26 	beq	r21,r2,24cec <___vfprintf_internal_r+0x1c5c>
   247b8:	00801944 	movi	r2,101
   247bc:	1402060e 	bge	r2,r16,24fd8 <___vfprintf_internal_r+0x1f48>
   247c0:	00801984 	movi	r2,102
   247c4:	8081b426 	beq	r16,r2,24e98 <___vfprintf_internal_r+0x1e08>
   247c8:	db002617 	ldw	r12,152(sp)
   247cc:	db003415 	stw	r12,208(sp)
   247d0:	db003417 	ldw	r12,208(sp)
   247d4:	dac03317 	ldw	r11,204(sp)
   247d8:	62c1a016 	blt	r12,r11,24e5c <___vfprintf_internal_r+0x1dcc>
   247dc:	8c40004c 	andi	r17,r17,1
   247e0:	8801bf1e 	bne	r17,zero,24ee0 <___vfprintf_internal_r+0x1e50>
   247e4:	6005883a 	mov	r2,r12
   247e8:	6001b316 	blt	r12,zero,24eb8 <___vfprintf_internal_r+0x1e28>
   247ec:	dc803417 	ldw	r18,208(sp)
   247f0:	df002b07 	ldb	fp,172(sp)
   247f4:	e0012e1e 	bne	fp,zero,24cb0 <___vfprintf_internal_r+0x1c20>
   247f8:	dc402d17 	ldw	r17,180(sp)
   247fc:	dd402783 	ldbu	r21,158(sp)
   24800:	d8802b15 	stw	r2,172(sp)
   24804:	dcc02d15 	stw	r19,180(sp)
   24808:	d8003215 	stw	zero,200(sp)
   2480c:	003b7306 	br	235dc <_gp+0xfffe7768>
   24810:	00800084 	movi	r2,2
   24814:	003c4d06 	br	2394c <_gp+0xfffe7ad8>
   24818:	8880040c 	andi	r2,r17,16
   2481c:	1000091e 	bne	r2,zero,24844 <___vfprintf_internal_r+0x17b4>
   24820:	8c40100c 	andi	r17,r17,64
   24824:	88000726 	beq	r17,zero,24844 <___vfprintf_internal_r+0x17b4>
   24828:	db002d17 	ldw	r12,180(sp)
   2482c:	dac02f17 	ldw	r11,188(sp)
   24830:	60800017 	ldw	r2,0(r12)
   24834:	63000104 	addi	r12,r12,4
   24838:	db002d15 	stw	r12,180(sp)
   2483c:	12c0000d 	sth	r11,0(r2)
   24840:	003a4e06 	br	2317c <_gp+0xfffe7308>
   24844:	db002d17 	ldw	r12,180(sp)
   24848:	dac02f17 	ldw	r11,188(sp)
   2484c:	60800017 	ldw	r2,0(r12)
   24850:	63000104 	addi	r12,r12,4
   24854:	db002d15 	stw	r12,180(sp)
   24858:	12c00015 	stw	r11,0(r2)
   2485c:	003a4706 	br	2317c <_gp+0xfffe7308>
   24860:	1c000007 	ldb	r16,0(r3)
   24864:	1805883a 	mov	r2,r3
   24868:	003a6e06 	br	23224 <_gp+0xfffe73b0>
   2486c:	88c0100c 	andi	r3,r17,64
   24870:	18006b26 	beq	r3,zero,24a20 <___vfprintf_internal_r+0x1990>
   24874:	dac02d17 	ldw	r11,180(sp)
   24878:	14c0000b 	ldhu	r19,0(r2)
   2487c:	0039883a 	mov	fp,zero
   24880:	5ac00104 	addi	r11,r11,4
   24884:	dac02d15 	stw	r11,180(sp)
   24888:	003cb206 	br	23b54 <_gp+0xfffe7ce0>
   2488c:	010000f4 	movhi	r4,3
   24890:	21065f84 	addi	r4,r4,6526
   24894:	d9002c15 	stw	r4,176(sp)
   24898:	dac02c17 	ldw	r11,176(sp)
   2489c:	1c87883a 	add	r3,r3,r18
   248a0:	10800044 	addi	r2,r2,1
   248a4:	42c00015 	stw	r11,0(r8)
   248a8:	44800115 	stw	r18,4(r8)
   248ac:	d8c02015 	stw	r3,128(sp)
   248b0:	d8801f15 	stw	r2,124(sp)
   248b4:	010001c4 	movi	r4,7
   248b8:	20bee016 	blt	r4,r2,2443c <_gp+0xfffe85c8>
   248bc:	42000204 	addi	r8,r8,8
   248c0:	003ee506 	br	24458 <_gp+0xfffe85e4>
   248c4:	010000f4 	movhi	r4,3
   248c8:	21065f84 	addi	r4,r4,6526
   248cc:	d9002c15 	stw	r4,176(sp)
   248d0:	003bbe06 	br	237cc <_gp+0xfffe7958>
   248d4:	b009883a 	mov	r4,r22
   248d8:	b80b883a 	mov	r5,r23
   248dc:	d9801e04 	addi	r6,sp,120
   248e0:	0029ba40 	call	29ba4 <__sprint_r>
   248e4:	103ade1e 	bne	r2,zero,23460 <_gp+0xfffe75ec>
   248e8:	d8c02017 	ldw	r3,128(sp)
   248ec:	da000404 	addi	r8,sp,16
   248f0:	003d6b06 	br	23ea0 <_gp+0xfffe802c>
   248f4:	d8801f17 	ldw	r2,124(sp)
   248f8:	030000f4 	movhi	r12,3
   248fc:	01000044 	movi	r4,1
   24900:	18c00044 	addi	r3,r3,1
   24904:	10800044 	addi	r2,r2,1
   24908:	63065f04 	addi	r12,r12,6524
   2490c:	41000115 	stw	r4,4(r8)
   24910:	43000015 	stw	r12,0(r8)
   24914:	d8c02015 	stw	r3,128(sp)
   24918:	d8801f15 	stw	r2,124(sp)
   2491c:	010001c4 	movi	r4,7
   24920:	20804916 	blt	r4,r2,24a48 <___vfprintf_internal_r+0x19b8>
   24924:	42000204 	addi	r8,r8,8
   24928:	8000041e 	bne	r16,zero,2493c <___vfprintf_internal_r+0x18ac>
   2492c:	dac03317 	ldw	r11,204(sp)
   24930:	5800021e 	bne	r11,zero,2493c <___vfprintf_internal_r+0x18ac>
   24934:	8880004c 	andi	r2,r17,1
   24938:	103bbb26 	beq	r2,zero,23828 <_gp+0xfffe79b4>
   2493c:	db003817 	ldw	r12,224(sp)
   24940:	d8801f17 	ldw	r2,124(sp)
   24944:	dac03517 	ldw	r11,212(sp)
   24948:	1b07883a 	add	r3,r3,r12
   2494c:	10800044 	addi	r2,r2,1
   24950:	42c00015 	stw	r11,0(r8)
   24954:	43000115 	stw	r12,4(r8)
   24958:	d8c02015 	stw	r3,128(sp)
   2495c:	d8801f15 	stw	r2,124(sp)
   24960:	010001c4 	movi	r4,7
   24964:	20812e16 	blt	r4,r2,24e20 <___vfprintf_internal_r+0x1d90>
   24968:	42000204 	addi	r8,r8,8
   2496c:	0421c83a 	sub	r16,zero,r16
   24970:	04005c0e 	bge	zero,r16,24ae4 <___vfprintf_internal_r+0x1a54>
   24974:	04800404 	movi	r18,16
   24978:	94009f0e 	bge	r18,r16,24bf8 <___vfprintf_internal_r+0x1b68>
   2497c:	010000f4 	movhi	r4,3
   24980:	21065f84 	addi	r4,r4,6526
   24984:	d9002c15 	stw	r4,176(sp)
   24988:	054001c4 	movi	r21,7
   2498c:	00000306 	br	2499c <___vfprintf_internal_r+0x190c>
   24990:	42000204 	addi	r8,r8,8
   24994:	843ffc04 	addi	r16,r16,-16
   24998:	94009a0e 	bge	r18,r16,24c04 <___vfprintf_internal_r+0x1b74>
   2499c:	18c00404 	addi	r3,r3,16
   249a0:	10800044 	addi	r2,r2,1
   249a4:	45000015 	stw	r20,0(r8)
   249a8:	44800115 	stw	r18,4(r8)
   249ac:	d8c02015 	stw	r3,128(sp)
   249b0:	d8801f15 	stw	r2,124(sp)
   249b4:	a8bff60e 	bge	r21,r2,24990 <_gp+0xfffe8b1c>
   249b8:	b009883a 	mov	r4,r22
   249bc:	b80b883a 	mov	r5,r23
   249c0:	d9801e04 	addi	r6,sp,120
   249c4:	0029ba40 	call	29ba4 <__sprint_r>
   249c8:	103aa51e 	bne	r2,zero,23460 <_gp+0xfffe75ec>
   249cc:	d8c02017 	ldw	r3,128(sp)
   249d0:	d8801f17 	ldw	r2,124(sp)
   249d4:	da000404 	addi	r8,sp,16
   249d8:	003fee06 	br	24994 <_gp+0xfffe8b20>
   249dc:	008011c4 	movi	r2,71
   249e0:	1400be16 	blt	r2,r16,24cdc <___vfprintf_internal_r+0x1c4c>
   249e4:	030000f4 	movhi	r12,3
   249e8:	63065104 	addi	r12,r12,6468
   249ec:	db003115 	stw	r12,196(sp)
   249f0:	00c000c4 	movi	r3,3
   249f4:	00bfdfc4 	movi	r2,-129
   249f8:	d8c02b15 	stw	r3,172(sp)
   249fc:	88a2703a 	and	r17,r17,r2
   24a00:	dd402783 	ldbu	r21,158(sp)
   24a04:	dcc02d15 	stw	r19,180(sp)
   24a08:	1825883a 	mov	r18,r3
   24a0c:	d8003215 	stw	zero,200(sp)
   24a10:	d8003415 	stw	zero,208(sp)
   24a14:	003af106 	br	235dc <_gp+0xfffe7768>
   24a18:	4825883a 	mov	r18,r9
