
D8M_Test.elf:     file format elf32-littlenios2
D8M_Test.elf
architecture: nios2:r1, flags 0x00000112:
EXEC_P, HAS_SYMS, D_PAGED
start address 0x00020240

Program Header:
    LOAD off    0x00001000 vaddr 0x00020000 paddr 0x00020000 align 2**12
         filesz 0x00000020 memsz 0x00000020 flags r-x
    LOAD off    0x00001020 vaddr 0x00020020 paddr 0x00020020 align 2**12
         filesz 0x00011c10 memsz 0x00011c10 flags r-x
    LOAD off    0x00012c30 vaddr 0x00031c30 paddr 0x00033ec0 align 2**12
         filesz 0x00002290 memsz 0x00002290 flags rw-
    LOAD off    0x00015150 vaddr 0x00036150 paddr 0x00036150 align 2**12
         filesz 0x00000000 memsz 0x00000160 flags rw-

Sections:
Idx Name          Size      VMA       LMA       File off  Algn
  0 .entry        00000020  00020000  00020000  00001000  2**5
                  CONTENTS, ALLOC, LOAD, READONLY, CODE
  1 .exceptions   00000220  00020020  00020020  00001020  2**2
                  CONTENTS, ALLOC, LOAD, READONLY, CODE
  2 .text         00011170  00020240  00020240  00001240  2**2
                  CONTENTS, ALLOC, LOAD, READONLY, CODE
  3 .rodata       00000880  000313b0  000313b0  000123b0  2**2
                  CONTENTS, ALLOC, LOAD, READONLY, DATA
  4 .rwdata       00002290  00031c30  00033ec0  00012c30  2**2
                  CONTENTS, ALLOC, LOAD, DATA, SMALL_DATA
  5 .bss          00000160  00036150  00036150  00015150  2**2
                  ALLOC, SMALL_DATA
  6 .onchip_memory2_0 00000000  000362b0  000362b0  00014ec0  2**0
                  CONTENTS
  7 .comment      00000023  00000000  00000000  00014ec0  2**0
                  CONTENTS, READONLY
  8 .debug_aranges 00001028  00000000  00000000  00014ee8  2**3
                  CONTENTS, READONLY, DEBUGGING
  9 .debug_info   000267e1  00000000  00000000  00015f10  2**0
                  CONTENTS, READONLY, DEBUGGING
 10 .debug_abbrev 00009dba  00000000  00000000  0003c6f1  2**0
                  CONTENTS, READONLY, DEBUGGING
 11 .debug_line   0000c1b4  00000000  00000000  000464ab  2**0
                  CONTENTS, READONLY, DEBUGGING
 12 .debug_frame  000027fc  00000000  00000000  00052660  2**2
                  CONTENTS, READONLY, DEBUGGING
 13 .debug_str    00003bb6  00000000  00000000  00054e5c  2**0
                  CONTENTS, READONLY, DEBUGGING
 14 .debug_loc    00017201  00000000  00000000  00058a12  2**0
                  CONTENTS, READONLY, DEBUGGING
 15 .debug_alt_sim_info 00000060  00000000  00000000  0006fc14  2**2
                  CONTENTS, READONLY, DEBUGGING
 16 .debug_ranges 00001868  00000000  00000000  0006fc78  2**3
                  CONTENTS, READONLY, DEBUGGING
 17 .thread_model 00000003  00000000  00000000  00074dba  2**0
                  CONTENTS, READONLY
 18 .cpu          0000000a  00000000  00000000  00074dbd  2**0
                  CONTENTS, READONLY
 19 .qsys         00000001  00000000  00000000  00074dc7  2**0
                  CONTENTS, READONLY
 20 .simulation_enabled 00000001  00000000  00000000  00074dc8  2**0
                  CONTENTS, READONLY
 21 .sysid_hash   00000004  00000000  00000000  00074dc9  2**0
                  CONTENTS, READONLY
 22 .sysid_base   00000004  00000000  00000000  00074dcd  2**0
                  CONTENTS, READONLY
 23 .sysid_time   00000004  00000000  00000000  00074dd1  2**0
                  CONTENTS, READONLY
 24 .stderr_dev   00000009  00000000  00000000  00074dd5  2**0
                  CONTENTS, READONLY
 25 .stdin_dev    00000009  00000000  00000000  00074dde  2**0
                  CONTENTS, READONLY
 26 .stdout_dev   00000009  00000000  00000000  00074de7  2**0
                  CONTENTS, READONLY
 27 .sopc_system_name 00000004  00000000  00000000  00074df0  2**0
                  CONTENTS, READONLY
 28 .quartus_project_dir 0000002a  00000000  00000000  00074df4  2**0
                  CONTENTS, READONLY
 29 .jdi          00003b33  00000000  00000000  00074e1e  2**0
                  CONTENTS, READONLY
 30 .sopcinfo     0008f7be  00000000  00000000  00078951  2**0
                  CONTENTS, READONLY
SYMBOL TABLE:
00020000 l    d  .entry	00000000 .entry
00020020 l    d  .exceptions	00000000 .exceptions
00020240 l    d  .text	00000000 .text
000313b0 l    d  .rodata	00000000 .rodata
00031c30 l    d  .rwdata	00000000 .rwdata
00036150 l    d  .bss	00000000 .bss
000362b0 l    d  .onchip_memory2_0	00000000 .onchip_memory2_0
00000000 l    d  .comment	00000000 .comment
00000000 l    d  .debug_aranges	00000000 .debug_aranges
00000000 l    d  .debug_info	00000000 .debug_info
00000000 l    d  .debug_abbrev	00000000 .debug_abbrev
00000000 l    d  .debug_line	00000000 .debug_line
00000000 l    d  .debug_frame	00000000 .debug_frame
00000000 l    d  .debug_str	00000000 .debug_str
00000000 l    d  .debug_loc	00000000 .debug_loc
00000000 l    d  .debug_alt_sim_info	00000000 .debug_alt_sim_info
00000000 l    d  .debug_ranges	00000000 .debug_ranges
00000000 l    df *ABS*	00000000 ../D8M_Test_bsp//obj/HAL/src/crt0.o
00020288 l       .text	00000000 alt_after_alt_main
00000000 l    df *ABS*	00000000 alt_irq_handler.c
00000000 l    df *ABS*	00000000 alt_instruction_exception_entry.c
00000000 l    df *ABS*	00000000 I2C_core.c
00000000 l    df *ABS*	00000000 auto_focus.c
00000000 l    df *ABS*	00000000 main.c
00000000 l    df *ABS*	00000000 mipi_bridge_config.c
00031c30 l     O .rwdata	00000034 MipiBridgeReg
00000000 l    df *ABS*	00000000 mipi_camera_config.c
00031c64 l     O .rwdata	00000762 MipiCameraReg
00000000 l    df *ABS*	00000000 queue.c
00000000 l    df *ABS*	00000000 lib2-divmod.c
00022440 l     F .text	0000006c udivmodsi4
00000000 l    df *ABS*	00000000 malloc.c
00000000 l    df *ABS*	00000000 mallocr.c
00000000 l    df *ABS*	00000000 memset.c
00000000 l    df *ABS*	00000000 printf.c
00000000 l    df *ABS*	00000000 putchar.c
00000000 l    df *ABS*	00000000 puts.c
00000000 l    df *ABS*	00000000 sbrkr.c
00000000 l    df *ABS*	00000000 strlen.c
00000000 l    df *ABS*	00000000 vfprintf.c
0003197e l     O .rodata	00000010 zeroes.4255
00025004 l     F .text	000000bc __sbprintf
0003198e l     O .rodata	00000010 blanks.4254
00000000 l    df *ABS*	00000000 wsetup.c
00000000 l    df *ABS*	00000000 dtoa.c
00025214 l     F .text	00000200 quorem
00000000 l    df *ABS*	00000000 fflush.c
00000000 l    df *ABS*	00000000 findfp.c
00026dd0 l     F .text	00000008 __fp_lock
00026dd8 l     F .text	00000008 __fp_unlock
00026dec l     F .text	0000019c __sinit.part.1
00000000 l    df *ABS*	00000000 mallocr.c
00000000 l    df *ABS*	00000000 fvwrite.c
00000000 l    df *ABS*	00000000 fwalk.c
00000000 l    df *ABS*	00000000 impure.c
000327d0 l     O .rwdata	00000424 impure_data
00000000 l    df *ABS*	00000000 int_errno.c
00000000 l    df *ABS*	00000000 locale.c
00032c14 l     O .rwdata	00000020 lc_ctype_charset
00032bf4 l     O .rwdata	00000020 lc_message_charset
00032c34 l     O .rwdata	00000038 lconv
00000000 l    df *ABS*	00000000 makebuf.c
00000000 l    df *ABS*	00000000 memchr.c
00000000 l    df *ABS*	00000000 memcpy.c
00000000 l    df *ABS*	00000000 memmove.c
00000000 l    df *ABS*	00000000 mprec.c
000319c0 l     O .rodata	0000000c p05.2710
00000000 l    df *ABS*	00000000 putc.c
00000000 l    df *ABS*	00000000 mallocr.c
00000000 l    df *ABS*	00000000 s_fpclassify.c
00000000 l    df *ABS*	00000000 stdio.c
00000000 l    df *ABS*	00000000 strcmp.c
00000000 l    df *ABS*	00000000 vfprintf.c
00029aa8 l     F .text	000000fc __sprint_r.part.0
00031af4 l     O .rodata	00000010 blanks.4199
00031ae4 l     O .rodata	00000010 zeroes.4200
0002aeb0 l     F .text	000000bc __sbprintf
00000000 l    df *ABS*	00000000 wbuf.c
00000000 l    df *ABS*	00000000 writer.c
00000000 l    df *ABS*	00000000 closer.c
00000000 l    df *ABS*	00000000 mallocr.c
00000000 l    df *ABS*	00000000 fclose.c
00000000 l    df *ABS*	00000000 fputwc.c
00000000 l    df *ABS*	00000000 fstatr.c
00000000 l    df *ABS*	00000000 isattyr.c
00000000 l    df *ABS*	00000000 lseekr.c
00000000 l    df *ABS*	00000000 readr.c
00000000 l    df *ABS*	00000000 wcrtomb.c
00000000 l    df *ABS*	00000000 wctomb_r.c
00000000 l    df *ABS*	00000000 libgcc2.c
00000000 l    df *ABS*	00000000 libgcc2.c
00000000 l    df *ABS*	00000000 adddf3.c
00000000 l    df *ABS*	00000000 divdf3.c
00000000 l    df *ABS*	00000000 eqdf2.c
00000000 l    df *ABS*	00000000 gedf2.c
00000000 l    df *ABS*	00000000 ledf2.c
00000000 l    df *ABS*	00000000 muldf3.c
00000000 l    df *ABS*	00000000 subdf3.c
00000000 l    df *ABS*	00000000 fixdfsi.c
00000000 l    df *ABS*	00000000 floatsidf.c
00000000 l    df *ABS*	00000000 floatunsidf.c
00000000 l    df *ABS*	00000000 libgcc2.c
00000000 l    df *ABS*	00000000 libgcc2.c
00000000 l    df *ABS*	00000000 alt_close.c
0002e9b4 l     F .text	00000050 alt_get_errno
00000000 l    df *ABS*	00000000 alt_dev.c
0002ead4 l     F .text	0000002c alt_dev_null_write
00000000 l    df *ABS*	00000000 alt_errno.c
00000000 l    df *ABS*	00000000 alt_fstat.c
0002eb00 l     F .text	00000050 alt_get_errno
00000000 l    df *ABS*	00000000 alt_isatty.c
0002ec00 l     F .text	00000050 alt_get_errno
00000000 l    df *ABS*	00000000 alt_load.c
0002ecf4 l     F .text	00000064 alt_load_section
00000000 l    df *ABS*	00000000 alt_lseek.c
0002edd8 l     F .text	00000050 alt_get_errno
00000000 l    df *ABS*	00000000 alt_main.c
00000000 l    df *ABS*	00000000 alt_malloc_lock.c
00000000 l    df *ABS*	00000000 alt_read.c
0002efb4 l     F .text	00000050 alt_get_errno
00000000 l    df *ABS*	00000000 alt_release_fd.c
00000000 l    df *ABS*	00000000 alt_sbrk.c
00033eb0 l     O .rwdata	00000004 heap_end
00000000 l    df *ABS*	00000000 alt_tick.c
00000000 l    df *ABS*	00000000 alt_usleep.c
00000000 l    df *ABS*	00000000 alt_write.c
0002f3dc l     F .text	00000050 alt_get_errno
00000000 l    df *ABS*	00000000 alt_sys_init.c
0002f524 l     F .text	00000038 alt_dev_reg
00032e14 l     O .rwdata	00001060 jtag_uart
00000000 l    df *ABS*	00000000 altera_avalon_jtag_uart_fd.c
00000000 l    df *ABS*	00000000 altera_avalon_jtag_uart_init.c
0002f818 l     F .text	00000204 altera_avalon_jtag_uart_irq
0002fa1c l     F .text	000000a8 altera_avalon_jtag_uart_timeout
00000000 l    df *ABS*	00000000 altera_avalon_jtag_uart_ioctl.c
00000000 l    df *ABS*	00000000 altera_avalon_jtag_uart_read.c
00000000 l    df *ABS*	00000000 altera_avalon_jtag_uart_write.c
00000000 l    df *ABS*	00000000 altera_avalon_timer_sc.c
0003003c l     F .text	00000074 alt_avalon_timer_sc_irq
00000000 l    df *ABS*	00000000 alt_alarm_start.c
00000000 l    df *ABS*	00000000 alt_busy_sleep.c
00000000 l    df *ABS*	00000000 alt_dcache_flush_all.c
00000000 l    df *ABS*	00000000 alt_dev_llist_insert.c
00030414 l     F .text	00000050 alt_get_errno
00000000 l    df *ABS*	00000000 alt_do_ctors.c
00000000 l    df *ABS*	00000000 alt_do_dtors.c
00000000 l    df *ABS*	00000000 alt_icache_flush_all.c
00000000 l    df *ABS*	00000000 alt_iic.c
00000000 l    df *ABS*	00000000 alt_iic_isr_register.c
00000000 l    df *ABS*	00000000 alt_io_redirect.c
000308c0 l     F .text	000000c0 alt_open_fd
00000000 l    df *ABS*	00000000 alt_irq_vars.c
00000000 l    df *ABS*	00000000 alt_open.c
000309f8 l     F .text	00000050 alt_get_errno
00030a48 l     F .text	000000cc alt_file_locked
00000000 l    df *ABS*	00000000 altera_nios2_gen2_irq.c
00000000 l    df *ABS*	00000000 alt_find_dev.c
00000000 l    df *ABS*	00000000 alt_find_file.c
00000000 l    df *ABS*	00000000 alt_get_fd.c
00000000 l    df *ABS*	00000000 alt_icache_flush.c
00000000 l    df *ABS*	00000000 atexit.c
00000000 l    df *ABS*	00000000 exit.c
00000000 l    df *ABS*	00000000 memcmp.c
00000000 l    df *ABS*	00000000 __atexit.c
00000000 l    df *ABS*	00000000 __call_atexit.c
00000000 l    df *ABS*	00000000 alt_exit.c
00036184 g     O .bss	00000004 alt_instruction_exception_handler
00022ed0 g     F .text	00000018 putchar
00029008 g     F .text	00000074 _mprec_log10
000290f4 g     F .text	0000008c __any_on
0002b570 g     F .text	00000054 _isatty_r
000319cc g     O .rodata	00000028 __mprec_tinytens
0002eefc g     F .text	00000078 alt_main
00022ee8 g     F .text	000000a8 _puts_r
000361b0 g     O .bss	00000100 alt_irq
0002b5c4 g     F .text	0000005c _lseek_r
0002133c g     F .text	000000b0 Focus_Released
000205e0 g     F .text	00000060 ACK_check
00033ec0 g       *ABS*	00000000 __flash_rwdata_start
00020554 g     F .text	0000008c ACK_single_check
0002d51c g     F .text	00000084 .hidden __eqdf2
0002115c g     F .text	000001e0 Focus_Window
00021c34 g     F .text	00000060 OV8865_write_AF
000362b0 g       *ABS*	00000000 __alt_heap_start
00022288 g     F .text	00000064 QUEUE_IsFull
00022e8c g     F .text	0000003c printf
0002b67c g     F .text	0000009c _wcrtomb_r
000299a0 g     F .text	0000005c __sseek
00027120 g     F .text	00000010 __sinit
0002af6c g     F .text	00000138 __swbuf_r
00027bcc g     F .text	0000007c _setlocale_r
00026f88 g     F .text	00000068 __sfmoreglue
0002ef94 g     F .text	00000020 __malloc_unlock
00028084 g     F .text	0000015c memmove
00020640 g     F .text	00000200 OC_I2C_Write
00027108 g     F .text	00000018 _cleanup
000281e0 g     F .text	000000a8 _Balloc
00021038 g     F .text	00000124 Focus_Init
0002d5a0 g     F .text	000000e0 .hidden __gtdf2
00030c6c g     F .text	00000020 altera_nios2_gen2_irq_init
00000000  w      *UND*	00000000 __errno
00020000 g     F .entry	0000001c __reset
00020020 g       *ABS*	00000000 __flash_exceptions_start
0002b518 g     F .text	00000058 _fstat_r
00033e7c g     O .rwdata	00000001 focus_scal
0003615c g     O .bss	00000004 errno
0002991c g     F .text	00000008 __seofread
00036170 g     O .bss	00000004 alt_argv
0003be74 g       *ABS*	00000000 _gp
0002f3ac g     F .text	00000030 usleep
00032c94 g     O .rwdata	00000180 alt_fd_list
00022ec8 g     F .text	00000008 _putchar_r
00030c8c g     F .text	00000090 alt_find_dev
00027f4c g     F .text	00000138 memcpy
00020394 g     F .text	0000013c oc_i2c_init_ex
00026de0 g     F .text	0000000c _cleanup_r
0002e7dc g     F .text	000000d0 .hidden __floatsidf
00030980 g     F .text	00000078 alt_io_redirect
0002d680 g     F .text	000000e0 .hidden __ltdf2
000313b0 g       *ABS*	00000000 __DTOR_END__
00022f90 g     F .text	00000014 puts
00030f70 g     F .text	0000009c alt_exception_cause_generated_bad_addr
00029854 g     F .text	00000074 __fpclassifyd
00028f64 g     F .text	000000a4 __ratio
0002ae8c g     F .text	00000024 __vfiprintf_internal
00022248 g     F .text	00000040 QUEUE_IsEmpty
0002fc18 g     F .text	0000020c altera_avalon_jtag_uart_read
0002256c g     F .text	00000014 malloc
00022e60 g     F .text	0000002c _printf_r
00020000 g       *ABS*	00000000 __alt_mem_onchip_memory2_0
0002255c g     F .text	00000008 .hidden __udivsi3
0002ec50 g     F .text	000000a4 isatty
00031a1c g     O .rodata	000000c8 __mprec_tens
00027c48 g     F .text	0000000c __locale_charset
00030ee4 g     F .text	0000008c alt_icache_flush
00036158 g     O .bss	00000004 __malloc_top_pad
00022410 g     F .text	00000030 QUEUE_Empty
00021d10 g     F .text	000000e0 OV8865_FOCUS_Move_to
00033e90 g     O .rwdata	00000004 __mb_cur_max
00027c78 g     F .text	0000000c _localeconv_r
000285ec g     F .text	0000003c __i2b
00027584 g     F .text	000004c0 __sfvwrite_r
00022380 g     F .text	00000090 QUEUE_Pop
00022fa4 g     F .text	00000054 _sbrk_r
0002b620 g     F .text	0000005c _read_r
00033e7a g     O .rwdata	00000002 focus_height
00033ea8 g     O .rwdata	00000004 alt_max_fd
0002b234 g     F .text	000000f0 _fclose_r
00021bd4 g     F .text	00000060 OV8865_write_cmos_sensor_8
00026da0 g     F .text	00000030 fflush
00036154 g     O .bss	00000004 __malloc_max_sbrked_mem
0002c3b4 g     F .text	0000089c .hidden __adddf3
00028d0c g     F .text	0000011c __b2d
0002be24 g     F .text	00000590 .hidden __umoddi3
0002ee28 g     F .text	000000d4 lseek
00033e88 g     O .rwdata	00000004 _global_impure_ptr
000292ec g     F .text	00000568 _realloc_r
000362b0 g       *ABS*	00000000 __bss_end
000307d0 g     F .text	000000f0 alt_iic_isr_register
0002f2a8 g     F .text	00000104 alt_tick
0002b864 g     F .text	000005c0 .hidden __udivdi3
0002b338 g     F .text	00000184 _fputwc_r
000319f4 g     O .rodata	00000028 __mprec_bigtens
000283d0 g     F .text	00000104 __s2b
0002e8ac g     F .text	000000a4 .hidden __floatunsidf
00033e76 g     O .rwdata	00000002 video_h
00028ab4 g     F .text	00000060 __mcmp
00027140 g     F .text	00000018 __fp_lock_all
00030784 g     F .text	0000004c alt_ic_irq_enabled
000213ec g     F .text	000000b4 mipi_clear_error
00020ba8 g     F .text	00000210 OC_I2CL_Write
0002f210 g     F .text	00000098 alt_alarm_stop
00036180 g     O .bss	00000004 alt_irq_active
00020840 g     F .text	00000064 ACK_judge_for_read
000200fc g     F .exceptions	000000d0 alt_irq_handler
00032c6c g     O .rwdata	00000028 alt_dev_null
0002028c g     F .text	00000058 Write32_Data
000303d0 g     F .text	00000044 alt_dcache_flush_all
000284d4 g     F .text	00000068 __hi0bits
0002e754 g     F .text	00000088 .hidden __fixdfsi
00033e7d g     O .rwdata	00000001 focus_scal_f
00033ec0 g       *ABS*	00000000 __ram_rwdata_end
00033ea0 g     O .rwdata	00000008 alt_dev_list
0002f42c g     F .text	000000f8 write
00029180 g     F .text	000000a0 _putc_r
00031c30 g       *ABS*	00000000 __ram_rodata_end
0002eb50 g     F .text	000000b0 fstat
0002d680 g     F .text	000000e0 .hidden __ledf2
00028824 g     F .text	00000140 __pow5mult
00029bbc g     F .text	000012d0 ___vfiprintf_internal_r
00036168 g     O .bss	00000004 __nlocale_changed
00022564 g     F .text	00000008 .hidden __umodsi3
00021528 g     F .text	00000174 mipi_show_error_info_more
000362b0 g       *ABS*	00000000 end
0002f754 g     F .text	000000c4 altera_avalon_jtag_uart_init
000201cc g     F .exceptions	00000074 alt_instruction_exception_entry
000313b0 g       *ABS*	00000000 __CTOR_LIST__
000386a0 g       *ABS*	00000000 __alt_stack_pointer
000300b0 g     F .text	00000088 alt_avalon_timer_sc_init
0002e950 g     F .text	00000064 .hidden __clzsi2
0002fe24 g     F .text	00000218 altera_avalon_jtag_uart_write
00027130 g     F .text	00000004 __sfp_lock_acquire
00027e64 g     F .text	000000e8 memchr
00023090 g     F .text	00001f50 ___vfprintf_internal_r
00027294 g     F .text	000002f0 _free_r
00027c54 g     F .text	00000010 __locale_mb_cur_max
000311e8 g     F .text	00000194 __call_exitprocs
00036164 g     O .bss	00000004 __mlocale_changed
00033e80 g     O .rwdata	00000004 __malloc_sbrk_base
00020240 g     F .text	0000004c _start
00036178 g     O .bss	00000004 _alt_tick_rate
00028964 g     F .text	00000150 __lshift
000222ec g     F .text	00000094 QUEUE_Push
0003617c g     O .bss	00000004 _alt_nticks
0002f004 g     F .text	000000fc read
0002f590 g     F .text	00000060 alt_sys_init
000310d4 g     F .text	00000114 __register_exitproc
00021b78 g     F .text	0000005c OV8865_read_cmos_sensor_8
00028628 g     F .text	000001fc __multiply
0002fac4 g     F .text	00000068 altera_avalon_jtag_uart_close
00021984 g     F .text	00000060 MipiBridgeRegWrite
00031c30 g       *ABS*	00000000 __ram_rwdata_start
000313b0 g       *ABS*	00000000 __ram_rodata_start
00036188 g     O .bss	00000028 __malloc_current_mallinfo
00028e28 g     F .text	0000013c __d2b
0002f5f0 g     F .text	00000060 altera_avalon_jtag_uart_read_fd
00030e30 g     F .text	000000b4 alt_get_fd
00030278 g     F .text	00000158 alt_busy_sleep
0002b11c g     F .text	00000054 _close_r
00031058 g     F .text	0000007c memcmp
0002f6b0 g     F .text	00000050 altera_avalon_jtag_uart_close_fd
000362b0 g       *ABS*	00000000 __alt_stack_base
0002f700 g     F .text	00000054 altera_avalon_jtag_uart_ioctl_fd
000250c0 g     F .text	00000154 __swsetup_r
0002033c g     F .text	00000058 oc_i2c_init
0002cc50 g     F .text	000008cc .hidden __divdf3
00026ff0 g     F .text	00000118 __sfp
0002907c g     F .text	00000078 __copybits
000323c8 g     O .rwdata	00000408 __malloc_av_
0002713c g     F .text	00000004 __sinit_lock_release
0002d760 g     F .text	00000724 .hidden __muldf3
000298c8 g     F .text	00000054 __sread
00030d1c g     F .text	00000114 alt_find_file
00030464 g     F .text	000000a4 alt_dev_llist_insert
0002ef74 g     F .text	00000020 __malloc_lock
0002f160 g     F .text	000000b0 sbrk
00021fac g     F .text	000001fc MipiCameraInit
00021938 g     F .text	0000004c nSWAP16
00026d44 g     F .text	0000005c _fflush_r
0002b170 g     F .text	000000c4 _calloc_r
000221a8 g     F .text	00000070 QUEUE_New
00036150 g       *ABS*	00000000 __bss_start
00022d3c g     F .text	00000124 memset
00021724 g     F .text	00000214 main
00036174 g     O .bss	00000004 alt_envp
00036150 g     O .bss	00000004 __malloc_max_total_mem
0002f650 g     F .text	00000060 altera_avalon_jtag_uart_write_fd
0002b0a4 g     F .text	0000001c __swbuf
000299fc g     F .text	00000008 __sclose
000386a0 g       *ABS*	00000000 __alt_heap_limit
0002b324 g     F .text	00000014 fclose
00025414 g     F .text	00001728 _dtoa_r
00022594 g     F .text	000007a8 _malloc_r
0002b7d8 g     F .text	00000030 __ascii_wctomb
00033eac g     O .rwdata	00000004 alt_errno
00027a44 g     F .text	000000c4 _fwalk
00029220 g     F .text	000000cc putc
000224ac g     F .text	00000054 .hidden __divsi3
000204d0 g     F .text	00000084 oc_i2c_uninit
00027170 g     F .text	00000124 _malloc_trim_r
000313b0 g       *ABS*	00000000 __CTOR_END__
00021df0 g     F .text	000001bc MIPI_BIN_LEVEL
00029a04 g     F .text	000000a4 strcmp
000313b0 g       *ABS*	00000000 __flash_rodata_start
000313b0 g       *ABS*	00000000 __DTOR_LIST__
0002d51c g     F .text	00000084 .hidden __nedf2
0002f55c g     F .text	00000034 alt_irq_init
0002f100 g     F .text	00000060 alt_release_fd
00021a54 g     F .text	00000124 MipiBridgeInit
00031b04 g     O .rodata	00000100 .hidden __clz_tab
00036160 g     O .bss	00000004 _PathLocale
0003100c g     F .text	00000014 atexit
0002b0c0 g     F .text	0000005c _write_r
00027c84 g     F .text	0000001c setlocale
00033e8c g     O .rwdata	00000004 _impure_ptr
0003616c g     O .bss	00000004 alt_argc
000219e4 g     F .text	00000070 MipiBridgeRegRead
00026b3c g     F .text	00000208 __sflush_r
00030564 g     F .text	0000005c _do_dtors
00027c70 g     F .text	00000008 __locale_cjk_lang
00033e74 g     O .rwdata	00000002 video_w
00020020 g       .exceptions	00000000 alt_irq_entry
00028cac g     F .text	00000060 __ulp
00027158 g     F .text	00000018 __fp_unlock_all
00033e98 g     O .rwdata	00000008 alt_fs_list
000202e4 g     F .text	00000058 Read32_Data
000208a4 g     F .text	000001cc OC_I2C_Read
00020020 g       *ABS*	00000000 __ram_exceptions_start
00027ca0 g     F .text	0000000c localeconv
000305f0 g     F .text	00000050 alt_ic_isr_register
00033ec0 g       *ABS*	00000000 _edata
000362b0 g       *ABS*	00000000 _end
00020240 g       *ABS*	00000000 __ram_exceptions_end
0002fb2c g     F .text	000000ec altera_avalon_jtag_uart_ioctl
000306e0 g     F .text	000000a4 alt_ic_irq_disable
00029924 g     F .text	0000007c __swrite
00033e84 g     O .rwdata	00000004 __malloc_trim_threshold
00020a70 g     F .text	00000138 OC_I2C_Read_Continue
00027c64 g     F .text	0000000c __locale_msgcharset
00031020 g     F .text	00000038 exit
00033e7e g     O .rwdata	00000001 focus_th
00027b08 g     F .text	000000c4 _fwalk_reent
00028b14 g     F .text	00000198 __mdiff
00022500 g     F .text	0000005c .hidden __modsi3
000386a0 g       *ABS*	00000000 __alt_data_end
00020020 g     F .exceptions	00000000 alt_exception
00027134 g     F .text	00000004 __sfp_lock_release
000214a0 g     F .text	00000088 mipi_show_error_info
00022218 g     F .text	00000030 QUEUE_Delete
00020db8 g     F .text	00000280 OC_I2CL_Read
0003137c g     F .text	00000034 _exit
00030138 g     F .text	00000140 alt_alarm_start
00027cac g     F .text	000001b8 __smakebuf_r
00022ff8 g     F .text	00000098 strlen
00030b14 g     F .text	00000158 open
0002d5a0 g     F .text	000000e0 .hidden __gedf2
00033e94 g     O .rwdata	00000004 __wctomb
00029ba4 g     F .text	00000018 __sprint_r
000305c0 g     F .text	00000030 alt_icache_flush_all
00033ebc g     O .rwdata	00000004 alt_priority_mask
00033e78 g     O .rwdata	00000002 focus_width
00030640 g     F .text	000000a0 alt_ic_irq_enable
00024fe0 g     F .text	00000024 __vfprintf_internal
0002b808 g     F .text	0000005c _wctomb_r
0002169c g     F .text	00000088 MIPI_Init
0002de84 g     F .text	000008d0 .hidden __subdf3
0002853c g     F .text	000000b0 __lo0bits
00033eb4 g     O .rwdata	00000008 alt_alarm_list
00030508 g     F .text	0000005c _do_ctors
0002b718 g     F .text	000000c0 wcrtomb
0002ea04 g     F .text	000000d0 close
00021c94 g     F .text	0000007c OV8865_read_AF
0002ed58 g     F .text	00000080 alt_load
0002b4bc g     F .text	0000005c fputwc
00022580 g     F .text	00000014 free
00027138 g     F .text	00000004 __sinit_lock_acquire
000282b0 g     F .text	00000120 __multadd
00028288 g     F .text	00000028 _Bfree



Disassembly of section .entry:

00020000 <__reset>:
#if NIOS2_ICACHE_SIZE > 0 && defined(ALT_ALLOW_CODE_AT_RESET) && (!defined(ALT_SIM_OPTIMIZE) || defined(NIOS2_ECC_PRESENT))
    /* Assume the instruction cache size is always a power of two. */
#if NIOS2_ICACHE_SIZE > 0x8000
    movhi r2, %hi(NIOS2_ICACHE_SIZE)
#else
    movui r2, NIOS2_ICACHE_SIZE
   20000:	00840014 	movui	r2,4096
#endif

0:
    initi r2
   20004:	1001483a 	initi	r2
    addi r2, r2, -NIOS2_ICACHE_LINE_SIZE
   20008:	10bff804 	addi	r2,r2,-32
    bgt r2, zero, 0b
   2000c:	00bffd16 	blt	zero,r2,20004 <_gp+0xfffe4190>
 * Jump to the _start entry point in the .text section if reset code
 * is allowed or if optimizing for RTL simulation.
 */
#if defined(ALT_ALLOW_CODE_AT_RESET) || defined(ALT_SIM_OPTIMIZE)
    /* Jump to the _start entry point in the .text section. */
    movhi r1, %hi(_start)
   20010:	004000b4 	movhi	at,2
    ori r1, r1, %lo(_start)
   20014:	08409014 	ori	at,at,576
    jmp r1
   20018:	0800683a 	jmp	at
   2001c:	00000000 	call	0 <__reset-0x20000>

Disassembly of section .exceptions:

00020020 <alt_exception>:

#else /* ALT_EXCEPTION_STACK disabled */
        /* 
         * Reserve space on normal stack for registers about to be pushed.
         */
        addi  sp, sp, -76
   20020:	deffed04 	addi	sp,sp,-76
         * documentation for details).
         *
         * Leave a gap in the stack frame at 4(sp) for the muldiv handler to
         * store zero into.
         */
        stw   ra,  0(sp)
   20024:	dfc00015 	stw	ra,0(sp)
        stw   r1,   8(sp)
   20028:	d8400215 	stw	at,8(sp)
        stw   r2,  12(sp)
   2002c:	d8800315 	stw	r2,12(sp)
        stw   r3,  16(sp)
   20030:	d8c00415 	stw	r3,16(sp)
        stw   r4,  20(sp)
   20034:	d9000515 	stw	r4,20(sp)
        stw   r5,  24(sp)
   20038:	d9400615 	stw	r5,24(sp)
        stw   r6,  28(sp)
   2003c:	d9800715 	stw	r6,28(sp)
        stw   r7,  32(sp)
   20040:	d9c00815 	stw	r7,32(sp)
        rdctl r5, estatus   /* Read early to avoid usage stall */
   20044:	000b307a 	rdctl	r5,estatus
        stw   r8,  36(sp)
   20048:	da000915 	stw	r8,36(sp)
        stw   r9,  40(sp)
   2004c:	da400a15 	stw	r9,40(sp)
        stw   r10, 44(sp)
   20050:	da800b15 	stw	r10,44(sp)
        stw   r11, 48(sp)
   20054:	dac00c15 	stw	r11,48(sp)
        stw   r12, 52(sp)
   20058:	db000d15 	stw	r12,52(sp)
        stw   r13, 56(sp)
   2005c:	db400e15 	stw	r13,56(sp)
        stw   r14, 60(sp)
   20060:	db800f15 	stw	r14,60(sp)
        stw   r15, 64(sp)
   20064:	dbc01015 	stw	r15,64(sp)
        /*
         * ea-4 contains the address of the instruction being executed
         * when the exception occured. For interrupt exceptions, we will
         * will be re-issue the isntruction. Store it in 72(sp)
         */
        stw   r5,  68(sp)  /* estatus */
   20068:	d9401115 	stw	r5,68(sp)
        addi  r15, ea, -4  /* instruction that caused exception */
   2006c:	ebffff04 	addi	r15,ea,-4
        stw   r15,  72(sp)
   20070:	dbc01215 	stw	r15,72(sp)
#else
        /*
         * Test to see if the exception was a software exception or caused 
         * by an external interrupt, and vector accordingly.
         */
        rdctl r4, ipending
   20074:	0009313a 	rdctl	r4,ipending
        andi  r2, r5, 1
   20078:	2880004c 	andi	r2,r5,1
        beq   r2, zero, .Lnot_irq
   2007c:	10000326 	beq	r2,zero,2008c <alt_exception+0x6c>
        beq   r4, zero, .Lnot_irq
   20080:	20000226 	beq	r4,zero,2008c <alt_exception+0x6c>
        /*
         * Now that all necessary registers have been preserved, call 
         * alt_irq_handler() to process the interrupts.
         */

        call alt_irq_handler
   20084:	00200fc0 	call	200fc <alt_irq_handler>

        .section .exceptions.irqreturn, "xa"

        br    .Lexception_exit
   20088:	00000706 	br	200a8 <alt_exception+0x88>
         * upon completion, so we write ea (address of instruction *after*
         * the one where the exception occured) into 72(sp). The actual
         * instruction that caused the exception is written in r2, which these
         * handlers will utilize.
         */
        stw   ea,  72(sp)  /* Don't re-issue */
   2008c:	df401215 	stw	ea,72(sp)
        ldhu.n  r2, 0(r4)
        ldhu.n  r3, 2(r4)
        slli.n  r3, r3, 16
        or.n    r2, r2, r3 /* Instruction that caused exception */
#else
        ldw   r2, -4(ea)   /* Instruction that caused exception */
   20090:	e8bfff17 	ldw	r2,-4(ea)
         * debugger is present) or go into an infinite loop since the
         * handling behavior is undefined; in that case we will not return here.
         */

        /* Load exception-causing address as first argument (r4) */
        addi   r4, ea, -4
   20094:	e93fff04 	addi	r4,ea,-4

        /* Call the instruction-exception entry */
        call   alt_instruction_exception_entry
   20098:	00201cc0 	call	201cc <alt_instruction_exception_entry>
         * instruction
         *
         * Return code was 0: Skip. The instruction after the exception is
         * already stored in 72(sp).
         */
        bne   r2, r0, .Lexception_exit
   2009c:	1000021e 	bne	r2,zero,200a8 <alt_exception+0x88>

        /*
         * Otherwise, modify 72(sp) to re-issue the instruction that caused the
         * exception.
         */
        addi  r15, ea, -4  /* instruction that caused exception */
   200a0:	ebffff04 	addi	r15,ea,-4
        stw   r15,  72(sp)
   200a4:	dbc01215 	stw	r15,72(sp)
        /* 
         * Restore the saved registers, so that all general purpose registers 
         * have been restored to their state at the time the interrupt occured.
         */

        ldw   r5,  68(sp)
   200a8:	d9401117 	ldw	r5,68(sp)
        ldw   ea,  72(sp)  /* This becomes the PC once eret is executed */
   200ac:	df401217 	ldw	ea,72(sp)
        ldw   ra,   0(sp)
   200b0:	dfc00017 	ldw	ra,0(sp)

        wrctl estatus, r5
   200b4:	2801707a 	wrctl	estatus,r5

        ldw   r1,   8(sp)
   200b8:	d8400217 	ldw	at,8(sp)
        ldw   r2,  12(sp)
   200bc:	d8800317 	ldw	r2,12(sp)
        ldw   r3,  16(sp)
   200c0:	d8c00417 	ldw	r3,16(sp)
        ldw   r4,  20(sp)
   200c4:	d9000517 	ldw	r4,20(sp)
        ldw   r5,  24(sp)
   200c8:	d9400617 	ldw	r5,24(sp)
        ldw   r6,  28(sp)
   200cc:	d9800717 	ldw	r6,28(sp)
        ldw   r7,  32(sp)
   200d0:	d9c00817 	ldw	r7,32(sp)

#if defined(ALT_EXCEPTION_STACK) && defined(ALT_STACK_CHECK)
        ldw   et, %gprel(alt_exception_old_stack_limit)(gp)
#endif

        ldw   r8,  36(sp)
   200d4:	da000917 	ldw	r8,36(sp)
        ldw   r9,  40(sp)
   200d8:	da400a17 	ldw	r9,40(sp)
        ldw   r10, 44(sp)
   200dc:	da800b17 	ldw	r10,44(sp)
        ldw   r11, 48(sp)
   200e0:	dac00c17 	ldw	r11,48(sp)
        ldw   r12, 52(sp)
   200e4:	db000d17 	ldw	r12,52(sp)
        ldw   r13, 56(sp)
   200e8:	db400e17 	ldw	r13,56(sp)
        ldw   r14, 60(sp)
   200ec:	db800f17 	ldw	r14,60(sp)
        ldw   r15, 64(sp)
   200f0:	dbc01017 	ldw	r15,64(sp)
        stw   et, %gprel(alt_stack_limit_value)(gp)
        stw   zero, %gprel(alt_exception_old_stack_limit)(gp)
#endif /* ALT_STACK_CHECK */
        ldw   sp,  76(sp)
#else /* ALT_EXCEPTION_STACK disabled */
        addi  sp, sp, 76
   200f4:	dec01304 	addi	sp,sp,76

        /*
         * Return to the interrupted instruction.
         */

        eret
   200f8:	ef80083a 	eret

000200fc <alt_irq_handler>:
 * instruction is present if the macro ALT_CI_INTERRUPT_VECTOR defined.
 */

void alt_irq_handler (void) __attribute__ ((section (".exceptions")));
void alt_irq_handler (void)
{
   200fc:	defff904 	addi	sp,sp,-28
   20100:	dfc00615 	stw	ra,24(sp)
   20104:	df000515 	stw	fp,20(sp)
   20108:	df000504 	addi	fp,sp,20
  
  /*
   * Notify the operating system that we are at interrupt level.
   */ 
  
  ALT_OS_INT_ENTER();
   2010c:	0001883a 	nop
#ifndef NIOS2_EIC_PRESENT
static ALT_INLINE alt_u32 ALT_ALWAYS_INLINE alt_irq_pending (void)
{
  alt_u32 active;

  NIOS2_READ_IPENDING (active);
   20110:	0005313a 	rdctl	r2,ipending
   20114:	e0bffe15 	stw	r2,-8(fp)

  return active;
   20118:	e0bffe17 	ldw	r2,-8(fp)
   * Consider the case where the high priority interupt is asserted during
   * the interrupt entry sequence for a lower priority interrupt to see why
   * this is the case.
   */

  active = alt_irq_pending ();
   2011c:	e0bffb15 	stw	r2,-20(fp)

  do
  {
    i = 0;
   20120:	e03ffd15 	stw	zero,-12(fp)
    mask = 1;
   20124:	00800044 	movi	r2,1
   20128:	e0bffc15 	stw	r2,-16(fp)
     * called to clear the interrupt condition.
     */

    do
    {
      if (active & mask)
   2012c:	e0fffb17 	ldw	r3,-20(fp)
   20130:	e0bffc17 	ldw	r2,-16(fp)
   20134:	1884703a 	and	r2,r3,r2
   20138:	10001426 	beq	r2,zero,2018c <alt_irq_handler+0x90>
      { 
#ifdef ALT_ENHANCED_INTERRUPT_API_PRESENT
        alt_irq[i].handler(alt_irq[i].context); 
   2013c:	008000f4 	movhi	r2,3
   20140:	10986c04 	addi	r2,r2,25008
   20144:	e0fffd17 	ldw	r3,-12(fp)
   20148:	180690fa 	slli	r3,r3,3
   2014c:	10c5883a 	add	r2,r2,r3
   20150:	10c00017 	ldw	r3,0(r2)
   20154:	008000f4 	movhi	r2,3
   20158:	10986c04 	addi	r2,r2,25008
   2015c:	e13ffd17 	ldw	r4,-12(fp)
   20160:	200890fa 	slli	r4,r4,3
   20164:	21000104 	addi	r4,r4,4
   20168:	1105883a 	add	r2,r2,r4
   2016c:	10800017 	ldw	r2,0(r2)
   20170:	1009883a 	mov	r4,r2
   20174:	183ee83a 	callr	r3
#else
        alt_irq[i].handler(alt_irq[i].context, i); 
#endif
        break;
   20178:	0001883a 	nop
#ifndef NIOS2_EIC_PRESENT
static ALT_INLINE alt_u32 ALT_ALWAYS_INLINE alt_irq_pending (void)
{
  alt_u32 active;

  NIOS2_READ_IPENDING (active);
   2017c:	0005313a 	rdctl	r2,ipending
   20180:	e0bfff15 	stw	r2,-4(fp)

  return active;
   20184:	e0bfff17 	ldw	r2,-4(fp)
   20188:	00000706 	br	201a8 <alt_irq_handler+0xac>
      }
      mask <<= 1;
   2018c:	e0bffc17 	ldw	r2,-16(fp)
   20190:	1085883a 	add	r2,r2,r2
   20194:	e0bffc15 	stw	r2,-16(fp)
      i++;
   20198:	e0bffd17 	ldw	r2,-12(fp)
   2019c:	10800044 	addi	r2,r2,1
   201a0:	e0bffd15 	stw	r2,-12(fp)

    } while (1);
   201a4:	003fe106 	br	2012c <_gp+0xfffe42b8>

    active = alt_irq_pending ();
   201a8:	e0bffb15 	stw	r2,-20(fp)
    
  } while (active);
   201ac:	e0bffb17 	ldw	r2,-20(fp)
   201b0:	103fdb1e 	bne	r2,zero,20120 <_gp+0xfffe42ac>

  /*
   * Notify the operating system that interrupt processing is complete.
   */ 

  ALT_OS_INT_EXIT();
   201b4:	0001883a 	nop
}
   201b8:	e037883a 	mov	sp,fp
   201bc:	dfc00117 	ldw	ra,4(sp)
   201c0:	df000017 	ldw	fp,0(sp)
   201c4:	dec00204 	addi	sp,sp,8
   201c8:	f800283a 	ret

000201cc <alt_instruction_exception_entry>:
 * that handler if it has been registered. Absent a handler, it will
 * break break or hang as discussed below.
 */
int 
alt_instruction_exception_entry (alt_u32 exception_pc)
{
   201cc:	defffb04 	addi	sp,sp,-20
   201d0:	dfc00415 	stw	ra,16(sp)
   201d4:	df000315 	stw	fp,12(sp)
   201d8:	df000304 	addi	fp,sp,12
   201dc:	e13fff15 	stw	r4,-4(fp)
 * NIOS2_EXCEPTION_CAUSE_NOT_PRESENT. Your handling routine should
 * check the validity of the cause argument before proceeding.
 */
#ifdef NIOS2_HAS_EXTRA_EXCEPTION_INFO
  /* Get exception cause & "badaddr" */
  NIOS2_READ_EXCEPTION(cause);
   201e0:	000531fa 	rdctl	r2,exception
   201e4:	e0bffd15 	stw	r2,-12(fp)
  cause = ( (cause & NIOS2_EXCEPTION_REG_CAUSE_MASK) >>
   201e8:	e0bffd17 	ldw	r2,-12(fp)
   201ec:	10801f0c 	andi	r2,r2,124
   201f0:	1004d0ba 	srli	r2,r2,2
   201f4:	e0bffd15 	stw	r2,-12(fp)
              NIOS2_EXCEPTION_REG_CAUSE_OFST );

  NIOS2_READ_BADADDR(badaddr);
   201f8:	0005333a 	rdctl	r2,badaddr
   201fc:	e0bffe15 	stw	r2,-8(fp)
#else
  cause = NIOS2_EXCEPTION_CAUSE_NOT_PRESENT;
  badaddr = 0;
#endif /* NIOS2_HAS_EXTRA_EXCEPTION_INFO */

  if(alt_instruction_exception_handler) {
   20200:	d0a8c417 	ldw	r2,-23792(gp)
   20204:	10000726 	beq	r2,zero,20224 <alt_instruction_exception_entry+0x58>
     * Call handler. Its return value indicates whether the exception-causing
     * instruction should be re-issued. The code that called us,
     * alt_eceptions_entry.S, will look at this value and adjust the ea
     * register as necessary
     */
    return alt_instruction_exception_handler(cause, exception_pc, badaddr);
   20208:	d0a8c417 	ldw	r2,-23792(gp)
   2020c:	e0fffd17 	ldw	r3,-12(fp)
   20210:	1809883a 	mov	r4,r3
   20214:	e17fff17 	ldw	r5,-4(fp)
   20218:	e1bffe17 	ldw	r6,-8(fp)
   2021c:	103ee83a 	callr	r2
   20220:	00000206 	br	2022c <alt_instruction_exception_entry+0x60>
   *    (a peripheral which negates its interrupt output before its
   *    interrupt handler has been executed will cause spurious interrupts)
   */
  else {
#ifdef NIOS2_HAS_DEBUG_STUB
    NIOS2_BREAK();
   20224:	003da03a 	break	0
      ;
#endif /* NIOS2_HAS_DEBUG_STUB */
  }

  /* We should not get here. Remove compiler warning. */
  return NIOS2_EXCEPTION_RETURN_REISSUE_INST;
   20228:	0005883a 	mov	r2,zero
}
   2022c:	e037883a 	mov	sp,fp
   20230:	dfc00117 	ldw	ra,4(sp)
   20234:	df000017 	ldw	fp,0(sp)
   20238:	dec00204 	addi	sp,sp,8
   2023c:	f800283a 	ret

Disassembly of section .text:

00020240 <_start>:

    /* Assume the data cache size is always a power of two. */
#if NIOS2_DCACHE_SIZE > 0x8000
    movhi r2, %hi(NIOS2_DCACHE_SIZE)
#else
    movui r2, NIOS2_DCACHE_SIZE
   20240:	00820014 	movui	r2,2048
#endif

0:
    initd 0(r2)
   20244:	10000033 	initd	0(r2)
#ifdef NIOS2_ECC_PRESENT
    addi r2, r2, -4
#else
    addi r2, r2, -NIOS2_DCACHE_LINE_SIZE
   20248:	10bff804 	addi	r2,r2,-32
#endif
    bgt r2, zero, 0b
   2024c:	00bffd16 	blt	zero,r2,20244 <_gp+0xfffe43d0>

    /*
     * Now that the caches are initialized, set up the stack pointer and global pointer.
     * The values provided by the linker are assumed to be correctly aligned.
     */
    movhi sp, %hi(__alt_stack_pointer)
   20250:	06c000f4 	movhi	sp,3
    ori sp, sp, %lo(__alt_stack_pointer)
   20254:	dee1a814 	ori	sp,sp,34464
    movhi gp, %hi(_gp)
   20258:	068000f4 	movhi	gp,3
    ori gp, gp, %lo(_gp)
   2025c:	d6af9d14 	ori	gp,gp,48756
 */
#ifndef ALT_SIM_OPTIMIZE
    /* Log that the BSS is about to be cleared. */
    ALT_LOG_PUTS(alt_log_msg_bss)

    movhi r2, %hi(__bss_start)
   20260:	008000f4 	movhi	r2,3
    ori r2, r2, %lo(__bss_start)
   20264:	10985414 	ori	r2,r2,24912

    movhi r3, %hi(__bss_end)
   20268:	00c000f4 	movhi	r3,3
    ori r3, r3, %lo(__bss_end)
   2026c:	18d8ac14 	ori	r3,r3,25264

    beq r2, r3, 1f
   20270:	10c00326 	beq	r2,r3,20280 <_start+0x40>

0:
    stw zero, (r2)
   20274:	10000015 	stw	zero,0(r2)
    addi r2, r2, 4
   20278:	10800104 	addi	r2,r2,4
    bltu r2, r3, 0b
   2027c:	10fffd36 	bltu	r2,r3,20274 <_gp+0xfffe4400>
     * section aren't defined until alt_load() has been called).
     */
    mov   et, zero
#endif

    call alt_load
   20280:	002ed580 	call	2ed58 <alt_load>

    /* Log that alt_main is about to be called. */
    ALT_LOG_PUTS(alt_log_msg_alt_main)

    /* Call the C entry point. It should never return. */
    call alt_main
   20284:	002eefc0 	call	2eefc <alt_main>

00020288 <alt_after_alt_main>:

    /* Wait in infinite loop in case alt_main does return. */
alt_after_alt_main:
    br alt_after_alt_main
   20288:	003fff06 	br	20288 <_gp+0xfffe4414>

0002028c <Write32_Data>:
#define SLEEP_TIME 250  //us
#define ACK_SLEEP_TIME 250 //us
#define TRUE 1
#define FALSE 0

bool Write32_Data(alt_32 base_address, alt_32 offset_address, alt_32 Data){
   2028c:	defffb04 	addi	sp,sp,-20
   20290:	df000415 	stw	fp,16(sp)
   20294:	df000404 	addi	fp,sp,16
   20298:	e13ffd15 	stw	r4,-12(fp)
   2029c:	e17ffe15 	stw	r5,-8(fp)
   202a0:	e1bfff15 	stw	r6,-4(fp)
	bool bPass;
    IOWR(base_address, offset_address,Data);
   202a4:	e0bffe17 	ldw	r2,-8(fp)
   202a8:	1085883a 	add	r2,r2,r2
   202ac:	1085883a 	add	r2,r2,r2
   202b0:	1007883a 	mov	r3,r2
   202b4:	e0bffd17 	ldw	r2,-12(fp)
   202b8:	1885883a 	add	r2,r3,r2
   202bc:	1007883a 	mov	r3,r2
   202c0:	e0bfff17 	ldw	r2,-4(fp)
   202c4:	18800035 	stwio	r2,0(r3)
    bPass=TRUE;
   202c8:	00800044 	movi	r2,1
   202cc:	e0bffc15 	stw	r2,-16(fp)
    return bPass;
   202d0:	e0bffc17 	ldw	r2,-16(fp)
}
   202d4:	e037883a 	mov	sp,fp
   202d8:	df000017 	ldw	fp,0(sp)
   202dc:	dec00104 	addi	sp,sp,4
   202e0:	f800283a 	ret

000202e4 <Read32_Data>:



bool  Read32_Data(alt_32 base_address, alt_32 offset_address, alt_32 *pData32){
   202e4:	defffb04 	addi	sp,sp,-20
   202e8:	df000415 	stw	fp,16(sp)
   202ec:	df000404 	addi	fp,sp,16
   202f0:	e13ffd15 	stw	r4,-12(fp)
   202f4:	e17ffe15 	stw	r5,-8(fp)
   202f8:	e1bfff15 	stw	r6,-4(fp)
	bool bPass;
	*pData32 =IORD(base_address ,offset_address  );
   202fc:	e0bffe17 	ldw	r2,-8(fp)
   20300:	1085883a 	add	r2,r2,r2
   20304:	1085883a 	add	r2,r2,r2
   20308:	1007883a 	mov	r3,r2
   2030c:	e0bffd17 	ldw	r2,-12(fp)
   20310:	1885883a 	add	r2,r3,r2
   20314:	10c00037 	ldwio	r3,0(r2)
   20318:	e0bfff17 	ldw	r2,-4(fp)
   2031c:	10c00015 	stw	r3,0(r2)
	bPass=TRUE;
   20320:	00800044 	movi	r2,1
   20324:	e0bffc15 	stw	r2,-16(fp)
    return bPass;
   20328:	e0bffc17 	ldw	r2,-16(fp)
}
   2032c:	e037883a 	mov	sp,fp
   20330:	df000017 	ldw	fp,0(sp)
   20334:	dec00104 	addi	sp,sp,4
   20338:	f800283a 	ret

0002033c <oc_i2c_init>:

bool oc_i2c_init(alt_32 i2c_base){
   2033c:	defffa04 	addi	sp,sp,-24
   20340:	dfc00515 	stw	ra,20(sp)
   20344:	df000415 	stw	fp,16(sp)
   20348:	df000404 	addi	fp,sp,16
   2034c:	e13fff15 	stw	r4,-4(fp)
	bool bSuccess;
	const alt_32 ref_clk = 50*1000*1000; // 50MHz
   20350:	0080bef4 	movhi	r2,763
   20354:	10bc2004 	addi	r2,r2,-3968
   20358:	e0bffc15 	stw	r2,-16(fp)
	const alt_32 i2c_clk = 400*1000; // 400KHz
   2035c:	008001b4 	movhi	r2,6
   20360:	1086a004 	addi	r2,r2,6784
   20364:	e0bffd15 	stw	r2,-12(fp)

	bSuccess = oc_i2c_init_ex(i2c_base, ref_clk, i2c_clk);
   20368:	e13fff17 	ldw	r4,-4(fp)
   2036c:	e17ffc17 	ldw	r5,-16(fp)
   20370:	e1bffd17 	ldw	r6,-12(fp)
   20374:	00203940 	call	20394 <oc_i2c_init_ex>
   20378:	e0bffe15 	stw	r2,-8(fp)

	return bSuccess;
   2037c:	e0bffe17 	ldw	r2,-8(fp)
}
   20380:	e037883a 	mov	sp,fp
   20384:	dfc00117 	ldw	ra,4(sp)
   20388:	df000017 	ldw	fp,0(sp)
   2038c:	dec00204 	addi	sp,sp,8
   20390:	f800283a 	ret

00020394 <oc_i2c_init_ex>:

bool  oc_i2c_init_ex(alt_32 i2c_base, alt_32 ref_clk, alt_32 i2c_clk)
{
   20394:	defff604 	addi	sp,sp,-40
   20398:	dfc00915 	stw	ra,36(sp)
   2039c:	df000815 	stw	fp,32(sp)
   203a0:	df000804 	addi	fp,sp,32
   203a4:	e13ffd15 	stw	r4,-12(fp)
   203a8:	e17ffe15 	stw	r5,-8(fp)
   203ac:	e1bfff15 	stw	r6,-4(fp)
	bool bSuccess=TRUE;
   203b0:	00800044 	movi	r2,1
   203b4:	e0bff815 	stw	r2,-32(fp)
	alt_32 read_data;
	alt_32 prescale;
	alt_u8 prescale_high;
	alt_u8 prescale_low;
	const alt_u8 ControlValue = 0x80;
   203b8:	00bfe004 	movi	r2,-128
   203bc:	e0bff905 	stb	r2,-28(fp)

    // I2c sysclock =50M hz
	// i2c scl max 400k
	//scl =sysclock/(prescale*5)
	prescale = (ref_clk/(5*i2c_clk))-1;
   203c0:	e0bfff17 	ldw	r2,-4(fp)
   203c4:	10800164 	muli	r2,r2,5
   203c8:	e13ffe17 	ldw	r4,-8(fp)
   203cc:	100b883a 	mov	r5,r2
   203d0:	00224ac0 	call	224ac <__divsi3>
   203d4:	10bfffc4 	addi	r2,r2,-1
   203d8:	e0bffa15 	stw	r2,-24(fp)
	prescale_low = prescale & 0xFF;
   203dc:	e0bffa17 	ldw	r2,-24(fp)
   203e0:	e0bffb05 	stb	r2,-20(fp)
	prescale_high = (prescale >> 8) & 0xFF;
   203e4:	e0bffa17 	ldw	r2,-24(fp)
   203e8:	1005d23a 	srai	r2,r2,8
   203ec:	e0bffb45 	stb	r2,-19(fp)

   IOWR(i2c_base, 0, prescale_low);//write low byte of  prescale (reg 0)
   203f0:	e0bffd17 	ldw	r2,-12(fp)
   203f4:	e0fffb03 	ldbu	r3,-20(fp)
   203f8:	10c00035 	stwio	r3,0(r2)
   IOWR(i2c_base, 1, prescale_high);//write high byte of prescale (reg 1)
   203fc:	e0bffd17 	ldw	r2,-12(fp)
   20400:	10800104 	addi	r2,r2,4
   20404:	1007883a 	mov	r3,r2
   20408:	e0bffb43 	ldbu	r2,-19(fp)
   2040c:	18800035 	stwio	r2,0(r3)

   //enable the I2C core, but disable the IRQ
   IOWR( i2c_base, 2, ControlValue);
   20410:	e0bffd17 	ldw	r2,-12(fp)
   20414:	10800204 	addi	r2,r2,8
   20418:	1007883a 	mov	r3,r2
   2041c:	e0bff903 	ldbu	r2,-28(fp)
   20420:	18800035 	stwio	r2,0(r3)


    // check prescale low byte
    if (bSuccess){
   20424:	e0bff817 	ldw	r2,-32(fp)
   20428:	10000826 	beq	r2,zero,2044c <oc_i2c_init_ex+0xb8>
    	read_data =IORD(i2c_base, 0);
   2042c:	e0bffd17 	ldw	r2,-12(fp)
   20430:	10800037 	ldwio	r2,0(r2)
   20434:	e0bffc15 	stw	r2,-16(fp)
        if( (read_data & 0x00ff) != prescale_low ){
   20438:	e0bffc17 	ldw	r2,-16(fp)
   2043c:	10c03fcc 	andi	r3,r2,255
   20440:	e0bffb03 	ldbu	r2,-20(fp)
   20444:	18800126 	beq	r3,r2,2044c <oc_i2c_init_ex+0xb8>
            bSuccess = FALSE;
   20448:	e03ff815 	stw	zero,-32(fp)
        }
    }

    // check prescale high byte
    if (bSuccess){
   2044c:	e0bff817 	ldw	r2,-32(fp)
   20450:	10000926 	beq	r2,zero,20478 <oc_i2c_init_ex+0xe4>
    	read_data =IORD(i2c_base, 1);
   20454:	e0bffd17 	ldw	r2,-12(fp)
   20458:	10800104 	addi	r2,r2,4
   2045c:	10800037 	ldwio	r2,0(r2)
   20460:	e0bffc15 	stw	r2,-16(fp)
        if( (read_data & 0x00ff) != prescale_high ){
   20464:	e0bffc17 	ldw	r2,-16(fp)
   20468:	10c03fcc 	andi	r3,r2,255
   2046c:	e0bffb43 	ldbu	r2,-19(fp)
   20470:	18800126 	beq	r3,r2,20478 <oc_i2c_init_ex+0xe4>
            bSuccess = FALSE;
   20474:	e03ff815 	stw	zero,-32(fp)
        }
    }

    // check control
    if (bSuccess){
   20478:	e0bff817 	ldw	r2,-32(fp)
   2047c:	10000926 	beq	r2,zero,204a4 <oc_i2c_init_ex+0x110>
    	read_data =IORD(i2c_base, 2);
   20480:	e0bffd17 	ldw	r2,-12(fp)
   20484:	10800204 	addi	r2,r2,8
   20488:	10800037 	ldwio	r2,0(r2)
   2048c:	e0bffc15 	stw	r2,-16(fp)
        if( (read_data & 0x00ff) != ControlValue ){
   20490:	e0bffc17 	ldw	r2,-16(fp)
   20494:	10c03fcc 	andi	r3,r2,255
   20498:	e0bff903 	ldbu	r2,-28(fp)
   2049c:	18800126 	beq	r3,r2,204a4 <oc_i2c_init_ex+0x110>
            bSuccess = FALSE;
   204a0:	e03ff815 	stw	zero,-32(fp)
        }
    }

   if (bSuccess){
   204a4:	e0bff817 	ldw	r2,-32(fp)
   204a8:	1000031e 	bne	r2,zero,204b8 <oc_i2c_init_ex+0x124>
//       printf("\nI2C core is enabled! \r\n");
   }
   else
       printf("\nI2C core is not enabled successfully! \r\n");
   204ac:	010000f4 	movhi	r4,3
   204b0:	2104ec04 	addi	r4,r4,5040
   204b4:	0022f900 	call	22f90 <puts>

   return bSuccess;
   204b8:	e0bff817 	ldw	r2,-32(fp)

}
   204bc:	e037883a 	mov	sp,fp
   204c0:	dfc00117 	ldw	ra,4(sp)
   204c4:	df000017 	ldw	fp,0(sp)
   204c8:	dec00204 	addi	sp,sp,8
   204cc:	f800283a 	ret

000204d0 <oc_i2c_uninit>:

bool oc_i2c_uninit(alt_32 i2c_base)
{
   204d0:	defffa04 	addi	sp,sp,-24
   204d4:	dfc00515 	stw	ra,20(sp)
   204d8:	df000415 	stw	fp,16(sp)
   204dc:	df000404 	addi	fp,sp,16
   204e0:	e13fff15 	stw	r4,-4(fp)
	bool bSuccess=TRUE;
   204e4:	00800044 	movi	r2,1
   204e8:	e0bffc15 	stw	r2,-16(fp)
	alt_32 read_data;
	const alt_u8 ControlValue = 0x00;
   204ec:	e03ffd05 	stb	zero,-12(fp)

    IOWR( i2c_base, 2, ControlValue);
   204f0:	e0bfff17 	ldw	r2,-4(fp)
   204f4:	10800204 	addi	r2,r2,8
   204f8:	1007883a 	mov	r3,r2
   204fc:	e0bffd03 	ldbu	r2,-12(fp)
   20500:	18800035 	stwio	r2,0(r3)
   	read_data =IORD(i2c_base, 2);
   20504:	e0bfff17 	ldw	r2,-4(fp)
   20508:	10800204 	addi	r2,r2,8
   2050c:	10800037 	ldwio	r2,0(r2)
   20510:	e0bffe15 	stw	r2,-8(fp)
	if( (read_data & 0x00ff) != ControlValue ){
   20514:	e0bffe17 	ldw	r2,-8(fp)
   20518:	10c03fcc 	andi	r3,r2,255
   2051c:	e0bffd03 	ldbu	r2,-12(fp)
   20520:	18800126 	beq	r3,r2,20528 <oc_i2c_uninit+0x58>
            bSuccess = FALSE;
   20524:	e03ffc15 	stw	zero,-16(fp)
    }

   if (bSuccess){
   20528:	e0bffc17 	ldw	r2,-16(fp)
   2052c:	1000031e 	bne	r2,zero,2053c <oc_i2c_uninit+0x6c>
//       printf("\I2C core  is disabled! \r\n");
   }
   else
       printf("\I2C core is failed to disable! \r\n");
   20530:	010000f4 	movhi	r4,3
   20534:	2104f704 	addi	r4,r4,5084
   20538:	0022f900 	call	22f90 <puts>

   return bSuccess;
   2053c:	e0bffc17 	ldw	r2,-16(fp)

}
   20540:	e037883a 	mov	sp,fp
   20544:	dfc00117 	ldw	ra,4(sp)
   20548:	df000017 	ldw	fp,0(sp)
   2054c:	dec00204 	addi	sp,sp,8
   20550:	f800283a 	ret

00020554 <ACK_single_check>:




bool  ACK_single_check(alt_32 i2c_base)
{
   20554:	defffb04 	addi	sp,sp,-20
   20558:	dfc00415 	stw	ra,16(sp)
   2055c:	df000315 	stw	fp,12(sp)
   20560:	df000304 	addi	fp,sp,12
   20564:	e13fff15 	stw	r4,-4(fp)
	bool bSuccess=TRUE;
   20568:	00800044 	movi	r2,1
   2056c:	e0bffd15 	stw	r2,-12(fp)
	alt_32 read_data;

    usleep(ACK_SLEEP_TIME);
   20570:	01003e84 	movi	r4,250
   20574:	002f3ac0 	call	2f3ac <usleep>
    read_data =IORD(i2c_base, 4);
   20578:	e0bfff17 	ldw	r2,-4(fp)
   2057c:	10800404 	addi	r2,r2,16
   20580:	10800037 	ldwio	r2,0(r2)
   20584:	e0bffe15 	stw	r2,-8(fp)
    if(read_data & 0x02)
   20588:	e0bffe17 	ldw	r2,-8(fp)
   2058c:	1080008c 	andi	r2,r2,2
   20590:	10000126 	beq	r2,zero,20598 <ACK_single_check+0x44>
            bSuccess = FALSE;
   20594:	e03ffd15 	stw	zero,-12(fp)
     if (bSuccess){
   20598:	e0bffd17 	ldw	r2,-12(fp)
   2059c:	10000a26 	beq	r2,zero,205c8 <ACK_single_check+0x74>
            usleep(ACK_SLEEP_TIME);
   205a0:	01003e84 	movi	r4,250
   205a4:	002f3ac0 	call	2f3ac <usleep>
            read_data =IORD(i2c_base, 4);
   205a8:	e0bfff17 	ldw	r2,-4(fp)
   205ac:	10800404 	addi	r2,r2,16
   205b0:	10800037 	ldwio	r2,0(r2)
   205b4:	e0bffe15 	stw	r2,-8(fp)
                if(read_data & 0x80)
   205b8:	e0bffe17 	ldw	r2,-8(fp)
   205bc:	1080200c 	andi	r2,r2,128
   205c0:	10000126 	beq	r2,zero,205c8 <ACK_single_check+0x74>
                    bSuccess = FALSE;
   205c4:	e03ffd15 	stw	zero,-12(fp)
     }
    return bSuccess;
   205c8:	e0bffd17 	ldw	r2,-12(fp)
}
   205cc:	e037883a 	mov	sp,fp
   205d0:	dfc00117 	ldw	ra,4(sp)
   205d4:	df000017 	ldw	fp,0(sp)
   205d8:	dec00204 	addi	sp,sp,8
   205dc:	f800283a 	ret

000205e0 <ACK_check>:


bool  ACK_check(alt_32 i2c_base){
   205e0:	defffb04 	addi	sp,sp,-20
   205e4:	dfc00415 	stw	ra,16(sp)
   205e8:	df000315 	stw	fp,12(sp)
   205ec:	df000304 	addi	fp,sp,12
   205f0:	e13fff15 	stw	r4,-4(fp)
    bool bSuccess = FALSE;
   205f4:	e03ffd15 	stw	zero,-12(fp)
    int i=0;
   205f8:	e03ffe15 	stw	zero,-8(fp)

    while(!bSuccess && i++ < 10){
   205fc:	00000306 	br	2060c <ACK_check+0x2c>
        bSuccess = ACK_single_check(i2c_base);
   20600:	e13fff17 	ldw	r4,-4(fp)
   20604:	00205540 	call	20554 <ACK_single_check>
   20608:	e0bffd15 	stw	r2,-12(fp)

bool  ACK_check(alt_32 i2c_base){
    bool bSuccess = FALSE;
    int i=0;

    while(!bSuccess && i++ < 10){
   2060c:	e0bffd17 	ldw	r2,-12(fp)
   20610:	1000051e 	bne	r2,zero,20628 <ACK_check+0x48>
   20614:	e0bffe17 	ldw	r2,-8(fp)
   20618:	10c00044 	addi	r3,r2,1
   2061c:	e0fffe15 	stw	r3,-8(fp)
   20620:	10800290 	cmplti	r2,r2,10
   20624:	103ff61e 	bne	r2,zero,20600 <_gp+0xfffe478c>
        bSuccess = ACK_single_check(i2c_base);
    }

    return bSuccess;
   20628:	e0bffd17 	ldw	r2,-12(fp)
}
   2062c:	e037883a 	mov	sp,fp
   20630:	dfc00117 	ldw	ra,4(sp)
   20634:	df000017 	ldw	fp,0(sp)
   20638:	dec00204 	addi	sp,sp,8
   2063c:	f800283a 	ret

00020640 <OC_I2C_Write>:

bool  OC_I2C_Write(alt_32 i2c_base,alt_u8 device_address,alt_u8 sub_address, alt_u8 *pData, int nWriteLength)
{
   20640:	defff904 	addi	sp,sp,-28
   20644:	dfc00615 	stw	ra,24(sp)
   20648:	df000515 	stw	fp,20(sp)
   2064c:	df000504 	addi	fp,sp,20
   20650:	e13ffc15 	stw	r4,-16(fp)
   20654:	2807883a 	mov	r3,r5
   20658:	3005883a 	mov	r2,r6
   2065c:	e1ffff15 	stw	r7,-4(fp)
   20660:	e0fffd05 	stb	r3,-12(fp)
   20664:	e0bffe05 	stb	r2,-8(fp)
    //DWORD reg_data = 0x0;
    int i;

   //set the tx reg audio chip dev address with write bit
   if (!Write32_Data( i2c_base, 3,device_address)){
   20668:	e0bffd03 	ldbu	r2,-12(fp)
   2066c:	e13ffc17 	ldw	r4,-16(fp)
   20670:	014000c4 	movi	r5,3
   20674:	100d883a 	mov	r6,r2
   20678:	002028c0 	call	2028c <Write32_Data>
   2067c:	1000051e 	bne	r2,zero,20694 <OC_I2C_Write+0x54>
       printf("OC_I2C_Write error[0]\r\n");
   20680:	010000f4 	movhi	r4,3
   20684:	21050004 	addi	r4,r4,5120
   20688:	0022f900 	call	22f90 <puts>
       return FALSE;
   2068c:	0005883a 	mov	r2,zero
   20690:	00006606 	br	2082c <OC_I2C_Write+0x1ec>
   }
   //set STA and WR bits(bit7 and bit4)
   if (!Write32_Data( i2c_base, 4,0x90)){
   20694:	e13ffc17 	ldw	r4,-16(fp)
   20698:	01400104 	movi	r5,4
   2069c:	01802404 	movi	r6,144
   206a0:	002028c0 	call	2028c <Write32_Data>
   206a4:	1000051e 	bne	r2,zero,206bc <OC_I2C_Write+0x7c>
       printf("OC_I2C_Write error[1]\r\n");
   206a8:	010000f4 	movhi	r4,3
   206ac:	21050604 	addi	r4,r4,5144
   206b0:	0022f900 	call	22f90 <puts>
       return FALSE;
   206b4:	0005883a 	mov	r2,zero
   206b8:	00005c06 	br	2082c <OC_I2C_Write+0x1ec>
   }

   //wait TIP bit go to 0 to end Tx
    if(!ACK_check( i2c_base)){
   206bc:	e13ffc17 	ldw	r4,-16(fp)
   206c0:	00205e00 	call	205e0 <ACK_check>
   206c4:	1000051e 	bne	r2,zero,206dc <OC_I2C_Write+0x9c>
        printf("OC_I2C_Write error[2]\r\n");
   206c8:	010000f4 	movhi	r4,3
   206cc:	21050c04 	addi	r4,r4,5168
   206d0:	0022f900 	call	22f90 <puts>
        return FALSE;
   206d4:	0005883a 	mov	r2,zero
   206d8:	00005406 	br	2082c <OC_I2C_Write+0x1ec>
    }
  // printf("\n receive ACK-device address! \n");

   //set the txr reg data with reg address + 1 data MSB
   if (!Write32_Data( i2c_base, 3,sub_address)){
   206dc:	e0bffe03 	ldbu	r2,-8(fp)
   206e0:	e13ffc17 	ldw	r4,-16(fp)
   206e4:	014000c4 	movi	r5,3
   206e8:	100d883a 	mov	r6,r2
   206ec:	002028c0 	call	2028c <Write32_Data>
   206f0:	1000051e 	bne	r2,zero,20708 <OC_I2C_Write+0xc8>
       printf("OC_I2C_Write error[3]\r\n");
   206f4:	010000f4 	movhi	r4,3
   206f8:	21051204 	addi	r4,r4,5192
   206fc:	0022f900 	call	22f90 <puts>
       return FALSE;
   20700:	0005883a 	mov	r2,zero
   20704:	00004906 	br	2082c <OC_I2C_Write+0x1ec>
   }

   //set WR bits(bit4)
    if (!Write32_Data( i2c_base, 4,0x10)){
   20708:	e13ffc17 	ldw	r4,-16(fp)
   2070c:	01400104 	movi	r5,4
   20710:	01800404 	movi	r6,16
   20714:	002028c0 	call	2028c <Write32_Data>
   20718:	1000051e 	bne	r2,zero,20730 <OC_I2C_Write+0xf0>
        printf("OC_I2C_Write error[4]\r\n");
   2071c:	010000f4 	movhi	r4,3
   20720:	21051804 	addi	r4,r4,5216
   20724:	0022f900 	call	22f90 <puts>
        return FALSE;
   20728:	0005883a 	mov	r2,zero
   2072c:	00003f06 	br	2082c <OC_I2C_Write+0x1ec>
    }

   //wait TIP bit go to 0 to end Tx
    if(!ACK_check( i2c_base)){
   20730:	e13ffc17 	ldw	r4,-16(fp)
   20734:	00205e00 	call	205e0 <ACK_check>
   20738:	1000051e 	bne	r2,zero,20750 <OC_I2C_Write+0x110>
        printf("OC_I2C_Write error[5]\r\n");
   2073c:	010000f4 	movhi	r4,3
   20740:	21051e04 	addi	r4,r4,5240
   20744:	0022f900 	call	22f90 <puts>
        return FALSE;
   20748:	0005883a 	mov	r2,zero
   2074c:	00003706 	br	2082c <OC_I2C_Write+0x1ec>
    }
 //  printf("\n receive ACK-reg address! \n");

#if 1
        for( i=nWriteLength-1;i>=0;i--){
   20750:	e0800217 	ldw	r2,8(fp)
   20754:	10bfffc4 	addi	r2,r2,-1
   20758:	e0bffb15 	stw	r2,-20(fp)
   2075c:	00002406 	br	207f0 <OC_I2C_Write+0x1b0>
        //set the txr reg data with the data
          if (!Write32_Data( i2c_base, 3,*(pData+i))){
   20760:	e0bffb17 	ldw	r2,-20(fp)
   20764:	e0ffff17 	ldw	r3,-4(fp)
   20768:	1885883a 	add	r2,r3,r2
   2076c:	10800003 	ldbu	r2,0(r2)
   20770:	10803fcc 	andi	r2,r2,255
   20774:	e13ffc17 	ldw	r4,-16(fp)
   20778:	014000c4 	movi	r5,3
   2077c:	100d883a 	mov	r6,r2
   20780:	002028c0 	call	2028c <Write32_Data>
   20784:	1000051e 	bne	r2,zero,2079c <OC_I2C_Write+0x15c>
              printf("OC_I2C_Write error[6]\r\n");
   20788:	010000f4 	movhi	r4,3
   2078c:	21052404 	addi	r4,r4,5264
   20790:	0022f900 	call	22f90 <puts>
              return FALSE;
   20794:	0005883a 	mov	r2,zero
   20798:	00002406 	br	2082c <OC_I2C_Write+0x1ec>
          }

        //set STO and WR bits(bit7 and bit4)
         if (!Write32_Data( i2c_base, 4,0x10)){
   2079c:	e13ffc17 	ldw	r4,-16(fp)
   207a0:	01400104 	movi	r5,4
   207a4:	01800404 	movi	r6,16
   207a8:	002028c0 	call	2028c <Write32_Data>
   207ac:	1000051e 	bne	r2,zero,207c4 <OC_I2C_Write+0x184>
             printf("OC_I2C_Write error[7]\r\n");
   207b0:	010000f4 	movhi	r4,3
   207b4:	21052a04 	addi	r4,r4,5288
   207b8:	0022f900 	call	22f90 <puts>
              return FALSE;
   207bc:	0005883a 	mov	r2,zero
   207c0:	00001a06 	br	2082c <OC_I2C_Write+0x1ec>
         }

         //wait TIP bit go to 0 to end Tx
          if(!ACK_check( i2c_base)){
   207c4:	e13ffc17 	ldw	r4,-16(fp)
   207c8:	00205e00 	call	205e0 <ACK_check>
   207cc:	1000051e 	bne	r2,zero,207e4 <OC_I2C_Write+0x1a4>
              printf("OC_I2C_Write error[8]\r\n");
   207d0:	010000f4 	movhi	r4,3
   207d4:	21053004 	addi	r4,r4,5312
   207d8:	0022f900 	call	22f90 <puts>
              return FALSE;
   207dc:	0005883a 	mov	r2,zero
   207e0:	00001206 	br	2082c <OC_I2C_Write+0x1ec>
        return FALSE;
    }
 //  printf("\n receive ACK-reg address! \n");

#if 1
        for( i=nWriteLength-1;i>=0;i--){
   207e4:	e0bffb17 	ldw	r2,-20(fp)
   207e8:	10bfffc4 	addi	r2,r2,-1
   207ec:	e0bffb15 	stw	r2,-20(fp)
   207f0:	e0bffb17 	ldw	r2,-20(fp)
   207f4:	103fda0e 	bge	r2,zero,20760 <_gp+0xfffe48ec>
   //wait TIP bit go to 0 to end Tx
    if(!ACK_check( i2c_base))
        return false;
#endif

     if (!Write32_Data( i2c_base, 4,0x40)){
   207f8:	e13ffc17 	ldw	r4,-16(fp)
   207fc:	01400104 	movi	r5,4
   20800:	01801004 	movi	r6,64
   20804:	002028c0 	call	2028c <Write32_Data>
   20808:	1000051e 	bne	r2,zero,20820 <OC_I2C_Write+0x1e0>
         printf("OC_I2C_Write error[9]\r\n");
   2080c:	010000f4 	movhi	r4,3
   20810:	21053604 	addi	r4,r4,5336
   20814:	0022f900 	call	22f90 <puts>
         return FALSE;
   20818:	0005883a 	mov	r2,zero
   2081c:	00000306 	br	2082c <OC_I2C_Write+0x1ec>
     }
         //Sleep(10);
     //OS_msleep(1);
     usleep(SLEEP_TIME);
   20820:	01003e84 	movi	r4,250
   20824:	002f3ac0 	call	2f3ac <usleep>

  // printf("\n receive ACK-data! \n");

     return TRUE;
   20828:	00800044 	movi	r2,1

}
   2082c:	e037883a 	mov	sp,fp
   20830:	dfc00117 	ldw	ra,4(sp)
   20834:	df000017 	ldw	fp,0(sp)
   20838:	dec00204 	addi	sp,sp,8
   2083c:	f800283a 	ret

00020840 <ACK_judge_for_read>:


bool ACK_judge_for_read(alt_32 i2c_base)
{
   20840:	defffb04 	addi	sp,sp,-20
   20844:	dfc00415 	stw	ra,16(sp)
   20848:	df000315 	stw	fp,12(sp)
   2084c:	df000304 	addi	fp,sp,12
   20850:	e13fff15 	stw	r4,-4(fp)
	bool bSuccess;
    alt_32 this_data;

   // OS_msleep( SLEEP_TIME );
     usleep(ACK_SLEEP_TIME);
   20854:	01003e84 	movi	r4,250
   20858:	002f3ac0 	call	2f3ac <usleep>
    //   while(this_data & 0x02)
//   {
//      this_data =  Read32_Data ( hPCIe, i2c_base, 4);
//   }
    bSuccess =  Read32_Data ( i2c_base, 4, &this_data);
   2085c:	e0bffe04 	addi	r2,fp,-8
   20860:	e13fff17 	ldw	r4,-4(fp)
   20864:	01400104 	movi	r5,4
   20868:	100d883a 	mov	r6,r2
   2086c:	00202e40 	call	202e4 <Read32_Data>
   20870:	e0bffd15 	stw	r2,-12(fp)
    if (bSuccess){
   20874:	e0bffd17 	ldw	r2,-12(fp)
   20878:	10000426 	beq	r2,zero,2088c <ACK_judge_for_read+0x4c>
        if(this_data & 0x02)
   2087c:	e0bffe17 	ldw	r2,-8(fp)
   20880:	1080008c 	andi	r2,r2,2
   20884:	10000126 	beq	r2,zero,2088c <ACK_judge_for_read+0x4c>
            bSuccess = FALSE;
   20888:	e03ffd15 	stw	zero,-12(fp)
    }
   //wait the rx ACK signal 0-valid

    return bSuccess;
   2088c:	e0bffd17 	ldw	r2,-12(fp)

}
   20890:	e037883a 	mov	sp,fp
   20894:	dfc00117 	ldw	ra,4(sp)
   20898:	df000017 	ldw	fp,0(sp)
   2089c:	dec00204 	addi	sp,sp,8
   208a0:	f800283a 	ret

000208a4 <OC_I2C_Read>:

bool  OC_I2C_Read(alt_32 i2c_base,alt_u8 device_address,alt_u8 sub_address, alt_u8 *pData8, int nReadLength){
   208a4:	defff804 	addi	sp,sp,-32
   208a8:	dfc00715 	stw	ra,28(sp)
   208ac:	df000615 	stw	fp,24(sp)
   208b0:	df000604 	addi	fp,sp,24
   208b4:	e13ffc15 	stw	r4,-16(fp)
   208b8:	2807883a 	mov	r3,r5
   208bc:	3005883a 	mov	r2,r6
   208c0:	e1ffff15 	stw	r7,-4(fp)
   208c4:	e0fffd05 	stb	r3,-12(fp)
   208c8:	e0bffe05 	stb	r2,-8(fp)
    //BYTE data = 0x0;
    alt_32 Data32;
    int i;

   //set the tx reg audio chip dev address with write bit
   IOWR( i2c_base, 3,device_address);
   208cc:	e0bffc17 	ldw	r2,-16(fp)
   208d0:	10800304 	addi	r2,r2,12
   208d4:	1007883a 	mov	r3,r2
   208d8:	e0bffd03 	ldbu	r2,-12(fp)
   208dc:	18800035 	stwio	r2,0(r3)
   //set STA and WR bits(bit7 and bit4)
   IOWR( i2c_base, 4,0x90);
   208e0:	e0bffc17 	ldw	r2,-16(fp)
   208e4:	10800404 	addi	r2,r2,16
   208e8:	1007883a 	mov	r3,r2
   208ec:	00802404 	movi	r2,144
   208f0:	18800035 	stwio	r2,0(r3)
   //wait TIP bit go to 0 to end Tx
   if (!ACK_check( i2c_base)){
   208f4:	e13ffc17 	ldw	r4,-16(fp)
   208f8:	00205e00 	call	205e0 <ACK_check>
   208fc:	1000051e 	bne	r2,zero,20914 <OC_I2C_Read+0x70>
       printf("OC_I2C_Read error[2]\r\n");
   20900:	010000f4 	movhi	r4,3
   20904:	21053c04 	addi	r4,r4,5360
   20908:	0022f900 	call	22f90 <puts>
       return FALSE;
   2090c:	0005883a 	mov	r2,zero
   20910:	00005206 	br	20a5c <OC_I2C_Read+0x1b8>
   }
   IOWR(i2c_base, 3,sub_address);
   20914:	e0bffc17 	ldw	r2,-16(fp)
   20918:	10800304 	addi	r2,r2,12
   2091c:	1007883a 	mov	r3,r2
   20920:	e0bffe03 	ldbu	r2,-8(fp)
   20924:	18800035 	stwio	r2,0(r3)

   //set WR bits(bit4)
   IOWR( i2c_base, 4,0x10);
   20928:	e0bffc17 	ldw	r2,-16(fp)
   2092c:	10800404 	addi	r2,r2,16
   20930:	1007883a 	mov	r3,r2
   20934:	00800404 	movi	r2,16
   20938:	18800035 	stwio	r2,0(r3)
   //wait TIP bit go to 0 to end Tx
    if (!ACK_check( i2c_base)){
   2093c:	e13ffc17 	ldw	r4,-16(fp)
   20940:	00205e00 	call	205e0 <ACK_check>
   20944:	1000051e 	bne	r2,zero,2095c <OC_I2C_Read+0xb8>
        printf("OC_I2C_Read error[5]\r\n");
   20948:	010000f4 	movhi	r4,3
   2094c:	21054204 	addi	r4,r4,5384
   20950:	0022f900 	call	22f90 <puts>
        return FALSE;
   20954:	0005883a 	mov	r2,zero
   20958:	00004006 	br	20a5c <OC_I2C_Read+0x1b8>
  // printf("\n read receive ACK-reg address! \n");

   //read
    //set the tx reg audio chip dev address with read bit 1

    IOWR(i2c_base, 3,device_address|0x01);
   2095c:	e0bffc17 	ldw	r2,-16(fp)
   20960:	10800304 	addi	r2,r2,12
   20964:	1007883a 	mov	r3,r2
   20968:	e0bffd03 	ldbu	r2,-12(fp)
   2096c:	10800054 	ori	r2,r2,1
   20970:	10803fcc 	andi	r2,r2,255
   20974:	18800035 	stwio	r2,0(r3)

   //set STA and WR bits(bit7 and bit4)
    IOWR( i2c_base, 4,0x90);
   20978:	e0bffc17 	ldw	r2,-16(fp)
   2097c:	10800404 	addi	r2,r2,16
   20980:	1007883a 	mov	r3,r2
   20984:	00802404 	movi	r2,144
   20988:	18800035 	stwio	r2,0(r3)

   //wait TIP bit go to 0 to end Tx
    if (!ACK_check( i2c_base)){
   2098c:	e13ffc17 	ldw	r4,-16(fp)
   20990:	00205e00 	call	205e0 <ACK_check>
   20994:	1000051e 	bne	r2,zero,209ac <OC_I2C_Read+0x108>
        printf("OC_I2C_Read error[8]\r\n");
   20998:	010000f4 	movhi	r4,3
   2099c:	21054804 	addi	r4,r4,5408
   209a0:	0022f900 	call	22f90 <puts>
        return FALSE;
   209a4:	0005883a 	mov	r2,zero
   209a8:	00002c06 	br	20a5c <OC_I2C_Read+0x1b8>
    }

    for(i=0;i<nReadLength;i++){
   209ac:	e03ffa15 	stw	zero,-24(fp)
   209b0:	00001f06 	br	20a30 <OC_I2C_Read+0x18c>
  // printf("\n read receive ACK-device address(read)! \n");
   //set the RD and ACK bit(bit5 and bit3)
    	IOWR( i2c_base, 4,((i+1) == nReadLength)?0x28:0x20);
   209b4:	e0bffc17 	ldw	r2,-16(fp)
   209b8:	10800404 	addi	r2,r2,16
   209bc:	1009883a 	mov	r4,r2
   209c0:	e0bffa17 	ldw	r2,-24(fp)
   209c4:	10c00044 	addi	r3,r2,1
   209c8:	e0800217 	ldw	r2,8(fp)
   209cc:	1880021e 	bne	r3,r2,209d8 <OC_I2C_Read+0x134>
   209d0:	00800a04 	movi	r2,40
   209d4:	00000106 	br	209dc <OC_I2C_Read+0x138>
   209d8:	00800804 	movi	r2,32
   209dc:	20800035 	stwio	r2,0(r4)

        if (!ACK_judge_for_read( i2c_base)){
   209e0:	e13ffc17 	ldw	r4,-16(fp)
   209e4:	00208400 	call	20840 <ACK_judge_for_read>
   209e8:	1000051e 	bne	r2,zero,20a00 <OC_I2C_Read+0x15c>
            printf("OC_I2C_Read error[10]\r\n");
   209ec:	010000f4 	movhi	r4,3
   209f0:	21054e04 	addi	r4,r4,5432
   209f4:	0022f900 	call	22f90 <puts>
            return FALSE;
   209f8:	0005883a 	mov	r2,zero
   209fc:	00001706 	br	20a5c <OC_I2C_Read+0x1b8>
        }
   // printf("\n read receive ACK-device address(read)! \n");

        Data32=IORD( i2c_base, 3);
   20a00:	e0bffc17 	ldw	r2,-16(fp)
   20a04:	10800304 	addi	r2,r2,12
   20a08:	10800037 	ldwio	r2,0(r2)
   20a0c:	e0bffb15 	stw	r2,-20(fp)
        *(pData8+i) =  Data32 & 0xff;
   20a10:	e0bffa17 	ldw	r2,-24(fp)
   20a14:	e0ffff17 	ldw	r3,-4(fp)
   20a18:	1885883a 	add	r2,r3,r2
   20a1c:	e0fffb17 	ldw	r3,-20(fp)
   20a20:	10c00005 	stb	r3,0(r2)
    if (!ACK_check( i2c_base)){
        printf("OC_I2C_Read error[8]\r\n");
        return FALSE;
    }

    for(i=0;i<nReadLength;i++){
   20a24:	e0bffa17 	ldw	r2,-24(fp)
   20a28:	10800044 	addi	r2,r2,1
   20a2c:	e0bffa15 	stw	r2,-24(fp)
   20a30:	e0fffa17 	ldw	r3,-24(fp)
   20a34:	e0800217 	ldw	r2,8(fp)
   20a38:	18bfde16 	blt	r3,r2,209b4 <_gp+0xfffe4b40>

        Data32=IORD( i2c_base, 3);
        *(pData8+i) =  Data32 & 0xff;
    }

    IOWR( i2c_base, 4,0x40);
   20a3c:	e0bffc17 	ldw	r2,-16(fp)
   20a40:	10800404 	addi	r2,r2,16
   20a44:	1007883a 	mov	r3,r2
   20a48:	00801004 	movi	r2,64
   20a4c:	18800035 	stwio	r2,0(r3)

  // Sleep(10);
   //OS_msleep(1);
    usleep(SLEEP_TIME);
   20a50:	01003e84 	movi	r4,250
   20a54:	002f3ac0 	call	2f3ac <usleep>
 //  printf(" Read  [%02X] = %02Xh\r\n", sub_address, data);


   return TRUE;
   20a58:	00800044 	movi	r2,1

}
   20a5c:	e037883a 	mov	sp,fp
   20a60:	dfc00117 	ldw	ra,4(sp)
   20a64:	df000017 	ldw	fp,0(sp)
   20a68:	dec00204 	addi	sp,sp,8
   20a6c:	f800283a 	ret

00020a70 <OC_I2C_Read_Continue>:


bool  OC_I2C_Read_Continue(alt_32 i2c_base,alt_u8 device_address, alt_u8 *pData8, int nReadLength){
   20a70:	defff804 	addi	sp,sp,-32
   20a74:	dfc00715 	stw	ra,28(sp)
   20a78:	df000615 	stw	fp,24(sp)
   20a7c:	df000604 	addi	fp,sp,24
   20a80:	e13ffc15 	stw	r4,-16(fp)
   20a84:	2805883a 	mov	r2,r5
   20a88:	e1bffe15 	stw	r6,-8(fp)
   20a8c:	e1ffff15 	stw	r7,-4(fp)
   20a90:	e0bffd05 	stb	r2,-12(fp)
	int i;
	alt_u32 Data32;

    IOWR(i2c_base, 3,device_address|0x01);
   20a94:	e0bffc17 	ldw	r2,-16(fp)
   20a98:	10800304 	addi	r2,r2,12
   20a9c:	1007883a 	mov	r3,r2
   20aa0:	e0bffd03 	ldbu	r2,-12(fp)
   20aa4:	10800054 	ori	r2,r2,1
   20aa8:	10803fcc 	andi	r2,r2,255
   20aac:	18800035 	stwio	r2,0(r3)

   //set STA and WR bits(bit7 and bit4)
    IOWR( i2c_base, 4,0x90);
   20ab0:	e0bffc17 	ldw	r2,-16(fp)
   20ab4:	10800404 	addi	r2,r2,16
   20ab8:	1007883a 	mov	r3,r2
   20abc:	00802404 	movi	r2,144
   20ac0:	18800035 	stwio	r2,0(r3)
//usleep(5*1000);
   //wait TIP bit go to 0 to end Tx
    if (!ACK_check( i2c_base)){
   20ac4:	e13ffc17 	ldw	r4,-16(fp)
   20ac8:	00205e00 	call	205e0 <ACK_check>
   20acc:	1000051e 	bne	r2,zero,20ae4 <OC_I2C_Read_Continue+0x74>
        printf("OC_I2C_Read error[8]\r\n");
   20ad0:	010000f4 	movhi	r4,3
   20ad4:	21054804 	addi	r4,r4,5408
   20ad8:	0022f900 	call	22f90 <puts>
        return FALSE;
   20adc:	0005883a 	mov	r2,zero
   20ae0:	00002c06 	br	20b94 <OC_I2C_Read_Continue+0x124>
    }

    for(i=0;i<nReadLength;i++){
   20ae4:	e03ffa15 	stw	zero,-24(fp)
   20ae8:	00001f06 	br	20b68 <OC_I2C_Read_Continue+0xf8>
  // printf("\n read receive ACK-device address(read)! \n");
   //set the RD and ACK bit(bit5 and bit3)
    	IOWR( i2c_base, 4,((i+1) == nReadLength)?0x28:0x20);
   20aec:	e0bffc17 	ldw	r2,-16(fp)
   20af0:	10800404 	addi	r2,r2,16
   20af4:	1009883a 	mov	r4,r2
   20af8:	e0bffa17 	ldw	r2,-24(fp)
   20afc:	10c00044 	addi	r3,r2,1
   20b00:	e0bfff17 	ldw	r2,-4(fp)
   20b04:	1880021e 	bne	r3,r2,20b10 <OC_I2C_Read_Continue+0xa0>
   20b08:	00800a04 	movi	r2,40
   20b0c:	00000106 	br	20b14 <OC_I2C_Read_Continue+0xa4>
   20b10:	00800804 	movi	r2,32
   20b14:	20800035 	stwio	r2,0(r4)

        if (!ACK_judge_for_read( i2c_base)){
   20b18:	e13ffc17 	ldw	r4,-16(fp)
   20b1c:	00208400 	call	20840 <ACK_judge_for_read>
   20b20:	1000051e 	bne	r2,zero,20b38 <OC_I2C_Read_Continue+0xc8>
            printf("OC_I2C_Read error[10]\r\n");
   20b24:	010000f4 	movhi	r4,3
   20b28:	21054e04 	addi	r4,r4,5432
   20b2c:	0022f900 	call	22f90 <puts>
            return FALSE;
   20b30:	0005883a 	mov	r2,zero
   20b34:	00001706 	br	20b94 <OC_I2C_Read_Continue+0x124>
        }
   // printf("\n read receive ACK-device address(read)! \n");

        Data32=IORD( i2c_base, 3);
   20b38:	e0bffc17 	ldw	r2,-16(fp)
   20b3c:	10800304 	addi	r2,r2,12
   20b40:	10800037 	ldwio	r2,0(r2)
   20b44:	e0bffb15 	stw	r2,-20(fp)
        *(pData8+i) =  Data32 & 0xff;
   20b48:	e0bffa17 	ldw	r2,-24(fp)
   20b4c:	e0fffe17 	ldw	r3,-8(fp)
   20b50:	1885883a 	add	r2,r3,r2
   20b54:	e0fffb17 	ldw	r3,-20(fp)
   20b58:	10c00005 	stb	r3,0(r2)
    if (!ACK_check( i2c_base)){
        printf("OC_I2C_Read error[8]\r\n");
        return FALSE;
    }

    for(i=0;i<nReadLength;i++){
   20b5c:	e0bffa17 	ldw	r2,-24(fp)
   20b60:	10800044 	addi	r2,r2,1
   20b64:	e0bffa15 	stw	r2,-24(fp)
   20b68:	e0fffa17 	ldw	r3,-24(fp)
   20b6c:	e0bfff17 	ldw	r2,-4(fp)
   20b70:	18bfde16 	blt	r3,r2,20aec <_gp+0xfffe4c78>

        Data32=IORD( i2c_base, 3);
        *(pData8+i) =  Data32 & 0xff;
    }

    IOWR( i2c_base, 4,0x40);
   20b74:	e0bffc17 	ldw	r2,-16(fp)
   20b78:	10800404 	addi	r2,r2,16
   20b7c:	1007883a 	mov	r3,r2
   20b80:	00801004 	movi	r2,64
   20b84:	18800035 	stwio	r2,0(r3)

  // Sleep(10);
   //OS_msleep(1);
    usleep(SLEEP_TIME);
   20b88:	01003e84 	movi	r4,250
   20b8c:	002f3ac0 	call	2f3ac <usleep>
 //  printf(" Read  [%02X] = %02Xh\r\n", sub_address, data);


   return TRUE;
   20b90:	00800044 	movi	r2,1

}
   20b94:	e037883a 	mov	sp,fp
   20b98:	dfc00117 	ldw	ra,4(sp)
   20b9c:	df000017 	ldw	fp,0(sp)
   20ba0:	dec00204 	addi	sp,sp,8
   20ba4:	f800283a 	ret

00020ba8 <OC_I2CL_Write>:


//  size > 2Kb
bool  OC_I2CL_Write(alt_32 i2c_base,alt_u8 device_address,alt_u16 sub_address,alt_u8 *pData, int nWriteLength)
    {
   20ba8:	defff804 	addi	sp,sp,-32
   20bac:	dfc00715 	stw	ra,28(sp)
   20bb0:	df000615 	stw	fp,24(sp)
   20bb4:	df000604 	addi	fp,sp,24
   20bb8:	e13ffc15 	stw	r4,-16(fp)
   20bbc:	2807883a 	mov	r3,r5
   20bc0:	3005883a 	mov	r2,r6
   20bc4:	e1ffff15 	stw	r7,-4(fp)
   20bc8:	e0fffd05 	stb	r3,-12(fp)
   20bcc:	e0bffe0d 	sth	r2,-8(fp)
    //DWORD reg_data = 0x0;
	alt_u8 AddrHigh, AddrLow;
    //int count= 0;

    AddrHigh = (sub_address >> 8) & 0xFF;
   20bd0:	e0bffe0b 	ldhu	r2,-8(fp)
   20bd4:	1004d23a 	srli	r2,r2,8
   20bd8:	e0bffb05 	stb	r2,-20(fp)
    AddrLow  = sub_address & 0xFF;
   20bdc:	e0bffe0b 	ldhu	r2,-8(fp)
   20be0:	e0bffb45 	stb	r2,-19(fp)

    int i;

    //set the tx reg audio chip dev address with write bit
   if (!Write32_Data( i2c_base, 3,device_address))
   20be4:	e0bffd03 	ldbu	r2,-12(fp)
   20be8:	e13ffc17 	ldw	r4,-16(fp)
   20bec:	014000c4 	movi	r5,3
   20bf0:	100d883a 	mov	r6,r2
   20bf4:	002028c0 	call	2028c <Write32_Data>
   20bf8:	1000021e 	bne	r2,zero,20c04 <OC_I2CL_Write+0x5c>
       return FALSE;
   20bfc:	0005883a 	mov	r2,zero
   20c00:	00006806 	br	20da4 <OC_I2CL_Write+0x1fc>
   //set STA and WR bits(bit7 and bit4)
   if (!Write32_Data( i2c_base, 4,0x90))//0x90
   20c04:	e13ffc17 	ldw	r4,-16(fp)
   20c08:	01400104 	movi	r5,4
   20c0c:	01802404 	movi	r6,144
   20c10:	002028c0 	call	2028c <Write32_Data>
   20c14:	1000021e 	bne	r2,zero,20c20 <OC_I2CL_Write+0x78>
       return FALSE;
   20c18:	0005883a 	mov	r2,zero
   20c1c:	00006106 	br	20da4 <OC_I2CL_Write+0x1fc>

   //wait TIP bit go to 0 to end Tx
    if(!ACK_check( i2c_base)){
   20c20:	e13ffc17 	ldw	r4,-16(fp)
   20c24:	00205e00 	call	205e0 <ACK_check>
   20c28:	1000051e 	bne	r2,zero,20c40 <OC_I2CL_Write+0x98>
        printf("OC_I2CL_Write error[0]\r\n");
   20c2c:	010000f4 	movhi	r4,3
   20c30:	21055404 	addi	r4,r4,5456
   20c34:	0022f900 	call	22f90 <puts>
        return FALSE;
   20c38:	0005883a 	mov	r2,zero
   20c3c:	00005906 	br	20da4 <OC_I2CL_Write+0x1fc>
  // printf("\n receive ACK-device address! \n");

   //set the txr reg data with reg address + 1 data MSB
 //  reg_data  = (sub_address << 1) & 0xFE;
   //reg_data |= ((data >> 8) & 0x01);
   if (!Write32_Data( i2c_base, 3,AddrHigh))//reg_data&0xff);
   20c40:	e0bffb03 	ldbu	r2,-20(fp)
   20c44:	e13ffc17 	ldw	r4,-16(fp)
   20c48:	014000c4 	movi	r5,3
   20c4c:	100d883a 	mov	r6,r2
   20c50:	002028c0 	call	2028c <Write32_Data>
   20c54:	1000021e 	bne	r2,zero,20c60 <OC_I2CL_Write+0xb8>
       return FALSE;
   20c58:	0005883a 	mov	r2,zero
   20c5c:	00005106 	br	20da4 <OC_I2CL_Write+0x1fc>

   //set WR bits(bit4)
    if (!Write32_Data( i2c_base, 4,0x10))
   20c60:	e13ffc17 	ldw	r4,-16(fp)
   20c64:	01400104 	movi	r5,4
   20c68:	01800404 	movi	r6,16
   20c6c:	002028c0 	call	2028c <Write32_Data>
   20c70:	1000021e 	bne	r2,zero,20c7c <OC_I2CL_Write+0xd4>
        return FALSE;
   20c74:	0005883a 	mov	r2,zero
   20c78:	00004a06 	br	20da4 <OC_I2CL_Write+0x1fc>

   //wait TIP bit go to 0 to end Tx
    if(!ACK_check( i2c_base)){
   20c7c:	e13ffc17 	ldw	r4,-16(fp)
   20c80:	00205e00 	call	205e0 <ACK_check>
   20c84:	1000051e 	bne	r2,zero,20c9c <OC_I2CL_Write+0xf4>
        printf("OC_I2CL_Write error[1]\r\n");
   20c88:	010000f4 	movhi	r4,3
   20c8c:	21055a04 	addi	r4,r4,5480
   20c90:	0022f900 	call	22f90 <puts>
        return FALSE;
   20c94:	0005883a 	mov	r2,zero
   20c98:	00004206 	br	20da4 <OC_I2CL_Write+0x1fc>
    }
  // printf("\n receive ACK-reg high address! \n");

   //set the txr reg data with reg address + 1 data MSB
   if (!Write32_Data( i2c_base, 3,AddrLow))//reg_data&0xff);
   20c9c:	e0bffb43 	ldbu	r2,-19(fp)
   20ca0:	e13ffc17 	ldw	r4,-16(fp)
   20ca4:	014000c4 	movi	r5,3
   20ca8:	100d883a 	mov	r6,r2
   20cac:	002028c0 	call	2028c <Write32_Data>
   20cb0:	1000021e 	bne	r2,zero,20cbc <OC_I2CL_Write+0x114>
       return FALSE;
   20cb4:	0005883a 	mov	r2,zero
   20cb8:	00003a06 	br	20da4 <OC_I2CL_Write+0x1fc>

   //set WR bits(bit4)
    Write32_Data( i2c_base, 4,0x10);
   20cbc:	e13ffc17 	ldw	r4,-16(fp)
   20cc0:	01400104 	movi	r5,4
   20cc4:	01800404 	movi	r6,16
   20cc8:	002028c0 	call	2028c <Write32_Data>

   //wait TIP bit go to 0 to end Tx
    if(!ACK_check( i2c_base)){
   20ccc:	e13ffc17 	ldw	r4,-16(fp)
   20cd0:	00205e00 	call	205e0 <ACK_check>
   20cd4:	1000051e 	bne	r2,zero,20cec <OC_I2CL_Write+0x144>
        printf("OC_I2CL_Write error[2]\r\n");
   20cd8:	010000f4 	movhi	r4,3
   20cdc:	21056004 	addi	r4,r4,5504
   20ce0:	0022f900 	call	22f90 <puts>
        return FALSE;
   20ce4:	0005883a 	mov	r2,zero
   20ce8:	00002e06 	br	20da4 <OC_I2CL_Write+0x1fc>
    }
  //  printf("\n receive ACK-reg low address! \n");

#if 1
    for( i=nWriteLength-1;i>=0;i--){
   20cec:	e0800217 	ldw	r2,8(fp)
   20cf0:	10bfffc4 	addi	r2,r2,-1
   20cf4:	e0bffa15 	stw	r2,-24(fp)
   20cf8:	00001e06 	br	20d74 <OC_I2CL_Write+0x1cc>
        //set the txr reg data with the other data 8 bit LSB
        if (!Write32_Data( i2c_base, 3,*(pData+i)))
   20cfc:	e0bffa17 	ldw	r2,-24(fp)
   20d00:	e0ffff17 	ldw	r3,-4(fp)
   20d04:	1885883a 	add	r2,r3,r2
   20d08:	10800003 	ldbu	r2,0(r2)
   20d0c:	10803fcc 	andi	r2,r2,255
   20d10:	e13ffc17 	ldw	r4,-16(fp)
   20d14:	014000c4 	movi	r5,3
   20d18:	100d883a 	mov	r6,r2
   20d1c:	002028c0 	call	2028c <Write32_Data>
   20d20:	1000021e 	bne	r2,zero,20d2c <OC_I2CL_Write+0x184>
            return FALSE;
   20d24:	0005883a 	mov	r2,zero
   20d28:	00001e06 	br	20da4 <OC_I2CL_Write+0x1fc>

       //set STO and WR bits(bit7 and bit4)
        if (!Write32_Data( i2c_base, 4,0x10))
   20d2c:	e13ffc17 	ldw	r4,-16(fp)
   20d30:	01400104 	movi	r5,4
   20d34:	01800404 	movi	r6,16
   20d38:	002028c0 	call	2028c <Write32_Data>
   20d3c:	1000021e 	bne	r2,zero,20d48 <OC_I2CL_Write+0x1a0>
            return FALSE;
   20d40:	0005883a 	mov	r2,zero
   20d44:	00001706 	br	20da4 <OC_I2CL_Write+0x1fc>

        //wait TIP bit go to 0 to end Tx
         if(!ACK_check( i2c_base)){
   20d48:	e13ffc17 	ldw	r4,-16(fp)
   20d4c:	00205e00 	call	205e0 <ACK_check>
   20d50:	1000051e 	bne	r2,zero,20d68 <OC_I2CL_Write+0x1c0>
             printf("OC_I2CL_Write error[3]\r\n");
   20d54:	010000f4 	movhi	r4,3
   20d58:	21056604 	addi	r4,r4,5528
   20d5c:	0022f900 	call	22f90 <puts>
             return FALSE;
   20d60:	0005883a 	mov	r2,zero
   20d64:	00000f06 	br	20da4 <OC_I2CL_Write+0x1fc>
        return FALSE;
    }
  //  printf("\n receive ACK-reg low address! \n");

#if 1
    for( i=nWriteLength-1;i>=0;i--){
   20d68:	e0bffa17 	ldw	r2,-24(fp)
   20d6c:	10bfffc4 	addi	r2,r2,-1
   20d70:	e0bffa15 	stw	r2,-24(fp)
   20d74:	e0bffa17 	ldw	r2,-24(fp)
   20d78:	103fe00e 	bge	r2,zero,20cfc <_gp+0xfffe4e88>
   //wait TIP bit go to 0 to end Tx
    if(!ACK_check( i2c_base))
        return FALSE;

#endif
    if (!Write32_Data( i2c_base, 4,0x40))
   20d7c:	e13ffc17 	ldw	r4,-16(fp)
   20d80:	01400104 	movi	r5,4
   20d84:	01801004 	movi	r6,64
   20d88:	002028c0 	call	2028c <Write32_Data>
   20d8c:	1000021e 	bne	r2,zero,20d98 <OC_I2CL_Write+0x1f0>
         return FALSE;
   20d90:	0005883a 	mov	r2,zero
   20d94:	00000306 	br	20da4 <OC_I2CL_Write+0x1fc>

     //OS_msleep(1);
      usleep(SLEEP_TIME);
   20d98:	01003e84 	movi	r4,250
   20d9c:	002f3ac0 	call	2f3ac <usleep>
  //  printf("\n receive ACK-data! \n");

     return TRUE;
   20da0:	00800044 	movi	r2,1
}
   20da4:	e037883a 	mov	sp,fp
   20da8:	dfc00117 	ldw	ra,4(sp)
   20dac:	df000017 	ldw	fp,0(sp)
   20db0:	dec00204 	addi	sp,sp,8
   20db4:	f800283a 	ret

00020db8 <OC_I2CL_Read>:

   return TRUE;

} */

bool  OC_I2CL_Read(alt_32 i2c_base,alt_u8 device_address, alt_u16 sub_address, alt_u8 *pData8, int nReadLength){
   20db8:	defff704 	addi	sp,sp,-36
   20dbc:	dfc00815 	stw	ra,32(sp)
   20dc0:	df000715 	stw	fp,28(sp)
   20dc4:	df000704 	addi	fp,sp,28
   20dc8:	e13ffc15 	stw	r4,-16(fp)
   20dcc:	2807883a 	mov	r3,r5
   20dd0:	3005883a 	mov	r2,r6
   20dd4:	e1ffff15 	stw	r7,-4(fp)
   20dd8:	e0fffd05 	stb	r3,-12(fp)
   20ddc:	e0bffe0d 	sth	r2,-8(fp)
    int i;

    alt_u8 AddrHigh, AddrLow;
    alt_u8 DataHigh, DataLow;

    AddrHigh = (sub_address >> 8) & 0xFF;
   20de0:	e0bffe0b 	ldhu	r2,-8(fp)
   20de4:	1004d23a 	srli	r2,r2,8
   20de8:	e0bffa05 	stb	r2,-24(fp)
    AddrLow  = sub_address & 0xFF;
   20dec:	e0bffe0b 	ldhu	r2,-8(fp)
   20df0:	e0bffa45 	stb	r2,-23(fp)


   //set the tx reg audio chip dev address with write bit
   if (!Write32_Data( i2c_base, 3,device_address))
   20df4:	e0bffd03 	ldbu	r2,-12(fp)
   20df8:	e13ffc17 	ldw	r4,-16(fp)
   20dfc:	014000c4 	movi	r5,3
   20e00:	100d883a 	mov	r6,r2
   20e04:	002028c0 	call	2028c <Write32_Data>
   20e08:	1000021e 	bne	r2,zero,20e14 <OC_I2CL_Read+0x5c>
       return FALSE;
   20e0c:	0005883a 	mov	r2,zero
   20e10:	00008406 	br	21024 <OC_I2CL_Read+0x26c>

   //set STA and WR bits(bit7 and bit4)
   if (!Write32_Data( i2c_base, 4,0x90))
   20e14:	e13ffc17 	ldw	r4,-16(fp)
   20e18:	01400104 	movi	r5,4
   20e1c:	01802404 	movi	r6,144
   20e20:	002028c0 	call	2028c <Write32_Data>
   20e24:	1000021e 	bne	r2,zero,20e30 <OC_I2CL_Read+0x78>
       return FALSE;
   20e28:	0005883a 	mov	r2,zero
   20e2c:	00007d06 	br	21024 <OC_I2CL_Read+0x26c>

   //wait TIP bit go to 0 to end Tx
    if(!ACK_check( i2c_base)){
   20e30:	e13ffc17 	ldw	r4,-16(fp)
   20e34:	00205e00 	call	205e0 <ACK_check>
   20e38:	1000051e 	bne	r2,zero,20e50 <OC_I2CL_Read+0x98>
        printf("OC_I2CL_Read error[0]\r\n");
   20e3c:	010000f4 	movhi	r4,3
   20e40:	21056c04 	addi	r4,r4,5552
   20e44:	0022f900 	call	22f90 <puts>
        return FALSE;
   20e48:	0005883a 	mov	r2,zero
   20e4c:	00007506 	br	21024 <OC_I2CL_Read+0x26c>
 //  printf("\n receive ACK-device address! \n");


   //set the txr reg data with reg address + 0

   if (!Write32_Data( i2c_base, 3,AddrHigh))//reg_data&0xff);
   20e50:	e0bffa03 	ldbu	r2,-24(fp)
   20e54:	e13ffc17 	ldw	r4,-16(fp)
   20e58:	014000c4 	movi	r5,3
   20e5c:	100d883a 	mov	r6,r2
   20e60:	002028c0 	call	2028c <Write32_Data>
   20e64:	1000021e 	bne	r2,zero,20e70 <OC_I2CL_Read+0xb8>
       return FALSE;
   20e68:	0005883a 	mov	r2,zero
   20e6c:	00006d06 	br	21024 <OC_I2CL_Read+0x26c>

   //set WR bits(bit4)
    if (!Write32_Data( i2c_base, 4,0x10))
   20e70:	e13ffc17 	ldw	r4,-16(fp)
   20e74:	01400104 	movi	r5,4
   20e78:	01800404 	movi	r6,16
   20e7c:	002028c0 	call	2028c <Write32_Data>
   20e80:	1000021e 	bne	r2,zero,20e8c <OC_I2CL_Read+0xd4>
        return FALSE;
   20e84:	0005883a 	mov	r2,zero
   20e88:	00006606 	br	21024 <OC_I2CL_Read+0x26c>

   //wait TIP bit go to 0 to end Tx
    if(!ACK_check( i2c_base)){
   20e8c:	e13ffc17 	ldw	r4,-16(fp)
   20e90:	00205e00 	call	205e0 <ACK_check>
   20e94:	1000051e 	bne	r2,zero,20eac <OC_I2CL_Read+0xf4>
        printf("OC_I2CL_Read error[1]\r\n");
   20e98:	010000f4 	movhi	r4,3
   20e9c:	21057204 	addi	r4,r4,5576
   20ea0:	0022f900 	call	22f90 <puts>
        return FALSE;
   20ea4:	0005883a 	mov	r2,zero
   20ea8:	00005e06 	br	21024 <OC_I2CL_Read+0x26c>
    }
//   printf("\n read receive ACK-reg High address! \n");

     //set the txr reg data with reg address + 0
   if (!Write32_Data( i2c_base, 3,AddrLow)) //;//reg_data&0xff);
   20eac:	e0bffa43 	ldbu	r2,-23(fp)
   20eb0:	e13ffc17 	ldw	r4,-16(fp)
   20eb4:	014000c4 	movi	r5,3
   20eb8:	100d883a 	mov	r6,r2
   20ebc:	002028c0 	call	2028c <Write32_Data>
   20ec0:	1000021e 	bne	r2,zero,20ecc <OC_I2CL_Read+0x114>
       return FALSE;
   20ec4:	0005883a 	mov	r2,zero
   20ec8:	00005606 	br	21024 <OC_I2CL_Read+0x26c>
   //set WR bits(bit4)
    if (!Write32_Data( i2c_base, 4,0x10))
   20ecc:	e13ffc17 	ldw	r4,-16(fp)
   20ed0:	01400104 	movi	r5,4
   20ed4:	01800404 	movi	r6,16
   20ed8:	002028c0 	call	2028c <Write32_Data>
   20edc:	1000021e 	bne	r2,zero,20ee8 <OC_I2CL_Read+0x130>
        return FALSE;
   20ee0:	0005883a 	mov	r2,zero
   20ee4:	00004f06 	br	21024 <OC_I2CL_Read+0x26c>

   //wait TIP bit go to 0 to end Tx
    if(!ACK_check( i2c_base)){
   20ee8:	e13ffc17 	ldw	r4,-16(fp)
   20eec:	00205e00 	call	205e0 <ACK_check>
   20ef0:	1000051e 	bne	r2,zero,20f08 <OC_I2CL_Read+0x150>
        printf("OC_I2CL_Read error[2]\r\n");
   20ef4:	010000f4 	movhi	r4,3
   20ef8:	21057804 	addi	r4,r4,5600
   20efc:	0022f900 	call	22f90 <puts>
        return FALSE;
   20f00:	0005883a 	mov	r2,zero
   20f04:	00004706 	br	21024 <OC_I2CL_Read+0x26c>

 //  printf("\n read receive ACK-reg Low address! \n");

   //read
    //set the tx reg audio chip dev address with read bit 1
     if (!Write32_Data( i2c_base, 3,device_address|0x01))
   20f08:	e0bffd03 	ldbu	r2,-12(fp)
   20f0c:	10800054 	ori	r2,r2,1
   20f10:	10803fcc 	andi	r2,r2,255
   20f14:	e13ffc17 	ldw	r4,-16(fp)
   20f18:	014000c4 	movi	r5,3
   20f1c:	100d883a 	mov	r6,r2
   20f20:	002028c0 	call	2028c <Write32_Data>
   20f24:	1000021e 	bne	r2,zero,20f30 <OC_I2CL_Read+0x178>
         return FALSE;
   20f28:	0005883a 	mov	r2,zero
   20f2c:	00003d06 	br	21024 <OC_I2CL_Read+0x26c>

   //set STA and WR bits(bit7 and bit4)
     if (!Write32_Data( i2c_base, 4,0x90))
   20f30:	e13ffc17 	ldw	r4,-16(fp)
   20f34:	01400104 	movi	r5,4
   20f38:	01802404 	movi	r6,144
   20f3c:	002028c0 	call	2028c <Write32_Data>
   20f40:	1000021e 	bne	r2,zero,20f4c <OC_I2CL_Read+0x194>
         return FALSE;
   20f44:	0005883a 	mov	r2,zero
   20f48:	00003606 	br	21024 <OC_I2CL_Read+0x26c>

   //wait TIP bit go to 0 to end Tx
    if(!ACK_check( i2c_base)){
   20f4c:	e13ffc17 	ldw	r4,-16(fp)
   20f50:	00205e00 	call	205e0 <ACK_check>
   20f54:	1000051e 	bne	r2,zero,20f6c <OC_I2CL_Read+0x1b4>
        printf("OC_I2CL_Read error[3]\r\n");
   20f58:	010000f4 	movhi	r4,3
   20f5c:	21057e04 	addi	r4,r4,5624
   20f60:	0022f900 	call	22f90 <puts>
        return FALSE;
   20f64:	0005883a 	mov	r2,zero
   20f68:	00002e06 	br	21024 <OC_I2CL_Read+0x26c>
//   printf("\n read receive ACK-device address(read)! \n");

       //read the rxr data

#if 1
    for(i=0;i<nReadLength;i++){
   20f6c:	e03ff915 	stw	zero,-28(fp)
   20f70:	00001f06 	br	20ff0 <OC_I2CL_Read+0x238>
  // printf("\n read receive ACK-device address(read)! \n");
   //set the RD and ACK bit(bit5 and bit3)
    	IOWR( i2c_base, 4,((i+1) == nReadLength)?0x28:0x20);
   20f74:	e0bffc17 	ldw	r2,-16(fp)
   20f78:	10800404 	addi	r2,r2,16
   20f7c:	1009883a 	mov	r4,r2
   20f80:	e0bff917 	ldw	r2,-28(fp)
   20f84:	10c00044 	addi	r3,r2,1
   20f88:	e0800217 	ldw	r2,8(fp)
   20f8c:	1880021e 	bne	r3,r2,20f98 <OC_I2CL_Read+0x1e0>
   20f90:	00800a04 	movi	r2,40
   20f94:	00000106 	br	20f9c <OC_I2CL_Read+0x1e4>
   20f98:	00800804 	movi	r2,32
   20f9c:	20800035 	stwio	r2,0(r4)

        if (!ACK_judge_for_read( i2c_base)){
   20fa0:	e13ffc17 	ldw	r4,-16(fp)
   20fa4:	00208400 	call	20840 <ACK_judge_for_read>
   20fa8:	1000051e 	bne	r2,zero,20fc0 <OC_I2CL_Read+0x208>
            printf("OC_I2CL_Read error[4]\r\n");
   20fac:	010000f4 	movhi	r4,3
   20fb0:	21058404 	addi	r4,r4,5648
   20fb4:	0022f900 	call	22f90 <puts>
            return FALSE;
   20fb8:	0005883a 	mov	r2,zero
   20fbc:	00001906 	br	21024 <OC_I2CL_Read+0x26c>
        }
   // printf("\n read receive ACK-device address(read)! \n");

        Data32=IORD( i2c_base, 3);
   20fc0:	e0bffc17 	ldw	r2,-16(fp)
   20fc4:	10800304 	addi	r2,r2,12
   20fc8:	10800037 	ldwio	r2,0(r2)
   20fcc:	e0bffb15 	stw	r2,-20(fp)
        *(pData8+i) =  Data32 & 0xff;
   20fd0:	e0bff917 	ldw	r2,-28(fp)
   20fd4:	e0ffff17 	ldw	r3,-4(fp)
   20fd8:	1885883a 	add	r2,r3,r2
   20fdc:	e0fffb17 	ldw	r3,-20(fp)
   20fe0:	10c00005 	stb	r3,0(r2)
//   printf("\n read receive ACK-device address(read)! \n");

       //read the rxr data

#if 1
    for(i=0;i<nReadLength;i++){
   20fe4:	e0bff917 	ldw	r2,-28(fp)
   20fe8:	10800044 	addi	r2,r2,1
   20fec:	e0bff915 	stw	r2,-28(fp)
   20ff0:	e0fff917 	ldw	r3,-28(fp)
   20ff4:	e0800217 	ldw	r2,8(fp)
   20ff8:	18bfde16 	blt	r3,r2,20f74 <_gp+0xfffe5100>
    DataLow =  Data32 & 0xff;

    pData16 = (DataHigh << 8) | DataLow;
#endif

   if (!Write32_Data( i2c_base, 4,0x40))
   20ffc:	e13ffc17 	ldw	r4,-16(fp)
   21000:	01400104 	movi	r5,4
   21004:	01801004 	movi	r6,64
   21008:	002028c0 	call	2028c <Write32_Data>
   2100c:	1000021e 	bne	r2,zero,21018 <OC_I2CL_Read+0x260>
       return FALSE;
   21010:	0005883a 	mov	r2,zero
   21014:	00000306 	br	21024 <OC_I2CL_Read+0x26c>

   //OS_msleep(1);
    usleep(SLEEP_TIME);
   21018:	01003e84 	movi	r4,250
   2101c:	002f3ac0 	call	2f3ac <usleep>

   return TRUE;
   21020:	00800044 	movi	r2,1

}
   21024:	e037883a 	mov	sp,fp
   21028:	dfc00117 	ldw	ra,4(sp)
   2102c:	df000017 	ldw	fp,0(sp)
   21030:	dec00204 	addi	sp,sp,8
   21034:	f800283a 	ret

00021038 <Focus_Init>:
// please observe focus performance when change the scal ,scal_f. or when change camera frame rate
alt_u8  focus_scal   =   3;  // scan 0 -> 1023 , step: SCAL , to find STEP_UP
alt_u8  focus_scal_f =   1;  //  scan STEP_UP + - SCAL/2 , step: SCAL_F
alt_u8  focus_th     =   20;

void Focus_Init(void){
   21038:	defffe04 	addi	sp,sp,-8
   2103c:	dfc00115 	stw	ra,4(sp)
   21040:	df000015 	stw	fp,0(sp)
   21044:	d839883a 	mov	fp,sp
  // please look at TERASIC_AUTO_FOCUS IP to see register's detail.
  IOWR(TERASIC_AUTO_FOCUS_0_BASE,REG_CTRL, 0);// focus mode : 1: window-screen, 0: full-screen
   21048:	0007883a 	mov	r3,zero
   2104c:	00800134 	movhi	r2,4
   21050:	10840104 	addi	r2,r2,4100
   21054:	10c00035 	stwio	r3,0(r2)
  IOWR(TERASIC_AUTO_FOCUS_0_BASE,REG_FOCUS_W, focus_width);// focus_width
   21058:	d0a0010b 	ldhu	r2,-32764(gp)
   2105c:	10ffffcc 	andi	r3,r2,65535
   21060:	00800134 	movhi	r2,4
   21064:	10840204 	addi	r2,r2,4104
   21068:	10c00035 	stwio	r3,0(r2)
  IOWR(TERASIC_AUTO_FOCUS_0_BASE,REG_FOCUS_H, focus_height);// focus_height
   2106c:	d0a0018b 	ldhu	r2,-32762(gp)
   21070:	10ffffcc 	andi	r3,r2,65535
   21074:	00800134 	movhi	r2,4
   21078:	10840304 	addi	r2,r2,4108
   2107c:	10c00035 	stwio	r3,0(r2)
  IOWR(TERASIC_AUTO_FOCUS_0_BASE,REG_FOCUS_X_START, video_w/2-focus_width/2);//x_start
   21080:	d0a0000b 	ldhu	r2,-32768(gp)
   21084:	10bfffcc 	andi	r2,r2,65535
   21088:	1004d07a 	srli	r2,r2,1
   2108c:	10ffffcc 	andi	r3,r2,65535
   21090:	d0a0010b 	ldhu	r2,-32764(gp)
   21094:	10bfffcc 	andi	r2,r2,65535
   21098:	1004d07a 	srli	r2,r2,1
   2109c:	10bfffcc 	andi	r2,r2,65535
   210a0:	1887c83a 	sub	r3,r3,r2
   210a4:	00800134 	movhi	r2,4
   210a8:	10840404 	addi	r2,r2,4112
   210ac:	10c00035 	stwio	r3,0(r2)
  IOWR(TERASIC_AUTO_FOCUS_0_BASE,REG_FOCUS_Y_START, video_h/2-focus_height/2);// y_start
   210b0:	d0a0008b 	ldhu	r2,-32766(gp)
   210b4:	10bfffcc 	andi	r2,r2,65535
   210b8:	1004d07a 	srli	r2,r2,1
   210bc:	10ffffcc 	andi	r3,r2,65535
   210c0:	d0a0018b 	ldhu	r2,-32762(gp)
   210c4:	10bfffcc 	andi	r2,r2,65535
   210c8:	1004d07a 	srli	r2,r2,1
   210cc:	10bfffcc 	andi	r2,r2,65535
   210d0:	1887c83a 	sub	r3,r3,r2
   210d4:	00800134 	movhi	r2,4
   210d8:	10840504 	addi	r2,r2,4116
   210dc:	10c00035 	stwio	r3,0(r2)

  IOWR(TERASIC_AUTO_FOCUS_0_BASE,REG_SCAL, focus_scal*256 + focus_scal_f); // scan 0 -> 1023 , step: SCAL , to find STEP_UP
   210e0:	d0a00203 	ldbu	r2,-32760(gp)
   210e4:	10803fcc 	andi	r2,r2,255
   210e8:	1006923a 	slli	r3,r2,8
   210ec:	d0a00243 	ldbu	r2,-32759(gp)
   210f0:	10803fcc 	andi	r2,r2,255
   210f4:	1887883a 	add	r3,r3,r2
   210f8:	00800134 	movhi	r2,4
   210fc:	10840604 	addi	r2,r2,4120
   21100:	10c00035 	stwio	r3,0(r2)
                                                                          //  scan STEP_UP + - SCAL/2 , step: SCAL_F
  IOWR(TERASIC_AUTO_FOCUS_0_BASE,REG_TH, focus_th);
   21104:	d0a00283 	ldbu	r2,-32758(gp)
   21108:	10c03fcc 	andi	r3,r2,255
   2110c:	00800134 	movhi	r2,4
   21110:	10840704 	addi	r2,r2,4124
   21114:	10c00035 	stwio	r3,0(r2)

  //////////// focus at initial time
  usleep(100);
   21118:	01001904 	movi	r4,100
   2111c:	002f3ac0 	call	2f3ac <usleep>
  IOWR(TERASIC_AUTO_FOCUS_0_BASE,REG_GO, 1);
   21120:	00c00044 	movi	r3,1
   21124:	00800134 	movhi	r2,4
   21128:	10840004 	addi	r2,r2,4096
   2112c:	10c00035 	stwio	r3,0(r2)
  usleep(2);
   21130:	01000084 	movi	r4,2
   21134:	002f3ac0 	call	2f3ac <usleep>
  IOWR(TERASIC_AUTO_FOCUS_0_BASE,REG_GO, 0);
   21138:	0007883a 	mov	r3,zero
   2113c:	00800134 	movhi	r2,4
   21140:	10840004 	addi	r2,r2,4096
   21144:	10c00035 	stwio	r3,0(r2)
}
   21148:	e037883a 	mov	sp,fp
   2114c:	dfc00117 	ldw	ra,4(sp)
   21150:	df000017 	ldw	fp,0(sp)
   21154:	dec00204 	addi	sp,sp,8
   21158:	f800283a 	ret

0002115c <Focus_Window>:

alt_u16 Focus_Window(int x,int y){
   2115c:	defffa04 	addi	sp,sp,-24
   21160:	dfc00515 	stw	ra,20(sp)
   21164:	df000415 	stw	fp,16(sp)
   21168:	df000404 	addi	fp,sp,16
   2116c:	e13ffe15 	stw	r4,-8(fp)
   21170:	e17fff15 	stw	r5,-4(fp)
   alt_u16 x_start,y_start;
   alt_u16 end_focus;

   if(Focus_Released()) { // pre focus done
   21174:	002133c0 	call	2133c <Focus_Released>
   21178:	10006a26 	beq	r2,zero,21324 <Focus_Window+0x1c8>
	   IOWR(TERASIC_AUTO_FOCUS_0_BASE,REG_CTRL, 1);// focus mode : 1: window-screen, 0: full-screen
   2117c:	00c00044 	movi	r3,1
   21180:	00800134 	movhi	r2,4
   21184:	10840104 	addi	r2,r2,4100
   21188:	10c00035 	stwio	r3,0(r2)

	   if(( x -  focus_width/2) < 0 ) x_start = 0;
   2118c:	d0a0010b 	ldhu	r2,-32764(gp)
   21190:	10bfffcc 	andi	r2,r2,65535
   21194:	1004d07a 	srli	r2,r2,1
   21198:	10bfffcc 	andi	r2,r2,65535
   2119c:	e0fffe17 	ldw	r3,-8(fp)
   211a0:	1885c83a 	sub	r2,r3,r2
   211a4:	1000020e 	bge	r2,zero,211b0 <Focus_Window+0x54>
   211a8:	e03ffc0d 	sth	zero,-16(fp)
   211ac:	00001606 	br	21208 <Focus_Window+0xac>
	   else if(( x + focus_width/2 ) > video_w )  x_start = video_w -1 -focus_width;
   211b0:	d0a0010b 	ldhu	r2,-32764(gp)
   211b4:	10bfffcc 	andi	r2,r2,65535
   211b8:	1004d07a 	srli	r2,r2,1
   211bc:	10ffffcc 	andi	r3,r2,65535
   211c0:	e0bffe17 	ldw	r2,-8(fp)
   211c4:	1885883a 	add	r2,r3,r2
   211c8:	d0e0000b 	ldhu	r3,-32768(gp)
   211cc:	18ffffcc 	andi	r3,r3,65535
   211d0:	1880060e 	bge	r3,r2,211ec <Focus_Window+0x90>
   211d4:	d0e0000b 	ldhu	r3,-32768(gp)
   211d8:	d0a0010b 	ldhu	r2,-32764(gp)
   211dc:	1885c83a 	sub	r2,r3,r2
   211e0:	10bfffc4 	addi	r2,r2,-1
   211e4:	e0bffc0d 	sth	r2,-16(fp)
   211e8:	00000706 	br	21208 <Focus_Window+0xac>
	   else x_start = x - focus_width/2;
   211ec:	e0bffe17 	ldw	r2,-8(fp)
   211f0:	1007883a 	mov	r3,r2
   211f4:	d0a0010b 	ldhu	r2,-32764(gp)
   211f8:	10bfffcc 	andi	r2,r2,65535
   211fc:	1004d07a 	srli	r2,r2,1
   21200:	1885c83a 	sub	r2,r3,r2
   21204:	e0bffc0d 	sth	r2,-16(fp)

	   if(( y -  focus_height/2) < 0 ) y_start = 0;
   21208:	d0a0018b 	ldhu	r2,-32762(gp)
   2120c:	10bfffcc 	andi	r2,r2,65535
   21210:	1004d07a 	srli	r2,r2,1
   21214:	10bfffcc 	andi	r2,r2,65535
   21218:	e0ffff17 	ldw	r3,-4(fp)
   2121c:	1885c83a 	sub	r2,r3,r2
   21220:	1000020e 	bge	r2,zero,2122c <Focus_Window+0xd0>
   21224:	e03ffc8d 	sth	zero,-14(fp)
   21228:	00001606 	br	21284 <Focus_Window+0x128>
	   else if(( y + focus_height/2 ) > video_h )  y_start = video_h -1 -focus_height;
   2122c:	d0a0018b 	ldhu	r2,-32762(gp)
   21230:	10bfffcc 	andi	r2,r2,65535
   21234:	1004d07a 	srli	r2,r2,1
   21238:	10ffffcc 	andi	r3,r2,65535
   2123c:	e0bfff17 	ldw	r2,-4(fp)
   21240:	1885883a 	add	r2,r3,r2
   21244:	d0e0008b 	ldhu	r3,-32766(gp)
   21248:	18ffffcc 	andi	r3,r3,65535
   2124c:	1880060e 	bge	r3,r2,21268 <Focus_Window+0x10c>
   21250:	d0e0008b 	ldhu	r3,-32766(gp)
   21254:	d0a0018b 	ldhu	r2,-32762(gp)
   21258:	1885c83a 	sub	r2,r3,r2
   2125c:	10bfffc4 	addi	r2,r2,-1
   21260:	e0bffc8d 	sth	r2,-14(fp)
   21264:	00000706 	br	21284 <Focus_Window+0x128>
	   else y_start = y - focus_height/2;
   21268:	e0bfff17 	ldw	r2,-4(fp)
   2126c:	1007883a 	mov	r3,r2
   21270:	d0a0018b 	ldhu	r2,-32762(gp)
   21274:	10bfffcc 	andi	r2,r2,65535
   21278:	1004d07a 	srli	r2,r2,1
   2127c:	1885c83a 	sub	r2,r3,r2
   21280:	e0bffc8d 	sth	r2,-14(fp)

	   printf("x_start= %d,y_start= %d\n",x_start,y_start);
   21284:	e0fffc0b 	ldhu	r3,-16(fp)
   21288:	e0bffc8b 	ldhu	r2,-14(fp)
   2128c:	010000f4 	movhi	r4,3
   21290:	21058a04 	addi	r4,r4,5672
   21294:	180b883a 	mov	r5,r3
   21298:	100d883a 	mov	r6,r2
   2129c:	0022e8c0 	call	22e8c <printf>

	   IOWR(TERASIC_AUTO_FOCUS_0_BASE,REG_FOCUS_X_START, x_start);//x_start
   212a0:	e0fffc0b 	ldhu	r3,-16(fp)
   212a4:	00800134 	movhi	r2,4
   212a8:	10840404 	addi	r2,r2,4112
   212ac:	10c00035 	stwio	r3,0(r2)
	   IOWR(TERASIC_AUTO_FOCUS_0_BASE,REG_FOCUS_Y_START, y_start);//y_start
   212b0:	e0fffc8b 	ldhu	r3,-14(fp)
   212b4:	00800134 	movhi	r2,4
   212b8:	10840504 	addi	r2,r2,4116
   212bc:	10c00035 	stwio	r3,0(r2)

	   usleep(10);
   212c0:	01000284 	movi	r4,10
   212c4:	002f3ac0 	call	2f3ac <usleep>

	   IOWR(TERASIC_AUTO_FOCUS_0_BASE,REG_GO, 1);
   212c8:	00c00044 	movi	r3,1
   212cc:	00800134 	movhi	r2,4
   212d0:	10840004 	addi	r2,r2,4096
   212d4:	10c00035 	stwio	r3,0(r2)
	   usleep(2);
   212d8:	01000084 	movi	r4,2
   212dc:	002f3ac0 	call	2f3ac <usleep>
	   IOWR(TERASIC_AUTO_FOCUS_0_BASE,REG_GO, 0);
   212e0:	0007883a 	mov	r3,zero
   212e4:	00800134 	movhi	r2,4
   212e8:	10840004 	addi	r2,r2,4096
   212ec:	10c00035 	stwio	r3,0(r2)
	   Focus_Released();
   212f0:	002133c0 	call	2133c <Focus_Released>

	   end_focus = IORD(TERASIC_AUTO_FOCUS_0_BASE,REG_STATUS)&0x0FFF;
   212f4:	00800134 	movhi	r2,4
   212f8:	10840004 	addi	r2,r2,4096
   212fc:	10800037 	ldwio	r2,0(r2)
   21300:	1083ffcc 	andi	r2,r2,4095
   21304:	e0bffd0d 	sth	r2,-12(fp)
	   printf("end_focus = %d \n",end_focus);
   21308:	e0bffd0b 	ldhu	r2,-12(fp)
   2130c:	010000f4 	movhi	r4,3
   21310:	21059104 	addi	r4,r4,5700
   21314:	100b883a 	mov	r5,r2
   21318:	0022e8c0 	call	22e8c <printf>

	   return end_focus;
   2131c:	e0bffd0b 	ldhu	r2,-12(fp)
   21320:	00000106 	br	21328 <Focus_Window+0x1cc>

   }
   return end_focus;
   21324:	e0bffd0b 	ldhu	r2,-12(fp)

}
   21328:	e037883a 	mov	sp,fp
   2132c:	dfc00117 	ldw	ra,4(sp)
   21330:	df000017 	ldw	fp,0(sp)
   21334:	dec00204 	addi	sp,sp,8
   21338:	f800283a 	ret

0002133c <Focus_Released>:

int Focus_Released(void){
   2133c:	defffc04 	addi	sp,sp,-16
   21340:	dfc00315 	stw	ra,12(sp)
   21344:	df000215 	stw	fp,8(sp)
   21348:	df000204 	addi	fp,sp,8
  int Released = FALSE;
   2134c:	e03ffe15 	stw	zero,-8(fp)
 * alt_nticks() returns the elapsed number of system clock ticks since reset.
 */

static ALT_INLINE alt_u32 ALT_ALWAYS_INLINE alt_nticks (void)
{
  return _alt_nticks;
   21350:	008000f4 	movhi	r2,3
   21354:	10985f04 	addi	r2,r2,24956
   21358:	10c00017 	ldw	r3,0(r2)
 * Obtain the system clock rate in ticks/s. 
 */

static ALT_INLINE alt_u32 ALT_ALWAYS_INLINE alt_ticks_per_second (void)
{
  return _alt_tick_rate;
   2135c:	008000f4 	movhi	r2,3
   21360:	10985e04 	addi	r2,r2,24952
   21364:	10800017 	ldw	r2,0(r2)
  alt_u32 TimeOut;

  TimeOut = alt_nticks() + alt_ticks_per_second()*8;
   21368:	100490fa 	slli	r2,r2,3
   2136c:	1885883a 	add	r2,r3,r2
   21370:	e0bfff15 	stw	r2,-4(fp)

  while((IORD(TERASIC_AUTO_FOCUS_0_BASE,REG_STATUS)&0x8000) ==0 && alt_nticks() < TimeOut ); // waiting for VCM release I2C bus
   21374:	0001883a 	nop
   21378:	00800134 	movhi	r2,4
   2137c:	10840004 	addi	r2,r2,4096
   21380:	10800037 	ldwio	r2,0(r2)
   21384:	10a0000c 	andi	r2,r2,32768
   21388:	1000051e 	bne	r2,zero,213a0 <Focus_Released+0x64>
 * alt_nticks() returns the elapsed number of system clock ticks since reset.
 */

static ALT_INLINE alt_u32 ALT_ALWAYS_INLINE alt_nticks (void)
{
  return _alt_nticks;
   2138c:	008000f4 	movhi	r2,3
   21390:	10985f04 	addi	r2,r2,24956
   21394:	10c00017 	ldw	r3,0(r2)
   21398:	e0bfff17 	ldw	r2,-4(fp)
   2139c:	18bff636 	bltu	r3,r2,21378 <_gp+0xfffe5504>
   213a0:	008000f4 	movhi	r2,3
   213a4:	10985f04 	addi	r2,r2,24956
   213a8:	10c00017 	ldw	r3,0(r2)

  if(alt_nticks() < TimeOut ) Released = TRUE;
   213ac:	e0bfff17 	ldw	r2,-4(fp)
   213b0:	1880032e 	bgeu	r3,r2,213c0 <Focus_Released+0x84>
   213b4:	00800044 	movi	r2,1
   213b8:	e0bffe15 	stw	r2,-8(fp)
   213bc:	00000306 	br	213cc <Focus_Released+0x90>
  else printf("\n =>Released check TimeOut!\n");
   213c0:	010000f4 	movhi	r4,3
   213c4:	21059604 	addi	r4,r4,5720
   213c8:	0022f900 	call	22f90 <puts>

  usleep(10000);
   213cc:	0109c404 	movi	r4,10000
   213d0:	002f3ac0 	call	2f3ac <usleep>

  return Released;
   213d4:	e0bffe17 	ldw	r2,-8(fp)
}
   213d8:	e037883a 	mov	sp,fp
   213dc:	dfc00117 	ldw	ra,4(sp)
   213e0:	df000017 	ldw	fp,0(sp)
   213e4:	dec00204 	addi	sp,sp,8
   213e8:	f800283a 	ret

000213ec <mipi_clear_error>:
#define MIPI_REG_CSIErrEn		0x0066
#define MIPI_REG_MDLSynErr		0x0068
#define MIPI_REG_FrmErrCnt		0x0080
#define MIPI_REG_MDLErrCnt		0x0090

void mipi_clear_error(void){
   213ec:	defffe04 	addi	sp,sp,-8
   213f0:	dfc00115 	stw	ra,4(sp)
   213f4:	df000015 	stw	fp,0(sp)
   213f8:	d839883a 	mov	fp,sp
	MipiBridgeRegWrite(MIPI_REG_CSIStatus,0x01FF); // clear error
   213fc:	01001904 	movi	r4,100
   21400:	01407fc4 	movi	r5,511
   21404:	00219840 	call	21984 <MipiBridgeRegWrite>
	MipiBridgeRegWrite(MIPI_REG_MDLSynErr,0x0000); // clear error
   21408:	01001a04 	movi	r4,104
   2140c:	000b883a 	mov	r5,zero
   21410:	00219840 	call	21984 <MipiBridgeRegWrite>
	MipiBridgeRegWrite(MIPI_REG_FrmErrCnt,0x0000); // clear error
   21414:	01002004 	movi	r4,128
   21418:	000b883a 	mov	r5,zero
   2141c:	00219840 	call	21984 <MipiBridgeRegWrite>
	MipiBridgeRegWrite(MIPI_REG_MDLErrCnt, 0x0000); // clear error
   21420:	01002404 	movi	r4,144
   21424:	000b883a 	mov	r5,zero
   21428:	00219840 	call	21984 <MipiBridgeRegWrite>

  	MipiBridgeRegWrite(0x0082,0x00);
   2142c:	01002084 	movi	r4,130
   21430:	000b883a 	mov	r5,zero
   21434:	00219840 	call	21984 <MipiBridgeRegWrite>
  	MipiBridgeRegWrite(0x0084,0x00);
   21438:	01002104 	movi	r4,132
   2143c:	000b883a 	mov	r5,zero
   21440:	00219840 	call	21984 <MipiBridgeRegWrite>
  	MipiBridgeRegWrite(0x0086,0x00);
   21444:	01002184 	movi	r4,134
   21448:	000b883a 	mov	r5,zero
   2144c:	00219840 	call	21984 <MipiBridgeRegWrite>
  	MipiBridgeRegWrite(0x0088,0x00);
   21450:	01002204 	movi	r4,136
   21454:	000b883a 	mov	r5,zero
   21458:	00219840 	call	21984 <MipiBridgeRegWrite>
  	MipiBridgeRegWrite(0x008A,0x00);
   2145c:	01002284 	movi	r4,138
   21460:	000b883a 	mov	r5,zero
   21464:	00219840 	call	21984 <MipiBridgeRegWrite>
  	MipiBridgeRegWrite(0x008C,0x00);
   21468:	01002304 	movi	r4,140
   2146c:	000b883a 	mov	r5,zero
   21470:	00219840 	call	21984 <MipiBridgeRegWrite>
  	MipiBridgeRegWrite(0x008E,0x00);
   21474:	01002384 	movi	r4,142
   21478:	000b883a 	mov	r5,zero
   2147c:	00219840 	call	21984 <MipiBridgeRegWrite>
  	MipiBridgeRegWrite(0x0090,0x00);
   21480:	01002404 	movi	r4,144
   21484:	000b883a 	mov	r5,zero
   21488:	00219840 	call	21984 <MipiBridgeRegWrite>
}
   2148c:	e037883a 	mov	sp,fp
   21490:	dfc00117 	ldw	ra,4(sp)
   21494:	df000017 	ldw	fp,0(sp)
   21498:	dec00204 	addi	sp,sp,8
   2149c:	f800283a 	ret

000214a0 <mipi_show_error_info>:

void mipi_show_error_info(void){
   214a0:	defff904 	addi	sp,sp,-28
   214a4:	dfc00615 	stw	ra,24(sp)
   214a8:	df000515 	stw	fp,20(sp)
   214ac:	df000504 	addi	fp,sp,20

	alt_u16 PHY_status, SCI_status, MDLSynErr, FrmErrCnt, MDLErrCnt;

	PHY_status = MipiBridgeRegRead(MIPI_REG_PHYSta);
   214b0:	01001884 	movi	r4,98
   214b4:	00219e40 	call	219e4 <MipiBridgeRegRead>
   214b8:	e0bffd0d 	sth	r2,-12(fp)
	SCI_status = MipiBridgeRegRead(MIPI_REG_CSIStatus);
   214bc:	01001904 	movi	r4,100
   214c0:	00219e40 	call	219e4 <MipiBridgeRegRead>
   214c4:	e0bffd8d 	sth	r2,-10(fp)
	MDLSynErr = MipiBridgeRegRead(MIPI_REG_MDLSynErr);
   214c8:	01001a04 	movi	r4,104
   214cc:	00219e40 	call	219e4 <MipiBridgeRegRead>
   214d0:	e0bffe0d 	sth	r2,-8(fp)
	FrmErrCnt = MipiBridgeRegRead(MIPI_REG_FrmErrCnt);
   214d4:	01002004 	movi	r4,128
   214d8:	00219e40 	call	219e4 <MipiBridgeRegRead>
   214dc:	e0bffe8d 	sth	r2,-6(fp)
	MDLErrCnt = MipiBridgeRegRead(MIPI_REG_MDLErrCnt);
   214e0:	01002404 	movi	r4,144
   214e4:	00219e40 	call	219e4 <MipiBridgeRegRead>
   214e8:	e0bfff0d 	sth	r2,-4(fp)
	printf("PHY_status=%xh, CSI_status=%xh, MDLSynErr=%xh, FrmErrCnt=%xh, MDLErrCnt=%xh\r\n", PHY_status, SCI_status, MDLSynErr,FrmErrCnt, MDLErrCnt);
   214ec:	e17ffd0b 	ldhu	r5,-12(fp)
   214f0:	e1bffd8b 	ldhu	r6,-10(fp)
   214f4:	e1fffe0b 	ldhu	r7,-8(fp)
   214f8:	e0fffe8b 	ldhu	r3,-6(fp)
   214fc:	e0bfff0b 	ldhu	r2,-4(fp)
   21500:	d8c00015 	stw	r3,0(sp)
   21504:	d8800115 	stw	r2,4(sp)
   21508:	010000f4 	movhi	r4,3
   2150c:	21059e04 	addi	r4,r4,5752
   21510:	0022e8c0 	call	22e8c <printf>
}
   21514:	e037883a 	mov	sp,fp
   21518:	dfc00117 	ldw	ra,4(sp)
   2151c:	df000017 	ldw	fp,0(sp)
   21520:	dec00204 	addi	sp,sp,8
   21524:	f800283a 	ret

00021528 <mipi_show_error_info_more>:

void mipi_show_error_info_more(void){
   21528:	defffe04 	addi	sp,sp,-8
   2152c:	dfc00115 	stw	ra,4(sp)
   21530:	df000015 	stw	fp,0(sp)
   21534:	d839883a 	mov	fp,sp
    printf("FrmErrCnt = %d\n",MipiBridgeRegRead(0x0080));
   21538:	01002004 	movi	r4,128
   2153c:	00219e40 	call	219e4 <MipiBridgeRegRead>
   21540:	10bfffcc 	andi	r2,r2,65535
   21544:	010000f4 	movhi	r4,3
   21548:	2105b204 	addi	r4,r4,5832
   2154c:	100b883a 	mov	r5,r2
   21550:	0022e8c0 	call	22e8c <printf>
    printf("CRCErrCnt = %d\n",MipiBridgeRegRead(0x0082));
   21554:	01002084 	movi	r4,130
   21558:	00219e40 	call	219e4 <MipiBridgeRegRead>
   2155c:	10bfffcc 	andi	r2,r2,65535
   21560:	010000f4 	movhi	r4,3
   21564:	2105b604 	addi	r4,r4,5848
   21568:	100b883a 	mov	r5,r2
   2156c:	0022e8c0 	call	22e8c <printf>
    printf("CorErrCnt = %d\n",MipiBridgeRegRead(0x0084));
   21570:	01002104 	movi	r4,132
   21574:	00219e40 	call	219e4 <MipiBridgeRegRead>
   21578:	10bfffcc 	andi	r2,r2,65535
   2157c:	010000f4 	movhi	r4,3
   21580:	2105ba04 	addi	r4,r4,5864
   21584:	100b883a 	mov	r5,r2
   21588:	0022e8c0 	call	22e8c <printf>
    printf("HdrErrCnt = %d\n",MipiBridgeRegRead(0x0086));
   2158c:	01002184 	movi	r4,134
   21590:	00219e40 	call	219e4 <MipiBridgeRegRead>
   21594:	10bfffcc 	andi	r2,r2,65535
   21598:	010000f4 	movhi	r4,3
   2159c:	2105be04 	addi	r4,r4,5880
   215a0:	100b883a 	mov	r5,r2
   215a4:	0022e8c0 	call	22e8c <printf>
    printf("EIDErrCnt = %d\n",MipiBridgeRegRead(0x0088));
   215a8:	01002204 	movi	r4,136
   215ac:	00219e40 	call	219e4 <MipiBridgeRegRead>
   215b0:	10bfffcc 	andi	r2,r2,65535
   215b4:	010000f4 	movhi	r4,3
   215b8:	2105c204 	addi	r4,r4,5896
   215bc:	100b883a 	mov	r5,r2
   215c0:	0022e8c0 	call	22e8c <printf>
    printf("CtlErrCnt = %d\n",MipiBridgeRegRead(0x008A));
   215c4:	01002284 	movi	r4,138
   215c8:	00219e40 	call	219e4 <MipiBridgeRegRead>
   215cc:	10bfffcc 	andi	r2,r2,65535
   215d0:	010000f4 	movhi	r4,3
   215d4:	2105c604 	addi	r4,r4,5912
   215d8:	100b883a 	mov	r5,r2
   215dc:	0022e8c0 	call	22e8c <printf>
    printf("SoTErrCnt = %d\n",MipiBridgeRegRead(0x008C));
   215e0:	01002304 	movi	r4,140
   215e4:	00219e40 	call	219e4 <MipiBridgeRegRead>
   215e8:	10bfffcc 	andi	r2,r2,65535
   215ec:	010000f4 	movhi	r4,3
   215f0:	2105ca04 	addi	r4,r4,5928
   215f4:	100b883a 	mov	r5,r2
   215f8:	0022e8c0 	call	22e8c <printf>
    printf("SynErrCnt = %d\n",MipiBridgeRegRead(0x008E));
   215fc:	01002384 	movi	r4,142
   21600:	00219e40 	call	219e4 <MipiBridgeRegRead>
   21604:	10bfffcc 	andi	r2,r2,65535
   21608:	010000f4 	movhi	r4,3
   2160c:	2105ce04 	addi	r4,r4,5944
   21610:	100b883a 	mov	r5,r2
   21614:	0022e8c0 	call	22e8c <printf>
    printf("MDLErrCnt = %d\n",MipiBridgeRegRead(0x0090));
   21618:	01002404 	movi	r4,144
   2161c:	00219e40 	call	219e4 <MipiBridgeRegRead>
   21620:	10bfffcc 	andi	r2,r2,65535
   21624:	010000f4 	movhi	r4,3
   21628:	2105d204 	addi	r4,r4,5960
   2162c:	100b883a 	mov	r5,r2
   21630:	0022e8c0 	call	22e8c <printf>
    printf("FIFOSTATUS = %d\n",MipiBridgeRegRead(0x00F8));
   21634:	01003e04 	movi	r4,248
   21638:	00219e40 	call	219e4 <MipiBridgeRegRead>
   2163c:	10bfffcc 	andi	r2,r2,65535
   21640:	010000f4 	movhi	r4,3
   21644:	2105d604 	addi	r4,r4,5976
   21648:	100b883a 	mov	r5,r2
   2164c:	0022e8c0 	call	22e8c <printf>
    printf("DataType = 0x%04x\n",MipiBridgeRegRead(0x006A));
   21650:	01001a84 	movi	r4,106
   21654:	00219e40 	call	219e4 <MipiBridgeRegRead>
   21658:	10bfffcc 	andi	r2,r2,65535
   2165c:	010000f4 	movhi	r4,3
   21660:	2105db04 	addi	r4,r4,5996
   21664:	100b883a 	mov	r5,r2
   21668:	0022e8c0 	call	22e8c <printf>
    printf("CSIPktLen = %d\n",MipiBridgeRegRead(0x006E));
   2166c:	01001b84 	movi	r4,110
   21670:	00219e40 	call	219e4 <MipiBridgeRegRead>
   21674:	10bfffcc 	andi	r2,r2,65535
   21678:	010000f4 	movhi	r4,3
   2167c:	2105e004 	addi	r4,r4,6016
   21680:	100b883a 	mov	r5,r2
   21684:	0022e8c0 	call	22e8c <printf>
}
   21688:	e037883a 	mov	sp,fp
   2168c:	dfc00117 	ldw	ra,4(sp)
   21690:	df000017 	ldw	fp,0(sp)
   21694:	dec00204 	addi	sp,sp,8
   21698:	f800283a 	ret

0002169c <MIPI_Init>:



bool MIPI_Init(void){
   2169c:	defffd04 	addi	sp,sp,-12
   216a0:	dfc00215 	stw	ra,8(sp)
   216a4:	df000115 	stw	fp,4(sp)
   216a8:	df000104 	addi	fp,sp,4
	bool bSuccess;


	bSuccess = oc_i2c_init_ex(I2C_OPENCORES_MIPI_BASE, 50*1000*1000,400*1000); //I2C: 400K
   216ac:	01000134 	movhi	r4,4
   216b0:	21042004 	addi	r4,r4,4224
   216b4:	0140bef4 	movhi	r5,763
   216b8:	297c2004 	addi	r5,r5,-3968
   216bc:	018001b4 	movhi	r6,6
   216c0:	3186a004 	addi	r6,r6,6784
   216c4:	00203940 	call	20394 <oc_i2c_init_ex>
   216c8:	e0bfff15 	stw	r2,-4(fp)
	if (!bSuccess)
   216cc:	e0bfff17 	ldw	r2,-4(fp)
   216d0:	1000031e 	bne	r2,zero,216e0 <MIPI_Init+0x44>
		printf("failed to init MIPI- Bridge i2c\r\n");
   216d4:	010000f4 	movhi	r4,3
   216d8:	2105e404 	addi	r4,r4,6032
   216dc:	0022f900 	call	22f90 <puts>

    usleep(50*1000);
   216e0:	0130d414 	movui	r4,50000
   216e4:	002f3ac0 	call	2f3ac <usleep>
    MipiBridgeInit();
   216e8:	0021a540 	call	21a54 <MipiBridgeInit>

    usleep(500*1000);
   216ec:	01000234 	movhi	r4,8
   216f0:	21284804 	addi	r4,r4,-24288
   216f4:	002f3ac0 	call	2f3ac <usleep>

//	bSuccess = oc_i2c_init_ex(I2C_OPENCORES_CAMERA_BASE, 50*1000*1000,400*1000); //I2C: 400K
//	if (!bSuccess)
//		printf("failed to init MIPI- Camera i2c\r\n");

    MipiCameraInit();
   216f8:	0021fac0 	call	21fac <MipiCameraInit>
    MIPI_BIN_LEVEL(DEFAULT_LEVEL);
   216fc:	01000084 	movi	r4,2
   21700:	0021df00 	call	21df0 <MIPI_BIN_LEVEL>
//    OV8865_FOCUS_Move_to(340);

//    oc_i2c_uninit(I2C_OPENCORES_CAMERA_BASE);  // Release I2C bus , due to two I2C master shared!


 	usleep(1000);
   21704:	0100fa04 	movi	r4,1000
   21708:	002f3ac0 	call	2f3ac <usleep>


//    oc_i2c_uninit(I2C_OPENCORES_MIPI_BASE);

	return bSuccess;
   2170c:	e0bfff17 	ldw	r2,-4(fp)
}
   21710:	e037883a 	mov	sp,fp
   21714:	dfc00117 	ldw	ra,4(sp)
   21718:	df000017 	ldw	fp,0(sp)
   2171c:	dec00204 	addi	sp,sp,8
   21720:	f800283a 	ret

00021724 <main>:




int main()
{
   21724:	defffc04 	addi	sp,sp,-16
   21728:	dfc00315 	stw	ra,12(sp)
   2172c:	df000215 	stw	fp,8(sp)
   21730:	df000204 	addi	fp,sp,8


  printf("DE1-SoC D8M VGA Demo\n");
   21734:	010000f4 	movhi	r4,3
   21738:	2105ed04 	addi	r4,r4,6068
   2173c:	0022f900 	call	22f90 <puts>
  IOWR(MIPI_PWDN_N_BASE, 0x00, 0x00);
   21740:	0007883a 	mov	r3,zero
   21744:	00800134 	movhi	r2,4
   21748:	10842804 	addi	r2,r2,4256
   2174c:	10c00035 	stwio	r3,0(r2)
  IOWR(MIPI_RESET_N_BASE, 0x00, 0x00);
   21750:	0007883a 	mov	r3,zero
   21754:	00800134 	movhi	r2,4
   21758:	10842c04 	addi	r2,r2,4272
   2175c:	10c00035 	stwio	r3,0(r2)

  usleep(2000);
   21760:	0101f404 	movi	r4,2000
   21764:	002f3ac0 	call	2f3ac <usleep>
  IOWR(MIPI_PWDN_N_BASE, 0x00, 0xFF);
   21768:	00c03fc4 	movi	r3,255
   2176c:	00800134 	movhi	r2,4
   21770:	10842804 	addi	r2,r2,4256
   21774:	10c00035 	stwio	r3,0(r2)
  usleep(2000);
   21778:	0101f404 	movi	r4,2000
   2177c:	002f3ac0 	call	2f3ac <usleep>
  IOWR(MIPI_RESET_N_BASE, 0x00, 0xFF);
   21780:	00c03fc4 	movi	r3,255
   21784:	00800134 	movhi	r2,4
   21788:	10842c04 	addi	r2,r2,4272
   2178c:	10c00035 	stwio	r3,0(r2)


  usleep(2000);
   21790:	0101f404 	movi	r4,2000
   21794:	002f3ac0 	call	2f3ac <usleep>


  // MIPI Init
   if (!MIPI_Init()){
   21798:	002169c0 	call	2169c <MIPI_Init>
   2179c:	1000041e 	bne	r2,zero,217b0 <main+0x8c>
	  printf("MIPI_Init Init failed!\r\n");
   217a0:	010000f4 	movhi	r4,3
   217a4:	2105f304 	addi	r4,r4,6092
   217a8:	0022f900 	call	22f90 <puts>
   217ac:	00000306 	br	217bc <main+0x98>
  }else{
	  printf("MIPI_Init Init successfully!\r\n");
   217b0:	010000f4 	movhi	r4,3
   217b4:	2105f904 	addi	r4,r4,6116
   217b8:	0022f900 	call	22f90 <puts>
  }

//   while(1){
 	    mipi_clear_error();
   217bc:	00213ec0 	call	213ec <mipi_clear_error>
	 	usleep(50*1000);
   217c0:	0130d414 	movui	r4,50000
   217c4:	002f3ac0 	call	2f3ac <usleep>
 	    mipi_clear_error();
   217c8:	00213ec0 	call	213ec <mipi_clear_error>
	 	usleep(1000*1000);
   217cc:	010003f4 	movhi	r4,15
   217d0:	21109004 	addi	r4,r4,16960
   217d4:	002f3ac0 	call	2f3ac <usleep>
	    mipi_show_error_info();
   217d8:	00214a00 	call	214a0 <mipi_show_error_info>
//	    mipi_show_error_info_more();
	    printf("\n");
   217dc:	01000284 	movi	r4,10
   217e0:	0022ed00 	call	22ed0 <putchar>




    //////////////////////////////////////////////////////////
        alt_u16 bin_level = DEFAULT_LEVEL;
   217e4:	00800084 	movi	r2,2
   217e8:	e0bffe0d 	sth	r2,-8(fp)
        alt_u8  manual_focus_step = 10;
   217ec:	00800284 	movi	r2,10
   217f0:	e0bfff05 	stb	r2,-4(fp)
        alt_u16  current_focus = 300;
   217f4:	00804b04 	movi	r2,300
   217f8:	e0bffe8d 	sth	r2,-6(fp)
        Focus_Init();
   217fc:	00210380 	call	21038 <Focus_Init>
  while(1){

       // touch KEY0 to trigger Auto focus
       if((IORD(KEY_BASE,0)&0x0F) == 0x0E){
   21800:	00800134 	movhi	r2,4
   21804:	10843004 	addi	r2,r2,4288
   21808:	10800037 	ldwio	r2,0(r2)
   2180c:	108003cc 	andi	r2,r2,15
   21810:	10800398 	cmpnei	r2,r2,14
   21814:	1000041e 	bne	r2,zero,21828 <main+0x104>

    	   current_focus = Focus_Window(400,300);
   21818:	01006404 	movi	r4,400
   2181c:	01404b04 	movi	r5,300
   21820:	002115c0 	call	2115c <Focus_Window>
   21824:	e0bffe8d 	sth	r2,-6(fp)
       }

       // touch KEY1 to trigger Manual focus  - step
       if((IORD(KEY_BASE,0)&0x0F) == 0x0D){
   21828:	00800134 	movhi	r2,4
   2182c:	10843004 	addi	r2,r2,4288
   21830:	10800037 	ldwio	r2,0(r2)
   21834:	108003cc 	andi	r2,r2,15
   21838:	10800358 	cmpnei	r2,r2,13
   2183c:	10000d1e 	bne	r2,zero,21874 <main+0x150>

    	   if(current_focus > manual_focus_step) current_focus -= manual_focus_step;
   21840:	e0bfff03 	ldbu	r2,-4(fp)
   21844:	10ffffcc 	andi	r3,r2,65535
   21848:	e0bffe8b 	ldhu	r2,-6(fp)
   2184c:	1880052e 	bgeu	r3,r2,21864 <main+0x140>
   21850:	e0bfff03 	ldbu	r2,-4(fp)
   21854:	e0fffe8b 	ldhu	r3,-6(fp)
   21858:	1885c83a 	sub	r2,r3,r2
   2185c:	e0bffe8d 	sth	r2,-6(fp)
   21860:	00000106 	br	21868 <main+0x144>
    	   else current_focus = 0;
   21864:	e03ffe8d 	sth	zero,-6(fp)
    	   OV8865_FOCUS_Move_to(current_focus);
   21868:	e0bffe8b 	ldhu	r2,-6(fp)
   2186c:	1009883a 	mov	r4,r2
   21870:	0021d100 	call	21d10 <OV8865_FOCUS_Move_to>

       }

       // touch KEY2 to trigger Manual focus  + step
       if((IORD(KEY_BASE,0)&0x0F) == 0x0B){
   21874:	00800134 	movhi	r2,4
   21878:	10843004 	addi	r2,r2,4288
   2187c:	10800037 	ldwio	r2,0(r2)
   21880:	108003cc 	andi	r2,r2,15
   21884:	108002d8 	cmpnei	r2,r2,11
   21888:	10000c1e 	bne	r2,zero,218bc <main+0x198>
    	   current_focus += manual_focus_step;
   2188c:	e0ffff03 	ldbu	r3,-4(fp)
   21890:	e0bffe8b 	ldhu	r2,-6(fp)
   21894:	1885883a 	add	r2,r3,r2
   21898:	e0bffe8d 	sth	r2,-6(fp)
    	   if(current_focus >1023) current_focus = 1023;
   2189c:	e0bffe8b 	ldhu	r2,-6(fp)
   218a0:	10810030 	cmpltui	r2,r2,1024
   218a4:	1000021e 	bne	r2,zero,218b0 <main+0x18c>
   218a8:	0080ffc4 	movi	r2,1023
   218ac:	e0bffe8d 	sth	r2,-6(fp)
    	   OV8865_FOCUS_Move_to(current_focus);
   218b0:	e0bffe8b 	ldhu	r2,-6(fp)
   218b4:	1009883a 	mov	r4,r2
   218b8:	0021d100 	call	21d10 <OV8865_FOCUS_Move_to>
       }

       // touch KEY3 to ZOOM
       if((IORD(KEY_BASE,0)&0x0F) == 0x07){
   218bc:	00800134 	movhi	r2,4
   218c0:	10843004 	addi	r2,r2,4288
   218c4:	10800037 	ldwio	r2,0(r2)
   218c8:	108003cc 	andi	r2,r2,15
   218cc:	108001d8 	cmpnei	r2,r2,7
   218d0:	1000151e 	bne	r2,zero,21928 <main+0x204>
    	   if(bin_level == 3 )bin_level = 1;
   218d4:	e0bffe0b 	ldhu	r2,-8(fp)
   218d8:	108000d8 	cmpnei	r2,r2,3
   218dc:	1000031e 	bne	r2,zero,218ec <main+0x1c8>
   218e0:	00800044 	movi	r2,1
   218e4:	e0bffe0d 	sth	r2,-8(fp)
   218e8:	00000306 	br	218f8 <main+0x1d4>
    	   else bin_level ++;
   218ec:	e0bffe0b 	ldhu	r2,-8(fp)
   218f0:	10800044 	addi	r2,r2,1
   218f4:	e0bffe0d 	sth	r2,-8(fp)
    	   printf("set bin level to %d\n",bin_level);
   218f8:	e0bffe0b 	ldhu	r2,-8(fp)
   218fc:	010000f4 	movhi	r4,3
   21900:	21060104 	addi	r4,r4,6148
   21904:	100b883a 	mov	r5,r2
   21908:	0022e8c0 	call	22e8c <printf>
    	   MIPI_BIN_LEVEL(bin_level);
   2190c:	e0bffe0b 	ldhu	r2,-8(fp)
   21910:	10803fcc 	andi	r2,r2,255
   21914:	1009883a 	mov	r4,r2
   21918:	0021df00 	call	21df0 <MIPI_BIN_LEVEL>
    	 	usleep(500000);
   2191c:	01000234 	movhi	r4,8
   21920:	21284804 	addi	r4,r4,-24288
   21924:	002f3ac0 	call	2f3ac <usleep>

       }

       usleep(200000);
   21928:	010000f4 	movhi	r4,3
   2192c:	21035004 	addi	r4,r4,3392
   21930:	002f3ac0 	call	2f3ac <usleep>



   };
   21934:	003fb206 	br	21800 <_gp+0xfffe598c>

00021938 <nSWAP16>:
	{0x0004,0x8047} // Configuration Control Register

};


alt_u16 nSWAP16(alt_u16 x){
   21938:	defffd04 	addi	sp,sp,-12
   2193c:	df000215 	stw	fp,8(sp)
   21940:	df000204 	addi	fp,sp,8
   21944:	2005883a 	mov	r2,r4
   21948:	e0bfff0d 	sth	r2,-4(fp)
	alt_u16 y;
	//y =  (((x) >> 8) & 0xff) | (((x) & 0xff) << 8);

//	y = x;
	y = (x >> 8) & 0x00ff;
   2194c:	e0bfff0b 	ldhu	r2,-4(fp)
   21950:	1004d23a 	srli	r2,r2,8
   21954:	e0bffe0d 	sth	r2,-8(fp)
	y |= (x << 8) & 0xff00;
   21958:	e0bfff0b 	ldhu	r2,-4(fp)
   2195c:	1004923a 	slli	r2,r2,8
   21960:	1007883a 	mov	r3,r2
   21964:	e0bffe0b 	ldhu	r2,-8(fp)
   21968:	1884b03a 	or	r2,r3,r2
   2196c:	e0bffe0d 	sth	r2,-8(fp)
	return y;
   21970:	e0bffe0b 	ldhu	r2,-8(fp)
}
   21974:	e037883a 	mov	sp,fp
   21978:	df000017 	ldw	fp,0(sp)
   2197c:	dec00104 	addi	sp,sp,4
   21980:	f800283a 	ret

00021984 <MipiBridgeRegWrite>:


void MipiBridgeRegWrite(alt_u16 Addr, alt_u16 Value){
   21984:	defffa04 	addi	sp,sp,-24
   21988:	dfc00515 	stw	ra,20(sp)
   2198c:	df000415 	stw	fp,16(sp)
   21990:	df000404 	addi	fp,sp,16
   21994:	2007883a 	mov	r3,r4
   21998:	2805883a 	mov	r2,r5
   2199c:	e0fffe0d 	sth	r3,-8(fp)
   219a0:	e0bfff0d 	sth	r2,-4(fp)
	const alt_u8 device_address = MIPI_BRIDGE_I2C_ADDR;
   219a4:	00800704 	movi	r2,28
   219a8:	e0bffd05 	stb	r2,-12(fp)
	OC_I2CL_Write(I2C_OPENCORES_MIPI_BASE, device_address, Addr, (alt_u8 *)&Value, sizeof(Value));
   219ac:	e17ffd03 	ldbu	r5,-12(fp)
   219b0:	e1bffe0b 	ldhu	r6,-8(fp)
   219b4:	e0ffff04 	addi	r3,fp,-4
   219b8:	00800084 	movi	r2,2
   219bc:	d8800015 	stw	r2,0(sp)
   219c0:	01000134 	movhi	r4,4
   219c4:	21042004 	addi	r4,r4,4224
   219c8:	180f883a 	mov	r7,r3
   219cc:	0020ba80 	call	20ba8 <OC_I2CL_Write>
}
   219d0:	e037883a 	mov	sp,fp
   219d4:	dfc00117 	ldw	ra,4(sp)
   219d8:	df000017 	ldw	fp,0(sp)
   219dc:	dec00204 	addi	sp,sp,8
   219e0:	f800283a 	ret

000219e4 <MipiBridgeRegRead>:

alt_u16 MipiBridgeRegRead(alt_u16 Addr){
   219e4:	defffa04 	addi	sp,sp,-24
   219e8:	dfc00515 	stw	ra,20(sp)
   219ec:	df000415 	stw	fp,16(sp)
   219f0:	df000404 	addi	fp,sp,16
   219f4:	2005883a 	mov	r2,r4
   219f8:	e0bfff0d 	sth	r2,-4(fp)
	alt_u16 Value,tValue;
	const alt_u8 device_address = MIPI_BRIDGE_I2C_ADDR;
   219fc:	00800704 	movi	r2,28
   21a00:	e0bffd05 	stb	r2,-12(fp)

	OC_I2CL_Read(I2C_OPENCORES_MIPI_BASE,device_address, Addr,(alt_u8 *)&Value,sizeof(Value));
   21a04:	e17ffd03 	ldbu	r5,-12(fp)
   21a08:	e1bfff0b 	ldhu	r6,-4(fp)
   21a0c:	e0fffe04 	addi	r3,fp,-8
   21a10:	00800084 	movi	r2,2
   21a14:	d8800015 	stw	r2,0(sp)
   21a18:	01000134 	movhi	r4,4
   21a1c:	21042004 	addi	r4,r4,4224
   21a20:	180f883a 	mov	r7,r3
   21a24:	0020db80 	call	20db8 <OC_I2CL_Read>

	tValue = nSWAP16(Value);
   21a28:	e0bffe0b 	ldhu	r2,-8(fp)
   21a2c:	10bfffcc 	andi	r2,r2,65535
   21a30:	1009883a 	mov	r4,r2
   21a34:	00219380 	call	21938 <nSWAP16>
   21a38:	e0bffd8d 	sth	r2,-10(fp)

	return (tValue);
   21a3c:	e0bffd8b 	ldhu	r2,-10(fp)
}
   21a40:	e037883a 	mov	sp,fp
   21a44:	dfc00117 	ldw	ra,4(sp)
   21a48:	df000017 	ldw	fp,0(sp)
   21a4c:	dec00204 	addi	sp,sp,8
   21a50:	f800283a 	ret

00021a54 <MipiBridgeInit>:




void MipiBridgeInit(void){
   21a54:	defffb04 	addi	sp,sp,-20
   21a58:	dfc00415 	stw	ra,16(sp)
   21a5c:	df000315 	stw	fp,12(sp)
   21a60:	df000304 	addi	fp,sp,12

	alt_u16 data;
    int i, num;

	printf("\nStart MipiBridgeInit!\n");
   21a64:	010000f4 	movhi	r4,3
   21a68:	21060704 	addi	r4,r4,6172
   21a6c:	0022f900 	call	22f90 <puts>

	data = MipiBridgeRegRead(0x0000); // read chip and revision id;
   21a70:	0009883a 	mov	r4,zero
   21a74:	00219e40 	call	219e4 <MipiBridgeRegRead>
   21a78:	e0bffe0d 	sth	r2,-8(fp)

	printf("Chip and Revision ID is 0x%04xh(expected: 0x4401);\n",data);
   21a7c:	e0bffe0b 	ldhu	r2,-8(fp)
   21a80:	010000f4 	movhi	r4,3
   21a84:	21060d04 	addi	r4,r4,6196
   21a88:	100b883a 	mov	r5,r2
   21a8c:	0022e8c0 	call	22e8c <printf>


    num = sizeof(MipiBridgeReg)/sizeof(MipiBridgeReg[0]);
   21a90:	00800344 	movi	r2,13
   21a94:	e0bfff15 	stw	r2,-4(fp)

    for(i=0;i<num;i++){
   21a98:	e03ffd15 	stw	zero,-12(fp)
   21a9c:	00002b06 	br	21b4c <MipiBridgeInit+0xf8>
   	 if (MipiBridgeReg[i].Addr == 0xFFFF)   usleep(MipiBridgeReg[i].Data*1000);
   21aa0:	008000f4 	movhi	r2,3
   21aa4:	10870c04 	addi	r2,r2,7216
   21aa8:	e0fffd17 	ldw	r3,-12(fp)
   21aac:	18c7883a 	add	r3,r3,r3
   21ab0:	18c7883a 	add	r3,r3,r3
   21ab4:	10c5883a 	add	r2,r2,r3
   21ab8:	1080000b 	ldhu	r2,0(r2)
   21abc:	10ffffcc 	andi	r3,r2,65535
   21ac0:	00bfffd4 	movui	r2,65535
   21ac4:	18800c1e 	bne	r3,r2,21af8 <MipiBridgeInit+0xa4>
   21ac8:	008000f4 	movhi	r2,3
   21acc:	10870c04 	addi	r2,r2,7216
   21ad0:	e0fffd17 	ldw	r3,-12(fp)
   21ad4:	18c7883a 	add	r3,r3,r3
   21ad8:	18c7883a 	add	r3,r3,r3
   21adc:	10c5883a 	add	r2,r2,r3
   21ae0:	1080008b 	ldhu	r2,2(r2)
   21ae4:	10bfffcc 	andi	r2,r2,65535
   21ae8:	1080fa24 	muli	r2,r2,1000
   21aec:	1009883a 	mov	r4,r2
   21af0:	002f3ac0 	call	2f3ac <usleep>
   21af4:	00001206 	br	21b40 <MipiBridgeInit+0xec>
        else MipiBridgeRegWrite(MipiBridgeReg[i].Addr,  MipiBridgeReg[i].Data);
   21af8:	008000f4 	movhi	r2,3
   21afc:	10870c04 	addi	r2,r2,7216
   21b00:	e0fffd17 	ldw	r3,-12(fp)
   21b04:	18c7883a 	add	r3,r3,r3
   21b08:	18c7883a 	add	r3,r3,r3
   21b0c:	10c5883a 	add	r2,r2,r3
   21b10:	1080000b 	ldhu	r2,0(r2)
   21b14:	113fffcc 	andi	r4,r2,65535
   21b18:	008000f4 	movhi	r2,3
   21b1c:	10870c04 	addi	r2,r2,7216
   21b20:	e0fffd17 	ldw	r3,-12(fp)
   21b24:	18c7883a 	add	r3,r3,r3
   21b28:	18c7883a 	add	r3,r3,r3
   21b2c:	10c5883a 	add	r2,r2,r3
   21b30:	1080008b 	ldhu	r2,2(r2)
   21b34:	10bfffcc 	andi	r2,r2,65535
   21b38:	100b883a 	mov	r5,r2
   21b3c:	00219840 	call	21984 <MipiBridgeRegWrite>
	printf("Chip and Revision ID is 0x%04xh(expected: 0x4401);\n",data);


    num = sizeof(MipiBridgeReg)/sizeof(MipiBridgeReg[0]);

    for(i=0;i<num;i++){
   21b40:	e0bffd17 	ldw	r2,-12(fp)
   21b44:	10800044 	addi	r2,r2,1
   21b48:	e0bffd15 	stw	r2,-12(fp)
   21b4c:	e0fffd17 	ldw	r3,-12(fp)
   21b50:	e0bfff17 	ldw	r2,-4(fp)
   21b54:	18bfd216 	blt	r3,r2,21aa0 <_gp+0xfffe5c2c>
//     MipiBridgeRegWrite(0x005A,((cap<<6) + (HsRxRs<<4) + ClkDly_data));
//     MipiBridgeRegWrite(0x005C,((cap<<6) + (HsRxRs<<4) + ClkDly_data));
//     MipiBridgeRegWrite(0x005E,((cap<<6) + (HsRxRs<<4) + ClkDly_data));
//

    printf("End MipiBridgeInit!\n\n");
   21b58:	010000f4 	movhi	r4,3
   21b5c:	21061a04 	addi	r4,r4,6248
   21b60:	0022f900 	call	22f90 <puts>

}
   21b64:	e037883a 	mov	sp,fp
   21b68:	dfc00117 	ldw	ra,4(sp)
   21b6c:	df000017 	ldw	fp,0(sp)
   21b70:	dec00204 	addi	sp,sp,8
   21b74:	f800283a 	ret

00021b78 <OV8865_read_cmos_sensor_8>:
   };




alt_u8 OV8865_read_cmos_sensor_8(alt_u16 Addr){
   21b78:	defffb04 	addi	sp,sp,-20
   21b7c:	dfc00415 	stw	ra,16(sp)
   21b80:	df000315 	stw	fp,12(sp)
   21b84:	df000304 	addi	fp,sp,12
   21b88:	2005883a 	mov	r2,r4
   21b8c:	e0bfff0d 	sth	r2,-4(fp)
	const alt_u8 device_address = MIPI_I2C_ADDR;
   21b90:	00801b04 	movi	r2,108
   21b94:	e0bffe05 	stb	r2,-8(fp)
	alt_u8 Value;

	//OC_I2CL_Write(I2C_OPENCORES_CAMERA_BASE, device_address, SWAP16(Addr), (alt_u8 *)&Value, sizeof(Value));
	OC_I2CL_Read(I2C_OPENCORES_CAMERA_BASE, device_address, Addr, (alt_u8 *)&Value, sizeof(Value));
   21b98:	e17ffe03 	ldbu	r5,-8(fp)
   21b9c:	e1bfff0b 	ldhu	r6,-4(fp)
   21ba0:	e0fffe44 	addi	r3,fp,-7
   21ba4:	00800044 	movi	r2,1
   21ba8:	d8800015 	stw	r2,0(sp)
   21bac:	01000134 	movhi	r4,4
   21bb0:	21041804 	addi	r4,r4,4192
   21bb4:	180f883a 	mov	r7,r3
   21bb8:	0020db80 	call	20db8 <OC_I2CL_Read>

	return (Value);
   21bbc:	e0bffe43 	ldbu	r2,-7(fp)
}
   21bc0:	e037883a 	mov	sp,fp
   21bc4:	dfc00117 	ldw	ra,4(sp)
   21bc8:	df000017 	ldw	fp,0(sp)
   21bcc:	dec00204 	addi	sp,sp,8
   21bd0:	f800283a 	ret

00021bd4 <OV8865_write_cmos_sensor_8>:


void OV8865_write_cmos_sensor_8(alt_u16 Addr, alt_u8 Value){
   21bd4:	defffa04 	addi	sp,sp,-24
   21bd8:	dfc00515 	stw	ra,20(sp)
   21bdc:	df000415 	stw	fp,16(sp)
   21be0:	df000404 	addi	fp,sp,16
   21be4:	2007883a 	mov	r3,r4
   21be8:	2805883a 	mov	r2,r5
   21bec:	e0fffe0d 	sth	r3,-8(fp)
   21bf0:	e0bfff05 	stb	r2,-4(fp)
	const alt_u8 device_address = MIPI_I2C_ADDR;
   21bf4:	00801b04 	movi	r2,108
   21bf8:	e0bffd05 	stb	r2,-12(fp)
	//OC_I2CL_Write(I2C_OPENCORES_CAMERA_BASE, device_address, SWAP16(Addr), (alt_u8 *)&Value, sizeof(Value));
	OC_I2CL_Write(I2C_OPENCORES_CAMERA_BASE, device_address, Addr, (alt_u8 *)&Value, sizeof(Value));
   21bfc:	e17ffd03 	ldbu	r5,-12(fp)
   21c00:	e1bffe0b 	ldhu	r6,-8(fp)
   21c04:	e0ffff04 	addi	r3,fp,-4
   21c08:	00800044 	movi	r2,1
   21c0c:	d8800015 	stw	r2,0(sp)
   21c10:	01000134 	movhi	r4,4
   21c14:	21041804 	addi	r4,r4,4192
   21c18:	180f883a 	mov	r7,r3
   21c1c:	0020ba80 	call	20ba8 <OC_I2CL_Write>
}
   21c20:	e037883a 	mov	sp,fp
   21c24:	dfc00117 	ldw	ra,4(sp)
   21c28:	df000017 	ldw	fp,0(sp)
   21c2c:	dec00204 	addi	sp,sp,8
   21c30:	f800283a 	ret

00021c34 <OV8865_write_AF>:


void OV8865_write_AF(alt_u8 msb, alt_u8 lsb){
   21c34:	defffa04 	addi	sp,sp,-24
   21c38:	dfc00515 	stw	ra,20(sp)
   21c3c:	df000415 	stw	fp,16(sp)
   21c40:	df000404 	addi	fp,sp,16
   21c44:	2007883a 	mov	r3,r4
   21c48:	2805883a 	mov	r2,r5
   21c4c:	e0fffe05 	stb	r3,-8(fp)
   21c50:	e0bfff05 	stb	r2,-4(fp)
	// VCM149C
	const alt_u8 device_address = MIPI_AF_I2C_ADDR;
   21c54:	00800604 	movi	r2,24
   21c58:	e0bffd05 	stb	r2,-12(fp)
	OC_I2C_Write(I2C_OPENCORES_CAMERA_BASE, device_address, msb, (alt_u8 *)&lsb, sizeof(lsb));
   21c5c:	e17ffd03 	ldbu	r5,-12(fp)
   21c60:	e1bffe03 	ldbu	r6,-8(fp)
   21c64:	e0ffff04 	addi	r3,fp,-4
   21c68:	00800044 	movi	r2,1
   21c6c:	d8800015 	stw	r2,0(sp)
   21c70:	01000134 	movhi	r4,4
   21c74:	21041804 	addi	r4,r4,4192
   21c78:	180f883a 	mov	r7,r3
   21c7c:	00206400 	call	20640 <OC_I2C_Write>
}
   21c80:	e037883a 	mov	sp,fp
   21c84:	dfc00117 	ldw	ra,4(sp)
   21c88:	df000017 	ldw	fp,0(sp)
   21c8c:	dec00204 	addi	sp,sp,8
   21c90:	f800283a 	ret

00021c94 <OV8865_read_AF>:

void OV8865_read_AF(void){
   21c94:	defffb04 	addi	sp,sp,-20
   21c98:	dfc00415 	stw	ra,16(sp)
   21c9c:	df000315 	stw	fp,12(sp)
   21ca0:	df000304 	addi	fp,sp,12
	// VCM149C
	const alt_u8 device_address = MIPI_AF_I2C_ADDR;
   21ca4:	00800604 	movi	r2,24
   21ca8:	e0bffd05 	stb	r2,-12(fp)
	alt_u8 szData8[2];
	bool bSuccess;

		bSuccess = OC_I2C_Read_Continue(I2C_OPENCORES_CAMERA_BASE, device_address, szData8, sizeof(szData8));
   21cac:	e0fffd03 	ldbu	r3,-12(fp)
   21cb0:	e0bfff04 	addi	r2,fp,-4
   21cb4:	01000134 	movhi	r4,4
   21cb8:	21041804 	addi	r4,r4,4192
   21cbc:	180b883a 	mov	r5,r3
   21cc0:	100d883a 	mov	r6,r2
   21cc4:	01c00084 	movi	r7,2
   21cc8:	0020a700 	call	20a70 <OC_I2C_Read_Continue>
   21ccc:	e0bffe15 	stw	r2,-8(fp)
		if (bSuccess)
   21cd0:	e0bffe17 	ldw	r2,-8(fp)
   21cd4:	10000926 	beq	r2,zero,21cfc <OV8865_read_AF+0x68>
			printf("Read MSB=%xh, LSB=%xh\r\n", szData8[0], szData8[1]);
   21cd8:	e0bfff03 	ldbu	r2,-4(fp)
   21cdc:	10c03fcc 	andi	r3,r2,255
   21ce0:	e0bfff43 	ldbu	r2,-3(fp)
   21ce4:	10803fcc 	andi	r2,r2,255
   21ce8:	010000f4 	movhi	r4,3
   21cec:	21062004 	addi	r4,r4,6272
   21cf0:	180b883a 	mov	r5,r3
   21cf4:	100d883a 	mov	r6,r2
   21cf8:	0022e8c0 	call	22e8c <printf>
}
   21cfc:	e037883a 	mov	sp,fp
   21d00:	dfc00117 	ldw	ra,4(sp)
   21d04:	df000017 	ldw	fp,0(sp)
   21d08:	dec00204 	addi	sp,sp,8
   21d0c:	f800283a 	ret

00021d10 <OV8865_FOCUS_Move_to>:

void OV8865_FOCUS_Move_to(alt_u16 a_u2MovePosition)
{
   21d10:	defffb04 	addi	sp,sp,-20
   21d14:	dfc00415 	stw	ra,16(sp)
   21d18:	df000315 	stw	fp,12(sp)
   21d1c:	df000304 	addi	fp,sp,12
   21d20:	2005883a 	mov	r2,r4
   21d24:	e0bfff0d 	sth	r2,-4(fp)
  if (a_u2MovePosition > 1023)   {a_u2MovePosition = 1023;}
   21d28:	e0bfff0b 	ldhu	r2,-4(fp)
   21d2c:	10810030 	cmpltui	r2,r2,1024
   21d30:	1000021e 	bne	r2,zero,21d3c <OV8865_FOCUS_Move_to+0x2c>
   21d34:	0080ffc4 	movi	r2,1023
   21d38:	e0bfff0d 	sth	r2,-4(fp)
  if (a_u2MovePosition < 0)     {a_u2MovePosition = 0;}
  int bSuccess;

  Focus_Released(); // waiting for VCM release I2C bus
   21d3c:	002133c0 	call	2133c <Focus_Released>

	bSuccess = oc_i2c_init_ex(I2C_OPENCORES_CAMERA_BASE, 50*1000*1000,400*1000); //I2C: 400K
   21d40:	01000134 	movhi	r4,4
   21d44:	21041804 	addi	r4,r4,4192
   21d48:	0140bef4 	movhi	r5,763
   21d4c:	297c2004 	addi	r5,r5,-3968
   21d50:	018001b4 	movhi	r6,6
   21d54:	3186a004 	addi	r6,r6,6784
   21d58:	00203940 	call	20394 <oc_i2c_init_ex>
   21d5c:	e0bffd15 	stw	r2,-12(fp)
	if (!bSuccess)
   21d60:	e0bffd17 	ldw	r2,-12(fp)
   21d64:	1000031e 	bne	r2,zero,21d74 <OV8865_FOCUS_Move_to+0x64>
		printf("failed to init MIPI- Camera i2c\r\n");
   21d68:	010000f4 	movhi	r4,3
   21d6c:	21062604 	addi	r4,r4,6296
   21d70:	0022f900 	call	22f90 <puts>

	printf("Manual set focus to %d\r\n",a_u2MovePosition);
   21d74:	e0bfff0b 	ldhu	r2,-4(fp)
   21d78:	010000f4 	movhi	r4,3
   21d7c:	21062f04 	addi	r4,r4,6332
   21d80:	100b883a 	mov	r5,r2
   21d84:	0022e8c0 	call	22e8c <printf>
  alt_u8 msb,lsb;
  msb = (a_u2MovePosition >> 4)&0x00FF;
   21d88:	e0bfff0b 	ldhu	r2,-4(fp)
   21d8c:	1004d13a 	srli	r2,r2,4
   21d90:	e0bffe05 	stb	r2,-8(fp)
  lsb = (a_u2MovePosition << 4 )&0x00F0;
   21d94:	e0bfff0b 	ldhu	r2,-4(fp)
   21d98:	1004913a 	slli	r2,r2,4
   21d9c:	e0bffe45 	stb	r2,-7(fp)
  lsb += 0x06;
   21da0:	e0bffe43 	ldbu	r2,-7(fp)
   21da4:	10800184 	addi	r2,r2,6
   21da8:	e0bffe45 	stb	r2,-7(fp)
//	printf("Write MSB=%xh, LSB=%xh\r\n", msb, lsb);
	OV8865_write_AF(msb, lsb+0x6);
   21dac:	e0fffe03 	ldbu	r3,-8(fp)
   21db0:	e0bffe43 	ldbu	r2,-7(fp)
   21db4:	10800184 	addi	r2,r2,6
   21db8:	10803fcc 	andi	r2,r2,255
   21dbc:	1809883a 	mov	r4,r3
   21dc0:	100b883a 	mov	r5,r2
   21dc4:	0021c340 	call	21c34 <OV8865_write_AF>
	usleep(1000);
   21dc8:	0100fa04 	movi	r4,1000
   21dcc:	002f3ac0 	call	2f3ac <usleep>
//	OV8865_read_AF();

	oc_i2c_uninit(I2C_OPENCORES_CAMERA_BASE);  // Release I2C bus , due to two I2C master shared!
   21dd0:	01000134 	movhi	r4,4
   21dd4:	21041804 	addi	r4,r4,4192
   21dd8:	00204d00 	call	204d0 <oc_i2c_uninit>

}
   21ddc:	e037883a 	mov	sp,fp
   21de0:	dfc00117 	ldw	ra,4(sp)
   21de4:	df000017 	ldw	fp,0(sp)
   21de8:	dec00204 	addi	sp,sp,8
   21dec:	f800283a 	ret

00021df0 <MIPI_BIN_LEVEL>:




//ZOOM
void MIPI_BIN_LEVEL(alt_u8 level){
   21df0:	defffc04 	addi	sp,sp,-16
   21df4:	dfc00315 	stw	ra,12(sp)
   21df8:	df000215 	stw	fp,8(sp)
   21dfc:	df000204 	addi	fp,sp,8
   21e00:	2005883a 	mov	r2,r4
   21e04:	e0bfff05 	stb	r2,-4(fp)
	if(level <= 1) level = 1;
   21e08:	e0bfff03 	ldbu	r2,-4(fp)
   21e0c:	108000a8 	cmpgeui	r2,r2,2
   21e10:	1000021e 	bne	r2,zero,21e1c <MIPI_BIN_LEVEL+0x2c>
   21e14:	00800044 	movi	r2,1
   21e18:	e0bfff05 	stb	r2,-4(fp)
	if(level >= 3) level = 3;
   21e1c:	e0bfff03 	ldbu	r2,-4(fp)
   21e20:	108000f0 	cmpltui	r2,r2,3
   21e24:	1000021e 	bne	r2,zero,21e30 <MIPI_BIN_LEVEL+0x40>
   21e28:	008000c4 	movi	r2,3
   21e2c:	e0bfff05 	stb	r2,-4(fp)

	  Focus_Released(); // waiting for VCM release I2C bus
   21e30:	002133c0 	call	2133c <Focus_Released>

	  int bSuccess;
		bSuccess = oc_i2c_init_ex(I2C_OPENCORES_CAMERA_BASE, 50*1000*1000,400*1000); //I2C: 400K
   21e34:	01000134 	movhi	r4,4
   21e38:	21041804 	addi	r4,r4,4192
   21e3c:	0140bef4 	movhi	r5,763
   21e40:	297c2004 	addi	r5,r5,-3968
   21e44:	018001b4 	movhi	r6,6
   21e48:	3186a004 	addi	r6,r6,6784
   21e4c:	00203940 	call	20394 <oc_i2c_init_ex>
   21e50:	e0bffe15 	stw	r2,-8(fp)
		if (!bSuccess)
   21e54:	e0bffe17 	ldw	r2,-8(fp)
   21e58:	1000031e 	bne	r2,zero,21e68 <MIPI_BIN_LEVEL+0x78>
			printf("failed to init MIPI- Camera i2c\r\n");
   21e5c:	010000f4 	movhi	r4,3
   21e60:	21062604 	addi	r4,r4,6296
   21e64:	0022f900 	call	22f90 <puts>


	OV8865_write_cmos_sensor_8(0x0100, 0x00);
   21e68:	01004004 	movi	r4,256
   21e6c:	000b883a 	mov	r5,zero
   21e70:	0021bd40 	call	21bd4 <OV8865_write_cmos_sensor_8>

	if(level == 1){
   21e74:	e0bfff03 	ldbu	r2,-4(fp)
   21e78:	10800058 	cmpnei	r2,r2,1
   21e7c:	1000131e 	bne	r2,zero,21ecc <MIPI_BIN_LEVEL+0xdc>
		OV8865_write_cmos_sensor_8(0x3814, 0x01);
   21e80:	010e0504 	movi	r4,14356
   21e84:	01400044 	movi	r5,1
   21e88:	0021bd40 	call	21bd4 <OV8865_write_cmos_sensor_8>
		OV8865_write_cmos_sensor_8(0x3815, 0x01);
   21e8c:	010e0544 	movi	r4,14357
   21e90:	01400044 	movi	r5,1
   21e94:	0021bd40 	call	21bd4 <OV8865_write_cmos_sensor_8>
		OV8865_write_cmos_sensor_8(0x382a, 0x01);
   21e98:	010e0a84 	movi	r4,14378
   21e9c:	01400044 	movi	r5,1
   21ea0:	0021bd40 	call	21bd4 <OV8865_write_cmos_sensor_8>
		OV8865_write_cmos_sensor_8(0x382b, 0x01);
   21ea4:	010e0ac4 	movi	r4,14379
   21ea8:	01400044 	movi	r5,1
   21eac:	0021bd40 	call	21bd4 <OV8865_write_cmos_sensor_8>

		OV8865_write_cmos_sensor_8(0x3830, 8);
   21eb0:	010e0c04 	movi	r4,14384
   21eb4:	01400204 	movi	r5,8
   21eb8:	0021bd40 	call	21bd4 <OV8865_write_cmos_sensor_8>
		OV8865_write_cmos_sensor_8(0x3836, 2);
   21ebc:	010e0d84 	movi	r4,14390
   21ec0:	01400084 	movi	r5,2
   21ec4:	0021bd40 	call	21bd4 <OV8865_write_cmos_sensor_8>
   21ec8:	00002b06 	br	21f78 <MIPI_BIN_LEVEL+0x188>
	}
	else if(level == 2){
   21ecc:	e0bfff03 	ldbu	r2,-4(fp)
   21ed0:	10800098 	cmpnei	r2,r2,2
   21ed4:	1000131e 	bne	r2,zero,21f24 <MIPI_BIN_LEVEL+0x134>
		OV8865_write_cmos_sensor_8(0x3814, 0x03);
   21ed8:	010e0504 	movi	r4,14356
   21edc:	014000c4 	movi	r5,3
   21ee0:	0021bd40 	call	21bd4 <OV8865_write_cmos_sensor_8>
		OV8865_write_cmos_sensor_8(0x3815, 0x01);
   21ee4:	010e0544 	movi	r4,14357
   21ee8:	01400044 	movi	r5,1
   21eec:	0021bd40 	call	21bd4 <OV8865_write_cmos_sensor_8>
		OV8865_write_cmos_sensor_8(0x382a, 0x03);
   21ef0:	010e0a84 	movi	r4,14378
   21ef4:	014000c4 	movi	r5,3
   21ef8:	0021bd40 	call	21bd4 <OV8865_write_cmos_sensor_8>
		OV8865_write_cmos_sensor_8(0x382b, 0x01);
   21efc:	010e0ac4 	movi	r4,14379
   21f00:	01400044 	movi	r5,1
   21f04:	0021bd40 	call	21bd4 <OV8865_write_cmos_sensor_8>

		OV8865_write_cmos_sensor_8(0x3830, 4);
   21f08:	010e0c04 	movi	r4,14384
   21f0c:	01400104 	movi	r5,4
   21f10:	0021bd40 	call	21bd4 <OV8865_write_cmos_sensor_8>
		OV8865_write_cmos_sensor_8(0x3836, 1);
   21f14:	010e0d84 	movi	r4,14390
   21f18:	01400044 	movi	r5,1
   21f1c:	0021bd40 	call	21bd4 <OV8865_write_cmos_sensor_8>
   21f20:	00001506 	br	21f78 <MIPI_BIN_LEVEL+0x188>

	}
	else if(level == 3){
   21f24:	e0bfff03 	ldbu	r2,-4(fp)
   21f28:	108000d8 	cmpnei	r2,r2,3
   21f2c:	1000121e 	bne	r2,zero,21f78 <MIPI_BIN_LEVEL+0x188>
		OV8865_write_cmos_sensor_8(0x3814, 0x07);
   21f30:	010e0504 	movi	r4,14356
   21f34:	014001c4 	movi	r5,7
   21f38:	0021bd40 	call	21bd4 <OV8865_write_cmos_sensor_8>
		OV8865_write_cmos_sensor_8(0x3815, 0x01);
   21f3c:	010e0544 	movi	r4,14357
   21f40:	01400044 	movi	r5,1
   21f44:	0021bd40 	call	21bd4 <OV8865_write_cmos_sensor_8>
		OV8865_write_cmos_sensor_8(0x382a, 0x07);
   21f48:	010e0a84 	movi	r4,14378
   21f4c:	014001c4 	movi	r5,7
   21f50:	0021bd40 	call	21bd4 <OV8865_write_cmos_sensor_8>
		OV8865_write_cmos_sensor_8(0x382b, 0x01);
   21f54:	010e0ac4 	movi	r4,14379
   21f58:	01400044 	movi	r5,1
   21f5c:	0021bd40 	call	21bd4 <OV8865_write_cmos_sensor_8>

		OV8865_write_cmos_sensor_8(0x3830, 8);
   21f60:	010e0c04 	movi	r4,14384
   21f64:	01400204 	movi	r5,8
   21f68:	0021bd40 	call	21bd4 <OV8865_write_cmos_sensor_8>
		OV8865_write_cmos_sensor_8(0x3836, 2);
   21f6c:	010e0d84 	movi	r4,14390
   21f70:	01400084 	movi	r5,2
   21f74:	0021bd40 	call	21bd4 <OV8865_write_cmos_sensor_8>
	}
    usleep(10000);
   21f78:	0109c404 	movi	r4,10000
   21f7c:	002f3ac0 	call	2f3ac <usleep>
	OV8865_write_cmos_sensor_8(0x0100, 0x01);
   21f80:	01004004 	movi	r4,256
   21f84:	01400044 	movi	r5,1
   21f88:	0021bd40 	call	21bd4 <OV8865_write_cmos_sensor_8>

	oc_i2c_uninit(I2C_OPENCORES_CAMERA_BASE);  // Release I2C bus , due to two I2C master shared!
   21f8c:	01000134 	movhi	r4,4
   21f90:	21041804 	addi	r4,r4,4192
   21f94:	00204d00 	call	204d0 <oc_i2c_uninit>

}
   21f98:	e037883a 	mov	sp,fp
   21f9c:	dfc00117 	ldw	ra,4(sp)
   21fa0:	df000017 	ldw	fp,0(sp)
   21fa4:	dec00204 	addi	sp,sp,8
   21fa8:	f800283a 	ret

00021fac <MipiCameraInit>:
//		OV8865_write_cmos_sensor_8(0x0100, 0x01);
//}


void MipiCameraInit(void)
{
   21fac:	defffb04 	addi	sp,sp,-20
   21fb0:	dfc00415 	stw	ra,16(sp)
   21fb4:	df000315 	stw	fp,12(sp)
   21fb8:	df000304 	addi	fp,sp,12

    int i, num;
    int bSuccess;

    Focus_Released(); // waiting for VCM release I2C bus
   21fbc:	002133c0 	call	2133c <Focus_Released>


		bSuccess = oc_i2c_init_ex(I2C_OPENCORES_CAMERA_BASE, 50*1000*1000,400*1000); //I2C: 400K
   21fc0:	01000134 	movhi	r4,4
   21fc4:	21041804 	addi	r4,r4,4192
   21fc8:	0140bef4 	movhi	r5,763
   21fcc:	297c2004 	addi	r5,r5,-3968
   21fd0:	018001b4 	movhi	r6,6
   21fd4:	3186a004 	addi	r6,r6,6784
   21fd8:	00203940 	call	20394 <oc_i2c_init_ex>
   21fdc:	e0bffe15 	stw	r2,-8(fp)
		if (!bSuccess)
   21fe0:	e0bffe17 	ldw	r2,-8(fp)
   21fe4:	1000031e 	bne	r2,zero,21ff4 <MipiCameraInit+0x48>
			printf("failed to init MIPI- Camera i2c\r\n");
   21fe8:	010000f4 	movhi	r4,3
   21fec:	21062604 	addi	r4,r4,6296
   21ff0:	0022f900 	call	22f90 <puts>
//        usleep(10000);
//    }
//


	 OV8865DB("\nStart MipiCameraInit -OV8865!\r\n");
   21ff4:	010000f4 	movhi	r4,3
   21ff8:	21063604 	addi	r4,r4,6360
   21ffc:	0022f900 	call	22f90 <puts>
	 OV8865DB("Write Read Test!\n");
   22000:	010000f4 	movhi	r4,3
   22004:	21063e04 	addi	r4,r4,6392
   22008:	0022f900 	call	22f90 <puts>

	    for(i=0;i<10;i++){
   2200c:	e03ffd15 	stw	zero,-12(fp)
   22010:	00001406 	br	22064 <MipiCameraInit+0xb8>
	       OV8865_write_cmos_sensor_8(0x3809,i);
   22014:	e0bffd17 	ldw	r2,-12(fp)
   22018:	10803fcc 	andi	r2,r2,255
   2201c:	010e0244 	movi	r4,14345
   22020:	100b883a 	mov	r5,r2
   22024:	0021bd40 	call	21bd4 <OV8865_write_cmos_sensor_8>
	      usleep(100);
   22028:	01001904 	movi	r4,100
   2202c:	002f3ac0 	call	2f3ac <usleep>
	        printf("%d (%d)\n",OV8865_read_cmos_sensor_8(0x3809),i);
   22030:	010e0244 	movi	r4,14345
   22034:	0021b780 	call	21b78 <OV8865_read_cmos_sensor_8>
   22038:	10803fcc 	andi	r2,r2,255
   2203c:	010000f4 	movhi	r4,3
   22040:	21064304 	addi	r4,r4,6412
   22044:	100b883a 	mov	r5,r2
   22048:	e1bffd17 	ldw	r6,-12(fp)
   2204c:	0022e8c0 	call	22e8c <printf>
	      usleep(100);
   22050:	01001904 	movi	r4,100
   22054:	002f3ac0 	call	2f3ac <usleep>


	 OV8865DB("\nStart MipiCameraInit -OV8865!\r\n");
	 OV8865DB("Write Read Test!\n");

	    for(i=0;i<10;i++){
   22058:	e0bffd17 	ldw	r2,-12(fp)
   2205c:	10800044 	addi	r2,r2,1
   22060:	e0bffd15 	stw	r2,-12(fp)
   22064:	e0bffd17 	ldw	r2,-12(fp)
   22068:	10800290 	cmplti	r2,r2,10
   2206c:	103fe91e 	bne	r2,zero,22014 <_gp+0xfffe61a0>
	       OV8865_write_cmos_sensor_8(0x3809,i);
	      usleep(100);
	        printf("%d (%d)\n",OV8865_read_cmos_sensor_8(0x3809),i);
	      usleep(100);
	    }
	 num = sizeof(MipiCameraReg)/sizeof(MipiCameraReg[0]);
   22070:	00804ec4 	movi	r2,315
   22074:	e0bfff15 	stw	r2,-4(fp)
     for(i=0;i<num;i++){
   22078:	e03ffd15 	stw	zero,-12(fp)
   2207c:	00003c06 	br	22170 <MipiCameraInit+0x1c4>

    	 if (MipiCameraReg[i].Type == TIME_DELAY)   usleep(MipiCameraReg[i].Data*100);
   22080:	008000f4 	movhi	r2,3
   22084:	10871904 	addi	r2,r2,7268
   22088:	e0fffd17 	ldw	r3,-12(fp)
   2208c:	18c001a4 	muli	r3,r3,6
   22090:	10c5883a 	add	r2,r2,r3
   22094:	10800003 	ldbu	r2,0(r2)
   22098:	10803fcc 	andi	r2,r2,255
   2209c:	108000d8 	cmpnei	r2,r2,3
   220a0:	10000c1e 	bne	r2,zero,220d4 <MipiCameraInit+0x128>
   220a4:	008000f4 	movhi	r2,3
   220a8:	10871904 	addi	r2,r2,7268
   220ac:	e0fffd17 	ldw	r3,-12(fp)
   220b0:	18c001a4 	muli	r3,r3,6
   220b4:	18c00104 	addi	r3,r3,4
   220b8:	10c5883a 	add	r2,r2,r3
   220bc:	10800003 	ldbu	r2,0(r2)
   220c0:	10803fcc 	andi	r2,r2,255
   220c4:	10801924 	muli	r2,r2,100
   220c8:	1009883a 	mov	r4,r2
   220cc:	002f3ac0 	call	2f3ac <usleep>
   220d0:	00002406 	br	22164 <MipiCameraInit+0x1b8>
    	 else if(MipiCameraReg[i].Type == END_OF_SCRIPT)   break;
   220d4:	008000f4 	movhi	r2,3
   220d8:	10871904 	addi	r2,r2,7268
   220dc:	e0fffd17 	ldw	r3,-12(fp)
   220e0:	18c001a4 	muli	r3,r3,6
   220e4:	10c5883a 	add	r2,r2,r3
   220e8:	10800003 	ldbu	r2,0(r2)
   220ec:	10803fcc 	andi	r2,r2,255
   220f0:	10800118 	cmpnei	r2,r2,4
   220f4:	1000011e 	bne	r2,zero,220fc <MipiCameraInit+0x150>
   220f8:	00002006 	br	2217c <MipiCameraInit+0x1d0>
    	 else if(MipiCameraReg[i].Type == 0x6c)   OV8865_write_cmos_sensor_8(MipiCameraReg[i].Addr, MipiCameraReg[i].Data);
   220fc:	008000f4 	movhi	r2,3
   22100:	10871904 	addi	r2,r2,7268
   22104:	e0fffd17 	ldw	r3,-12(fp)
   22108:	18c001a4 	muli	r3,r3,6
   2210c:	10c5883a 	add	r2,r2,r3
   22110:	10800003 	ldbu	r2,0(r2)
   22114:	10803fcc 	andi	r2,r2,255
   22118:	10801b18 	cmpnei	r2,r2,108
   2211c:	1000111e 	bne	r2,zero,22164 <MipiCameraInit+0x1b8>
   22120:	008000f4 	movhi	r2,3
   22124:	10871904 	addi	r2,r2,7268
   22128:	e0fffd17 	ldw	r3,-12(fp)
   2212c:	18c001a4 	muli	r3,r3,6
   22130:	10c5883a 	add	r2,r2,r3
   22134:	1080008b 	ldhu	r2,2(r2)
   22138:	113fffcc 	andi	r4,r2,65535
   2213c:	008000f4 	movhi	r2,3
   22140:	10871904 	addi	r2,r2,7268
   22144:	e0fffd17 	ldw	r3,-12(fp)
   22148:	18c001a4 	muli	r3,r3,6
   2214c:	18c00104 	addi	r3,r3,4
   22150:	10c5883a 	add	r2,r2,r3
   22154:	10800003 	ldbu	r2,0(r2)
   22158:	10803fcc 	andi	r2,r2,255
   2215c:	100b883a 	mov	r5,r2
   22160:	0021bd40 	call	21bd4 <OV8865_write_cmos_sensor_8>
	      usleep(100);
	        printf("%d (%d)\n",OV8865_read_cmos_sensor_8(0x3809),i);
	      usleep(100);
	    }
	 num = sizeof(MipiCameraReg)/sizeof(MipiCameraReg[0]);
     for(i=0;i<num;i++){
   22164:	e0bffd17 	ldw	r2,-12(fp)
   22168:	10800044 	addi	r2,r2,1
   2216c:	e0bffd15 	stw	r2,-12(fp)
   22170:	e0fffd17 	ldw	r3,-12(fp)
   22174:	e0bfff17 	ldw	r2,-4(fp)
   22178:	18bfc116 	blt	r3,r2,22080 <_gp+0xfffe620c>
    	 else if(MipiCameraReg[i].Type == END_OF_SCRIPT)   break;
    	 else if(MipiCameraReg[i].Type == 0x6c)   OV8865_write_cmos_sensor_8(MipiCameraReg[i].Addr, MipiCameraReg[i].Data);
     }


 	oc_i2c_uninit(I2C_OPENCORES_CAMERA_BASE);  // Release I2C bus , due to two I2C master shared!
   2217c:	01000134 	movhi	r4,4
   22180:	21041804 	addi	r4,r4,4192
   22184:	00204d00 	call	204d0 <oc_i2c_uninit>



	 OV8865DB("\nEnd MipiCameraInit! -OV8865!\r\n\n");
   22188:	010000f4 	movhi	r4,3
   2218c:	21064604 	addi	r4,r4,6424
   22190:	0022f900 	call	22f90 <puts>

}
   22194:	e037883a 	mov	sp,fp
   22198:	dfc00117 	ldw	ra,4(sp)
   2219c:	df000017 	ldw	fp,0(sp)
   221a0:	dec00204 	addi	sp,sp,8
   221a4:	f800283a 	ret

000221a8 <QUEUE_New>:
#include "queue.h"




QUEUE_STRUCT* QUEUE_New(int nQueueNum){
   221a8:	defffb04 	addi	sp,sp,-20
   221ac:	dfc00415 	stw	ra,16(sp)
   221b0:	df000315 	stw	fp,12(sp)
   221b4:	df000304 	addi	fp,sp,12
   221b8:	e13fff15 	stw	r4,-4(fp)
    int nSize;
    QUEUE_STRUCT *pQueue;
    nSize = sizeof(QUEUE_STRUCT)+nQueueNum*sizeof(alt_u32);
   221bc:	e0bfff17 	ldw	r2,-4(fp)
   221c0:	10800144 	addi	r2,r2,5
   221c4:	1085883a 	add	r2,r2,r2
   221c8:	1085883a 	add	r2,r2,r2
   221cc:	e0bffd15 	stw	r2,-12(fp)
    pQueue = (QUEUE_STRUCT *)malloc(nSize);
   221d0:	e0bffd17 	ldw	r2,-12(fp)
   221d4:	1009883a 	mov	r4,r2
   221d8:	002256c0 	call	2256c <malloc>
   221dc:	e0bffe15 	stw	r2,-8(fp)
    memset((void *)pQueue, 0, nSize);
   221e0:	e0bffd17 	ldw	r2,-12(fp)
   221e4:	e13ffe17 	ldw	r4,-8(fp)
   221e8:	000b883a 	mov	r5,zero
   221ec:	100d883a 	mov	r6,r2
   221f0:	0022d3c0 	call	22d3c <memset>
    pQueue->num = nQueueNum;
   221f4:	e0ffff17 	ldw	r3,-4(fp)
   221f8:	e0bffe17 	ldw	r2,-8(fp)
   221fc:	10c00015 	stw	r3,0(r2)
    return pQueue;
   22200:	e0bffe17 	ldw	r2,-8(fp)
}
   22204:	e037883a 	mov	sp,fp
   22208:	dfc00117 	ldw	ra,4(sp)
   2220c:	df000017 	ldw	fp,0(sp)
   22210:	dec00204 	addi	sp,sp,8
   22214:	f800283a 	ret

00022218 <QUEUE_Delete>:

void QUEUE_Delete(QUEUE_STRUCT *pQueue){
   22218:	defffd04 	addi	sp,sp,-12
   2221c:	dfc00215 	stw	ra,8(sp)
   22220:	df000115 	stw	fp,4(sp)
   22224:	df000104 	addi	fp,sp,4
   22228:	e13fff15 	stw	r4,-4(fp)
    free(pQueue);
   2222c:	e13fff17 	ldw	r4,-4(fp)
   22230:	00225800 	call	22580 <free>
}
   22234:	e037883a 	mov	sp,fp
   22238:	dfc00117 	ldw	ra,4(sp)
   2223c:	df000017 	ldw	fp,0(sp)
   22240:	dec00204 	addi	sp,sp,8
   22244:	f800283a 	ret

00022248 <QUEUE_IsEmpty>:

bool QUEUE_IsEmpty(QUEUE_STRUCT *pQueue){
   22248:	defffe04 	addi	sp,sp,-8
   2224c:	df000115 	stw	fp,4(sp)
   22250:	df000104 	addi	fp,sp,4
   22254:	e13fff15 	stw	r4,-4(fp)
    if (pQueue->front == pQueue->rear)
   22258:	e0bfff17 	ldw	r2,-4(fp)
   2225c:	10c00117 	ldw	r3,4(r2)
   22260:	e0bfff17 	ldw	r2,-4(fp)
   22264:	10800217 	ldw	r2,8(r2)
   22268:	1880021e 	bne	r3,r2,22274 <QUEUE_IsEmpty+0x2c>
        return TRUE;
   2226c:	00800044 	movi	r2,1
   22270:	00000106 	br	22278 <QUEUE_IsEmpty+0x30>
    return FALSE;
   22274:	0005883a 	mov	r2,zero
}
   22278:	e037883a 	mov	sp,fp
   2227c:	df000017 	ldw	fp,0(sp)
   22280:	dec00104 	addi	sp,sp,4
   22284:	f800283a 	ret

00022288 <QUEUE_IsFull>:

bool QUEUE_IsFull(QUEUE_STRUCT *pQueue){
   22288:	defffd04 	addi	sp,sp,-12
   2228c:	dfc00215 	stw	ra,8(sp)
   22290:	df000115 	stw	fp,4(sp)
   22294:	df000104 	addi	fp,sp,4
   22298:	e13fff15 	stw	r4,-4(fp)
    if (((pQueue->front+1)%pQueue->num) == pQueue->rear)
   2229c:	e0bfff17 	ldw	r2,-4(fp)
   222a0:	10800117 	ldw	r2,4(r2)
   222a4:	10c00044 	addi	r3,r2,1
   222a8:	e0bfff17 	ldw	r2,-4(fp)
   222ac:	10800017 	ldw	r2,0(r2)
   222b0:	1809883a 	mov	r4,r3
   222b4:	100b883a 	mov	r5,r2
   222b8:	00225640 	call	22564 <__umodsi3>
   222bc:	1007883a 	mov	r3,r2
   222c0:	e0bfff17 	ldw	r2,-4(fp)
   222c4:	10800217 	ldw	r2,8(r2)
   222c8:	1880021e 	bne	r3,r2,222d4 <QUEUE_IsFull+0x4c>
        return TRUE;
   222cc:	00800044 	movi	r2,1
   222d0:	00000106 	br	222d8 <QUEUE_IsFull+0x50>
    return FALSE;
   222d4:	0005883a 	mov	r2,zero
}
   222d8:	e037883a 	mov	sp,fp
   222dc:	dfc00117 	ldw	ra,4(sp)
   222e0:	df000017 	ldw	fp,0(sp)
   222e4:	dec00204 	addi	sp,sp,8
   222e8:	f800283a 	ret

000222ec <QUEUE_Push>:

bool QUEUE_Push(QUEUE_STRUCT *pQueue, alt_u32 data32){
   222ec:	defffc04 	addi	sp,sp,-16
   222f0:	dfc00315 	stw	ra,12(sp)
   222f4:	df000215 	stw	fp,8(sp)
   222f8:	df000204 	addi	fp,sp,8
   222fc:	e13ffe15 	stw	r4,-8(fp)
   22300:	e17fff15 	stw	r5,-4(fp)
    if (QUEUE_IsFull(pQueue))
   22304:	e13ffe17 	ldw	r4,-8(fp)
   22308:	00222880 	call	22288 <QUEUE_IsFull>
   2230c:	10000226 	beq	r2,zero,22318 <QUEUE_Push+0x2c>
        return FALSE;
   22310:	0005883a 	mov	r2,zero
   22314:	00001506 	br	2236c <QUEUE_Push+0x80>
    pQueue->data[pQueue->front] = data32;
   22318:	e0bffe17 	ldw	r2,-8(fp)
   2231c:	10800117 	ldw	r2,4(r2)
   22320:	e0fffe17 	ldw	r3,-8(fp)
   22324:	108000c4 	addi	r2,r2,3
   22328:	1085883a 	add	r2,r2,r2
   2232c:	1085883a 	add	r2,r2,r2
   22330:	1885883a 	add	r2,r3,r2
   22334:	e0ffff17 	ldw	r3,-4(fp)
   22338:	10c00015 	stw	r3,0(r2)
    pQueue->front = (pQueue->front+1)%pQueue->num;        
   2233c:	e0bffe17 	ldw	r2,-8(fp)
   22340:	10800117 	ldw	r2,4(r2)
   22344:	10c00044 	addi	r3,r2,1
   22348:	e0bffe17 	ldw	r2,-8(fp)
   2234c:	10800017 	ldw	r2,0(r2)
   22350:	1809883a 	mov	r4,r3
   22354:	100b883a 	mov	r5,r2
   22358:	00225640 	call	22564 <__umodsi3>
   2235c:	1007883a 	mov	r3,r2
   22360:	e0bffe17 	ldw	r2,-8(fp)
   22364:	10c00115 	stw	r3,4(r2)
    return TRUE;
   22368:	00800044 	movi	r2,1
}
   2236c:	e037883a 	mov	sp,fp
   22370:	dfc00117 	ldw	ra,4(sp)
   22374:	df000017 	ldw	fp,0(sp)
   22378:	dec00204 	addi	sp,sp,8
   2237c:	f800283a 	ret

00022380 <QUEUE_Pop>:

alt_u32 QUEUE_Pop(QUEUE_STRUCT *pQueue){
   22380:	defffc04 	addi	sp,sp,-16
   22384:	dfc00315 	stw	ra,12(sp)
   22388:	df000215 	stw	fp,8(sp)
   2238c:	df000204 	addi	fp,sp,8
   22390:	e13fff15 	stw	r4,-4(fp)
    alt_u32 data32;
    if (QUEUE_IsEmpty(pQueue))
   22394:	e13fff17 	ldw	r4,-4(fp)
   22398:	00222480 	call	22248 <QUEUE_IsEmpty>
   2239c:	10000226 	beq	r2,zero,223a8 <QUEUE_Pop+0x28>
        return 0;
   223a0:	0005883a 	mov	r2,zero
   223a4:	00001506 	br	223fc <QUEUE_Pop+0x7c>
    data32 = pQueue->data[pQueue->rear];
   223a8:	e0bfff17 	ldw	r2,-4(fp)
   223ac:	10800217 	ldw	r2,8(r2)
   223b0:	e0ffff17 	ldw	r3,-4(fp)
   223b4:	108000c4 	addi	r2,r2,3
   223b8:	1085883a 	add	r2,r2,r2
   223bc:	1085883a 	add	r2,r2,r2
   223c0:	1885883a 	add	r2,r3,r2
   223c4:	10800017 	ldw	r2,0(r2)
   223c8:	e0bffe15 	stw	r2,-8(fp)
    pQueue->rear = (pQueue->rear+1)%pQueue->num;        
   223cc:	e0bfff17 	ldw	r2,-4(fp)
   223d0:	10800217 	ldw	r2,8(r2)
   223d4:	10c00044 	addi	r3,r2,1
   223d8:	e0bfff17 	ldw	r2,-4(fp)
   223dc:	10800017 	ldw	r2,0(r2)
   223e0:	1809883a 	mov	r4,r3
   223e4:	100b883a 	mov	r5,r2
   223e8:	00225640 	call	22564 <__umodsi3>
   223ec:	1007883a 	mov	r3,r2
   223f0:	e0bfff17 	ldw	r2,-4(fp)
   223f4:	10c00215 	stw	r3,8(r2)
    return data32;
   223f8:	e0bffe17 	ldw	r2,-8(fp)
}
   223fc:	e037883a 	mov	sp,fp
   22400:	dfc00117 	ldw	ra,4(sp)
   22404:	df000017 	ldw	fp,0(sp)
   22408:	dec00204 	addi	sp,sp,8
   2240c:	f800283a 	ret

00022410 <QUEUE_Empty>:

void QUEUE_Empty(QUEUE_STRUCT *pQueue){
   22410:	defffe04 	addi	sp,sp,-8
   22414:	df000115 	stw	fp,4(sp)
   22418:	df000104 	addi	fp,sp,4
   2241c:	e13fff15 	stw	r4,-4(fp)
    pQueue->front = 0;
   22420:	e0bfff17 	ldw	r2,-4(fp)
   22424:	10000115 	stw	zero,4(r2)
    pQueue->rear = 0;
   22428:	e0bfff17 	ldw	r2,-4(fp)
   2242c:	10000215 	stw	zero,8(r2)
}
   22430:	e037883a 	mov	sp,fp
   22434:	df000017 	ldw	fp,0(sp)
   22438:	dec00104 	addi	sp,sp,4
   2243c:	f800283a 	ret

00022440 <udivmodsi4>:
   22440:	2900182e 	bgeu	r5,r4,224a4 <udivmodsi4+0x64>
   22444:	28001716 	blt	r5,zero,224a4 <udivmodsi4+0x64>
   22448:	00800804 	movi	r2,32
   2244c:	00c00044 	movi	r3,1
   22450:	00000206 	br	2245c <udivmodsi4+0x1c>
   22454:	10001126 	beq	r2,zero,2249c <udivmodsi4+0x5c>
   22458:	28000516 	blt	r5,zero,22470 <udivmodsi4+0x30>
   2245c:	294b883a 	add	r5,r5,r5
   22460:	10bfffc4 	addi	r2,r2,-1
   22464:	18c7883a 	add	r3,r3,r3
   22468:	293ffa36 	bltu	r5,r4,22454 <_gp+0xfffe65e0>
   2246c:	18000b26 	beq	r3,zero,2249c <udivmodsi4+0x5c>
   22470:	0005883a 	mov	r2,zero
   22474:	21400236 	bltu	r4,r5,22480 <udivmodsi4+0x40>
   22478:	2149c83a 	sub	r4,r4,r5
   2247c:	10c4b03a 	or	r2,r2,r3
   22480:	1806d07a 	srli	r3,r3,1
   22484:	280ad07a 	srli	r5,r5,1
   22488:	183ffa1e 	bne	r3,zero,22474 <_gp+0xfffe6600>
   2248c:	3000011e 	bne	r6,zero,22494 <udivmodsi4+0x54>
   22490:	f800283a 	ret
   22494:	2005883a 	mov	r2,r4
   22498:	f800283a 	ret
   2249c:	0005883a 	mov	r2,zero
   224a0:	003ffa06 	br	2248c <_gp+0xfffe6618>
   224a4:	00c00044 	movi	r3,1
   224a8:	003ff106 	br	22470 <_gp+0xfffe65fc>

000224ac <__divsi3>:
   224ac:	defffe04 	addi	sp,sp,-8
   224b0:	dfc00115 	stw	ra,4(sp)
   224b4:	dc000015 	stw	r16,0(sp)
   224b8:	20000b16 	blt	r4,zero,224e8 <__divsi3+0x3c>
   224bc:	0021883a 	mov	r16,zero
   224c0:	28000c16 	blt	r5,zero,224f4 <__divsi3+0x48>
   224c4:	000d883a 	mov	r6,zero
   224c8:	00224400 	call	22440 <udivmodsi4>
   224cc:	0407c83a 	sub	r3,zero,r16
   224d0:	1884f03a 	xor	r2,r3,r2
   224d4:	1405883a 	add	r2,r2,r16
   224d8:	dfc00117 	ldw	ra,4(sp)
   224dc:	dc000017 	ldw	r16,0(sp)
   224e0:	dec00204 	addi	sp,sp,8
   224e4:	f800283a 	ret
   224e8:	0109c83a 	sub	r4,zero,r4
   224ec:	04000044 	movi	r16,1
   224f0:	283ff40e 	bge	r5,zero,224c4 <_gp+0xfffe6650>
   224f4:	014bc83a 	sub	r5,zero,r5
   224f8:	8400005c 	xori	r16,r16,1
   224fc:	003ff106 	br	224c4 <_gp+0xfffe6650>

00022500 <__modsi3>:
   22500:	defffd04 	addi	sp,sp,-12
   22504:	dfc00215 	stw	ra,8(sp)
   22508:	dc400115 	stw	r17,4(sp)
   2250c:	dc000015 	stw	r16,0(sp)
   22510:	20000c16 	blt	r4,zero,22544 <__modsi3+0x44>
   22514:	0023883a 	mov	r17,zero
   22518:	0021883a 	mov	r16,zero
   2251c:	28000d16 	blt	r5,zero,22554 <__modsi3+0x54>
   22520:	01800044 	movi	r6,1
   22524:	00224400 	call	22440 <udivmodsi4>
   22528:	1404f03a 	xor	r2,r2,r16
   2252c:	8885883a 	add	r2,r17,r2
   22530:	dfc00217 	ldw	ra,8(sp)
   22534:	dc400117 	ldw	r17,4(sp)
   22538:	dc000017 	ldw	r16,0(sp)
   2253c:	dec00304 	addi	sp,sp,12
   22540:	f800283a 	ret
   22544:	0109c83a 	sub	r4,zero,r4
   22548:	04400044 	movi	r17,1
   2254c:	043fffc4 	movi	r16,-1
   22550:	283ff30e 	bge	r5,zero,22520 <_gp+0xfffe66ac>
   22554:	014bc83a 	sub	r5,zero,r5
   22558:	003ff106 	br	22520 <_gp+0xfffe66ac>

0002255c <__udivsi3>:
   2255c:	000d883a 	mov	r6,zero
   22560:	00224401 	jmpi	22440 <udivmodsi4>

00022564 <__umodsi3>:
   22564:	01800044 	movi	r6,1
   22568:	00224401 	jmpi	22440 <udivmodsi4>

0002256c <malloc>:
   2256c:	008000f4 	movhi	r2,3
   22570:	108fa304 	addi	r2,r2,16012
   22574:	200b883a 	mov	r5,r4
   22578:	11000017 	ldw	r4,0(r2)
   2257c:	00225941 	jmpi	22594 <_malloc_r>

00022580 <free>:
   22580:	008000f4 	movhi	r2,3
   22584:	108fa304 	addi	r2,r2,16012
   22588:	200b883a 	mov	r5,r4
   2258c:	11000017 	ldw	r4,0(r2)
   22590:	00272941 	jmpi	27294 <_free_r>

00022594 <_malloc_r>:
   22594:	defff504 	addi	sp,sp,-44
   22598:	dc800315 	stw	r18,12(sp)
   2259c:	dfc00a15 	stw	ra,40(sp)
   225a0:	df000915 	stw	fp,36(sp)
   225a4:	ddc00815 	stw	r23,32(sp)
   225a8:	dd800715 	stw	r22,28(sp)
   225ac:	dd400615 	stw	r21,24(sp)
   225b0:	dd000515 	stw	r20,20(sp)
   225b4:	dcc00415 	stw	r19,16(sp)
   225b8:	dc400215 	stw	r17,8(sp)
   225bc:	dc000115 	stw	r16,4(sp)
   225c0:	288002c4 	addi	r2,r5,11
   225c4:	00c00584 	movi	r3,22
   225c8:	2025883a 	mov	r18,r4
   225cc:	18802a2e 	bgeu	r3,r2,22678 <_malloc_r+0xe4>
   225d0:	047ffe04 	movi	r17,-8
   225d4:	1462703a 	and	r17,r2,r17
   225d8:	88009e16 	blt	r17,zero,22854 <_malloc_r+0x2c0>
   225dc:	89409d36 	bltu	r17,r5,22854 <_malloc_r+0x2c0>
   225e0:	002ef740 	call	2ef74 <__malloc_lock>
   225e4:	00807dc4 	movi	r2,503
   225e8:	14402736 	bltu	r2,r17,22688 <_malloc_r+0xf4>
   225ec:	8806d0fa 	srli	r3,r17,3
   225f0:	04c000f4 	movhi	r19,3
   225f4:	9cc8f204 	addi	r19,r19,9160
   225f8:	18c5883a 	add	r2,r3,r3
   225fc:	1085883a 	add	r2,r2,r2
   22600:	1085883a 	add	r2,r2,r2
   22604:	9885883a 	add	r2,r19,r2
   22608:	14000317 	ldw	r16,12(r2)
   2260c:	80814a26 	beq	r16,r2,22b38 <_malloc_r+0x5a4>
   22610:	80c00117 	ldw	r3,4(r16)
   22614:	81000317 	ldw	r4,12(r16)
   22618:	00bfff04 	movi	r2,-4
   2261c:	1884703a 	and	r2,r3,r2
   22620:	81400217 	ldw	r5,8(r16)
   22624:	8085883a 	add	r2,r16,r2
   22628:	10c00117 	ldw	r3,4(r2)
   2262c:	29000315 	stw	r4,12(r5)
   22630:	21400215 	stw	r5,8(r4)
   22634:	18c00054 	ori	r3,r3,1
   22638:	10c00115 	stw	r3,4(r2)
   2263c:	9009883a 	mov	r4,r18
   22640:	002ef940 	call	2ef94 <__malloc_unlock>
   22644:	80800204 	addi	r2,r16,8
   22648:	dfc00a17 	ldw	ra,40(sp)
   2264c:	df000917 	ldw	fp,36(sp)
   22650:	ddc00817 	ldw	r23,32(sp)
   22654:	dd800717 	ldw	r22,28(sp)
   22658:	dd400617 	ldw	r21,24(sp)
   2265c:	dd000517 	ldw	r20,20(sp)
   22660:	dcc00417 	ldw	r19,16(sp)
   22664:	dc800317 	ldw	r18,12(sp)
   22668:	dc400217 	ldw	r17,8(sp)
   2266c:	dc000117 	ldw	r16,4(sp)
   22670:	dec00b04 	addi	sp,sp,44
   22674:	f800283a 	ret
   22678:	04400404 	movi	r17,16
   2267c:	89407536 	bltu	r17,r5,22854 <_malloc_r+0x2c0>
   22680:	002ef740 	call	2ef74 <__malloc_lock>
   22684:	003fd906 	br	225ec <_gp+0xfffe6778>
   22688:	8806d27a 	srli	r3,r17,9
   2268c:	18007526 	beq	r3,zero,22864 <_malloc_r+0x2d0>
   22690:	00800104 	movi	r2,4
   22694:	10c0ef36 	bltu	r2,r3,22a54 <_malloc_r+0x4c0>
   22698:	8806d1ba 	srli	r3,r17,6
   2269c:	19c00e04 	addi	r7,r3,56
   226a0:	39cb883a 	add	r5,r7,r7
   226a4:	04c000f4 	movhi	r19,3
   226a8:	294b883a 	add	r5,r5,r5
   226ac:	9cc8f204 	addi	r19,r19,9160
   226b0:	294b883a 	add	r5,r5,r5
   226b4:	994b883a 	add	r5,r19,r5
   226b8:	2c000317 	ldw	r16,12(r5)
   226bc:	2c000e26 	beq	r5,r16,226f8 <_malloc_r+0x164>
   226c0:	80800117 	ldw	r2,4(r16)
   226c4:	01bfff04 	movi	r6,-4
   226c8:	010003c4 	movi	r4,15
   226cc:	1184703a 	and	r2,r2,r6
   226d0:	1447c83a 	sub	r3,r2,r17
   226d4:	20c00716 	blt	r4,r3,226f4 <_malloc_r+0x160>
   226d8:	1800650e 	bge	r3,zero,22870 <_malloc_r+0x2dc>
   226dc:	84000317 	ldw	r16,12(r16)
   226e0:	2c000526 	beq	r5,r16,226f8 <_malloc_r+0x164>
   226e4:	80800117 	ldw	r2,4(r16)
   226e8:	1184703a 	and	r2,r2,r6
   226ec:	1447c83a 	sub	r3,r2,r17
   226f0:	20fff90e 	bge	r4,r3,226d8 <_gp+0xfffe6864>
   226f4:	39ffffc4 	addi	r7,r7,-1
   226f8:	38c00044 	addi	r3,r7,1
   226fc:	018000f4 	movhi	r6,3
   22700:	9c000417 	ldw	r16,16(r19)
   22704:	3188f204 	addi	r6,r6,9160
   22708:	32400204 	addi	r9,r6,8
   2270c:	82410326 	beq	r16,r9,22b1c <_malloc_r+0x588>
   22710:	81000117 	ldw	r4,4(r16)
   22714:	00bfff04 	movi	r2,-4
   22718:	208e703a 	and	r7,r4,r2
   2271c:	3c45c83a 	sub	r2,r7,r17
   22720:	010003c4 	movi	r4,15
   22724:	2080ee16 	blt	r4,r2,22ae0 <_malloc_r+0x54c>
   22728:	32400515 	stw	r9,20(r6)
   2272c:	32400415 	stw	r9,16(r6)
   22730:	1000510e 	bge	r2,zero,22878 <_malloc_r+0x2e4>
   22734:	00807fc4 	movi	r2,511
   22738:	11c0ce36 	bltu	r2,r7,22a74 <_malloc_r+0x4e0>
   2273c:	3808d0fa 	srli	r4,r7,3
   22740:	01c00044 	movi	r7,1
   22744:	30800117 	ldw	r2,4(r6)
   22748:	210b883a 	add	r5,r4,r4
   2274c:	294b883a 	add	r5,r5,r5
   22750:	2009d0ba 	srai	r4,r4,2
   22754:	294b883a 	add	r5,r5,r5
   22758:	298b883a 	add	r5,r5,r6
   2275c:	2a000217 	ldw	r8,8(r5)
   22760:	3908983a 	sll	r4,r7,r4
   22764:	81400315 	stw	r5,12(r16)
   22768:	82000215 	stw	r8,8(r16)
   2276c:	2088b03a 	or	r4,r4,r2
   22770:	2c000215 	stw	r16,8(r5)
   22774:	31000115 	stw	r4,4(r6)
   22778:	44000315 	stw	r16,12(r8)
   2277c:	1805d0ba 	srai	r2,r3,2
   22780:	01400044 	movi	r5,1
   22784:	288a983a 	sll	r5,r5,r2
   22788:	21404336 	bltu	r4,r5,22898 <_malloc_r+0x304>
   2278c:	2144703a 	and	r2,r4,r5
   22790:	10000a1e 	bne	r2,zero,227bc <_malloc_r+0x228>
   22794:	00bfff04 	movi	r2,-4
   22798:	294b883a 	add	r5,r5,r5
   2279c:	1886703a 	and	r3,r3,r2
   227a0:	2144703a 	and	r2,r4,r5
   227a4:	18c00104 	addi	r3,r3,4
   227a8:	1000041e 	bne	r2,zero,227bc <_malloc_r+0x228>
   227ac:	294b883a 	add	r5,r5,r5
   227b0:	2144703a 	and	r2,r4,r5
   227b4:	18c00104 	addi	r3,r3,4
   227b8:	103ffc26 	beq	r2,zero,227ac <_gp+0xfffe6938>
   227bc:	023fff04 	movi	r8,-4
   227c0:	01c003c4 	movi	r7,15
   227c4:	18c5883a 	add	r2,r3,r3
   227c8:	1085883a 	add	r2,r2,r2
   227cc:	1085883a 	add	r2,r2,r2
   227d0:	9895883a 	add	r10,r19,r2
   227d4:	52c00304 	addi	r11,r10,12
   227d8:	1819883a 	mov	r12,r3
   227dc:	5c000017 	ldw	r16,0(r11)
   227e0:	59bffd04 	addi	r6,r11,-12
   227e4:	8180041e 	bne	r16,r6,227f8 <_malloc_r+0x264>
   227e8:	0000ce06 	br	22b24 <_malloc_r+0x590>
   227ec:	2000d70e 	bge	r4,zero,22b4c <_malloc_r+0x5b8>
   227f0:	84000317 	ldw	r16,12(r16)
   227f4:	8180cb26 	beq	r16,r6,22b24 <_malloc_r+0x590>
   227f8:	80800117 	ldw	r2,4(r16)
   227fc:	1204703a 	and	r2,r2,r8
   22800:	1449c83a 	sub	r4,r2,r17
   22804:	393ff90e 	bge	r7,r4,227ec <_gp+0xfffe6978>
   22808:	80800317 	ldw	r2,12(r16)
   2280c:	80c00217 	ldw	r3,8(r16)
   22810:	89400054 	ori	r5,r17,1
   22814:	81400115 	stw	r5,4(r16)
   22818:	18800315 	stw	r2,12(r3)
   2281c:	10c00215 	stw	r3,8(r2)
   22820:	8463883a 	add	r17,r16,r17
   22824:	9c400515 	stw	r17,20(r19)
   22828:	9c400415 	stw	r17,16(r19)
   2282c:	20800054 	ori	r2,r4,1
   22830:	88800115 	stw	r2,4(r17)
   22834:	8a400315 	stw	r9,12(r17)
   22838:	8a400215 	stw	r9,8(r17)
   2283c:	8923883a 	add	r17,r17,r4
   22840:	89000015 	stw	r4,0(r17)
   22844:	9009883a 	mov	r4,r18
   22848:	002ef940 	call	2ef94 <__malloc_unlock>
   2284c:	80800204 	addi	r2,r16,8
   22850:	003f7d06 	br	22648 <_gp+0xfffe67d4>
   22854:	00800304 	movi	r2,12
   22858:	90800015 	stw	r2,0(r18)
   2285c:	0005883a 	mov	r2,zero
   22860:	003f7906 	br	22648 <_gp+0xfffe67d4>
   22864:	01401f84 	movi	r5,126
   22868:	01c00fc4 	movi	r7,63
   2286c:	003f8d06 	br	226a4 <_gp+0xfffe6830>
   22870:	81000317 	ldw	r4,12(r16)
   22874:	003f6a06 	br	22620 <_gp+0xfffe67ac>
   22878:	81c5883a 	add	r2,r16,r7
   2287c:	10c00117 	ldw	r3,4(r2)
   22880:	9009883a 	mov	r4,r18
   22884:	18c00054 	ori	r3,r3,1
   22888:	10c00115 	stw	r3,4(r2)
   2288c:	002ef940 	call	2ef94 <__malloc_unlock>
   22890:	80800204 	addi	r2,r16,8
   22894:	003f6c06 	br	22648 <_gp+0xfffe67d4>
   22898:	9c000217 	ldw	r16,8(r19)
   2289c:	00bfff04 	movi	r2,-4
   228a0:	85800117 	ldw	r22,4(r16)
   228a4:	b0ac703a 	and	r22,r22,r2
   228a8:	b4400336 	bltu	r22,r17,228b8 <_malloc_r+0x324>
   228ac:	b445c83a 	sub	r2,r22,r17
   228b0:	00c003c4 	movi	r3,15
   228b4:	18805d16 	blt	r3,r2,22a2c <_malloc_r+0x498>
   228b8:	05c000f4 	movhi	r23,3
   228bc:	008000f4 	movhi	r2,3
   228c0:	bdcfa004 	addi	r23,r23,16000
   228c4:	10985604 	addi	r2,r2,24920
   228c8:	15400017 	ldw	r21,0(r2)
   228cc:	b9000017 	ldw	r4,0(r23)
   228d0:	00ffffc4 	movi	r3,-1
   228d4:	858d883a 	add	r6,r16,r22
   228d8:	8d6b883a 	add	r21,r17,r21
   228dc:	20c0e426 	beq	r4,r3,22c70 <_malloc_r+0x6dc>
   228e0:	ad4403c4 	addi	r21,r21,4111
   228e4:	00fc0004 	movi	r3,-4096
   228e8:	a8ea703a 	and	r21,r21,r3
   228ec:	9009883a 	mov	r4,r18
   228f0:	a80b883a 	mov	r5,r21
   228f4:	d9800015 	stw	r6,0(sp)
   228f8:	0022fa40 	call	22fa4 <_sbrk_r>
   228fc:	00ffffc4 	movi	r3,-1
   22900:	1029883a 	mov	r20,r2
   22904:	d9800017 	ldw	r6,0(sp)
   22908:	10c0a426 	beq	r2,r3,22b9c <_malloc_r+0x608>
   2290c:	1180a236 	bltu	r2,r6,22b98 <_malloc_r+0x604>
   22910:	070000f4 	movhi	fp,3
   22914:	e7186204 	addi	fp,fp,24968
   22918:	e0c00017 	ldw	r3,0(fp)
   2291c:	a8c7883a 	add	r3,r21,r3
   22920:	e0c00015 	stw	r3,0(fp)
   22924:	3500da26 	beq	r6,r20,22c90 <_malloc_r+0x6fc>
   22928:	b9000017 	ldw	r4,0(r23)
   2292c:	00bfffc4 	movi	r2,-1
   22930:	2080e426 	beq	r4,r2,22cc4 <_malloc_r+0x730>
   22934:	a185c83a 	sub	r2,r20,r6
   22938:	1885883a 	add	r2,r3,r2
   2293c:	e0800015 	stw	r2,0(fp)
   22940:	a0c001cc 	andi	r3,r20,7
   22944:	1800b526 	beq	r3,zero,22c1c <_malloc_r+0x688>
   22948:	a0e9c83a 	sub	r20,r20,r3
   2294c:	00840204 	movi	r2,4104
   22950:	a5000204 	addi	r20,r20,8
   22954:	10c7c83a 	sub	r3,r2,r3
   22958:	a545883a 	add	r2,r20,r21
   2295c:	1083ffcc 	andi	r2,r2,4095
   22960:	18abc83a 	sub	r21,r3,r2
   22964:	9009883a 	mov	r4,r18
   22968:	a80b883a 	mov	r5,r21
   2296c:	0022fa40 	call	22fa4 <_sbrk_r>
   22970:	00ffffc4 	movi	r3,-1
   22974:	10c0d026 	beq	r2,r3,22cb8 <_malloc_r+0x724>
   22978:	1507c83a 	sub	r3,r2,r20
   2297c:	a8c7883a 	add	r3,r21,r3
   22980:	18c00054 	ori	r3,r3,1
   22984:	e0800017 	ldw	r2,0(fp)
   22988:	9d000215 	stw	r20,8(r19)
   2298c:	a0c00115 	stw	r3,4(r20)
   22990:	a887883a 	add	r3,r21,r2
   22994:	e0c00015 	stw	r3,0(fp)
   22998:	84c00e26 	beq	r16,r19,229d4 <_malloc_r+0x440>
   2299c:	018003c4 	movi	r6,15
   229a0:	3580a02e 	bgeu	r6,r22,22c24 <_malloc_r+0x690>
   229a4:	81400117 	ldw	r5,4(r16)
   229a8:	013ffe04 	movi	r4,-8
   229ac:	b0bffd04 	addi	r2,r22,-12
   229b0:	1104703a 	and	r2,r2,r4
   229b4:	2900004c 	andi	r4,r5,1
   229b8:	1108b03a 	or	r4,r2,r4
   229bc:	81000115 	stw	r4,4(r16)
   229c0:	01400144 	movi	r5,5
   229c4:	8089883a 	add	r4,r16,r2
   229c8:	21400115 	stw	r5,4(r4)
   229cc:	21400215 	stw	r5,8(r4)
   229d0:	3080c036 	bltu	r6,r2,22cd4 <_malloc_r+0x740>
   229d4:	008000f4 	movhi	r2,3
   229d8:	10985504 	addi	r2,r2,24916
   229dc:	11000017 	ldw	r4,0(r2)
   229e0:	20c0012e 	bgeu	r4,r3,229e8 <_malloc_r+0x454>
   229e4:	10c00015 	stw	r3,0(r2)
   229e8:	008000f4 	movhi	r2,3
   229ec:	10985404 	addi	r2,r2,24912
   229f0:	11000017 	ldw	r4,0(r2)
   229f4:	9c000217 	ldw	r16,8(r19)
   229f8:	20c0012e 	bgeu	r4,r3,22a00 <_malloc_r+0x46c>
   229fc:	10c00015 	stw	r3,0(r2)
   22a00:	80c00117 	ldw	r3,4(r16)
   22a04:	00bfff04 	movi	r2,-4
   22a08:	1886703a 	and	r3,r3,r2
   22a0c:	1c45c83a 	sub	r2,r3,r17
   22a10:	1c400236 	bltu	r3,r17,22a1c <_malloc_r+0x488>
   22a14:	00c003c4 	movi	r3,15
   22a18:	18800416 	blt	r3,r2,22a2c <_malloc_r+0x498>
   22a1c:	9009883a 	mov	r4,r18
   22a20:	002ef940 	call	2ef94 <__malloc_unlock>
   22a24:	0005883a 	mov	r2,zero
   22a28:	003f0706 	br	22648 <_gp+0xfffe67d4>
   22a2c:	88c00054 	ori	r3,r17,1
   22a30:	80c00115 	stw	r3,4(r16)
   22a34:	8463883a 	add	r17,r16,r17
   22a38:	10800054 	ori	r2,r2,1
   22a3c:	9c400215 	stw	r17,8(r19)
   22a40:	88800115 	stw	r2,4(r17)
   22a44:	9009883a 	mov	r4,r18
   22a48:	002ef940 	call	2ef94 <__malloc_unlock>
   22a4c:	80800204 	addi	r2,r16,8
   22a50:	003efd06 	br	22648 <_gp+0xfffe67d4>
   22a54:	00800504 	movi	r2,20
   22a58:	10c0482e 	bgeu	r2,r3,22b7c <_malloc_r+0x5e8>
   22a5c:	00801504 	movi	r2,84
   22a60:	10c06836 	bltu	r2,r3,22c04 <_malloc_r+0x670>
   22a64:	8806d33a 	srli	r3,r17,12
   22a68:	19c01b84 	addi	r7,r3,110
   22a6c:	39cb883a 	add	r5,r7,r7
   22a70:	003f0c06 	br	226a4 <_gp+0xfffe6830>
   22a74:	3804d27a 	srli	r2,r7,9
   22a78:	01000104 	movi	r4,4
   22a7c:	2080422e 	bgeu	r4,r2,22b88 <_malloc_r+0x5f4>
   22a80:	01000504 	movi	r4,20
   22a84:	20807c36 	bltu	r4,r2,22c78 <_malloc_r+0x6e4>
   22a88:	110016c4 	addi	r4,r2,91
   22a8c:	210b883a 	add	r5,r4,r4
   22a90:	294b883a 	add	r5,r5,r5
   22a94:	294b883a 	add	r5,r5,r5
   22a98:	994b883a 	add	r5,r19,r5
   22a9c:	28800217 	ldw	r2,8(r5)
   22aa0:	020000f4 	movhi	r8,3
   22aa4:	4208f204 	addi	r8,r8,9160
   22aa8:	11406326 	beq	r2,r5,22c38 <_malloc_r+0x6a4>
   22aac:	01bfff04 	movi	r6,-4
   22ab0:	11000117 	ldw	r4,4(r2)
   22ab4:	2188703a 	and	r4,r4,r6
   22ab8:	3900022e 	bgeu	r7,r4,22ac4 <_malloc_r+0x530>
   22abc:	10800217 	ldw	r2,8(r2)
   22ac0:	28bffb1e 	bne	r5,r2,22ab0 <_gp+0xfffe6c3c>
   22ac4:	11800317 	ldw	r6,12(r2)
   22ac8:	99000117 	ldw	r4,4(r19)
   22acc:	81800315 	stw	r6,12(r16)
   22ad0:	80800215 	stw	r2,8(r16)
   22ad4:	34000215 	stw	r16,8(r6)
   22ad8:	14000315 	stw	r16,12(r2)
   22adc:	003f2706 	br	2277c <_gp+0xfffe6908>
   22ae0:	88c00054 	ori	r3,r17,1
   22ae4:	80c00115 	stw	r3,4(r16)
   22ae8:	8463883a 	add	r17,r16,r17
   22aec:	34400515 	stw	r17,20(r6)
   22af0:	34400415 	stw	r17,16(r6)
   22af4:	10c00054 	ori	r3,r2,1
   22af8:	8a400315 	stw	r9,12(r17)
   22afc:	8a400215 	stw	r9,8(r17)
   22b00:	88c00115 	stw	r3,4(r17)
   22b04:	88a3883a 	add	r17,r17,r2
   22b08:	88800015 	stw	r2,0(r17)
   22b0c:	9009883a 	mov	r4,r18
   22b10:	002ef940 	call	2ef94 <__malloc_unlock>
   22b14:	80800204 	addi	r2,r16,8
   22b18:	003ecb06 	br	22648 <_gp+0xfffe67d4>
   22b1c:	31000117 	ldw	r4,4(r6)
   22b20:	003f1606 	br	2277c <_gp+0xfffe6908>
   22b24:	63000044 	addi	r12,r12,1
   22b28:	608000cc 	andi	r2,r12,3
   22b2c:	5ac00204 	addi	r11,r11,8
   22b30:	103f2a1e 	bne	r2,zero,227dc <_gp+0xfffe6968>
   22b34:	00002106 	br	22bbc <_malloc_r+0x628>
   22b38:	80800204 	addi	r2,r16,8
   22b3c:	84000517 	ldw	r16,20(r16)
   22b40:	143eb31e 	bne	r2,r16,22610 <_gp+0xfffe679c>
   22b44:	18c00084 	addi	r3,r3,2
   22b48:	003eec06 	br	226fc <_gp+0xfffe6888>
   22b4c:	8085883a 	add	r2,r16,r2
   22b50:	10c00117 	ldw	r3,4(r2)
   22b54:	81000317 	ldw	r4,12(r16)
   22b58:	81400217 	ldw	r5,8(r16)
   22b5c:	18c00054 	ori	r3,r3,1
   22b60:	10c00115 	stw	r3,4(r2)
   22b64:	29000315 	stw	r4,12(r5)
   22b68:	21400215 	stw	r5,8(r4)
   22b6c:	9009883a 	mov	r4,r18
   22b70:	002ef940 	call	2ef94 <__malloc_unlock>
   22b74:	80800204 	addi	r2,r16,8
   22b78:	003eb306 	br	22648 <_gp+0xfffe67d4>
   22b7c:	19c016c4 	addi	r7,r3,91
   22b80:	39cb883a 	add	r5,r7,r7
   22b84:	003ec706 	br	226a4 <_gp+0xfffe6830>
   22b88:	3804d1ba 	srli	r2,r7,6
   22b8c:	11000e04 	addi	r4,r2,56
   22b90:	210b883a 	add	r5,r4,r4
   22b94:	003fbe06 	br	22a90 <_gp+0xfffe6c1c>
   22b98:	84ff5d26 	beq	r16,r19,22910 <_gp+0xfffe6a9c>
   22b9c:	9c000217 	ldw	r16,8(r19)
   22ba0:	00bfff04 	movi	r2,-4
   22ba4:	80c00117 	ldw	r3,4(r16)
   22ba8:	1886703a 	and	r3,r3,r2
   22bac:	003f9706 	br	22a0c <_gp+0xfffe6b98>
   22bb0:	52800017 	ldw	r10,0(r10)
   22bb4:	18ffffc4 	addi	r3,r3,-1
   22bb8:	50805c1e 	bne	r10,r2,22d2c <_malloc_r+0x798>
   22bbc:	190000cc 	andi	r4,r3,3
   22bc0:	50bffe04 	addi	r2,r10,-8
   22bc4:	203ffa1e 	bne	r4,zero,22bb0 <_gp+0xfffe6d3c>
   22bc8:	98800117 	ldw	r2,4(r19)
   22bcc:	0146303a 	nor	r3,zero,r5
   22bd0:	1884703a 	and	r2,r3,r2
   22bd4:	98800115 	stw	r2,4(r19)
   22bd8:	294b883a 	add	r5,r5,r5
   22bdc:	117f2e36 	bltu	r2,r5,22898 <_gp+0xfffe6a24>
   22be0:	283f2d26 	beq	r5,zero,22898 <_gp+0xfffe6a24>
   22be4:	1146703a 	and	r3,r2,r5
   22be8:	1800521e 	bne	r3,zero,22d34 <_malloc_r+0x7a0>
   22bec:	6007883a 	mov	r3,r12
   22bf0:	294b883a 	add	r5,r5,r5
   22bf4:	1148703a 	and	r4,r2,r5
   22bf8:	18c00104 	addi	r3,r3,4
   22bfc:	203ffc26 	beq	r4,zero,22bf0 <_gp+0xfffe6d7c>
   22c00:	003ef006 	br	227c4 <_gp+0xfffe6950>
   22c04:	00805504 	movi	r2,340
   22c08:	10c01336 	bltu	r2,r3,22c58 <_malloc_r+0x6c4>
   22c0c:	8806d3fa 	srli	r3,r17,15
   22c10:	19c01dc4 	addi	r7,r3,119
   22c14:	39cb883a 	add	r5,r7,r7
   22c18:	003ea206 	br	226a4 <_gp+0xfffe6830>
   22c1c:	00c40004 	movi	r3,4096
   22c20:	003f4d06 	br	22958 <_gp+0xfffe6ae4>
   22c24:	00800044 	movi	r2,1
   22c28:	a0800115 	stw	r2,4(r20)
   22c2c:	a021883a 	mov	r16,r20
   22c30:	0007883a 	mov	r3,zero
   22c34:	003f7506 	br	22a0c <_gp+0xfffe6b98>
   22c38:	200bd0ba 	srai	r5,r4,2
   22c3c:	01800044 	movi	r6,1
   22c40:	41000117 	ldw	r4,4(r8)
   22c44:	314a983a 	sll	r5,r6,r5
   22c48:	100d883a 	mov	r6,r2
   22c4c:	2908b03a 	or	r4,r5,r4
   22c50:	41000115 	stw	r4,4(r8)
   22c54:	003f9d06 	br	22acc <_gp+0xfffe6c58>
   22c58:	00815504 	movi	r2,1364
   22c5c:	10c01336 	bltu	r2,r3,22cac <_malloc_r+0x718>
   22c60:	8806d4ba 	srli	r3,r17,18
   22c64:	19c01f04 	addi	r7,r3,124
   22c68:	39cb883a 	add	r5,r7,r7
   22c6c:	003e8d06 	br	226a4 <_gp+0xfffe6830>
   22c70:	ad400404 	addi	r21,r21,16
   22c74:	003f1d06 	br	228ec <_gp+0xfffe6a78>
   22c78:	01001504 	movi	r4,84
   22c7c:	20801c36 	bltu	r4,r2,22cf0 <_malloc_r+0x75c>
   22c80:	3804d33a 	srli	r2,r7,12
   22c84:	11001b84 	addi	r4,r2,110
   22c88:	210b883a 	add	r5,r4,r4
   22c8c:	003f8006 	br	22a90 <_gp+0xfffe6c1c>
   22c90:	3083ffcc 	andi	r2,r6,4095
   22c94:	103f241e 	bne	r2,zero,22928 <_gp+0xfffe6ab4>
   22c98:	99000217 	ldw	r4,8(r19)
   22c9c:	ad85883a 	add	r2,r21,r22
   22ca0:	10800054 	ori	r2,r2,1
   22ca4:	20800115 	stw	r2,4(r4)
   22ca8:	003f4a06 	br	229d4 <_gp+0xfffe6b60>
   22cac:	01403f04 	movi	r5,252
   22cb0:	01c01f84 	movi	r7,126
   22cb4:	003e7b06 	br	226a4 <_gp+0xfffe6830>
   22cb8:	00c00044 	movi	r3,1
   22cbc:	002b883a 	mov	r21,zero
   22cc0:	003f3006 	br	22984 <_gp+0xfffe6b10>
   22cc4:	008000f4 	movhi	r2,3
   22cc8:	108fa004 	addi	r2,r2,16000
   22ccc:	15000015 	stw	r20,0(r2)
   22cd0:	003f1b06 	br	22940 <_gp+0xfffe6acc>
   22cd4:	9009883a 	mov	r4,r18
   22cd8:	81400204 	addi	r5,r16,8
   22cdc:	00272940 	call	27294 <_free_r>
   22ce0:	008000f4 	movhi	r2,3
   22ce4:	10986204 	addi	r2,r2,24968
   22ce8:	10c00017 	ldw	r3,0(r2)
   22cec:	003f3906 	br	229d4 <_gp+0xfffe6b60>
   22cf0:	01005504 	movi	r4,340
   22cf4:	20800436 	bltu	r4,r2,22d08 <_malloc_r+0x774>
   22cf8:	3804d3fa 	srli	r2,r7,15
   22cfc:	11001dc4 	addi	r4,r2,119
   22d00:	210b883a 	add	r5,r4,r4
   22d04:	003f6206 	br	22a90 <_gp+0xfffe6c1c>
   22d08:	01015504 	movi	r4,1364
   22d0c:	20800436 	bltu	r4,r2,22d20 <_malloc_r+0x78c>
   22d10:	3804d4ba 	srli	r2,r7,18
   22d14:	11001f04 	addi	r4,r2,124
   22d18:	210b883a 	add	r5,r4,r4
   22d1c:	003f5c06 	br	22a90 <_gp+0xfffe6c1c>
   22d20:	01403f04 	movi	r5,252
   22d24:	01001f84 	movi	r4,126
   22d28:	003f5906 	br	22a90 <_gp+0xfffe6c1c>
   22d2c:	98800117 	ldw	r2,4(r19)
   22d30:	003fa906 	br	22bd8 <_gp+0xfffe6d64>
   22d34:	6007883a 	mov	r3,r12
   22d38:	003ea206 	br	227c4 <_gp+0xfffe6950>

00022d3c <memset>:
   22d3c:	20c000cc 	andi	r3,r4,3
   22d40:	2005883a 	mov	r2,r4
   22d44:	18004326 	beq	r3,zero,22e54 <memset+0x118>
   22d48:	31ffffc4 	addi	r7,r6,-1
   22d4c:	30004026 	beq	r6,zero,22e50 <memset+0x114>
   22d50:	2813883a 	mov	r9,r5
   22d54:	200d883a 	mov	r6,r4
   22d58:	2007883a 	mov	r3,r4
   22d5c:	00000406 	br	22d70 <memset+0x34>
   22d60:	3a3fffc4 	addi	r8,r7,-1
   22d64:	31800044 	addi	r6,r6,1
   22d68:	38003926 	beq	r7,zero,22e50 <memset+0x114>
   22d6c:	400f883a 	mov	r7,r8
   22d70:	18c00044 	addi	r3,r3,1
   22d74:	32400005 	stb	r9,0(r6)
   22d78:	1a0000cc 	andi	r8,r3,3
   22d7c:	403ff81e 	bne	r8,zero,22d60 <_gp+0xfffe6eec>
   22d80:	010000c4 	movi	r4,3
   22d84:	21c02d2e 	bgeu	r4,r7,22e3c <memset+0x100>
   22d88:	29803fcc 	andi	r6,r5,255
   22d8c:	3008923a 	slli	r4,r6,8
   22d90:	218cb03a 	or	r6,r4,r6
   22d94:	3008943a 	slli	r4,r6,16
   22d98:	218cb03a 	or	r6,r4,r6
   22d9c:	010003c4 	movi	r4,15
   22da0:	21c0182e 	bgeu	r4,r7,22e04 <memset+0xc8>
   22da4:	3b3ffc04 	addi	r12,r7,-16
   22da8:	6018d13a 	srli	r12,r12,4
   22dac:	1a000104 	addi	r8,r3,4
   22db0:	1ac00204 	addi	r11,r3,8
   22db4:	6008913a 	slli	r4,r12,4
   22db8:	1a800304 	addi	r10,r3,12
   22dbc:	1813883a 	mov	r9,r3
   22dc0:	21000504 	addi	r4,r4,20
   22dc4:	1909883a 	add	r4,r3,r4
   22dc8:	49800015 	stw	r6,0(r9)
   22dcc:	41800015 	stw	r6,0(r8)
   22dd0:	59800015 	stw	r6,0(r11)
   22dd4:	51800015 	stw	r6,0(r10)
   22dd8:	42000404 	addi	r8,r8,16
   22ddc:	4a400404 	addi	r9,r9,16
   22de0:	5ac00404 	addi	r11,r11,16
   22de4:	52800404 	addi	r10,r10,16
   22de8:	413ff71e 	bne	r8,r4,22dc8 <_gp+0xfffe6f54>
   22dec:	63000044 	addi	r12,r12,1
   22df0:	6018913a 	slli	r12,r12,4
   22df4:	39c003cc 	andi	r7,r7,15
   22df8:	010000c4 	movi	r4,3
   22dfc:	1b07883a 	add	r3,r3,r12
   22e00:	21c00e2e 	bgeu	r4,r7,22e3c <memset+0x100>
   22e04:	1813883a 	mov	r9,r3
   22e08:	3811883a 	mov	r8,r7
   22e0c:	010000c4 	movi	r4,3
   22e10:	49800015 	stw	r6,0(r9)
   22e14:	423fff04 	addi	r8,r8,-4
   22e18:	4a400104 	addi	r9,r9,4
   22e1c:	223ffc36 	bltu	r4,r8,22e10 <_gp+0xfffe6f9c>
   22e20:	393fff04 	addi	r4,r7,-4
   22e24:	2008d0ba 	srli	r4,r4,2
   22e28:	39c000cc 	andi	r7,r7,3
   22e2c:	21000044 	addi	r4,r4,1
   22e30:	2109883a 	add	r4,r4,r4
   22e34:	2109883a 	add	r4,r4,r4
   22e38:	1907883a 	add	r3,r3,r4
   22e3c:	38000426 	beq	r7,zero,22e50 <memset+0x114>
   22e40:	19cf883a 	add	r7,r3,r7
   22e44:	19400005 	stb	r5,0(r3)
   22e48:	18c00044 	addi	r3,r3,1
   22e4c:	19fffd1e 	bne	r3,r7,22e44 <_gp+0xfffe6fd0>
   22e50:	f800283a 	ret
   22e54:	2007883a 	mov	r3,r4
   22e58:	300f883a 	mov	r7,r6
   22e5c:	003fc806 	br	22d80 <_gp+0xfffe6f0c>

00022e60 <_printf_r>:
   22e60:	defffd04 	addi	sp,sp,-12
   22e64:	dfc00015 	stw	ra,0(sp)
   22e68:	d9800115 	stw	r6,4(sp)
   22e6c:	d9c00215 	stw	r7,8(sp)
   22e70:	280d883a 	mov	r6,r5
   22e74:	21400217 	ldw	r5,8(r4)
   22e78:	d9c00104 	addi	r7,sp,4
   22e7c:	00230900 	call	23090 <___vfprintf_internal_r>
   22e80:	dfc00017 	ldw	ra,0(sp)
   22e84:	dec00304 	addi	sp,sp,12
   22e88:	f800283a 	ret

00022e8c <printf>:
   22e8c:	defffc04 	addi	sp,sp,-16
   22e90:	dfc00015 	stw	ra,0(sp)
   22e94:	d9400115 	stw	r5,4(sp)
   22e98:	d9800215 	stw	r6,8(sp)
   22e9c:	d9c00315 	stw	r7,12(sp)
   22ea0:	008000f4 	movhi	r2,3
   22ea4:	108fa304 	addi	r2,r2,16012
   22ea8:	10800017 	ldw	r2,0(r2)
   22eac:	200b883a 	mov	r5,r4
   22eb0:	d9800104 	addi	r6,sp,4
   22eb4:	11000217 	ldw	r4,8(r2)
   22eb8:	0024fe00 	call	24fe0 <__vfprintf_internal>
   22ebc:	dfc00017 	ldw	ra,0(sp)
   22ec0:	dec00404 	addi	sp,sp,16
   22ec4:	f800283a 	ret

00022ec8 <_putchar_r>:
   22ec8:	21800217 	ldw	r6,8(r4)
   22ecc:	00291801 	jmpi	29180 <_putc_r>

00022ed0 <putchar>:
   22ed0:	008000f4 	movhi	r2,3
   22ed4:	108fa304 	addi	r2,r2,16012
   22ed8:	200b883a 	mov	r5,r4
   22edc:	11000017 	ldw	r4,0(r2)
   22ee0:	21800217 	ldw	r6,8(r4)
   22ee4:	00291801 	jmpi	29180 <_putc_r>

00022ee8 <_puts_r>:
   22ee8:	defff604 	addi	sp,sp,-40
   22eec:	dc000715 	stw	r16,28(sp)
   22ef0:	2021883a 	mov	r16,r4
   22ef4:	2809883a 	mov	r4,r5
   22ef8:	dc400815 	stw	r17,32(sp)
   22efc:	dfc00915 	stw	ra,36(sp)
   22f00:	2823883a 	mov	r17,r5
   22f04:	0022ff80 	call	22ff8 <strlen>
   22f08:	81400217 	ldw	r5,8(r16)
   22f0c:	11000044 	addi	r4,r2,1
   22f10:	d8800115 	stw	r2,4(sp)
   22f14:	008000f4 	movhi	r2,3
   22f18:	2980030b 	ldhu	r6,12(r5)
   22f1c:	10864e04 	addi	r2,r2,6456
   22f20:	d8800215 	stw	r2,8(sp)
   22f24:	00800044 	movi	r2,1
   22f28:	d8800315 	stw	r2,12(sp)
   22f2c:	00800084 	movi	r2,2
   22f30:	d8800515 	stw	r2,20(sp)
   22f34:	dc400015 	stw	r17,0(sp)
   22f38:	d9000615 	stw	r4,24(sp)
   22f3c:	dec00415 	stw	sp,16(sp)
   22f40:	3088000c 	andi	r2,r6,8192
   22f44:	1000061e 	bne	r2,zero,22f60 <_puts_r+0x78>
   22f48:	29001917 	ldw	r4,100(r5)
   22f4c:	00b7ffc4 	movi	r2,-8193
   22f50:	31880014 	ori	r6,r6,8192
   22f54:	2084703a 	and	r2,r4,r2
   22f58:	2980030d 	sth	r6,12(r5)
   22f5c:	28801915 	stw	r2,100(r5)
   22f60:	8009883a 	mov	r4,r16
   22f64:	d9800404 	addi	r6,sp,16
   22f68:	00275840 	call	27584 <__sfvwrite_r>
   22f6c:	1000061e 	bne	r2,zero,22f88 <_puts_r+0xa0>
   22f70:	00800284 	movi	r2,10
   22f74:	dfc00917 	ldw	ra,36(sp)
   22f78:	dc400817 	ldw	r17,32(sp)
   22f7c:	dc000717 	ldw	r16,28(sp)
   22f80:	dec00a04 	addi	sp,sp,40
   22f84:	f800283a 	ret
   22f88:	00bfffc4 	movi	r2,-1
   22f8c:	003ff906 	br	22f74 <_gp+0xfffe7100>

00022f90 <puts>:
   22f90:	008000f4 	movhi	r2,3
   22f94:	108fa304 	addi	r2,r2,16012
   22f98:	200b883a 	mov	r5,r4
   22f9c:	11000017 	ldw	r4,0(r2)
   22fa0:	0022ee81 	jmpi	22ee8 <_puts_r>

00022fa4 <_sbrk_r>:
   22fa4:	defffd04 	addi	sp,sp,-12
   22fa8:	dc000015 	stw	r16,0(sp)
   22fac:	040000f4 	movhi	r16,3
   22fb0:	dc400115 	stw	r17,4(sp)
   22fb4:	84185704 	addi	r16,r16,24924
   22fb8:	2023883a 	mov	r17,r4
   22fbc:	2809883a 	mov	r4,r5
   22fc0:	dfc00215 	stw	ra,8(sp)
   22fc4:	80000015 	stw	zero,0(r16)
   22fc8:	002f1600 	call	2f160 <sbrk>
   22fcc:	00ffffc4 	movi	r3,-1
   22fd0:	10c00526 	beq	r2,r3,22fe8 <_sbrk_r+0x44>
   22fd4:	dfc00217 	ldw	ra,8(sp)
   22fd8:	dc400117 	ldw	r17,4(sp)
   22fdc:	dc000017 	ldw	r16,0(sp)
   22fe0:	dec00304 	addi	sp,sp,12
   22fe4:	f800283a 	ret
   22fe8:	80c00017 	ldw	r3,0(r16)
   22fec:	183ff926 	beq	r3,zero,22fd4 <_gp+0xfffe7160>
   22ff0:	88c00015 	stw	r3,0(r17)
   22ff4:	003ff706 	br	22fd4 <_gp+0xfffe7160>

00022ff8 <strlen>:
   22ff8:	208000cc 	andi	r2,r4,3
   22ffc:	10002026 	beq	r2,zero,23080 <strlen+0x88>
   23000:	20800007 	ldb	r2,0(r4)
   23004:	10002026 	beq	r2,zero,23088 <strlen+0x90>
   23008:	2005883a 	mov	r2,r4
   2300c:	00000206 	br	23018 <strlen+0x20>
   23010:	10c00007 	ldb	r3,0(r2)
   23014:	18001826 	beq	r3,zero,23078 <strlen+0x80>
   23018:	10800044 	addi	r2,r2,1
   2301c:	10c000cc 	andi	r3,r2,3
   23020:	183ffb1e 	bne	r3,zero,23010 <_gp+0xfffe719c>
   23024:	10c00017 	ldw	r3,0(r2)
   23028:	01ffbff4 	movhi	r7,65279
   2302c:	39ffbfc4 	addi	r7,r7,-257
   23030:	00ca303a 	nor	r5,zero,r3
   23034:	01a02074 	movhi	r6,32897
   23038:	19c7883a 	add	r3,r3,r7
   2303c:	31a02004 	addi	r6,r6,-32640
   23040:	1946703a 	and	r3,r3,r5
   23044:	1986703a 	and	r3,r3,r6
   23048:	1800091e 	bne	r3,zero,23070 <strlen+0x78>
   2304c:	10800104 	addi	r2,r2,4
   23050:	10c00017 	ldw	r3,0(r2)
   23054:	19cb883a 	add	r5,r3,r7
   23058:	00c6303a 	nor	r3,zero,r3
   2305c:	28c6703a 	and	r3,r5,r3
   23060:	1986703a 	and	r3,r3,r6
   23064:	183ff926 	beq	r3,zero,2304c <_gp+0xfffe71d8>
   23068:	00000106 	br	23070 <strlen+0x78>
   2306c:	10800044 	addi	r2,r2,1
   23070:	10c00007 	ldb	r3,0(r2)
   23074:	183ffd1e 	bne	r3,zero,2306c <_gp+0xfffe71f8>
   23078:	1105c83a 	sub	r2,r2,r4
   2307c:	f800283a 	ret
   23080:	2005883a 	mov	r2,r4
   23084:	003fe706 	br	23024 <_gp+0xfffe71b0>
   23088:	0005883a 	mov	r2,zero
   2308c:	f800283a 	ret

00023090 <___vfprintf_internal_r>:
   23090:	deffb604 	addi	sp,sp,-296
   23094:	dfc04915 	stw	ra,292(sp)
   23098:	ddc04715 	stw	r23,284(sp)
   2309c:	dd804615 	stw	r22,280(sp)
   230a0:	282f883a 	mov	r23,r5
   230a4:	202d883a 	mov	r22,r4
   230a8:	d9802a15 	stw	r6,168(sp)
   230ac:	d9c02d15 	stw	r7,180(sp)
   230b0:	df004815 	stw	fp,288(sp)
   230b4:	dd404515 	stw	r21,276(sp)
   230b8:	dd004415 	stw	r20,272(sp)
   230bc:	dcc04315 	stw	r19,268(sp)
   230c0:	dc804215 	stw	r18,264(sp)
   230c4:	dc404115 	stw	r17,260(sp)
   230c8:	dc004015 	stw	r16,256(sp)
   230cc:	0027c780 	call	27c78 <_localeconv_r>
   230d0:	10800017 	ldw	r2,0(r2)
   230d4:	1009883a 	mov	r4,r2
   230d8:	d8803515 	stw	r2,212(sp)
   230dc:	0022ff80 	call	22ff8 <strlen>
   230e0:	d8803815 	stw	r2,224(sp)
   230e4:	b0000226 	beq	r22,zero,230f0 <___vfprintf_internal_r+0x60>
   230e8:	b0800e17 	ldw	r2,56(r22)
   230ec:	1000e126 	beq	r2,zero,23474 <___vfprintf_internal_r+0x3e4>
   230f0:	b880030b 	ldhu	r2,12(r23)
   230f4:	10c8000c 	andi	r3,r2,8192
   230f8:	1800061e 	bne	r3,zero,23114 <___vfprintf_internal_r+0x84>
   230fc:	b9001917 	ldw	r4,100(r23)
   23100:	00f7ffc4 	movi	r3,-8193
   23104:	10880014 	ori	r2,r2,8192
   23108:	20c6703a 	and	r3,r4,r3
   2310c:	b880030d 	sth	r2,12(r23)
   23110:	b8c01915 	stw	r3,100(r23)
   23114:	10c0020c 	andi	r3,r2,8
   23118:	1800a726 	beq	r3,zero,233b8 <___vfprintf_internal_r+0x328>
   2311c:	b8c00417 	ldw	r3,16(r23)
   23120:	1800a526 	beq	r3,zero,233b8 <___vfprintf_internal_r+0x328>
   23124:	1080068c 	andi	r2,r2,26
   23128:	00c00284 	movi	r3,10
   2312c:	10c0aa26 	beq	r2,r3,233d8 <___vfprintf_internal_r+0x348>
   23130:	dac01e04 	addi	r11,sp,120
   23134:	db001dc4 	addi	r12,sp,119
   23138:	d8800404 	addi	r2,sp,16
   2313c:	050000f4 	movhi	r20,3
   23140:	dac02815 	stw	r11,160(sp)
   23144:	5b17c83a 	sub	r11,r11,r12
   23148:	a5065f84 	addi	r20,r20,6526
   2314c:	db002915 	stw	r12,164(sp)
   23150:	d8801e15 	stw	r2,120(sp)
   23154:	d8002015 	stw	zero,128(sp)
   23158:	d8001f15 	stw	zero,124(sp)
   2315c:	d8003315 	stw	zero,204(sp)
   23160:	d8003715 	stw	zero,220(sp)
   23164:	d8003915 	stw	zero,228(sp)
   23168:	1011883a 	mov	r8,r2
   2316c:	d8003b15 	stw	zero,236(sp)
   23170:	d8003a15 	stw	zero,232(sp)
   23174:	d8002f15 	stw	zero,188(sp)
   23178:	dac03c15 	stw	r11,240(sp)
   2317c:	db002a17 	ldw	r12,168(sp)
   23180:	60800007 	ldb	r2,0(r12)
   23184:	1000be26 	beq	r2,zero,23480 <___vfprintf_internal_r+0x3f0>
   23188:	00c00944 	movi	r3,37
   2318c:	10c0bc26 	beq	r2,r3,23480 <___vfprintf_internal_r+0x3f0>
   23190:	6021883a 	mov	r16,r12
   23194:	00000106 	br	2319c <___vfprintf_internal_r+0x10c>
   23198:	10c08426 	beq	r2,r3,233ac <___vfprintf_internal_r+0x31c>
   2319c:	84000044 	addi	r16,r16,1
   231a0:	80800007 	ldb	r2,0(r16)
   231a4:	103ffc1e 	bne	r2,zero,23198 <_gp+0xfffe7324>
   231a8:	dac02a17 	ldw	r11,168(sp)
   231ac:	82e3c83a 	sub	r17,r16,r11
   231b0:	88000f26 	beq	r17,zero,231f0 <___vfprintf_internal_r+0x160>
   231b4:	d8c02017 	ldw	r3,128(sp)
   231b8:	d8801f17 	ldw	r2,124(sp)
   231bc:	dac02a17 	ldw	r11,168(sp)
   231c0:	1c47883a 	add	r3,r3,r17
   231c4:	10800044 	addi	r2,r2,1
   231c8:	d8c02015 	stw	r3,128(sp)
   231cc:	42c00015 	stw	r11,0(r8)
   231d0:	44400115 	stw	r17,4(r8)
   231d4:	d8801f15 	stw	r2,124(sp)
   231d8:	00c001c4 	movi	r3,7
   231dc:	18809316 	blt	r3,r2,2342c <___vfprintf_internal_r+0x39c>
   231e0:	42000204 	addi	r8,r8,8
   231e4:	db002f17 	ldw	r12,188(sp)
   231e8:	6459883a 	add	r12,r12,r17
   231ec:	db002f15 	stw	r12,188(sp)
   231f0:	80800007 	ldb	r2,0(r16)
   231f4:	10009426 	beq	r2,zero,23448 <___vfprintf_internal_r+0x3b8>
   231f8:	80800044 	addi	r2,r16,1
   231fc:	84000047 	ldb	r16,1(r16)
   23200:	d8002785 	stb	zero,158(sp)
   23204:	000d883a 	mov	r6,zero
   23208:	027fffc4 	movi	r9,-1
   2320c:	d8002e15 	stw	zero,184(sp)
   23210:	0023883a 	mov	r17,zero
   23214:	01001604 	movi	r4,88
   23218:	01400244 	movi	r5,9
   2321c:	02800a84 	movi	r10,42
   23220:	01c01b04 	movi	r7,108
   23224:	10c00044 	addi	r3,r2,1
   23228:	80bff804 	addi	r2,r16,-32
   2322c:	2082cd36 	bltu	r4,r2,23d64 <___vfprintf_internal_r+0xcd4>
   23230:	100490ba 	slli	r2,r2,2
   23234:	02c000b4 	movhi	r11,2
   23238:	5acc9204 	addi	r11,r11,12872
   2323c:	12c5883a 	add	r2,r2,r11
   23240:	10800017 	ldw	r2,0(r2)
   23244:	1000683a 	jmp	r2
   23248:	00023b7c 	xorhi	zero,zero,2285
   2324c:	00023d64 	muli	zero,zero,2293
   23250:	00023d64 	muli	zero,zero,2293
   23254:	00023ccc 	andi	zero,zero,2291
   23258:	00023d64 	muli	zero,zero,2293
   2325c:	00023d64 	muli	zero,zero,2293
   23260:	00023d64 	muli	zero,zero,2293
   23264:	00023d64 	muli	zero,zero,2293
   23268:	00023d64 	muli	zero,zero,2293
   2326c:	00023d64 	muli	zero,zero,2293
   23270:	00023b9c 	xori	zero,zero,2286
   23274:	00023bc8 	cmpgei	zero,zero,2287
   23278:	00023d64 	muli	zero,zero,2293
   2327c:	00023488 	cmpgei	zero,zero,2258
   23280:	00023498 	cmpnei	zero,zero,2258
   23284:	00023d64 	muli	zero,zero,2293
   23288:	000234d8 	cmpnei	zero,zero,2259
   2328c:	000234e8 	cmpgeui	zero,zero,2259
   23290:	000234e8 	cmpgeui	zero,zero,2259
   23294:	000234e8 	cmpgeui	zero,zero,2259
   23298:	000234e8 	cmpgeui	zero,zero,2259
   2329c:	000234e8 	cmpgeui	zero,zero,2259
   232a0:	000234e8 	cmpgeui	zero,zero,2259
   232a4:	000234e8 	cmpgeui	zero,zero,2259
   232a8:	000234e8 	cmpgeui	zero,zero,2259
   232ac:	000234e8 	cmpgeui	zero,zero,2259
   232b0:	00023d64 	muli	zero,zero,2293
   232b4:	00023d64 	muli	zero,zero,2293
   232b8:	00023d64 	muli	zero,zero,2293
   232bc:	00023d64 	muli	zero,zero,2293
   232c0:	00023d64 	muli	zero,zero,2293
   232c4:	00023d64 	muli	zero,zero,2293
   232c8:	00023d64 	muli	zero,zero,2293
   232cc:	00023d64 	muli	zero,zero,2293
   232d0:	00023d64 	muli	zero,zero,2293
   232d4:	00023d64 	muli	zero,zero,2293
   232d8:	0002351c 	xori	zero,zero,2260
   232dc:	0002398c 	andi	zero,zero,2278
   232e0:	00023d64 	muli	zero,zero,2293
   232e4:	0002398c 	andi	zero,zero,2278
   232e8:	00023d64 	muli	zero,zero,2293
   232ec:	00023d64 	muli	zero,zero,2293
   232f0:	00023d64 	muli	zero,zero,2293
   232f4:	00023d64 	muli	zero,zero,2293
   232f8:	00023a78 	rdprs	zero,zero,2281
   232fc:	00023d64 	muli	zero,zero,2293
   23300:	00023d64 	muli	zero,zero,2293
   23304:	00023920 	cmpeqi	zero,zero,2276
   23308:	00023d64 	muli	zero,zero,2293
   2330c:	00023d64 	muli	zero,zero,2293
   23310:	00023d64 	muli	zero,zero,2293
   23314:	00023d64 	muli	zero,zero,2293
   23318:	00023d64 	muli	zero,zero,2293
   2331c:	0002395c 	xori	zero,zero,2277
   23320:	00023d64 	muli	zero,zero,2293
   23324:	00023d64 	muli	zero,zero,2293
   23328:	00023b20 	cmpeqi	zero,zero,2284
   2332c:	00023d64 	muli	zero,zero,2293
   23330:	00023d64 	muli	zero,zero,2293
   23334:	00023d64 	muli	zero,zero,2293
   23338:	00023d64 	muli	zero,zero,2293
   2333c:	00023d64 	muli	zero,zero,2293
   23340:	00023d64 	muli	zero,zero,2293
   23344:	00023d64 	muli	zero,zero,2293
   23348:	00023d64 	muli	zero,zero,2293
   2334c:	00023d64 	muli	zero,zero,2293
   23350:	00023d64 	muli	zero,zero,2293
   23354:	00023bd8 	cmpnei	zero,zero,2287
   23358:	00023a88 	cmpgei	zero,zero,2282
   2335c:	0002398c 	andi	zero,zero,2278
   23360:	0002398c 	andi	zero,zero,2278
   23364:	0002398c 	andi	zero,zero,2278
   23368:	00023ac8 	cmpgei	zero,zero,2283
   2336c:	00023a88 	cmpgei	zero,zero,2282
   23370:	00023d64 	muli	zero,zero,2293
   23374:	00023d64 	muli	zero,zero,2293
   23378:	00023ad8 	cmpnei	zero,zero,2283
   2337c:	00023d64 	muli	zero,zero,2293
   23380:	00023aec 	andhi	zero,zero,2283
   23384:	00023d28 	cmpgeui	zero,zero,2292
   23388:	00023a30 	cmpltui	zero,zero,2280
   2338c:	00023cdc 	xori	zero,zero,2291
   23390:	00023d64 	muli	zero,zero,2293
   23394:	00023c18 	cmpnei	zero,zero,2288
   23398:	00023d64 	muli	zero,zero,2293
   2339c:	00023cec 	andhi	zero,zero,2291
   233a0:	00023d64 	muli	zero,zero,2293
   233a4:	00023d64 	muli	zero,zero,2293
   233a8:	00023c8c 	andi	zero,zero,2290
   233ac:	db002a17 	ldw	r12,168(sp)
   233b0:	8323c83a 	sub	r17,r16,r12
   233b4:	003f7e06 	br	231b0 <_gp+0xfffe733c>
   233b8:	b009883a 	mov	r4,r22
   233bc:	b80b883a 	mov	r5,r23
   233c0:	00250c00 	call	250c0 <__swsetup_r>
   233c4:	10000c1e 	bne	r2,zero,233f8 <___vfprintf_internal_r+0x368>
   233c8:	b880030b 	ldhu	r2,12(r23)
   233cc:	00c00284 	movi	r3,10
   233d0:	1080068c 	andi	r2,r2,26
   233d4:	10ff561e 	bne	r2,r3,23130 <_gp+0xfffe72bc>
   233d8:	b880038f 	ldh	r2,14(r23)
   233dc:	103f5416 	blt	r2,zero,23130 <_gp+0xfffe72bc>
   233e0:	d9802a17 	ldw	r6,168(sp)
   233e4:	d9c02d17 	ldw	r7,180(sp)
   233e8:	b009883a 	mov	r4,r22
   233ec:	b80b883a 	mov	r5,r23
   233f0:	00250040 	call	25004 <__sbprintf>
   233f4:	00000106 	br	233fc <___vfprintf_internal_r+0x36c>
   233f8:	00bfffc4 	movi	r2,-1
   233fc:	dfc04917 	ldw	ra,292(sp)
   23400:	df004817 	ldw	fp,288(sp)
   23404:	ddc04717 	ldw	r23,284(sp)
   23408:	dd804617 	ldw	r22,280(sp)
   2340c:	dd404517 	ldw	r21,276(sp)
   23410:	dd004417 	ldw	r20,272(sp)
   23414:	dcc04317 	ldw	r19,268(sp)
   23418:	dc804217 	ldw	r18,264(sp)
   2341c:	dc404117 	ldw	r17,260(sp)
   23420:	dc004017 	ldw	r16,256(sp)
   23424:	dec04a04 	addi	sp,sp,296
   23428:	f800283a 	ret
   2342c:	b009883a 	mov	r4,r22
   23430:	b80b883a 	mov	r5,r23
   23434:	d9801e04 	addi	r6,sp,120
   23438:	0029ba40 	call	29ba4 <__sprint_r>
   2343c:	1000081e 	bne	r2,zero,23460 <___vfprintf_internal_r+0x3d0>
   23440:	da000404 	addi	r8,sp,16
   23444:	003f6706 	br	231e4 <_gp+0xfffe7370>
   23448:	d8802017 	ldw	r2,128(sp)
   2344c:	10000426 	beq	r2,zero,23460 <___vfprintf_internal_r+0x3d0>
   23450:	b009883a 	mov	r4,r22
   23454:	b80b883a 	mov	r5,r23
   23458:	d9801e04 	addi	r6,sp,120
   2345c:	0029ba40 	call	29ba4 <__sprint_r>
   23460:	b880030b 	ldhu	r2,12(r23)
   23464:	1080100c 	andi	r2,r2,64
   23468:	103fe31e 	bne	r2,zero,233f8 <_gp+0xfffe7584>
   2346c:	d8802f17 	ldw	r2,188(sp)
   23470:	003fe206 	br	233fc <_gp+0xfffe7588>
   23474:	b009883a 	mov	r4,r22
   23478:	00271200 	call	27120 <__sinit>
   2347c:	003f1c06 	br	230f0 <_gp+0xfffe727c>
   23480:	dc002a17 	ldw	r16,168(sp)
   23484:	003f5a06 	br	231f0 <_gp+0xfffe737c>
   23488:	1805883a 	mov	r2,r3
   2348c:	8c400114 	ori	r17,r17,4
   23490:	1c000007 	ldb	r16,0(r3)
   23494:	003f6306 	br	23224 <_gp+0xfffe73b0>
   23498:	1c000007 	ldb	r16,0(r3)
   2349c:	18800044 	addi	r2,r3,1
   234a0:	8286ad26 	beq	r16,r10,24f58 <___vfprintf_internal_r+0x1ec8>
   234a4:	82fff404 	addi	r11,r16,-48
   234a8:	1007883a 	mov	r3,r2
   234ac:	0013883a 	mov	r9,zero
   234b0:	2aff5d36 	bltu	r5,r11,23228 <_gp+0xfffe73b4>
   234b4:	1c000007 	ldb	r16,0(r3)
   234b8:	4a4002a4 	muli	r9,r9,10
   234bc:	18c00044 	addi	r3,r3,1
   234c0:	5a53883a 	add	r9,r11,r9
   234c4:	82fff404 	addi	r11,r16,-48
   234c8:	2afffa2e 	bgeu	r5,r11,234b4 <_gp+0xfffe7640>
   234cc:	483f560e 	bge	r9,zero,23228 <_gp+0xfffe73b4>
   234d0:	027fffc4 	movi	r9,-1
   234d4:	003f5406 	br	23228 <_gp+0xfffe73b4>
   234d8:	8c402014 	ori	r17,r17,128
   234dc:	1805883a 	mov	r2,r3
   234e0:	1c000007 	ldb	r16,0(r3)
   234e4:	003f4f06 	br	23224 <_gp+0xfffe73b0>
   234e8:	1805883a 	mov	r2,r3
   234ec:	d8002e15 	stw	zero,184(sp)
   234f0:	82fff404 	addi	r11,r16,-48
   234f4:	0019883a 	mov	r12,zero
   234f8:	14000007 	ldb	r16,0(r2)
   234fc:	630002a4 	muli	r12,r12,10
   23500:	18c00044 	addi	r3,r3,1
   23504:	1805883a 	mov	r2,r3
   23508:	62d9883a 	add	r12,r12,r11
   2350c:	82fff404 	addi	r11,r16,-48
   23510:	2afff92e 	bgeu	r5,r11,234f8 <_gp+0xfffe7684>
   23514:	db002e15 	stw	r12,184(sp)
   23518:	003f4306 	br	23228 <_gp+0xfffe73b4>
   2351c:	8c400414 	ori	r17,r17,16
   23520:	d8c02a15 	stw	r3,168(sp)
   23524:	d9802785 	stb	r6,158(sp)
   23528:	8880080c 	andi	r2,r17,32
   2352c:	d8c02d17 	ldw	r3,180(sp)
   23530:	10015a26 	beq	r2,zero,23a9c <___vfprintf_internal_r+0xa0c>
   23534:	db002d17 	ldw	r12,180(sp)
   23538:	18800117 	ldw	r2,4(r3)
   2353c:	1cc00017 	ldw	r19,0(r3)
   23540:	63000204 	addi	r12,r12,8
   23544:	db002d15 	stw	r12,180(sp)
   23548:	1039883a 	mov	fp,r2
   2354c:	10044516 	blt	r2,zero,24664 <___vfprintf_internal_r+0x15d4>
   23550:	dd402783 	ldbu	r21,158(sp)
   23554:	da403215 	stw	r9,200(sp)
   23558:	00800044 	movi	r2,1
   2355c:	9f06b03a 	or	r3,r19,fp
   23560:	48000216 	blt	r9,zero,2356c <___vfprintf_internal_r+0x4dc>
   23564:	013fdfc4 	movi	r4,-129
   23568:	8922703a 	and	r17,r17,r4
   2356c:	1802071e 	bne	r3,zero,23d8c <___vfprintf_internal_r+0xcfc>
   23570:	4802fa26 	beq	r9,zero,2415c <___vfprintf_internal_r+0x10cc>
   23574:	10803fcc 	andi	r2,r2,255
   23578:	00c00044 	movi	r3,1
   2357c:	10c22926 	beq	r2,r3,23e24 <___vfprintf_internal_r+0xd94>
   23580:	00c00084 	movi	r3,2
   23584:	10c31726 	beq	r2,r3,241e4 <___vfprintf_internal_r+0x1154>
   23588:	d8c01e04 	addi	r3,sp,120
   2358c:	9808d0fa 	srli	r4,r19,3
   23590:	e00a977a 	slli	r5,fp,29
   23594:	e038d0fa 	srli	fp,fp,3
   23598:	9cc001cc 	andi	r19,r19,7
   2359c:	98800c04 	addi	r2,r19,48
   235a0:	18ffffc4 	addi	r3,r3,-1
   235a4:	2926b03a 	or	r19,r5,r4
   235a8:	18800005 	stb	r2,0(r3)
   235ac:	9f08b03a 	or	r4,r19,fp
   235b0:	203ff61e 	bne	r4,zero,2358c <_gp+0xfffe7718>
   235b4:	8900004c 	andi	r4,r17,1
   235b8:	d8c03115 	stw	r3,196(sp)
   235bc:	2003931e 	bne	r4,zero,2440c <___vfprintf_internal_r+0x137c>
   235c0:	dac02817 	ldw	r11,160(sp)
   235c4:	58e5c83a 	sub	r18,r11,r3
   235c8:	9005883a 	mov	r2,r18
   235cc:	9240010e 	bge	r18,r9,235d4 <___vfprintf_internal_r+0x544>
   235d0:	4805883a 	mov	r2,r9
   235d4:	d8802b15 	stw	r2,172(sp)
   235d8:	d8003415 	stw	zero,208(sp)
   235dc:	a8803fcc 	andi	r2,r21,255
   235e0:	1080201c 	xori	r2,r2,128
   235e4:	10bfe004 	addi	r2,r2,-128
   235e8:	10000326 	beq	r2,zero,235f8 <___vfprintf_internal_r+0x568>
   235ec:	db002b17 	ldw	r12,172(sp)
   235f0:	63000044 	addi	r12,r12,1
   235f4:	db002b15 	stw	r12,172(sp)
   235f8:	88c0008c 	andi	r3,r17,2
   235fc:	d8c02c15 	stw	r3,176(sp)
   23600:	18000326 	beq	r3,zero,23610 <___vfprintf_internal_r+0x580>
   23604:	dac02b17 	ldw	r11,172(sp)
   23608:	5ac00084 	addi	r11,r11,2
   2360c:	dac02b15 	stw	r11,172(sp)
   23610:	8b00210c 	andi	r12,r17,132
   23614:	db003015 	stw	r12,192(sp)
   23618:	6001da1e 	bne	r12,zero,23d84 <___vfprintf_internal_r+0xcf4>
   2361c:	dac02e17 	ldw	r11,184(sp)
   23620:	db002b17 	ldw	r12,172(sp)
   23624:	5b39c83a 	sub	fp,r11,r12
   23628:	0701d60e 	bge	zero,fp,23d84 <___vfprintf_internal_r+0xcf4>
   2362c:	02400404 	movi	r9,16
   23630:	d8c02017 	ldw	r3,128(sp)
   23634:	d8801f17 	ldw	r2,124(sp)
   23638:	4f053c0e 	bge	r9,fp,24b2c <___vfprintf_internal_r+0x1a9c>
   2363c:	014000f4 	movhi	r5,3
   23640:	29466384 	addi	r5,r5,6542
   23644:	d9403615 	stw	r5,216(sp)
   23648:	482b883a 	mov	r21,r9
   2364c:	04c001c4 	movi	r19,7
   23650:	00000306 	br	23660 <___vfprintf_internal_r+0x5d0>
   23654:	e73ffc04 	addi	fp,fp,-16
   23658:	42000204 	addi	r8,r8,8
   2365c:	af00130e 	bge	r21,fp,236ac <___vfprintf_internal_r+0x61c>
   23660:	02c000f4 	movhi	r11,3
   23664:	18c00404 	addi	r3,r3,16
   23668:	10800044 	addi	r2,r2,1
   2366c:	5ac66384 	addi	r11,r11,6542
   23670:	42c00015 	stw	r11,0(r8)
   23674:	45400115 	stw	r21,4(r8)
   23678:	d8c02015 	stw	r3,128(sp)
   2367c:	d8801f15 	stw	r2,124(sp)
   23680:	98bff40e 	bge	r19,r2,23654 <_gp+0xfffe77e0>
   23684:	b009883a 	mov	r4,r22
   23688:	b80b883a 	mov	r5,r23
   2368c:	d9801e04 	addi	r6,sp,120
   23690:	0029ba40 	call	29ba4 <__sprint_r>
   23694:	103f721e 	bne	r2,zero,23460 <_gp+0xfffe75ec>
   23698:	e73ffc04 	addi	fp,fp,-16
   2369c:	d8c02017 	ldw	r3,128(sp)
   236a0:	d8801f17 	ldw	r2,124(sp)
   236a4:	da000404 	addi	r8,sp,16
   236a8:	af3fed16 	blt	r21,fp,23660 <_gp+0xfffe77ec>
   236ac:	db003617 	ldw	r12,216(sp)
   236b0:	e0c7883a 	add	r3,fp,r3
   236b4:	10800044 	addi	r2,r2,1
   236b8:	43000015 	stw	r12,0(r8)
   236bc:	47000115 	stw	fp,4(r8)
   236c0:	d8c02015 	stw	r3,128(sp)
   236c4:	d8801f15 	stw	r2,124(sp)
   236c8:	010001c4 	movi	r4,7
   236cc:	20830e16 	blt	r4,r2,24308 <___vfprintf_internal_r+0x1278>
   236d0:	d8802787 	ldb	r2,158(sp)
   236d4:	42000204 	addi	r8,r8,8
   236d8:	10000c26 	beq	r2,zero,2370c <___vfprintf_internal_r+0x67c>
   236dc:	d8801f17 	ldw	r2,124(sp)
   236e0:	d9002784 	addi	r4,sp,158
   236e4:	18c00044 	addi	r3,r3,1
   236e8:	10800044 	addi	r2,r2,1
   236ec:	41000015 	stw	r4,0(r8)
   236f0:	01000044 	movi	r4,1
   236f4:	41000115 	stw	r4,4(r8)
   236f8:	d8c02015 	stw	r3,128(sp)
   236fc:	d8801f15 	stw	r2,124(sp)
   23700:	010001c4 	movi	r4,7
   23704:	2082a716 	blt	r4,r2,241a4 <___vfprintf_internal_r+0x1114>
   23708:	42000204 	addi	r8,r8,8
   2370c:	dac02c17 	ldw	r11,176(sp)
   23710:	58000c26 	beq	r11,zero,23744 <___vfprintf_internal_r+0x6b4>
   23714:	d8801f17 	ldw	r2,124(sp)
   23718:	d9002704 	addi	r4,sp,156
   2371c:	18c00084 	addi	r3,r3,2
   23720:	10800044 	addi	r2,r2,1
   23724:	41000015 	stw	r4,0(r8)
   23728:	01000084 	movi	r4,2
   2372c:	41000115 	stw	r4,4(r8)
   23730:	d8c02015 	stw	r3,128(sp)
   23734:	d8801f15 	stw	r2,124(sp)
   23738:	010001c4 	movi	r4,7
   2373c:	2082a116 	blt	r4,r2,241c4 <___vfprintf_internal_r+0x1134>
   23740:	42000204 	addi	r8,r8,8
   23744:	db003017 	ldw	r12,192(sp)
   23748:	00802004 	movi	r2,128
   2374c:	60820326 	beq	r12,r2,23f5c <___vfprintf_internal_r+0xecc>
   23750:	db003217 	ldw	r12,200(sp)
   23754:	64abc83a 	sub	r21,r12,r18
   23758:	0540260e 	bge	zero,r21,237f4 <___vfprintf_internal_r+0x764>
   2375c:	07000404 	movi	fp,16
   23760:	d8801f17 	ldw	r2,124(sp)
   23764:	e544570e 	bge	fp,r21,248c4 <___vfprintf_internal_r+0x1834>
   23768:	014000f4 	movhi	r5,3
   2376c:	29465f84 	addi	r5,r5,6526
   23770:	d9402c15 	stw	r5,176(sp)
   23774:	04c001c4 	movi	r19,7
   23778:	00000306 	br	23788 <___vfprintf_internal_r+0x6f8>
   2377c:	ad7ffc04 	addi	r21,r21,-16
   23780:	42000204 	addi	r8,r8,8
   23784:	e540110e 	bge	fp,r21,237cc <___vfprintf_internal_r+0x73c>
   23788:	18c00404 	addi	r3,r3,16
   2378c:	10800044 	addi	r2,r2,1
   23790:	45000015 	stw	r20,0(r8)
   23794:	47000115 	stw	fp,4(r8)
   23798:	d8c02015 	stw	r3,128(sp)
   2379c:	d8801f15 	stw	r2,124(sp)
   237a0:	98bff60e 	bge	r19,r2,2377c <_gp+0xfffe7908>
   237a4:	b009883a 	mov	r4,r22
   237a8:	b80b883a 	mov	r5,r23
   237ac:	d9801e04 	addi	r6,sp,120
   237b0:	0029ba40 	call	29ba4 <__sprint_r>
   237b4:	103f2a1e 	bne	r2,zero,23460 <_gp+0xfffe75ec>
   237b8:	ad7ffc04 	addi	r21,r21,-16
   237bc:	d8c02017 	ldw	r3,128(sp)
   237c0:	d8801f17 	ldw	r2,124(sp)
   237c4:	da000404 	addi	r8,sp,16
   237c8:	e57fef16 	blt	fp,r21,23788 <_gp+0xfffe7914>
   237cc:	dac02c17 	ldw	r11,176(sp)
   237d0:	1d47883a 	add	r3,r3,r21
   237d4:	10800044 	addi	r2,r2,1
   237d8:	42c00015 	stw	r11,0(r8)
   237dc:	45400115 	stw	r21,4(r8)
   237e0:	d8c02015 	stw	r3,128(sp)
   237e4:	d8801f15 	stw	r2,124(sp)
   237e8:	010001c4 	movi	r4,7
   237ec:	20826516 	blt	r4,r2,24184 <___vfprintf_internal_r+0x10f4>
   237f0:	42000204 	addi	r8,r8,8
   237f4:	8880400c 	andi	r2,r17,256
   237f8:	1001901e 	bne	r2,zero,23e3c <___vfprintf_internal_r+0xdac>
   237fc:	d8801f17 	ldw	r2,124(sp)
   23800:	db003117 	ldw	r12,196(sp)
   23804:	1c87883a 	add	r3,r3,r18
   23808:	10800044 	addi	r2,r2,1
   2380c:	43000015 	stw	r12,0(r8)
   23810:	44800115 	stw	r18,4(r8)
   23814:	d8c02015 	stw	r3,128(sp)
   23818:	d8801f15 	stw	r2,124(sp)
   2381c:	010001c4 	movi	r4,7
   23820:	20824016 	blt	r4,r2,24124 <___vfprintf_internal_r+0x1094>
   23824:	42000204 	addi	r8,r8,8
   23828:	8c40010c 	andi	r17,r17,4
   2382c:	88003126 	beq	r17,zero,238f4 <___vfprintf_internal_r+0x864>
   23830:	db002e17 	ldw	r12,184(sp)
   23834:	dac02b17 	ldw	r11,172(sp)
   23838:	62e1c83a 	sub	r16,r12,r11
   2383c:	04002d0e 	bge	zero,r16,238f4 <___vfprintf_internal_r+0x864>
   23840:	04400404 	movi	r17,16
   23844:	d8801f17 	ldw	r2,124(sp)
   23848:	8c05150e 	bge	r17,r16,24ca0 <___vfprintf_internal_r+0x1c10>
   2384c:	010000f4 	movhi	r4,3
   23850:	21066384 	addi	r4,r4,6542
   23854:	d9003615 	stw	r4,216(sp)
   23858:	048001c4 	movi	r18,7
   2385c:	00000306 	br	2386c <___vfprintf_internal_r+0x7dc>
   23860:	843ffc04 	addi	r16,r16,-16
   23864:	42000204 	addi	r8,r8,8
   23868:	8c00130e 	bge	r17,r16,238b8 <___vfprintf_internal_r+0x828>
   2386c:	014000f4 	movhi	r5,3
   23870:	18c00404 	addi	r3,r3,16
   23874:	10800044 	addi	r2,r2,1
   23878:	29466384 	addi	r5,r5,6542
   2387c:	41400015 	stw	r5,0(r8)
   23880:	44400115 	stw	r17,4(r8)
   23884:	d8c02015 	stw	r3,128(sp)
   23888:	d8801f15 	stw	r2,124(sp)
   2388c:	90bff40e 	bge	r18,r2,23860 <_gp+0xfffe79ec>
   23890:	b009883a 	mov	r4,r22
   23894:	b80b883a 	mov	r5,r23
   23898:	d9801e04 	addi	r6,sp,120
   2389c:	0029ba40 	call	29ba4 <__sprint_r>
   238a0:	103eef1e 	bne	r2,zero,23460 <_gp+0xfffe75ec>
   238a4:	843ffc04 	addi	r16,r16,-16
   238a8:	d8c02017 	ldw	r3,128(sp)
   238ac:	d8801f17 	ldw	r2,124(sp)
   238b0:	da000404 	addi	r8,sp,16
   238b4:	8c3fed16 	blt	r17,r16,2386c <_gp+0xfffe79f8>
   238b8:	dac03617 	ldw	r11,216(sp)
   238bc:	1c07883a 	add	r3,r3,r16
   238c0:	10800044 	addi	r2,r2,1
   238c4:	42c00015 	stw	r11,0(r8)
   238c8:	44000115 	stw	r16,4(r8)
   238cc:	d8c02015 	stw	r3,128(sp)
   238d0:	d8801f15 	stw	r2,124(sp)
   238d4:	010001c4 	movi	r4,7
   238d8:	2080060e 	bge	r4,r2,238f4 <___vfprintf_internal_r+0x864>
   238dc:	b009883a 	mov	r4,r22
   238e0:	b80b883a 	mov	r5,r23
   238e4:	d9801e04 	addi	r6,sp,120
   238e8:	0029ba40 	call	29ba4 <__sprint_r>
   238ec:	103edc1e 	bne	r2,zero,23460 <_gp+0xfffe75ec>
   238f0:	d8c02017 	ldw	r3,128(sp)
   238f4:	d8802b17 	ldw	r2,172(sp)
   238f8:	db002e17 	ldw	r12,184(sp)
   238fc:	1300010e 	bge	r2,r12,23904 <___vfprintf_internal_r+0x874>
   23900:	6005883a 	mov	r2,r12
   23904:	dac02f17 	ldw	r11,188(sp)
   23908:	5897883a 	add	r11,r11,r2
   2390c:	dac02f15 	stw	r11,188(sp)
   23910:	18020c1e 	bne	r3,zero,24144 <___vfprintf_internal_r+0x10b4>
   23914:	d8001f15 	stw	zero,124(sp)
   23918:	da000404 	addi	r8,sp,16
   2391c:	003e1706 	br	2317c <_gp+0xfffe7308>
   23920:	8c400414 	ori	r17,r17,16
   23924:	d8c02a15 	stw	r3,168(sp)
   23928:	8880080c 	andi	r2,r17,32
   2392c:	10010126 	beq	r2,zero,23d34 <___vfprintf_internal_r+0xca4>
   23930:	db002d17 	ldw	r12,180(sp)
   23934:	0005883a 	mov	r2,zero
   23938:	64c00017 	ldw	r19,0(r12)
   2393c:	67000117 	ldw	fp,4(r12)
   23940:	63000204 	addi	r12,r12,8
   23944:	db002d15 	stw	r12,180(sp)
   23948:	9f06b03a 	or	r3,r19,fp
   2394c:	d8002785 	stb	zero,158(sp)
   23950:	da403215 	stw	r9,200(sp)
   23954:	002b883a 	mov	r21,zero
   23958:	003f0106 	br	23560 <_gp+0xfffe76ec>
   2395c:	8c400414 	ori	r17,r17,16
   23960:	d8c02a15 	stw	r3,168(sp)
   23964:	8880080c 	andi	r2,r17,32
   23968:	1000e326 	beq	r2,zero,23cf8 <___vfprintf_internal_r+0xc68>
   2396c:	dac02d17 	ldw	r11,180(sp)
   23970:	00800044 	movi	r2,1
   23974:	5cc00017 	ldw	r19,0(r11)
   23978:	5f000117 	ldw	fp,4(r11)
   2397c:	5ac00204 	addi	r11,r11,8
   23980:	dac02d15 	stw	r11,180(sp)
   23984:	9f06b03a 	or	r3,r19,fp
   23988:	003ff006 	br	2394c <_gp+0xfffe7ad8>
   2398c:	db002d17 	ldw	r12,180(sp)
   23990:	dac02d17 	ldw	r11,180(sp)
   23994:	d8c02a15 	stw	r3,168(sp)
   23998:	63000017 	ldw	r12,0(r12)
   2399c:	5ac00117 	ldw	r11,4(r11)
   239a0:	d9802785 	stb	r6,158(sp)
   239a4:	6009883a 	mov	r4,r12
   239a8:	580b883a 	mov	r5,r11
   239ac:	db003715 	stw	r12,220(sp)
   239b0:	da003f15 	stw	r8,252(sp)
   239b4:	da403e15 	stw	r9,248(sp)
   239b8:	dac03915 	stw	r11,228(sp)
   239bc:	00298540 	call	29854 <__fpclassifyd>
   239c0:	db002d17 	ldw	r12,180(sp)
   239c4:	04800044 	movi	r18,1
   239c8:	da003f17 	ldw	r8,252(sp)
   239cc:	64c00204 	addi	r19,r12,8
   239d0:	da403e17 	ldw	r9,248(sp)
   239d4:	d9003717 	ldw	r4,220(sp)
   239d8:	d9403917 	ldw	r5,228(sp)
   239dc:	14832b1e 	bne	r2,r18,2468c <___vfprintf_internal_r+0x15fc>
   239e0:	000d883a 	mov	r6,zero
   239e4:	000f883a 	mov	r7,zero
   239e8:	002d6800 	call	2d680 <__ledf2>
   239ec:	da003f17 	ldw	r8,252(sp)
   239f0:	1004b716 	blt	r2,zero,24cd0 <___vfprintf_internal_r+0x1c40>
   239f4:	dd402783 	ldbu	r21,158(sp)
   239f8:	008011c4 	movi	r2,71
   239fc:	14040e0e 	bge	r2,r16,24a38 <___vfprintf_internal_r+0x19a8>
   23a00:	00c000f4 	movhi	r3,3
   23a04:	18c65004 	addi	r3,r3,6464
   23a08:	d8c03115 	stw	r3,196(sp)
   23a0c:	02c000c4 	movi	r11,3
   23a10:	00bfdfc4 	movi	r2,-129
   23a14:	dac02b15 	stw	r11,172(sp)
   23a18:	88a2703a 	and	r17,r17,r2
   23a1c:	dcc02d15 	stw	r19,180(sp)
   23a20:	5825883a 	mov	r18,r11
   23a24:	d8003215 	stw	zero,200(sp)
   23a28:	d8003415 	stw	zero,208(sp)
   23a2c:	003eeb06 	br	235dc <_gp+0xfffe7768>
   23a30:	db002d17 	ldw	r12,180(sp)
   23a34:	00800c04 	movi	r2,48
   23a38:	d8802705 	stb	r2,156(sp)
   23a3c:	64c00017 	ldw	r19,0(r12)
   23a40:	00801e04 	movi	r2,120
   23a44:	d8802745 	stb	r2,157(sp)
   23a48:	008000f4 	movhi	r2,3
   23a4c:	10865804 	addi	r2,r2,6496
   23a50:	63000104 	addi	r12,r12,4
   23a54:	d8c02a15 	stw	r3,168(sp)
   23a58:	d8803b15 	stw	r2,236(sp)
   23a5c:	0039883a 	mov	fp,zero
   23a60:	8c400094 	ori	r17,r17,2
   23a64:	db002d15 	stw	r12,180(sp)
   23a68:	00800084 	movi	r2,2
   23a6c:	04001e04 	movi	r16,120
   23a70:	9807883a 	mov	r3,r19
   23a74:	003fb506 	br	2394c <_gp+0xfffe7ad8>
   23a78:	8c400214 	ori	r17,r17,8
   23a7c:	1805883a 	mov	r2,r3
   23a80:	1c000007 	ldb	r16,0(r3)
   23a84:	003de706 	br	23224 <_gp+0xfffe73b0>
   23a88:	d8c02a15 	stw	r3,168(sp)
   23a8c:	d9802785 	stb	r6,158(sp)
   23a90:	8880080c 	andi	r2,r17,32
   23a94:	d8c02d17 	ldw	r3,180(sp)
   23a98:	103ea61e 	bne	r2,zero,23534 <_gp+0xfffe76c0>
   23a9c:	8880040c 	andi	r2,r17,16
   23aa0:	1002221e 	bne	r2,zero,2432c <___vfprintf_internal_r+0x129c>
   23aa4:	8880100c 	andi	r2,r17,64
   23aa8:	10022026 	beq	r2,zero,2432c <___vfprintf_internal_r+0x129c>
   23aac:	1cc0000f 	ldh	r19,0(r3)
   23ab0:	db002d17 	ldw	r12,180(sp)
   23ab4:	9839d7fa 	srai	fp,r19,31
   23ab8:	63000104 	addi	r12,r12,4
   23abc:	db002d15 	stw	r12,180(sp)
   23ac0:	e005883a 	mov	r2,fp
   23ac4:	003ea106 	br	2354c <_gp+0xfffe76d8>
   23ac8:	8c401014 	ori	r17,r17,64
   23acc:	1805883a 	mov	r2,r3
   23ad0:	1c000007 	ldb	r16,0(r3)
   23ad4:	003dd306 	br	23224 <_gp+0xfffe73b0>
   23ad8:	1c000007 	ldb	r16,0(r3)
   23adc:	81c3e926 	beq	r16,r7,24a84 <___vfprintf_internal_r+0x19f4>
   23ae0:	8c400414 	ori	r17,r17,16
   23ae4:	1805883a 	mov	r2,r3
   23ae8:	003dce06 	br	23224 <_gp+0xfffe73b0>
   23aec:	d8c02a15 	stw	r3,168(sp)
   23af0:	d9802785 	stb	r6,158(sp)
   23af4:	8880080c 	andi	r2,r17,32
   23af8:	10034726 	beq	r2,zero,24818 <___vfprintf_internal_r+0x1788>
   23afc:	db002d17 	ldw	r12,180(sp)
   23b00:	dac02f17 	ldw	r11,188(sp)
   23b04:	60800017 	ldw	r2,0(r12)
   23b08:	5807d7fa 	srai	r3,r11,31
   23b0c:	63000104 	addi	r12,r12,4
   23b10:	db002d15 	stw	r12,180(sp)
   23b14:	12c00015 	stw	r11,0(r2)
   23b18:	10c00115 	stw	r3,4(r2)
   23b1c:	003d9706 	br	2317c <_gp+0xfffe7308>
   23b20:	030000f4 	movhi	r12,3
   23b24:	63065304 	addi	r12,r12,6476
   23b28:	d8c02a15 	stw	r3,168(sp)
   23b2c:	d9802785 	stb	r6,158(sp)
   23b30:	db003b15 	stw	r12,236(sp)
   23b34:	88c0080c 	andi	r3,r17,32
   23b38:	d8802d17 	ldw	r2,180(sp)
   23b3c:	18005b26 	beq	r3,zero,23cac <___vfprintf_internal_r+0xc1c>
   23b40:	dac02d17 	ldw	r11,180(sp)
   23b44:	14c00017 	ldw	r19,0(r2)
   23b48:	17000117 	ldw	fp,4(r2)
   23b4c:	5ac00204 	addi	r11,r11,8
   23b50:	dac02d15 	stw	r11,180(sp)
   23b54:	8880004c 	andi	r2,r17,1
   23b58:	10022926 	beq	r2,zero,24400 <___vfprintf_internal_r+0x1370>
   23b5c:	9f06b03a 	or	r3,r19,fp
   23b60:	18032b26 	beq	r3,zero,24810 <___vfprintf_internal_r+0x1780>
   23b64:	00800c04 	movi	r2,48
   23b68:	d8802705 	stb	r2,156(sp)
   23b6c:	dc002745 	stb	r16,157(sp)
   23b70:	8c400094 	ori	r17,r17,2
   23b74:	00800084 	movi	r2,2
   23b78:	003f7406 	br	2394c <_gp+0xfffe7ad8>
   23b7c:	30803fcc 	andi	r2,r6,255
   23b80:	1080201c 	xori	r2,r2,128
   23b84:	10bfe004 	addi	r2,r2,-128
   23b88:	1003351e 	bne	r2,zero,24860 <___vfprintf_internal_r+0x17d0>
   23b8c:	1805883a 	mov	r2,r3
   23b90:	01800804 	movi	r6,32
   23b94:	1c000007 	ldb	r16,0(r3)
   23b98:	003da206 	br	23224 <_gp+0xfffe73b0>
   23b9c:	dac02d17 	ldw	r11,180(sp)
   23ba0:	db002d17 	ldw	r12,180(sp)
   23ba4:	5ac00017 	ldw	r11,0(r11)
   23ba8:	dac02e15 	stw	r11,184(sp)
   23bac:	62c00104 	addi	r11,r12,4
   23bb0:	db002e17 	ldw	r12,184(sp)
   23bb4:	6003ad16 	blt	r12,zero,24a6c <___vfprintf_internal_r+0x19dc>
   23bb8:	dac02d15 	stw	r11,180(sp)
   23bbc:	1805883a 	mov	r2,r3
   23bc0:	1c000007 	ldb	r16,0(r3)
   23bc4:	003d9706 	br	23224 <_gp+0xfffe73b0>
   23bc8:	1805883a 	mov	r2,r3
   23bcc:	01800ac4 	movi	r6,43
   23bd0:	1c000007 	ldb	r16,0(r3)
   23bd4:	003d9306 	br	23224 <_gp+0xfffe73b0>
   23bd8:	db002d17 	ldw	r12,180(sp)
   23bdc:	d8c02a15 	stw	r3,168(sp)
   23be0:	00c00044 	movi	r3,1
   23be4:	60800017 	ldw	r2,0(r12)
   23be8:	63000104 	addi	r12,r12,4
   23bec:	d8c02b15 	stw	r3,172(sp)
   23bf0:	d8002785 	stb	zero,158(sp)
   23bf4:	d8801405 	stb	r2,80(sp)
   23bf8:	db002d15 	stw	r12,180(sp)
   23bfc:	dac01404 	addi	r11,sp,80
   23c00:	1825883a 	mov	r18,r3
   23c04:	d8003215 	stw	zero,200(sp)
   23c08:	d8003415 	stw	zero,208(sp)
   23c0c:	dac03115 	stw	r11,196(sp)
   23c10:	0005883a 	mov	r2,zero
   23c14:	003e7806 	br	235f8 <_gp+0xfffe7784>
   23c18:	dac02d17 	ldw	r11,180(sp)
   23c1c:	db002d17 	ldw	r12,180(sp)
   23c20:	d8c02a15 	stw	r3,168(sp)
   23c24:	5ac00017 	ldw	r11,0(r11)
   23c28:	d8002785 	stb	zero,158(sp)
   23c2c:	64c00104 	addi	r19,r12,4
   23c30:	dac03115 	stw	r11,196(sp)
   23c34:	5803fe26 	beq	r11,zero,24c30 <___vfprintf_internal_r+0x1ba0>
   23c38:	d9003117 	ldw	r4,196(sp)
   23c3c:	4803b416 	blt	r9,zero,24b10 <___vfprintf_internal_r+0x1a80>
   23c40:	480d883a 	mov	r6,r9
   23c44:	000b883a 	mov	r5,zero
   23c48:	da003f15 	stw	r8,252(sp)
   23c4c:	da403e15 	stw	r9,248(sp)
   23c50:	0027e640 	call	27e64 <memchr>
   23c54:	da003f17 	ldw	r8,252(sp)
   23c58:	da403e17 	ldw	r9,248(sp)
   23c5c:	10043026 	beq	r2,zero,24d20 <___vfprintf_internal_r+0x1c90>
   23c60:	d8c03117 	ldw	r3,196(sp)
   23c64:	10e5c83a 	sub	r18,r2,r3
   23c68:	4c836b16 	blt	r9,r18,24a18 <___vfprintf_internal_r+0x1988>
   23c6c:	9005883a 	mov	r2,r18
   23c70:	9003ac16 	blt	r18,zero,24b24 <___vfprintf_internal_r+0x1a94>
   23c74:	dd402783 	ldbu	r21,158(sp)
   23c78:	d8802b15 	stw	r2,172(sp)
   23c7c:	dcc02d15 	stw	r19,180(sp)
   23c80:	d8003215 	stw	zero,200(sp)
   23c84:	d8003415 	stw	zero,208(sp)
   23c88:	003e5406 	br	235dc <_gp+0xfffe7768>
   23c8c:	008000f4 	movhi	r2,3
   23c90:	10865804 	addi	r2,r2,6496
   23c94:	d8c02a15 	stw	r3,168(sp)
   23c98:	d8803b15 	stw	r2,236(sp)
   23c9c:	d9802785 	stb	r6,158(sp)
   23ca0:	88c0080c 	andi	r3,r17,32
   23ca4:	d8802d17 	ldw	r2,180(sp)
   23ca8:	183fa51e 	bne	r3,zero,23b40 <_gp+0xfffe7ccc>
   23cac:	88c0040c 	andi	r3,r17,16
   23cb0:	1802ee26 	beq	r3,zero,2486c <___vfprintf_internal_r+0x17dc>
   23cb4:	db002d17 	ldw	r12,180(sp)
   23cb8:	14c00017 	ldw	r19,0(r2)
   23cbc:	0039883a 	mov	fp,zero
   23cc0:	63000104 	addi	r12,r12,4
   23cc4:	db002d15 	stw	r12,180(sp)
   23cc8:	003fa206 	br	23b54 <_gp+0xfffe7ce0>
   23ccc:	8c400054 	ori	r17,r17,1
   23cd0:	1805883a 	mov	r2,r3
   23cd4:	1c000007 	ldb	r16,0(r3)
   23cd8:	003d5206 	br	23224 <_gp+0xfffe73b0>
   23cdc:	8c400814 	ori	r17,r17,32
   23ce0:	1805883a 	mov	r2,r3
   23ce4:	1c000007 	ldb	r16,0(r3)
   23ce8:	003d4e06 	br	23224 <_gp+0xfffe73b0>
   23cec:	d8c02a15 	stw	r3,168(sp)
   23cf0:	8880080c 	andi	r2,r17,32
   23cf4:	103f1d1e 	bne	r2,zero,2396c <_gp+0xfffe7af8>
   23cf8:	8880040c 	andi	r2,r17,16
   23cfc:	1001b81e 	bne	r2,zero,243e0 <___vfprintf_internal_r+0x1350>
   23d00:	8880100c 	andi	r2,r17,64
   23d04:	1001b626 	beq	r2,zero,243e0 <___vfprintf_internal_r+0x1350>
   23d08:	dac02d17 	ldw	r11,180(sp)
   23d0c:	0039883a 	mov	fp,zero
   23d10:	00800044 	movi	r2,1
   23d14:	5cc0000b 	ldhu	r19,0(r11)
   23d18:	5ac00104 	addi	r11,r11,4
   23d1c:	dac02d15 	stw	r11,180(sp)
   23d20:	9807883a 	mov	r3,r19
   23d24:	003f0906 	br	2394c <_gp+0xfffe7ad8>
   23d28:	d8c02a15 	stw	r3,168(sp)
   23d2c:	8880080c 	andi	r2,r17,32
   23d30:	103eff1e 	bne	r2,zero,23930 <_gp+0xfffe7abc>
   23d34:	8880040c 	andi	r2,r17,16
   23d38:	1001a11e 	bne	r2,zero,243c0 <___vfprintf_internal_r+0x1330>
   23d3c:	8880100c 	andi	r2,r17,64
   23d40:	10019f26 	beq	r2,zero,243c0 <___vfprintf_internal_r+0x1330>
   23d44:	db002d17 	ldw	r12,180(sp)
   23d48:	0039883a 	mov	fp,zero
   23d4c:	0005883a 	mov	r2,zero
   23d50:	64c0000b 	ldhu	r19,0(r12)
   23d54:	63000104 	addi	r12,r12,4
   23d58:	db002d15 	stw	r12,180(sp)
   23d5c:	9807883a 	mov	r3,r19
   23d60:	003efa06 	br	2394c <_gp+0xfffe7ad8>
   23d64:	d8c02a15 	stw	r3,168(sp)
   23d68:	d9802785 	stb	r6,158(sp)
   23d6c:	803db626 	beq	r16,zero,23448 <_gp+0xfffe75d4>
   23d70:	00c00044 	movi	r3,1
   23d74:	d8c02b15 	stw	r3,172(sp)
   23d78:	dc001405 	stb	r16,80(sp)
   23d7c:	d8002785 	stb	zero,158(sp)
   23d80:	003f9e06 	br	23bfc <_gp+0xfffe7d88>
   23d84:	d8c02017 	ldw	r3,128(sp)
   23d88:	003e5306 	br	236d8 <_gp+0xfffe7864>
   23d8c:	10803fcc 	andi	r2,r2,255
   23d90:	00c00044 	movi	r3,1
   23d94:	10fdfa1e 	bne	r2,r3,23580 <_gp+0xfffe770c>
   23d98:	e000021e 	bne	fp,zero,23da4 <___vfprintf_internal_r+0xd14>
   23d9c:	00800244 	movi	r2,9
   23da0:	14c0202e 	bgeu	r2,r19,23e24 <___vfprintf_internal_r+0xd94>
   23da4:	dc002b15 	stw	r16,172(sp)
   23da8:	dc402c15 	stw	r17,176(sp)
   23dac:	9821883a 	mov	r16,r19
   23db0:	e023883a 	mov	r17,fp
   23db4:	dc801e04 	addi	r18,sp,120
   23db8:	4827883a 	mov	r19,r9
   23dbc:	4039883a 	mov	fp,r8
   23dc0:	8009883a 	mov	r4,r16
   23dc4:	880b883a 	mov	r5,r17
   23dc8:	01800284 	movi	r6,10
   23dcc:	000f883a 	mov	r7,zero
   23dd0:	002be240 	call	2be24 <__umoddi3>
   23dd4:	10800c04 	addi	r2,r2,48
   23dd8:	94bfffc4 	addi	r18,r18,-1
   23ddc:	8009883a 	mov	r4,r16
   23de0:	880b883a 	mov	r5,r17
   23de4:	01800284 	movi	r6,10
   23de8:	000f883a 	mov	r7,zero
   23dec:	90800005 	stb	r2,0(r18)
   23df0:	002b8640 	call	2b864 <__udivdi3>
   23df4:	1021883a 	mov	r16,r2
   23df8:	10c4b03a 	or	r2,r2,r3
   23dfc:	1823883a 	mov	r17,r3
   23e00:	103fef1e 	bne	r2,zero,23dc0 <_gp+0xfffe7f4c>
   23e04:	dac02817 	ldw	r11,160(sp)
   23e08:	dc803115 	stw	r18,196(sp)
   23e0c:	dc002b17 	ldw	r16,172(sp)
   23e10:	dc402c17 	ldw	r17,176(sp)
   23e14:	9813883a 	mov	r9,r19
   23e18:	e011883a 	mov	r8,fp
   23e1c:	5ca5c83a 	sub	r18,r11,r18
   23e20:	003de906 	br	235c8 <_gp+0xfffe7754>
   23e24:	9cc00c04 	addi	r19,r19,48
   23e28:	d8c01dc4 	addi	r3,sp,119
   23e2c:	dcc01dc5 	stb	r19,119(sp)
   23e30:	dc803c17 	ldw	r18,240(sp)
   23e34:	d8c03115 	stw	r3,196(sp)
   23e38:	003de306 	br	235c8 <_gp+0xfffe7754>
   23e3c:	00801944 	movi	r2,101
   23e40:	1400710e 	bge	r2,r16,24008 <___vfprintf_internal_r+0xf78>
   23e44:	d9003717 	ldw	r4,220(sp)
   23e48:	d9403917 	ldw	r5,228(sp)
   23e4c:	000d883a 	mov	r6,zero
   23e50:	000f883a 	mov	r7,zero
   23e54:	d8c03d15 	stw	r3,244(sp)
   23e58:	da003f15 	stw	r8,252(sp)
   23e5c:	002d51c0 	call	2d51c <__eqdf2>
   23e60:	d8c03d17 	ldw	r3,244(sp)
   23e64:	da003f17 	ldw	r8,252(sp)
   23e68:	1000ef1e 	bne	r2,zero,24228 <___vfprintf_internal_r+0x1198>
   23e6c:	d8801f17 	ldw	r2,124(sp)
   23e70:	010000f4 	movhi	r4,3
   23e74:	21065f04 	addi	r4,r4,6524
   23e78:	18c00044 	addi	r3,r3,1
   23e7c:	10800044 	addi	r2,r2,1
   23e80:	41000015 	stw	r4,0(r8)
   23e84:	01000044 	movi	r4,1
   23e88:	41000115 	stw	r4,4(r8)
   23e8c:	d8c02015 	stw	r3,128(sp)
   23e90:	d8801f15 	stw	r2,124(sp)
   23e94:	010001c4 	movi	r4,7
   23e98:	20828e16 	blt	r4,r2,248d4 <___vfprintf_internal_r+0x1844>
   23e9c:	42000204 	addi	r8,r8,8
   23ea0:	d8802617 	ldw	r2,152(sp)
   23ea4:	dac03317 	ldw	r11,204(sp)
   23ea8:	12c00216 	blt	r2,r11,23eb4 <___vfprintf_internal_r+0xe24>
   23eac:	8880004c 	andi	r2,r17,1
   23eb0:	103e5d26 	beq	r2,zero,23828 <_gp+0xfffe79b4>
   23eb4:	db003817 	ldw	r12,224(sp)
   23eb8:	d8801f17 	ldw	r2,124(sp)
   23ebc:	dac03517 	ldw	r11,212(sp)
   23ec0:	1b07883a 	add	r3,r3,r12
   23ec4:	10800044 	addi	r2,r2,1
   23ec8:	42c00015 	stw	r11,0(r8)
   23ecc:	43000115 	stw	r12,4(r8)
   23ed0:	d8c02015 	stw	r3,128(sp)
   23ed4:	d8801f15 	stw	r2,124(sp)
   23ed8:	010001c4 	movi	r4,7
   23edc:	2082ed16 	blt	r4,r2,24a94 <___vfprintf_internal_r+0x1a04>
   23ee0:	42000204 	addi	r8,r8,8
   23ee4:	db003317 	ldw	r12,204(sp)
   23ee8:	643fffc4 	addi	r16,r12,-1
   23eec:	043e4e0e 	bge	zero,r16,23828 <_gp+0xfffe79b4>
   23ef0:	04800404 	movi	r18,16
   23ef4:	d8801f17 	ldw	r2,124(sp)
   23ef8:	94007e0e 	bge	r18,r16,240f4 <___vfprintf_internal_r+0x1064>
   23efc:	014000f4 	movhi	r5,3
   23f00:	29465f84 	addi	r5,r5,6526
   23f04:	d9402c15 	stw	r5,176(sp)
   23f08:	054001c4 	movi	r21,7
   23f0c:	00000306 	br	23f1c <___vfprintf_internal_r+0xe8c>
   23f10:	42000204 	addi	r8,r8,8
   23f14:	843ffc04 	addi	r16,r16,-16
   23f18:	9400790e 	bge	r18,r16,24100 <___vfprintf_internal_r+0x1070>
   23f1c:	18c00404 	addi	r3,r3,16
   23f20:	10800044 	addi	r2,r2,1
   23f24:	45000015 	stw	r20,0(r8)
   23f28:	44800115 	stw	r18,4(r8)
   23f2c:	d8c02015 	stw	r3,128(sp)
   23f30:	d8801f15 	stw	r2,124(sp)
   23f34:	a8bff60e 	bge	r21,r2,23f10 <_gp+0xfffe809c>
   23f38:	b009883a 	mov	r4,r22
   23f3c:	b80b883a 	mov	r5,r23
   23f40:	d9801e04 	addi	r6,sp,120
   23f44:	0029ba40 	call	29ba4 <__sprint_r>
   23f48:	103d451e 	bne	r2,zero,23460 <_gp+0xfffe75ec>
   23f4c:	d8c02017 	ldw	r3,128(sp)
   23f50:	d8801f17 	ldw	r2,124(sp)
   23f54:	da000404 	addi	r8,sp,16
   23f58:	003fee06 	br	23f14 <_gp+0xfffe80a0>
   23f5c:	dac02e17 	ldw	r11,184(sp)
   23f60:	db002b17 	ldw	r12,172(sp)
   23f64:	5b2bc83a 	sub	r21,r11,r12
   23f68:	057df90e 	bge	zero,r21,23750 <_gp+0xfffe78dc>
   23f6c:	07000404 	movi	fp,16
   23f70:	d8801f17 	ldw	r2,124(sp)
   23f74:	e543640e 	bge	fp,r21,24d08 <___vfprintf_internal_r+0x1c78>
   23f78:	014000f4 	movhi	r5,3
   23f7c:	29465f84 	addi	r5,r5,6526
   23f80:	d9402c15 	stw	r5,176(sp)
   23f84:	04c001c4 	movi	r19,7
   23f88:	00000306 	br	23f98 <___vfprintf_internal_r+0xf08>
   23f8c:	ad7ffc04 	addi	r21,r21,-16
   23f90:	42000204 	addi	r8,r8,8
   23f94:	e540110e 	bge	fp,r21,23fdc <___vfprintf_internal_r+0xf4c>
   23f98:	18c00404 	addi	r3,r3,16
   23f9c:	10800044 	addi	r2,r2,1
   23fa0:	45000015 	stw	r20,0(r8)
   23fa4:	47000115 	stw	fp,4(r8)
   23fa8:	d8c02015 	stw	r3,128(sp)
   23fac:	d8801f15 	stw	r2,124(sp)
   23fb0:	98bff60e 	bge	r19,r2,23f8c <_gp+0xfffe8118>
   23fb4:	b009883a 	mov	r4,r22
   23fb8:	b80b883a 	mov	r5,r23
   23fbc:	d9801e04 	addi	r6,sp,120
   23fc0:	0029ba40 	call	29ba4 <__sprint_r>
   23fc4:	103d261e 	bne	r2,zero,23460 <_gp+0xfffe75ec>
   23fc8:	ad7ffc04 	addi	r21,r21,-16
   23fcc:	d8c02017 	ldw	r3,128(sp)
   23fd0:	d8801f17 	ldw	r2,124(sp)
   23fd4:	da000404 	addi	r8,sp,16
   23fd8:	e57fef16 	blt	fp,r21,23f98 <_gp+0xfffe8124>
   23fdc:	dac02c17 	ldw	r11,176(sp)
   23fe0:	1d47883a 	add	r3,r3,r21
   23fe4:	10800044 	addi	r2,r2,1
   23fe8:	42c00015 	stw	r11,0(r8)
   23fec:	45400115 	stw	r21,4(r8)
   23ff0:	d8c02015 	stw	r3,128(sp)
   23ff4:	d8801f15 	stw	r2,124(sp)
   23ff8:	010001c4 	movi	r4,7
   23ffc:	20819116 	blt	r4,r2,24644 <___vfprintf_internal_r+0x15b4>
   24000:	42000204 	addi	r8,r8,8
   24004:	003dd206 	br	23750 <_gp+0xfffe78dc>
   24008:	db003317 	ldw	r12,204(sp)
   2400c:	00800044 	movi	r2,1
   24010:	18c00044 	addi	r3,r3,1
   24014:	1301530e 	bge	r2,r12,24564 <___vfprintf_internal_r+0x14d4>
   24018:	dc001f17 	ldw	r16,124(sp)
   2401c:	dac03117 	ldw	r11,196(sp)
   24020:	00800044 	movi	r2,1
   24024:	84000044 	addi	r16,r16,1
   24028:	40800115 	stw	r2,4(r8)
   2402c:	42c00015 	stw	r11,0(r8)
   24030:	d8c02015 	stw	r3,128(sp)
   24034:	dc001f15 	stw	r16,124(sp)
   24038:	008001c4 	movi	r2,7
   2403c:	14016b16 	blt	r2,r16,245ec <___vfprintf_internal_r+0x155c>
   24040:	42000204 	addi	r8,r8,8
   24044:	db003817 	ldw	r12,224(sp)
   24048:	dac03517 	ldw	r11,212(sp)
   2404c:	84000044 	addi	r16,r16,1
   24050:	1b07883a 	add	r3,r3,r12
   24054:	42c00015 	stw	r11,0(r8)
   24058:	43000115 	stw	r12,4(r8)
   2405c:	d8c02015 	stw	r3,128(sp)
   24060:	dc001f15 	stw	r16,124(sp)
   24064:	008001c4 	movi	r2,7
   24068:	14016916 	blt	r2,r16,24610 <___vfprintf_internal_r+0x1580>
   2406c:	44800204 	addi	r18,r8,8
   24070:	d9003717 	ldw	r4,220(sp)
   24074:	d9403917 	ldw	r5,228(sp)
   24078:	000d883a 	mov	r6,zero
   2407c:	000f883a 	mov	r7,zero
   24080:	d8c03d15 	stw	r3,244(sp)
   24084:	002d51c0 	call	2d51c <__eqdf2>
   24088:	d8c03d17 	ldw	r3,244(sp)
   2408c:	db003317 	ldw	r12,204(sp)
   24090:	1000ad26 	beq	r2,zero,24348 <___vfprintf_internal_r+0x12b8>
   24094:	dac03117 	ldw	r11,196(sp)
   24098:	60bfffc4 	addi	r2,r12,-1
   2409c:	1887883a 	add	r3,r3,r2
   240a0:	59000044 	addi	r4,r11,1
   240a4:	84000044 	addi	r16,r16,1
   240a8:	90800115 	stw	r2,4(r18)
   240ac:	91000015 	stw	r4,0(r18)
   240b0:	d8c02015 	stw	r3,128(sp)
   240b4:	dc001f15 	stw	r16,124(sp)
   240b8:	008001c4 	movi	r2,7
   240bc:	14014216 	blt	r2,r16,245c8 <___vfprintf_internal_r+0x1538>
   240c0:	94800204 	addi	r18,r18,8
   240c4:	dac03a17 	ldw	r11,232(sp)
   240c8:	dd4022c4 	addi	r21,sp,139
   240cc:	84000044 	addi	r16,r16,1
   240d0:	1ac7883a 	add	r3,r3,r11
   240d4:	95400015 	stw	r21,0(r18)
   240d8:	92c00115 	stw	r11,4(r18)
   240dc:	d8c02015 	stw	r3,128(sp)
   240e0:	dc001f15 	stw	r16,124(sp)
   240e4:	008001c4 	movi	r2,7
   240e8:	14000e16 	blt	r2,r16,24124 <___vfprintf_internal_r+0x1094>
   240ec:	92000204 	addi	r8,r18,8
   240f0:	003dcd06 	br	23828 <_gp+0xfffe79b4>
   240f4:	010000f4 	movhi	r4,3
   240f8:	21065f84 	addi	r4,r4,6526
   240fc:	d9002c15 	stw	r4,176(sp)
   24100:	dac02c17 	ldw	r11,176(sp)
   24104:	1c07883a 	add	r3,r3,r16
   24108:	44000115 	stw	r16,4(r8)
   2410c:	42c00015 	stw	r11,0(r8)
   24110:	10800044 	addi	r2,r2,1
   24114:	d8c02015 	stw	r3,128(sp)
   24118:	d8801f15 	stw	r2,124(sp)
   2411c:	010001c4 	movi	r4,7
   24120:	20bdc00e 	bge	r4,r2,23824 <_gp+0xfffe79b0>
   24124:	b009883a 	mov	r4,r22
   24128:	b80b883a 	mov	r5,r23
   2412c:	d9801e04 	addi	r6,sp,120
   24130:	0029ba40 	call	29ba4 <__sprint_r>
   24134:	103cca1e 	bne	r2,zero,23460 <_gp+0xfffe75ec>
   24138:	d8c02017 	ldw	r3,128(sp)
   2413c:	da000404 	addi	r8,sp,16
   24140:	003db906 	br	23828 <_gp+0xfffe79b4>
   24144:	b009883a 	mov	r4,r22
   24148:	b80b883a 	mov	r5,r23
   2414c:	d9801e04 	addi	r6,sp,120
   24150:	0029ba40 	call	29ba4 <__sprint_r>
   24154:	103def26 	beq	r2,zero,23914 <_gp+0xfffe7aa0>
   24158:	003cc106 	br	23460 <_gp+0xfffe75ec>
   2415c:	10803fcc 	andi	r2,r2,255
   24160:	1000651e 	bne	r2,zero,242f8 <___vfprintf_internal_r+0x1268>
   24164:	8880004c 	andi	r2,r17,1
   24168:	10013226 	beq	r2,zero,24634 <___vfprintf_internal_r+0x15a4>
   2416c:	00800c04 	movi	r2,48
   24170:	d8c01dc4 	addi	r3,sp,119
   24174:	d8801dc5 	stb	r2,119(sp)
   24178:	dc803c17 	ldw	r18,240(sp)
   2417c:	d8c03115 	stw	r3,196(sp)
   24180:	003d1106 	br	235c8 <_gp+0xfffe7754>
   24184:	b009883a 	mov	r4,r22
   24188:	b80b883a 	mov	r5,r23
   2418c:	d9801e04 	addi	r6,sp,120
   24190:	0029ba40 	call	29ba4 <__sprint_r>
   24194:	103cb21e 	bne	r2,zero,23460 <_gp+0xfffe75ec>
   24198:	d8c02017 	ldw	r3,128(sp)
   2419c:	da000404 	addi	r8,sp,16
   241a0:	003d9406 	br	237f4 <_gp+0xfffe7980>
   241a4:	b009883a 	mov	r4,r22
   241a8:	b80b883a 	mov	r5,r23
   241ac:	d9801e04 	addi	r6,sp,120
   241b0:	0029ba40 	call	29ba4 <__sprint_r>
   241b4:	103caa1e 	bne	r2,zero,23460 <_gp+0xfffe75ec>
   241b8:	d8c02017 	ldw	r3,128(sp)
   241bc:	da000404 	addi	r8,sp,16
   241c0:	003d5206 	br	2370c <_gp+0xfffe7898>
   241c4:	b009883a 	mov	r4,r22
   241c8:	b80b883a 	mov	r5,r23
   241cc:	d9801e04 	addi	r6,sp,120
   241d0:	0029ba40 	call	29ba4 <__sprint_r>
   241d4:	103ca21e 	bne	r2,zero,23460 <_gp+0xfffe75ec>
   241d8:	d8c02017 	ldw	r3,128(sp)
   241dc:	da000404 	addi	r8,sp,16
   241e0:	003d5806 	br	23744 <_gp+0xfffe78d0>
   241e4:	d9403b17 	ldw	r5,236(sp)
   241e8:	d8c01e04 	addi	r3,sp,120
   241ec:	988003cc 	andi	r2,r19,15
   241f0:	e008973a 	slli	r4,fp,28
   241f4:	2885883a 	add	r2,r5,r2
   241f8:	9826d13a 	srli	r19,r19,4
   241fc:	10800003 	ldbu	r2,0(r2)
   24200:	e038d13a 	srli	fp,fp,4
   24204:	18ffffc4 	addi	r3,r3,-1
   24208:	24e6b03a 	or	r19,r4,r19
   2420c:	18800005 	stb	r2,0(r3)
   24210:	9f04b03a 	or	r2,r19,fp
   24214:	103ff51e 	bne	r2,zero,241ec <_gp+0xfffe8378>
   24218:	db002817 	ldw	r12,160(sp)
   2421c:	d8c03115 	stw	r3,196(sp)
   24220:	60e5c83a 	sub	r18,r12,r3
   24224:	003ce806 	br	235c8 <_gp+0xfffe7754>
   24228:	dc002617 	ldw	r16,152(sp)
   2422c:	0401b10e 	bge	zero,r16,248f4 <___vfprintf_internal_r+0x1864>
   24230:	db003117 	ldw	r12,196(sp)
   24234:	dac03317 	ldw	r11,204(sp)
   24238:	62e1883a 	add	r16,r12,r11
   2423c:	db003417 	ldw	r12,208(sp)
   24240:	5825883a 	mov	r18,r11
   24244:	62c0010e 	bge	r12,r11,2424c <___vfprintf_internal_r+0x11bc>
   24248:	6025883a 	mov	r18,r12
   2424c:	04800b0e 	bge	zero,r18,2427c <___vfprintf_internal_r+0x11ec>
   24250:	d8801f17 	ldw	r2,124(sp)
   24254:	dac03117 	ldw	r11,196(sp)
   24258:	1c87883a 	add	r3,r3,r18
   2425c:	10800044 	addi	r2,r2,1
   24260:	42c00015 	stw	r11,0(r8)
   24264:	44800115 	stw	r18,4(r8)
   24268:	d8c02015 	stw	r3,128(sp)
   2426c:	d8801f15 	stw	r2,124(sp)
   24270:	010001c4 	movi	r4,7
   24274:	20824f16 	blt	r4,r2,24bb4 <___vfprintf_internal_r+0x1b24>
   24278:	42000204 	addi	r8,r8,8
   2427c:	90024b16 	blt	r18,zero,24bac <___vfprintf_internal_r+0x1b1c>
   24280:	db003417 	ldw	r12,208(sp)
   24284:	64a5c83a 	sub	r18,r12,r18
   24288:	0480730e 	bge	zero,r18,24458 <___vfprintf_internal_r+0x13c8>
   2428c:	05400404 	movi	r21,16
   24290:	d8801f17 	ldw	r2,124(sp)
   24294:	ac817d0e 	bge	r21,r18,2488c <___vfprintf_internal_r+0x17fc>
   24298:	014000f4 	movhi	r5,3
   2429c:	29465f84 	addi	r5,r5,6526
   242a0:	d9402c15 	stw	r5,176(sp)
   242a4:	070001c4 	movi	fp,7
   242a8:	00000306 	br	242b8 <___vfprintf_internal_r+0x1228>
   242ac:	42000204 	addi	r8,r8,8
   242b0:	94bffc04 	addi	r18,r18,-16
   242b4:	ac81780e 	bge	r21,r18,24898 <___vfprintf_internal_r+0x1808>
   242b8:	18c00404 	addi	r3,r3,16
   242bc:	10800044 	addi	r2,r2,1
   242c0:	45000015 	stw	r20,0(r8)
   242c4:	45400115 	stw	r21,4(r8)
   242c8:	d8c02015 	stw	r3,128(sp)
   242cc:	d8801f15 	stw	r2,124(sp)
   242d0:	e0bff60e 	bge	fp,r2,242ac <_gp+0xfffe8438>
   242d4:	b009883a 	mov	r4,r22
   242d8:	b80b883a 	mov	r5,r23
   242dc:	d9801e04 	addi	r6,sp,120
   242e0:	0029ba40 	call	29ba4 <__sprint_r>
   242e4:	103c5e1e 	bne	r2,zero,23460 <_gp+0xfffe75ec>
   242e8:	d8c02017 	ldw	r3,128(sp)
   242ec:	d8801f17 	ldw	r2,124(sp)
   242f0:	da000404 	addi	r8,sp,16
   242f4:	003fee06 	br	242b0 <_gp+0xfffe843c>
   242f8:	dac01e04 	addi	r11,sp,120
   242fc:	0025883a 	mov	r18,zero
   24300:	dac03115 	stw	r11,196(sp)
   24304:	003cb006 	br	235c8 <_gp+0xfffe7754>
   24308:	b009883a 	mov	r4,r22
   2430c:	b80b883a 	mov	r5,r23
   24310:	d9801e04 	addi	r6,sp,120
   24314:	0029ba40 	call	29ba4 <__sprint_r>
   24318:	103c511e 	bne	r2,zero,23460 <_gp+0xfffe75ec>
   2431c:	d8c02017 	ldw	r3,128(sp)
   24320:	d8802787 	ldb	r2,158(sp)
   24324:	da000404 	addi	r8,sp,16
   24328:	003ceb06 	br	236d8 <_gp+0xfffe7864>
   2432c:	1cc00017 	ldw	r19,0(r3)
   24330:	dac02d17 	ldw	r11,180(sp)
   24334:	9839d7fa 	srai	fp,r19,31
   24338:	5ac00104 	addi	r11,r11,4
   2433c:	dac02d15 	stw	r11,180(sp)
   24340:	e005883a 	mov	r2,fp
   24344:	003c8106 	br	2354c <_gp+0xfffe76d8>
   24348:	657fffc4 	addi	r21,r12,-1
   2434c:	057f5d0e 	bge	zero,r21,240c4 <_gp+0xfffe8250>
   24350:	07000404 	movi	fp,16
   24354:	e540900e 	bge	fp,r21,24598 <___vfprintf_internal_r+0x1508>
   24358:	010000f4 	movhi	r4,3
   2435c:	21065f84 	addi	r4,r4,6526
   24360:	d9002c15 	stw	r4,176(sp)
   24364:	01c001c4 	movi	r7,7
   24368:	00000306 	br	24378 <___vfprintf_internal_r+0x12e8>
   2436c:	94800204 	addi	r18,r18,8
   24370:	ad7ffc04 	addi	r21,r21,-16
   24374:	e5408b0e 	bge	fp,r21,245a4 <___vfprintf_internal_r+0x1514>
   24378:	18c00404 	addi	r3,r3,16
   2437c:	84000044 	addi	r16,r16,1
   24380:	95000015 	stw	r20,0(r18)
   24384:	97000115 	stw	fp,4(r18)
   24388:	d8c02015 	stw	r3,128(sp)
   2438c:	dc001f15 	stw	r16,124(sp)
   24390:	3c3ff60e 	bge	r7,r16,2436c <_gp+0xfffe84f8>
   24394:	b009883a 	mov	r4,r22
   24398:	b80b883a 	mov	r5,r23
   2439c:	d9801e04 	addi	r6,sp,120
   243a0:	d9c03d15 	stw	r7,244(sp)
   243a4:	0029ba40 	call	29ba4 <__sprint_r>
   243a8:	d9c03d17 	ldw	r7,244(sp)
   243ac:	103c2c1e 	bne	r2,zero,23460 <_gp+0xfffe75ec>
   243b0:	d8c02017 	ldw	r3,128(sp)
   243b4:	dc001f17 	ldw	r16,124(sp)
   243b8:	dc800404 	addi	r18,sp,16
   243bc:	003fec06 	br	24370 <_gp+0xfffe84fc>
   243c0:	dac02d17 	ldw	r11,180(sp)
   243c4:	0039883a 	mov	fp,zero
   243c8:	0005883a 	mov	r2,zero
   243cc:	5cc00017 	ldw	r19,0(r11)
   243d0:	5ac00104 	addi	r11,r11,4
   243d4:	dac02d15 	stw	r11,180(sp)
   243d8:	9807883a 	mov	r3,r19
   243dc:	003d5b06 	br	2394c <_gp+0xfffe7ad8>
   243e0:	db002d17 	ldw	r12,180(sp)
   243e4:	0039883a 	mov	fp,zero
   243e8:	00800044 	movi	r2,1
   243ec:	64c00017 	ldw	r19,0(r12)
   243f0:	63000104 	addi	r12,r12,4
   243f4:	db002d15 	stw	r12,180(sp)
   243f8:	9807883a 	mov	r3,r19
   243fc:	003d5306 	br	2394c <_gp+0xfffe7ad8>
   24400:	00800084 	movi	r2,2
   24404:	9f06b03a 	or	r3,r19,fp
   24408:	003d5006 	br	2394c <_gp+0xfffe7ad8>
   2440c:	10803fcc 	andi	r2,r2,255
   24410:	1080201c 	xori	r2,r2,128
   24414:	10bfe004 	addi	r2,r2,-128
   24418:	01000c04 	movi	r4,48
   2441c:	1101a526 	beq	r2,r4,24ab4 <___vfprintf_internal_r+0x1a24>
   24420:	dac03117 	ldw	r11,196(sp)
   24424:	db002817 	ldw	r12,160(sp)
   24428:	193fffc5 	stb	r4,-1(r3)
   2442c:	5affffc4 	addi	r11,r11,-1
   24430:	dac03115 	stw	r11,196(sp)
   24434:	62e5c83a 	sub	r18,r12,r11
   24438:	003c6306 	br	235c8 <_gp+0xfffe7754>
   2443c:	b009883a 	mov	r4,r22
   24440:	b80b883a 	mov	r5,r23
   24444:	d9801e04 	addi	r6,sp,120
   24448:	0029ba40 	call	29ba4 <__sprint_r>
   2444c:	103c041e 	bne	r2,zero,23460 <_gp+0xfffe75ec>
   24450:	d8c02017 	ldw	r3,128(sp)
   24454:	da000404 	addi	r8,sp,16
   24458:	db003117 	ldw	r12,196(sp)
   2445c:	dac03417 	ldw	r11,208(sp)
   24460:	d8802617 	ldw	r2,152(sp)
   24464:	62e5883a 	add	r18,r12,r11
   24468:	db003317 	ldw	r12,204(sp)
   2446c:	13000216 	blt	r2,r12,24478 <___vfprintf_internal_r+0x13e8>
   24470:	8900004c 	andi	r4,r17,1
   24474:	20000c26 	beq	r4,zero,244a8 <___vfprintf_internal_r+0x1418>
   24478:	dac03817 	ldw	r11,224(sp)
   2447c:	d9001f17 	ldw	r4,124(sp)
   24480:	db003517 	ldw	r12,212(sp)
   24484:	1ac7883a 	add	r3,r3,r11
   24488:	21000044 	addi	r4,r4,1
   2448c:	43000015 	stw	r12,0(r8)
   24490:	42c00115 	stw	r11,4(r8)
   24494:	d8c02015 	stw	r3,128(sp)
   24498:	d9001f15 	stw	r4,124(sp)
   2449c:	014001c4 	movi	r5,7
   244a0:	2901cc16 	blt	r5,r4,24bd4 <___vfprintf_internal_r+0x1b44>
   244a4:	42000204 	addi	r8,r8,8
   244a8:	dac03317 	ldw	r11,204(sp)
   244ac:	8489c83a 	sub	r4,r16,r18
   244b0:	5885c83a 	sub	r2,r11,r2
   244b4:	1021883a 	mov	r16,r2
   244b8:	2080010e 	bge	r4,r2,244c0 <___vfprintf_internal_r+0x1430>
   244bc:	2021883a 	mov	r16,r4
   244c0:	04000a0e 	bge	zero,r16,244ec <___vfprintf_internal_r+0x145c>
   244c4:	d9001f17 	ldw	r4,124(sp)
   244c8:	1c07883a 	add	r3,r3,r16
   244cc:	44800015 	stw	r18,0(r8)
   244d0:	21000044 	addi	r4,r4,1
   244d4:	44000115 	stw	r16,4(r8)
   244d8:	d8c02015 	stw	r3,128(sp)
   244dc:	d9001f15 	stw	r4,124(sp)
   244e0:	014001c4 	movi	r5,7
   244e4:	2901e316 	blt	r5,r4,24c74 <___vfprintf_internal_r+0x1be4>
   244e8:	42000204 	addi	r8,r8,8
   244ec:	8001df16 	blt	r16,zero,24c6c <___vfprintf_internal_r+0x1bdc>
   244f0:	1421c83a 	sub	r16,r2,r16
   244f4:	043ccc0e 	bge	zero,r16,23828 <_gp+0xfffe79b4>
   244f8:	04800404 	movi	r18,16
   244fc:	d8801f17 	ldw	r2,124(sp)
   24500:	943efc0e 	bge	r18,r16,240f4 <_gp+0xfffe8280>
   24504:	014000f4 	movhi	r5,3
   24508:	29465f84 	addi	r5,r5,6526
   2450c:	d9402c15 	stw	r5,176(sp)
   24510:	054001c4 	movi	r21,7
   24514:	00000306 	br	24524 <___vfprintf_internal_r+0x1494>
   24518:	42000204 	addi	r8,r8,8
   2451c:	843ffc04 	addi	r16,r16,-16
   24520:	943ef70e 	bge	r18,r16,24100 <_gp+0xfffe828c>
   24524:	18c00404 	addi	r3,r3,16
   24528:	10800044 	addi	r2,r2,1
   2452c:	45000015 	stw	r20,0(r8)
   24530:	44800115 	stw	r18,4(r8)
   24534:	d8c02015 	stw	r3,128(sp)
   24538:	d8801f15 	stw	r2,124(sp)
   2453c:	a8bff60e 	bge	r21,r2,24518 <_gp+0xfffe86a4>
   24540:	b009883a 	mov	r4,r22
   24544:	b80b883a 	mov	r5,r23
   24548:	d9801e04 	addi	r6,sp,120
   2454c:	0029ba40 	call	29ba4 <__sprint_r>
   24550:	103bc31e 	bne	r2,zero,23460 <_gp+0xfffe75ec>
   24554:	d8c02017 	ldw	r3,128(sp)
   24558:	d8801f17 	ldw	r2,124(sp)
   2455c:	da000404 	addi	r8,sp,16
   24560:	003fee06 	br	2451c <_gp+0xfffe86a8>
   24564:	8888703a 	and	r4,r17,r2
   24568:	203eab1e 	bne	r4,zero,24018 <_gp+0xfffe81a4>
   2456c:	dc001f17 	ldw	r16,124(sp)
   24570:	db003117 	ldw	r12,196(sp)
   24574:	40800115 	stw	r2,4(r8)
   24578:	84000044 	addi	r16,r16,1
   2457c:	43000015 	stw	r12,0(r8)
   24580:	d8c02015 	stw	r3,128(sp)
   24584:	dc001f15 	stw	r16,124(sp)
   24588:	008001c4 	movi	r2,7
   2458c:	14000e16 	blt	r2,r16,245c8 <___vfprintf_internal_r+0x1538>
   24590:	44800204 	addi	r18,r8,8
   24594:	003ecb06 	br	240c4 <_gp+0xfffe8250>
   24598:	008000f4 	movhi	r2,3
   2459c:	10865f84 	addi	r2,r2,6526
   245a0:	d8802c15 	stw	r2,176(sp)
   245a4:	dac02c17 	ldw	r11,176(sp)
   245a8:	1d47883a 	add	r3,r3,r21
   245ac:	84000044 	addi	r16,r16,1
   245b0:	92c00015 	stw	r11,0(r18)
   245b4:	95400115 	stw	r21,4(r18)
   245b8:	d8c02015 	stw	r3,128(sp)
   245bc:	dc001f15 	stw	r16,124(sp)
   245c0:	008001c4 	movi	r2,7
   245c4:	143ebe0e 	bge	r2,r16,240c0 <_gp+0xfffe824c>
   245c8:	b009883a 	mov	r4,r22
   245cc:	b80b883a 	mov	r5,r23
   245d0:	d9801e04 	addi	r6,sp,120
   245d4:	0029ba40 	call	29ba4 <__sprint_r>
   245d8:	103ba11e 	bne	r2,zero,23460 <_gp+0xfffe75ec>
   245dc:	d8c02017 	ldw	r3,128(sp)
   245e0:	dc001f17 	ldw	r16,124(sp)
   245e4:	dc800404 	addi	r18,sp,16
   245e8:	003eb606 	br	240c4 <_gp+0xfffe8250>
   245ec:	b009883a 	mov	r4,r22
   245f0:	b80b883a 	mov	r5,r23
   245f4:	d9801e04 	addi	r6,sp,120
   245f8:	0029ba40 	call	29ba4 <__sprint_r>
   245fc:	103b981e 	bne	r2,zero,23460 <_gp+0xfffe75ec>
   24600:	d8c02017 	ldw	r3,128(sp)
   24604:	dc001f17 	ldw	r16,124(sp)
   24608:	da000404 	addi	r8,sp,16
   2460c:	003e8d06 	br	24044 <_gp+0xfffe81d0>
   24610:	b009883a 	mov	r4,r22
   24614:	b80b883a 	mov	r5,r23
   24618:	d9801e04 	addi	r6,sp,120
   2461c:	0029ba40 	call	29ba4 <__sprint_r>
   24620:	103b8f1e 	bne	r2,zero,23460 <_gp+0xfffe75ec>
   24624:	d8c02017 	ldw	r3,128(sp)
   24628:	dc001f17 	ldw	r16,124(sp)
   2462c:	dc800404 	addi	r18,sp,16
   24630:	003e8f06 	br	24070 <_gp+0xfffe81fc>
   24634:	db001e04 	addi	r12,sp,120
   24638:	0025883a 	mov	r18,zero
   2463c:	db003115 	stw	r12,196(sp)
   24640:	003be106 	br	235c8 <_gp+0xfffe7754>
   24644:	b009883a 	mov	r4,r22
   24648:	b80b883a 	mov	r5,r23
   2464c:	d9801e04 	addi	r6,sp,120
   24650:	0029ba40 	call	29ba4 <__sprint_r>
   24654:	103b821e 	bne	r2,zero,23460 <_gp+0xfffe75ec>
   24658:	d8c02017 	ldw	r3,128(sp)
   2465c:	da000404 	addi	r8,sp,16
   24660:	003c3b06 	br	23750 <_gp+0xfffe78dc>
   24664:	04e7c83a 	sub	r19,zero,r19
   24668:	9804c03a 	cmpne	r2,r19,zero
   2466c:	0739c83a 	sub	fp,zero,fp
   24670:	e0b9c83a 	sub	fp,fp,r2
   24674:	05400b44 	movi	r21,45
   24678:	dd402785 	stb	r21,158(sp)
   2467c:	da403215 	stw	r9,200(sp)
   24680:	00800044 	movi	r2,1
   24684:	9f06b03a 	or	r3,r19,fp
   24688:	003bb506 	br	23560 <_gp+0xfffe76ec>
   2468c:	da003f15 	stw	r8,252(sp)
   24690:	da403e15 	stw	r9,248(sp)
   24694:	00298540 	call	29854 <__fpclassifyd>
   24698:	da003f17 	ldw	r8,252(sp)
   2469c:	da403e17 	ldw	r9,248(sp)
   246a0:	1000ce26 	beq	r2,zero,249dc <___vfprintf_internal_r+0x194c>
   246a4:	057ff7c4 	movi	r21,-33
   246a8:	00bfffc4 	movi	r2,-1
   246ac:	856a703a 	and	r21,r16,r21
   246b0:	4881e826 	beq	r9,r2,24e54 <___vfprintf_internal_r+0x1dc4>
   246b4:	008011c4 	movi	r2,71
   246b8:	a881e326 	beq	r21,r2,24e48 <___vfprintf_internal_r+0x1db8>
   246bc:	db003917 	ldw	r12,228(sp)
   246c0:	8ac04014 	ori	r11,r17,256
   246c4:	dac02d15 	stw	r11,180(sp)
   246c8:	6001ed16 	blt	r12,zero,24e80 <___vfprintf_internal_r+0x1df0>
   246cc:	dc803917 	ldw	r18,228(sp)
   246d0:	d8002b05 	stb	zero,172(sp)
   246d4:	00801984 	movi	r2,102
   246d8:	80811826 	beq	r16,r2,24b3c <___vfprintf_internal_r+0x1aac>
   246dc:	00801184 	movi	r2,70
   246e0:	80811626 	beq	r16,r2,24b3c <___vfprintf_internal_r+0x1aac>
   246e4:	00801144 	movi	r2,69
   246e8:	a881e926 	beq	r21,r2,24e90 <___vfprintf_internal_r+0x1e00>
   246ec:	4839883a 	mov	fp,r9
   246f0:	d8802604 	addi	r2,sp,152
   246f4:	d8800115 	stw	r2,4(sp)
   246f8:	d9403717 	ldw	r5,220(sp)
   246fc:	d8802504 	addi	r2,sp,148
   24700:	d8800215 	stw	r2,8(sp)
   24704:	d8802104 	addi	r2,sp,132
   24708:	df000015 	stw	fp,0(sp)
   2470c:	d8800315 	stw	r2,12(sp)
   24710:	b009883a 	mov	r4,r22
   24714:	900d883a 	mov	r6,r18
   24718:	01c00084 	movi	r7,2
   2471c:	da003f15 	stw	r8,252(sp)
   24720:	da403e15 	stw	r9,248(sp)
   24724:	00254140 	call	25414 <_dtoa_r>
   24728:	d8803115 	stw	r2,196(sp)
   2472c:	008019c4 	movi	r2,103
   24730:	da003f17 	ldw	r8,252(sp)
   24734:	da403e17 	ldw	r9,248(sp)
   24738:	80800226 	beq	r16,r2,24744 <___vfprintf_internal_r+0x16b4>
   2473c:	008011c4 	movi	r2,71
   24740:	8081101e 	bne	r16,r2,24b84 <___vfprintf_internal_r+0x1af4>
   24744:	8880004c 	andi	r2,r17,1
   24748:	1001dd26 	beq	r2,zero,24ec0 <___vfprintf_internal_r+0x1e30>
   2474c:	db003117 	ldw	r12,196(sp)
   24750:	6715883a 	add	r10,r12,fp
   24754:	d9003717 	ldw	r4,220(sp)
   24758:	900b883a 	mov	r5,r18
   2475c:	000d883a 	mov	r6,zero
   24760:	000f883a 	mov	r7,zero
   24764:	da003f15 	stw	r8,252(sp)
   24768:	da403e15 	stw	r9,248(sp)
   2476c:	da803d15 	stw	r10,244(sp)
   24770:	002d51c0 	call	2d51c <__eqdf2>
   24774:	da003f17 	ldw	r8,252(sp)
   24778:	da403e17 	ldw	r9,248(sp)
   2477c:	da803d17 	ldw	r10,244(sp)
   24780:	10016526 	beq	r2,zero,24d18 <___vfprintf_internal_r+0x1c88>
   24784:	d8802117 	ldw	r2,132(sp)
   24788:	1280062e 	bgeu	r2,r10,247a4 <___vfprintf_internal_r+0x1714>
   2478c:	01000c04 	movi	r4,48
   24790:	10c00044 	addi	r3,r2,1
   24794:	d8c02115 	stw	r3,132(sp)
   24798:	11000005 	stb	r4,0(r2)
   2479c:	d8802117 	ldw	r2,132(sp)
   247a0:	12bffb36 	bltu	r2,r10,24790 <_gp+0xfffe891c>
   247a4:	db003117 	ldw	r12,196(sp)
   247a8:	1305c83a 	sub	r2,r2,r12
   247ac:	d8803315 	stw	r2,204(sp)
   247b0:	008011c4 	movi	r2,71
   247b4:	a8814d26 	beq	r21,r2,24cec <___vfprintf_internal_r+0x1c5c>
   247b8:	00801944 	movi	r2,101
   247bc:	1402060e 	bge	r2,r16,24fd8 <___vfprintf_internal_r+0x1f48>
   247c0:	00801984 	movi	r2,102
   247c4:	8081b426 	beq	r16,r2,24e98 <___vfprintf_internal_r+0x1e08>
   247c8:	db002617 	ldw	r12,152(sp)
   247cc:	db003415 	stw	r12,208(sp)
   247d0:	db003417 	ldw	r12,208(sp)
   247d4:	dac03317 	ldw	r11,204(sp)
   247d8:	62c1a016 	blt	r12,r11,24e5c <___vfprintf_internal_r+0x1dcc>
   247dc:	8c40004c 	andi	r17,r17,1
   247e0:	8801bf1e 	bne	r17,zero,24ee0 <___vfprintf_internal_r+0x1e50>
   247e4:	6005883a 	mov	r2,r12
   247e8:	6001b316 	blt	r12,zero,24eb8 <___vfprintf_internal_r+0x1e28>
   247ec:	dc803417 	ldw	r18,208(sp)
   247f0:	df002b07 	ldb	fp,172(sp)
   247f4:	e0012e1e 	bne	fp,zero,24cb0 <___vfprintf_internal_r+0x1c20>
   247f8:	dc402d17 	ldw	r17,180(sp)
   247fc:	dd402783 	ldbu	r21,158(sp)
   24800:	d8802b15 	stw	r2,172(sp)
   24804:	dcc02d15 	stw	r19,180(sp)
   24808:	d8003215 	stw	zero,200(sp)
   2480c:	003b7306 	br	235dc <_gp+0xfffe7768>
   24810:	00800084 	movi	r2,2
   24814:	003c4d06 	br	2394c <_gp+0xfffe7ad8>
   24818:	8880040c 	andi	r2,r17,16
   2481c:	1000091e 	bne	r2,zero,24844 <___vfprintf_internal_r+0x17b4>
   24820:	8c40100c 	andi	r17,r17,64
   24824:	88000726 	beq	r17,zero,24844 <___vfprintf_internal_r+0x17b4>
   24828:	db002d17 	ldw	r12,180(sp)
   2482c:	dac02f17 	ldw	r11,188(sp)
   24830:	60800017 	ldw	r2,0(r12)
   24834:	63000104 	addi	r12,r12,4
   24838:	db002d15 	stw	r12,180(sp)
   2483c:	12c0000d 	sth	r11,0(r2)
   24840:	003a4e06 	br	2317c <_gp+0xfffe7308>
   24844:	db002d17 	ldw	r12,180(sp)
   24848:	dac02f17 	ldw	r11,188(sp)
   2484c:	60800017 	ldw	r2,0(r12)
   24850:	63000104 	addi	r12,r12,4
   24854:	db002d15 	stw	r12,180(sp)
   24858:	12c00015 	stw	r11,0(r2)
   2485c:	003a4706 	br	2317c <_gp+0xfffe7308>
   24860:	1c000007 	ldb	r16,0(r3)
   24864:	1805883a 	mov	r2,r3
   24868:	003a6e06 	br	23224 <_gp+0xfffe73b0>
   2486c:	88c0100c 	andi	r3,r17,64
   24870:	18006b26 	beq	r3,zero,24a20 <___vfprintf_internal_r+0x1990>
   24874:	dac02d17 	ldw	r11,180(sp)
   24878:	14c0000b 	ldhu	r19,0(r2)
   2487c:	0039883a 	mov	fp,zero
   24880:	5ac00104 	addi	r11,r11,4
   24884:	dac02d15 	stw	r11,180(sp)
   24888:	003cb206 	br	23b54 <_gp+0xfffe7ce0>
   2488c:	010000f4 	movhi	r4,3
   24890:	21065f84 	addi	r4,r4,6526
   24894:	d9002c15 	stw	r4,176(sp)
   24898:	dac02c17 	ldw	r11,176(sp)
   2489c:	1c87883a 	add	r3,r3,r18
   248a0:	10800044 	addi	r2,r2,1
   248a4:	42c00015 	stw	r11,0(r8)
   248a8:	44800115 	stw	r18,4(r8)
   248ac:	d8c02015 	stw	r3,128(sp)
   248b0:	d8801f15 	stw	r2,124(sp)
   248b4:	010001c4 	movi	r4,7
   248b8:	20bee016 	blt	r4,r2,2443c <_gp+0xfffe85c8>
   248bc:	42000204 	addi	r8,r8,8
   248c0:	003ee506 	br	24458 <_gp+0xfffe85e4>
   248c4:	010000f4 	movhi	r4,3
   248c8:	21065f84 	addi	r4,r4,6526
   248cc:	d9002c15 	stw	r4,176(sp)
   248d0:	003bbe06 	br	237cc <_gp+0xfffe7958>
   248d4:	b009883a 	mov	r4,r22
   248d8:	b80b883a 	mov	r5,r23
   248dc:	d9801e04 	addi	r6,sp,120
   248e0:	0029ba40 	call	29ba4 <__sprint_r>
   248e4:	103ade1e 	bne	r2,zero,23460 <_gp+0xfffe75ec>
   248e8:	d8c02017 	ldw	r3,128(sp)
   248ec:	da000404 	addi	r8,sp,16
   248f0:	003d6b06 	br	23ea0 <_gp+0xfffe802c>
   248f4:	d8801f17 	ldw	r2,124(sp)
   248f8:	030000f4 	movhi	r12,3
   248fc:	01000044 	movi	r4,1
   24900:	18c00044 	addi	r3,r3,1
   24904:	10800044 	addi	r2,r2,1
   24908:	63065f04 	addi	r12,r12,6524
   2490c:	41000115 	stw	r4,4(r8)
   24910:	43000015 	stw	r12,0(r8)
   24914:	d8c02015 	stw	r3,128(sp)
   24918:	d8801f15 	stw	r2,124(sp)
   2491c:	010001c4 	movi	r4,7
   24920:	20804916 	blt	r4,r2,24a48 <___vfprintf_internal_r+0x19b8>
   24924:	42000204 	addi	r8,r8,8
   24928:	8000041e 	bne	r16,zero,2493c <___vfprintf_internal_r+0x18ac>
   2492c:	dac03317 	ldw	r11,204(sp)
   24930:	5800021e 	bne	r11,zero,2493c <___vfprintf_internal_r+0x18ac>
   24934:	8880004c 	andi	r2,r17,1
   24938:	103bbb26 	beq	r2,zero,23828 <_gp+0xfffe79b4>
   2493c:	db003817 	ldw	r12,224(sp)
   24940:	d8801f17 	ldw	r2,124(sp)
   24944:	dac03517 	ldw	r11,212(sp)
   24948:	1b07883a 	add	r3,r3,r12
   2494c:	10800044 	addi	r2,r2,1
   24950:	42c00015 	stw	r11,0(r8)
   24954:	43000115 	stw	r12,4(r8)
   24958:	d8c02015 	stw	r3,128(sp)
   2495c:	d8801f15 	stw	r2,124(sp)
   24960:	010001c4 	movi	r4,7
   24964:	20812e16 	blt	r4,r2,24e20 <___vfprintf_internal_r+0x1d90>
   24968:	42000204 	addi	r8,r8,8
   2496c:	0421c83a 	sub	r16,zero,r16
   24970:	04005c0e 	bge	zero,r16,24ae4 <___vfprintf_internal_r+0x1a54>
   24974:	04800404 	movi	r18,16
   24978:	94009f0e 	bge	r18,r16,24bf8 <___vfprintf_internal_r+0x1b68>
   2497c:	010000f4 	movhi	r4,3
   24980:	21065f84 	addi	r4,r4,6526
   24984:	d9002c15 	stw	r4,176(sp)
   24988:	054001c4 	movi	r21,7
   2498c:	00000306 	br	2499c <___vfprintf_internal_r+0x190c>
   24990:	42000204 	addi	r8,r8,8
   24994:	843ffc04 	addi	r16,r16,-16
   24998:	94009a0e 	bge	r18,r16,24c04 <___vfprintf_internal_r+0x1b74>
   2499c:	18c00404 	addi	r3,r3,16
   249a0:	10800044 	addi	r2,r2,1
   249a4:	45000015 	stw	r20,0(r8)
   249a8:	44800115 	stw	r18,4(r8)
   249ac:	d8c02015 	stw	r3,128(sp)
   249b0:	d8801f15 	stw	r2,124(sp)
   249b4:	a8bff60e 	bge	r21,r2,24990 <_gp+0xfffe8b1c>
   249b8:	b009883a 	mov	r4,r22
   249bc:	b80b883a 	mov	r5,r23
   249c0:	d9801e04 	addi	r6,sp,120
   249c4:	0029ba40 	call	29ba4 <__sprint_r>
   249c8:	103aa51e 	bne	r2,zero,23460 <_gp+0xfffe75ec>
   249cc:	d8c02017 	ldw	r3,128(sp)
   249d0:	d8801f17 	ldw	r2,124(sp)
   249d4:	da000404 	addi	r8,sp,16
   249d8:	003fee06 	br	24994 <_gp+0xfffe8b20>
   249dc:	008011c4 	movi	r2,71
   249e0:	1400be16 	blt	r2,r16,24cdc <___vfprintf_internal_r+0x1c4c>
   249e4:	030000f4 	movhi	r12,3
   249e8:	63065104 	addi	r12,r12,6468
   249ec:	db003115 	stw	r12,196(sp)
   249f0:	00c000c4 	movi	r3,3
   249f4:	00bfdfc4 	movi	r2,-129
   249f8:	d8c02b15 	stw	r3,172(sp)
   249fc:	88a2703a 	and	r17,r17,r2
   24a00:	dd402783 	ldbu	r21,158(sp)
   24a04:	dcc02d15 	stw	r19,180(sp)
   24a08:	1825883a 	mov	r18,r3
   24a0c:	d8003215 	stw	zero,200(sp)
   24a10:	d8003415 	stw	zero,208(sp)
   24a14:	003af106 	br	235dc <_gp+0xfffe7768>
   24a18:	4825883a 	mov	r18,r9
   24a1c:	003c9306 	br	23c6c <_gp+0xfffe7df8>
   24a20:	db002d17 	ldw	r12,180(sp)
   24a24:	14c00017 	ldw	r19,0(r2)
   24a28:	0039883a 	mov	fp,zero
   24a2c:	63000104 	addi	r12,r12,4
   24a30:	db002d15 	stw	r12,180(sp)
   24a34:	003c4706 	br	23b54 <_gp+0xfffe7ce0>
   24a38:	008000f4 	movhi	r2,3
   24a3c:	10864f04 	addi	r2,r2,6460
   24a40:	d8803115 	stw	r2,196(sp)
   24a44:	003bf106 	br	23a0c <_gp+0xfffe7b98>
   24a48:	b009883a 	mov	r4,r22
   24a4c:	b80b883a 	mov	r5,r23
   24a50:	d9801e04 	addi	r6,sp,120
   24a54:	0029ba40 	call	29ba4 <__sprint_r>
   24a58:	103a811e 	bne	r2,zero,23460 <_gp+0xfffe75ec>
   24a5c:	dc002617 	ldw	r16,152(sp)
   24a60:	d8c02017 	ldw	r3,128(sp)
   24a64:	da000404 	addi	r8,sp,16
   24a68:	003faf06 	br	24928 <_gp+0xfffe8ab4>
   24a6c:	db002e17 	ldw	r12,184(sp)
   24a70:	1805883a 	mov	r2,r3
   24a74:	dac02d15 	stw	r11,180(sp)
   24a78:	0319c83a 	sub	r12,zero,r12
   24a7c:	db002e15 	stw	r12,184(sp)
   24a80:	003a8206 	br	2348c <_gp+0xfffe7618>
   24a84:	18800044 	addi	r2,r3,1
   24a88:	8c400814 	ori	r17,r17,32
   24a8c:	1c000047 	ldb	r16,1(r3)
   24a90:	0039e406 	br	23224 <_gp+0xfffe73b0>
   24a94:	b009883a 	mov	r4,r22
   24a98:	b80b883a 	mov	r5,r23
   24a9c:	d9801e04 	addi	r6,sp,120
   24aa0:	0029ba40 	call	29ba4 <__sprint_r>
   24aa4:	103a6e1e 	bne	r2,zero,23460 <_gp+0xfffe75ec>
   24aa8:	d8c02017 	ldw	r3,128(sp)
   24aac:	da000404 	addi	r8,sp,16
   24ab0:	003d0c06 	br	23ee4 <_gp+0xfffe8070>
   24ab4:	db002817 	ldw	r12,160(sp)
   24ab8:	d8c03117 	ldw	r3,196(sp)
   24abc:	60e5c83a 	sub	r18,r12,r3
   24ac0:	003ac106 	br	235c8 <_gp+0xfffe7754>
   24ac4:	b009883a 	mov	r4,r22
   24ac8:	b80b883a 	mov	r5,r23
   24acc:	d9801e04 	addi	r6,sp,120
   24ad0:	0029ba40 	call	29ba4 <__sprint_r>
   24ad4:	103a621e 	bne	r2,zero,23460 <_gp+0xfffe75ec>
   24ad8:	d8c02017 	ldw	r3,128(sp)
   24adc:	d8801f17 	ldw	r2,124(sp)
   24ae0:	da000404 	addi	r8,sp,16
   24ae4:	db003317 	ldw	r12,204(sp)
   24ae8:	dac03117 	ldw	r11,196(sp)
   24aec:	10800044 	addi	r2,r2,1
   24af0:	1b07883a 	add	r3,r3,r12
   24af4:	42c00015 	stw	r11,0(r8)
   24af8:	43000115 	stw	r12,4(r8)
   24afc:	d8c02015 	stw	r3,128(sp)
   24b00:	d8801f15 	stw	r2,124(sp)
   24b04:	010001c4 	movi	r4,7
   24b08:	20bb460e 	bge	r4,r2,23824 <_gp+0xfffe79b0>
   24b0c:	003d8506 	br	24124 <_gp+0xfffe82b0>
   24b10:	da003f15 	stw	r8,252(sp)
   24b14:	0022ff80 	call	22ff8 <strlen>
   24b18:	1025883a 	mov	r18,r2
   24b1c:	da003f17 	ldw	r8,252(sp)
   24b20:	903c540e 	bge	r18,zero,23c74 <_gp+0xfffe7e00>
   24b24:	0005883a 	mov	r2,zero
   24b28:	003c5206 	br	23c74 <_gp+0xfffe7e00>
   24b2c:	010000f4 	movhi	r4,3
   24b30:	21066384 	addi	r4,r4,6542
   24b34:	d9003615 	stw	r4,216(sp)
   24b38:	003adc06 	br	236ac <_gp+0xfffe7838>
   24b3c:	d8802604 	addi	r2,sp,152
   24b40:	d8800115 	stw	r2,4(sp)
   24b44:	d9403717 	ldw	r5,220(sp)
   24b48:	d8802504 	addi	r2,sp,148
   24b4c:	d8800215 	stw	r2,8(sp)
   24b50:	d8802104 	addi	r2,sp,132
   24b54:	da400015 	stw	r9,0(sp)
   24b58:	d8800315 	stw	r2,12(sp)
   24b5c:	b009883a 	mov	r4,r22
   24b60:	900d883a 	mov	r6,r18
   24b64:	01c000c4 	movi	r7,3
   24b68:	da003f15 	stw	r8,252(sp)
   24b6c:	da403e15 	stw	r9,248(sp)
   24b70:	00254140 	call	25414 <_dtoa_r>
   24b74:	da403e17 	ldw	r9,248(sp)
   24b78:	da003f17 	ldw	r8,252(sp)
   24b7c:	d8803115 	stw	r2,196(sp)
   24b80:	4839883a 	mov	fp,r9
   24b84:	dac03117 	ldw	r11,196(sp)
   24b88:	00801184 	movi	r2,70
   24b8c:	5f15883a 	add	r10,r11,fp
   24b90:	a8bef01e 	bne	r21,r2,24754 <_gp+0xfffe88e0>
   24b94:	59000007 	ldb	r4,0(r11)
   24b98:	00800c04 	movi	r2,48
   24b9c:	2080d526 	beq	r4,r2,24ef4 <___vfprintf_internal_r+0x1e64>
   24ba0:	d8c02617 	ldw	r3,152(sp)
   24ba4:	50d5883a 	add	r10,r10,r3
   24ba8:	003eea06 	br	24754 <_gp+0xfffe88e0>
   24bac:	0025883a 	mov	r18,zero
   24bb0:	003db306 	br	24280 <_gp+0xfffe840c>
   24bb4:	b009883a 	mov	r4,r22
   24bb8:	b80b883a 	mov	r5,r23
   24bbc:	d9801e04 	addi	r6,sp,120
   24bc0:	0029ba40 	call	29ba4 <__sprint_r>
   24bc4:	103a261e 	bne	r2,zero,23460 <_gp+0xfffe75ec>
   24bc8:	d8c02017 	ldw	r3,128(sp)
   24bcc:	da000404 	addi	r8,sp,16
   24bd0:	003daa06 	br	2427c <_gp+0xfffe8408>
   24bd4:	b009883a 	mov	r4,r22
   24bd8:	b80b883a 	mov	r5,r23
   24bdc:	d9801e04 	addi	r6,sp,120
   24be0:	0029ba40 	call	29ba4 <__sprint_r>
   24be4:	103a1e1e 	bne	r2,zero,23460 <_gp+0xfffe75ec>
   24be8:	d8802617 	ldw	r2,152(sp)
   24bec:	d8c02017 	ldw	r3,128(sp)
   24bf0:	da000404 	addi	r8,sp,16
   24bf4:	003e2c06 	br	244a8 <_gp+0xfffe8634>
   24bf8:	030000f4 	movhi	r12,3
   24bfc:	63065f84 	addi	r12,r12,6526
   24c00:	db002c15 	stw	r12,176(sp)
   24c04:	dac02c17 	ldw	r11,176(sp)
   24c08:	1c07883a 	add	r3,r3,r16
   24c0c:	10800044 	addi	r2,r2,1
   24c10:	42c00015 	stw	r11,0(r8)
   24c14:	44000115 	stw	r16,4(r8)
   24c18:	d8c02015 	stw	r3,128(sp)
   24c1c:	d8801f15 	stw	r2,124(sp)
   24c20:	010001c4 	movi	r4,7
   24c24:	20bfa716 	blt	r4,r2,24ac4 <_gp+0xfffe8c50>
   24c28:	42000204 	addi	r8,r8,8
   24c2c:	003fad06 	br	24ae4 <_gp+0xfffe8c70>
   24c30:	00800184 	movi	r2,6
   24c34:	1240012e 	bgeu	r2,r9,24c3c <___vfprintf_internal_r+0x1bac>
   24c38:	1013883a 	mov	r9,r2
   24c3c:	4825883a 	mov	r18,r9
   24c40:	4805883a 	mov	r2,r9
   24c44:	4800c216 	blt	r9,zero,24f50 <___vfprintf_internal_r+0x1ec0>
   24c48:	d8802b15 	stw	r2,172(sp)
   24c4c:	008000f4 	movhi	r2,3
   24c50:	10865d04 	addi	r2,r2,6516
   24c54:	d8803115 	stw	r2,196(sp)
   24c58:	dcc02d15 	stw	r19,180(sp)
   24c5c:	d8003215 	stw	zero,200(sp)
   24c60:	d8003415 	stw	zero,208(sp)
   24c64:	0005883a 	mov	r2,zero
   24c68:	003a6306 	br	235f8 <_gp+0xfffe7784>
   24c6c:	0021883a 	mov	r16,zero
   24c70:	003e1f06 	br	244f0 <_gp+0xfffe867c>
   24c74:	b009883a 	mov	r4,r22
   24c78:	b80b883a 	mov	r5,r23
   24c7c:	d9801e04 	addi	r6,sp,120
   24c80:	0029ba40 	call	29ba4 <__sprint_r>
   24c84:	1039f61e 	bne	r2,zero,23460 <_gp+0xfffe75ec>
   24c88:	d8802617 	ldw	r2,152(sp)
   24c8c:	db003317 	ldw	r12,204(sp)
   24c90:	d8c02017 	ldw	r3,128(sp)
   24c94:	da000404 	addi	r8,sp,16
   24c98:	6085c83a 	sub	r2,r12,r2
   24c9c:	003e1306 	br	244ec <_gp+0xfffe8678>
   24ca0:	030000f4 	movhi	r12,3
   24ca4:	63066384 	addi	r12,r12,6542
   24ca8:	db003615 	stw	r12,216(sp)
   24cac:	003b0206 	br	238b8 <_gp+0xfffe7a44>
   24cb0:	00c00b44 	movi	r3,45
   24cb4:	d8802b15 	stw	r2,172(sp)
   24cb8:	dc402d17 	ldw	r17,180(sp)
   24cbc:	d8c02785 	stb	r3,158(sp)
   24cc0:	dcc02d15 	stw	r19,180(sp)
   24cc4:	d8003215 	stw	zero,200(sp)
   24cc8:	00800b44 	movi	r2,45
   24ccc:	003a4706 	br	235ec <_gp+0xfffe7778>
   24cd0:	05400b44 	movi	r21,45
   24cd4:	dd402785 	stb	r21,158(sp)
   24cd8:	003b4706 	br	239f8 <_gp+0xfffe7b84>
   24cdc:	008000f4 	movhi	r2,3
   24ce0:	10865204 	addi	r2,r2,6472
   24ce4:	d8803115 	stw	r2,196(sp)
   24ce8:	003f4106 	br	249f0 <_gp+0xfffe8b7c>
   24cec:	d8c02617 	ldw	r3,152(sp)
   24cf0:	00bfff44 	movi	r2,-3
   24cf4:	18801116 	blt	r3,r2,24d3c <___vfprintf_internal_r+0x1cac>
   24cf8:	48c01016 	blt	r9,r3,24d3c <___vfprintf_internal_r+0x1cac>
   24cfc:	d8c03415 	stw	r3,208(sp)
   24d00:	040019c4 	movi	r16,103
   24d04:	003eb206 	br	247d0 <_gp+0xfffe895c>
   24d08:	010000f4 	movhi	r4,3
   24d0c:	21065f84 	addi	r4,r4,6526
   24d10:	d9002c15 	stw	r4,176(sp)
   24d14:	003cb106 	br	23fdc <_gp+0xfffe8168>
   24d18:	5005883a 	mov	r2,r10
   24d1c:	003ea106 	br	247a4 <_gp+0xfffe8930>
   24d20:	da402b15 	stw	r9,172(sp)
   24d24:	dd402783 	ldbu	r21,158(sp)
   24d28:	4825883a 	mov	r18,r9
   24d2c:	dcc02d15 	stw	r19,180(sp)
   24d30:	d8003215 	stw	zero,200(sp)
   24d34:	d8003415 	stw	zero,208(sp)
   24d38:	003a2806 	br	235dc <_gp+0xfffe7768>
   24d3c:	843fff84 	addi	r16,r16,-2
   24d40:	1f3fffc4 	addi	fp,r3,-1
   24d44:	df002615 	stw	fp,152(sp)
   24d48:	dc0022c5 	stb	r16,139(sp)
   24d4c:	e0009816 	blt	fp,zero,24fb0 <___vfprintf_internal_r+0x1f20>
   24d50:	00800ac4 	movi	r2,43
   24d54:	d8802305 	stb	r2,140(sp)
   24d58:	00800244 	movi	r2,9
   24d5c:	1700750e 	bge	r2,fp,24f34 <___vfprintf_internal_r+0x1ea4>
   24d60:	dd4022c4 	addi	r21,sp,139
   24d64:	dc002c15 	stw	r16,176(sp)
   24d68:	4025883a 	mov	r18,r8
   24d6c:	a821883a 	mov	r16,r21
   24d70:	e009883a 	mov	r4,fp
   24d74:	01400284 	movi	r5,10
   24d78:	00225000 	call	22500 <__modsi3>
   24d7c:	10800c04 	addi	r2,r2,48
   24d80:	843fffc4 	addi	r16,r16,-1
   24d84:	e009883a 	mov	r4,fp
   24d88:	01400284 	movi	r5,10
   24d8c:	80800005 	stb	r2,0(r16)
   24d90:	00224ac0 	call	224ac <__divsi3>
   24d94:	1039883a 	mov	fp,r2
   24d98:	00800244 	movi	r2,9
   24d9c:	173ff416 	blt	r2,fp,24d70 <_gp+0xfffe8efc>
   24da0:	9011883a 	mov	r8,r18
   24da4:	e0800c04 	addi	r2,fp,48
   24da8:	8025883a 	mov	r18,r16
   24dac:	913fffc4 	addi	r4,r18,-1
   24db0:	90bfffc5 	stb	r2,-1(r18)
   24db4:	dc002c17 	ldw	r16,176(sp)
   24db8:	2540852e 	bgeu	r4,r21,24fd0 <___vfprintf_internal_r+0x1f40>
   24dbc:	d9402384 	addi	r5,sp,142
   24dc0:	2c8bc83a 	sub	r5,r5,r18
   24dc4:	d8c02344 	addi	r3,sp,141
   24dc8:	a94b883a 	add	r5,r21,r5
   24dcc:	00000106 	br	24dd4 <___vfprintf_internal_r+0x1d44>
   24dd0:	20800003 	ldbu	r2,0(r4)
   24dd4:	18800005 	stb	r2,0(r3)
   24dd8:	18c00044 	addi	r3,r3,1
   24ddc:	21000044 	addi	r4,r4,1
   24de0:	197ffb1e 	bne	r3,r5,24dd0 <_gp+0xfffe8f5c>
   24de4:	d8802304 	addi	r2,sp,140
   24de8:	1485c83a 	sub	r2,r2,r18
   24dec:	d8c02344 	addi	r3,sp,141
   24df0:	1885883a 	add	r2,r3,r2
   24df4:	dac03317 	ldw	r11,204(sp)
   24df8:	156bc83a 	sub	r21,r2,r21
   24dfc:	dd403a15 	stw	r21,232(sp)
   24e00:	00800044 	movi	r2,1
   24e04:	5d65883a 	add	r18,r11,r21
   24e08:	12c0660e 	bge	r2,r11,24fa4 <___vfprintf_internal_r+0x1f14>
   24e0c:	94800044 	addi	r18,r18,1
   24e10:	9005883a 	mov	r2,r18
   24e14:	90006116 	blt	r18,zero,24f9c <___vfprintf_internal_r+0x1f0c>
   24e18:	d8003415 	stw	zero,208(sp)
   24e1c:	003e7406 	br	247f0 <_gp+0xfffe897c>
   24e20:	b009883a 	mov	r4,r22
   24e24:	b80b883a 	mov	r5,r23
   24e28:	d9801e04 	addi	r6,sp,120
   24e2c:	0029ba40 	call	29ba4 <__sprint_r>
   24e30:	10398b1e 	bne	r2,zero,23460 <_gp+0xfffe75ec>
   24e34:	dc002617 	ldw	r16,152(sp)
   24e38:	d8c02017 	ldw	r3,128(sp)
   24e3c:	d8801f17 	ldw	r2,124(sp)
   24e40:	da000404 	addi	r8,sp,16
   24e44:	003ec906 	br	2496c <_gp+0xfffe8af8>
   24e48:	483e1c1e 	bne	r9,zero,246bc <_gp+0xfffe8848>
   24e4c:	9013883a 	mov	r9,r18
   24e50:	003e1a06 	br	246bc <_gp+0xfffe8848>
   24e54:	02400184 	movi	r9,6
   24e58:	003e1806 	br	246bc <_gp+0xfffe8848>
   24e5c:	d8c03417 	ldw	r3,208(sp)
   24e60:	00c04b0e 	bge	zero,r3,24f90 <___vfprintf_internal_r+0x1f00>
   24e64:	04800044 	movi	r18,1
   24e68:	dac03317 	ldw	r11,204(sp)
   24e6c:	92e5883a 	add	r18,r18,r11
   24e70:	9005883a 	mov	r2,r18
   24e74:	903e5e0e 	bge	r18,zero,247f0 <_gp+0xfffe897c>
   24e78:	0005883a 	mov	r2,zero
   24e7c:	003e5c06 	br	247f0 <_gp+0xfffe897c>
   24e80:	00c00b44 	movi	r3,45
   24e84:	64a0003c 	xorhi	r18,r12,32768
   24e88:	d8c02b05 	stb	r3,172(sp)
   24e8c:	003e1106 	br	246d4 <_gp+0xfffe8860>
   24e90:	4f000044 	addi	fp,r9,1
   24e94:	003e1606 	br	246f0 <_gp+0xfffe887c>
   24e98:	d8c02617 	ldw	r3,152(sp)
   24e9c:	d8c03415 	stw	r3,208(sp)
   24ea0:	00c0350e 	bge	zero,r3,24f78 <___vfprintf_internal_r+0x1ee8>
   24ea4:	4800081e 	bne	r9,zero,24ec8 <___vfprintf_internal_r+0x1e38>
   24ea8:	8c40004c 	andi	r17,r17,1
   24eac:	8800061e 	bne	r17,zero,24ec8 <___vfprintf_internal_r+0x1e38>
   24eb0:	1805883a 	mov	r2,r3
   24eb4:	183e4d0e 	bge	r3,zero,247ec <_gp+0xfffe8978>
   24eb8:	0005883a 	mov	r2,zero
   24ebc:	003e4b06 	br	247ec <_gp+0xfffe8978>
   24ec0:	d8802117 	ldw	r2,132(sp)
   24ec4:	003e3706 	br	247a4 <_gp+0xfffe8930>
   24ec8:	dac03417 	ldw	r11,208(sp)
   24ecc:	4a400044 	addi	r9,r9,1
   24ed0:	5a65883a 	add	r18,r11,r9
   24ed4:	9005883a 	mov	r2,r18
   24ed8:	903e450e 	bge	r18,zero,247f0 <_gp+0xfffe897c>
   24edc:	003fe606 	br	24e78 <_gp+0xfffe9004>
   24ee0:	db003417 	ldw	r12,208(sp)
   24ee4:	64800044 	addi	r18,r12,1
   24ee8:	9005883a 	mov	r2,r18
   24eec:	903e400e 	bge	r18,zero,247f0 <_gp+0xfffe897c>
   24ef0:	003fe106 	br	24e78 <_gp+0xfffe9004>
   24ef4:	d9003717 	ldw	r4,220(sp)
   24ef8:	900b883a 	mov	r5,r18
   24efc:	000d883a 	mov	r6,zero
   24f00:	000f883a 	mov	r7,zero
   24f04:	da003f15 	stw	r8,252(sp)
   24f08:	da403e15 	stw	r9,248(sp)
   24f0c:	da803d15 	stw	r10,244(sp)
   24f10:	002d51c0 	call	2d51c <__eqdf2>
   24f14:	da003f17 	ldw	r8,252(sp)
   24f18:	da403e17 	ldw	r9,248(sp)
   24f1c:	da803d17 	ldw	r10,244(sp)
   24f20:	103f1f26 	beq	r2,zero,24ba0 <_gp+0xfffe8d2c>
   24f24:	00800044 	movi	r2,1
   24f28:	1707c83a 	sub	r3,r2,fp
   24f2c:	d8c02615 	stw	r3,152(sp)
   24f30:	003f1c06 	br	24ba4 <_gp+0xfffe8d30>
   24f34:	00800c04 	movi	r2,48
   24f38:	e0c00c04 	addi	r3,fp,48
   24f3c:	d8802345 	stb	r2,141(sp)
   24f40:	d8c02385 	stb	r3,142(sp)
   24f44:	d88023c4 	addi	r2,sp,143
   24f48:	dd4022c4 	addi	r21,sp,139
   24f4c:	003fa906 	br	24df4 <_gp+0xfffe8f80>
   24f50:	0005883a 	mov	r2,zero
   24f54:	003f3c06 	br	24c48 <_gp+0xfffe8dd4>
   24f58:	dac02d17 	ldw	r11,180(sp)
   24f5c:	5a400017 	ldw	r9,0(r11)
   24f60:	5ac00104 	addi	r11,r11,4
   24f64:	dac02d15 	stw	r11,180(sp)
   24f68:	483ec80e 	bge	r9,zero,24a8c <_gp+0xfffe8c18>
   24f6c:	027fffc4 	movi	r9,-1
   24f70:	1c000047 	ldb	r16,1(r3)
   24f74:	0038ab06 	br	23224 <_gp+0xfffe73b0>
   24f78:	4800111e 	bne	r9,zero,24fc0 <___vfprintf_internal_r+0x1f30>
   24f7c:	8c40004c 	andi	r17,r17,1
   24f80:	88000f1e 	bne	r17,zero,24fc0 <___vfprintf_internal_r+0x1f30>
   24f84:	00800044 	movi	r2,1
   24f88:	1025883a 	mov	r18,r2
   24f8c:	003e1806 	br	247f0 <_gp+0xfffe897c>
   24f90:	04800084 	movi	r18,2
   24f94:	90e5c83a 	sub	r18,r18,r3
   24f98:	003fb306 	br	24e68 <_gp+0xfffe8ff4>
   24f9c:	0005883a 	mov	r2,zero
   24fa0:	003f9d06 	br	24e18 <_gp+0xfffe8fa4>
   24fa4:	88a2703a 	and	r17,r17,r2
   24fa8:	883f9926 	beq	r17,zero,24e10 <_gp+0xfffe8f9c>
   24fac:	003f9706 	br	24e0c <_gp+0xfffe8f98>
   24fb0:	00800b44 	movi	r2,45
   24fb4:	0739c83a 	sub	fp,zero,fp
   24fb8:	d8802305 	stb	r2,140(sp)
   24fbc:	003f6606 	br	24d58 <_gp+0xfffe8ee4>
   24fc0:	4c800084 	addi	r18,r9,2
   24fc4:	9005883a 	mov	r2,r18
   24fc8:	903e090e 	bge	r18,zero,247f0 <_gp+0xfffe897c>
   24fcc:	003faa06 	br	24e78 <_gp+0xfffe9004>
   24fd0:	d8802344 	addi	r2,sp,141
   24fd4:	003f8706 	br	24df4 <_gp+0xfffe8f80>
   24fd8:	d8c02617 	ldw	r3,152(sp)
   24fdc:	003f5806 	br	24d40 <_gp+0xfffe8ecc>

00024fe0 <__vfprintf_internal>:
   24fe0:	2007883a 	mov	r3,r4
   24fe4:	010000f4 	movhi	r4,3
   24fe8:	210fa304 	addi	r4,r4,16012
   24fec:	21000017 	ldw	r4,0(r4)
   24ff0:	2805883a 	mov	r2,r5
   24ff4:	300f883a 	mov	r7,r6
   24ff8:	180b883a 	mov	r5,r3
   24ffc:	100d883a 	mov	r6,r2
   25000:	00230901 	jmpi	23090 <___vfprintf_internal_r>

00025004 <__sbprintf>:
   25004:	2880030b 	ldhu	r2,12(r5)
   25008:	2ac01917 	ldw	r11,100(r5)
   2500c:	2a80038b 	ldhu	r10,14(r5)
   25010:	2a400717 	ldw	r9,28(r5)
   25014:	2a000917 	ldw	r8,36(r5)
   25018:	defee204 	addi	sp,sp,-1144
   2501c:	00c10004 	movi	r3,1024
   25020:	dc011a15 	stw	r16,1128(sp)
   25024:	10bfff4c 	andi	r2,r2,65533
   25028:	2821883a 	mov	r16,r5
   2502c:	d8cb883a 	add	r5,sp,r3
   25030:	dc811c15 	stw	r18,1136(sp)
   25034:	dc411b15 	stw	r17,1132(sp)
   25038:	dfc11d15 	stw	ra,1140(sp)
   2503c:	2025883a 	mov	r18,r4
   25040:	d881030d 	sth	r2,1036(sp)
   25044:	dac11915 	stw	r11,1124(sp)
   25048:	da81038d 	sth	r10,1038(sp)
   2504c:	da410715 	stw	r9,1052(sp)
   25050:	da010915 	stw	r8,1060(sp)
   25054:	dec10015 	stw	sp,1024(sp)
   25058:	dec10415 	stw	sp,1040(sp)
   2505c:	d8c10215 	stw	r3,1032(sp)
   25060:	d8c10515 	stw	r3,1044(sp)
   25064:	d8010615 	stw	zero,1048(sp)
   25068:	00230900 	call	23090 <___vfprintf_internal_r>
   2506c:	1023883a 	mov	r17,r2
   25070:	10000416 	blt	r2,zero,25084 <__sbprintf+0x80>
   25074:	9009883a 	mov	r4,r18
   25078:	d9410004 	addi	r5,sp,1024
   2507c:	0026d440 	call	26d44 <_fflush_r>
   25080:	10000d1e 	bne	r2,zero,250b8 <__sbprintf+0xb4>
   25084:	d8c1030b 	ldhu	r3,1036(sp)
   25088:	18c0100c 	andi	r3,r3,64
   2508c:	18000326 	beq	r3,zero,2509c <__sbprintf+0x98>
   25090:	8080030b 	ldhu	r2,12(r16)
   25094:	10801014 	ori	r2,r2,64
   25098:	8080030d 	sth	r2,12(r16)
   2509c:	8805883a 	mov	r2,r17
   250a0:	dfc11d17 	ldw	ra,1140(sp)
   250a4:	dc811c17 	ldw	r18,1136(sp)
   250a8:	dc411b17 	ldw	r17,1132(sp)
   250ac:	dc011a17 	ldw	r16,1128(sp)
   250b0:	dec11e04 	addi	sp,sp,1144
   250b4:	f800283a 	ret
   250b8:	047fffc4 	movi	r17,-1
   250bc:	003ff106 	br	25084 <_gp+0xfffe9210>

000250c0 <__swsetup_r>:
   250c0:	008000f4 	movhi	r2,3
   250c4:	defffd04 	addi	sp,sp,-12
   250c8:	108fa304 	addi	r2,r2,16012
   250cc:	dc400115 	stw	r17,4(sp)
   250d0:	2023883a 	mov	r17,r4
   250d4:	11000017 	ldw	r4,0(r2)
   250d8:	dc000015 	stw	r16,0(sp)
   250dc:	dfc00215 	stw	ra,8(sp)
   250e0:	2821883a 	mov	r16,r5
   250e4:	20000226 	beq	r4,zero,250f0 <__swsetup_r+0x30>
   250e8:	20c00e17 	ldw	r3,56(r4)
   250ec:	18003126 	beq	r3,zero,251b4 <__swsetup_r+0xf4>
   250f0:	8080030b 	ldhu	r2,12(r16)
   250f4:	10c0020c 	andi	r3,r2,8
   250f8:	100d883a 	mov	r6,r2
   250fc:	18000f26 	beq	r3,zero,2513c <__swsetup_r+0x7c>
   25100:	80c00417 	ldw	r3,16(r16)
   25104:	18001526 	beq	r3,zero,2515c <__swsetup_r+0x9c>
   25108:	1100004c 	andi	r4,r2,1
   2510c:	20001c1e 	bne	r4,zero,25180 <__swsetup_r+0xc0>
   25110:	1080008c 	andi	r2,r2,2
   25114:	1000291e 	bne	r2,zero,251bc <__swsetup_r+0xfc>
   25118:	80800517 	ldw	r2,20(r16)
   2511c:	80800215 	stw	r2,8(r16)
   25120:	18001c26 	beq	r3,zero,25194 <__swsetup_r+0xd4>
   25124:	0005883a 	mov	r2,zero
   25128:	dfc00217 	ldw	ra,8(sp)
   2512c:	dc400117 	ldw	r17,4(sp)
   25130:	dc000017 	ldw	r16,0(sp)
   25134:	dec00304 	addi	sp,sp,12
   25138:	f800283a 	ret
   2513c:	3080040c 	andi	r2,r6,16
   25140:	10002e26 	beq	r2,zero,251fc <__swsetup_r+0x13c>
   25144:	3080010c 	andi	r2,r6,4
   25148:	10001e1e 	bne	r2,zero,251c4 <__swsetup_r+0x104>
   2514c:	80c00417 	ldw	r3,16(r16)
   25150:	30800214 	ori	r2,r6,8
   25154:	8080030d 	sth	r2,12(r16)
   25158:	183feb1e 	bne	r3,zero,25108 <_gp+0xfffe9294>
   2515c:	1140a00c 	andi	r5,r2,640
   25160:	01008004 	movi	r4,512
   25164:	293fe826 	beq	r5,r4,25108 <_gp+0xfffe9294>
   25168:	8809883a 	mov	r4,r17
   2516c:	800b883a 	mov	r5,r16
   25170:	0027cac0 	call	27cac <__smakebuf_r>
   25174:	8080030b 	ldhu	r2,12(r16)
   25178:	80c00417 	ldw	r3,16(r16)
   2517c:	003fe206 	br	25108 <_gp+0xfffe9294>
   25180:	80800517 	ldw	r2,20(r16)
   25184:	80000215 	stw	zero,8(r16)
   25188:	0085c83a 	sub	r2,zero,r2
   2518c:	80800615 	stw	r2,24(r16)
   25190:	183fe41e 	bne	r3,zero,25124 <_gp+0xfffe92b0>
   25194:	80c0030b 	ldhu	r3,12(r16)
   25198:	0005883a 	mov	r2,zero
   2519c:	1900200c 	andi	r4,r3,128
   251a0:	203fe126 	beq	r4,zero,25128 <_gp+0xfffe92b4>
   251a4:	18c01014 	ori	r3,r3,64
   251a8:	80c0030d 	sth	r3,12(r16)
   251ac:	00bfffc4 	movi	r2,-1
   251b0:	003fdd06 	br	25128 <_gp+0xfffe92b4>
   251b4:	00271200 	call	27120 <__sinit>
   251b8:	003fcd06 	br	250f0 <_gp+0xfffe927c>
   251bc:	0005883a 	mov	r2,zero
   251c0:	003fd606 	br	2511c <_gp+0xfffe92a8>
   251c4:	81400c17 	ldw	r5,48(r16)
   251c8:	28000626 	beq	r5,zero,251e4 <__swsetup_r+0x124>
   251cc:	80801004 	addi	r2,r16,64
   251d0:	28800326 	beq	r5,r2,251e0 <__swsetup_r+0x120>
   251d4:	8809883a 	mov	r4,r17
   251d8:	00272940 	call	27294 <_free_r>
   251dc:	8180030b 	ldhu	r6,12(r16)
   251e0:	80000c15 	stw	zero,48(r16)
   251e4:	80c00417 	ldw	r3,16(r16)
   251e8:	00bff6c4 	movi	r2,-37
   251ec:	118c703a 	and	r6,r2,r6
   251f0:	80000115 	stw	zero,4(r16)
   251f4:	80c00015 	stw	r3,0(r16)
   251f8:	003fd506 	br	25150 <_gp+0xfffe92dc>
   251fc:	00800244 	movi	r2,9
   25200:	88800015 	stw	r2,0(r17)
   25204:	30801014 	ori	r2,r6,64
   25208:	8080030d 	sth	r2,12(r16)
   2520c:	00bfffc4 	movi	r2,-1
   25210:	003fc506 	br	25128 <_gp+0xfffe92b4>

00025214 <quorem>:
   25214:	defff704 	addi	sp,sp,-36
   25218:	dc800215 	stw	r18,8(sp)
   2521c:	20800417 	ldw	r2,16(r4)
   25220:	2c800417 	ldw	r18,16(r5)
   25224:	dfc00815 	stw	ra,32(sp)
   25228:	ddc00715 	stw	r23,28(sp)
   2522c:	dd800615 	stw	r22,24(sp)
   25230:	dd400515 	stw	r21,20(sp)
   25234:	dd000415 	stw	r20,16(sp)
   25238:	dcc00315 	stw	r19,12(sp)
   2523c:	dc400115 	stw	r17,4(sp)
   25240:	dc000015 	stw	r16,0(sp)
   25244:	14807116 	blt	r2,r18,2540c <quorem+0x1f8>
   25248:	94bfffc4 	addi	r18,r18,-1
   2524c:	94ad883a 	add	r22,r18,r18
   25250:	b5ad883a 	add	r22,r22,r22
   25254:	2c400504 	addi	r17,r5,20
   25258:	8da9883a 	add	r20,r17,r22
   2525c:	25400504 	addi	r21,r4,20
   25260:	282f883a 	mov	r23,r5
   25264:	adad883a 	add	r22,r21,r22
   25268:	a1400017 	ldw	r5,0(r20)
   2526c:	2021883a 	mov	r16,r4
   25270:	b1000017 	ldw	r4,0(r22)
   25274:	29400044 	addi	r5,r5,1
   25278:	002255c0 	call	2255c <__udivsi3>
   2527c:	1027883a 	mov	r19,r2
   25280:	10002c26 	beq	r2,zero,25334 <quorem+0x120>
   25284:	a813883a 	mov	r9,r21
   25288:	8811883a 	mov	r8,r17
   2528c:	0009883a 	mov	r4,zero
   25290:	000d883a 	mov	r6,zero
   25294:	41c00017 	ldw	r7,0(r8)
   25298:	49400017 	ldw	r5,0(r9)
   2529c:	42000104 	addi	r8,r8,4
   252a0:	38bfffcc 	andi	r2,r7,65535
   252a4:	14c5383a 	mul	r2,r2,r19
   252a8:	380ed43a 	srli	r7,r7,16
   252ac:	28ffffcc 	andi	r3,r5,65535
   252b0:	2085883a 	add	r2,r4,r2
   252b4:	1008d43a 	srli	r4,r2,16
   252b8:	3ccf383a 	mul	r7,r7,r19
   252bc:	198d883a 	add	r6,r3,r6
   252c0:	10ffffcc 	andi	r3,r2,65535
   252c4:	30c7c83a 	sub	r3,r6,r3
   252c8:	280ad43a 	srli	r5,r5,16
   252cc:	21c9883a 	add	r4,r4,r7
   252d0:	180dd43a 	srai	r6,r3,16
   252d4:	20bfffcc 	andi	r2,r4,65535
   252d8:	288bc83a 	sub	r5,r5,r2
   252dc:	298b883a 	add	r5,r5,r6
   252e0:	280e943a 	slli	r7,r5,16
   252e4:	18ffffcc 	andi	r3,r3,65535
   252e8:	2008d43a 	srli	r4,r4,16
   252ec:	38ceb03a 	or	r7,r7,r3
   252f0:	49c00015 	stw	r7,0(r9)
   252f4:	280dd43a 	srai	r6,r5,16
   252f8:	4a400104 	addi	r9,r9,4
   252fc:	a23fe52e 	bgeu	r20,r8,25294 <_gp+0xfffe9420>
   25300:	b0800017 	ldw	r2,0(r22)
   25304:	10000b1e 	bne	r2,zero,25334 <quorem+0x120>
   25308:	b0bfff04 	addi	r2,r22,-4
   2530c:	a880082e 	bgeu	r21,r2,25330 <quorem+0x11c>
   25310:	b0ffff17 	ldw	r3,-4(r22)
   25314:	18000326 	beq	r3,zero,25324 <quorem+0x110>
   25318:	00000506 	br	25330 <quorem+0x11c>
   2531c:	10c00017 	ldw	r3,0(r2)
   25320:	1800031e 	bne	r3,zero,25330 <quorem+0x11c>
   25324:	10bfff04 	addi	r2,r2,-4
   25328:	94bfffc4 	addi	r18,r18,-1
   2532c:	a8bffb36 	bltu	r21,r2,2531c <_gp+0xfffe94a8>
   25330:	84800415 	stw	r18,16(r16)
   25334:	8009883a 	mov	r4,r16
   25338:	b80b883a 	mov	r5,r23
   2533c:	0028ab40 	call	28ab4 <__mcmp>
   25340:	10002616 	blt	r2,zero,253dc <quorem+0x1c8>
   25344:	9cc00044 	addi	r19,r19,1
   25348:	a80d883a 	mov	r6,r21
   2534c:	000b883a 	mov	r5,zero
   25350:	31000017 	ldw	r4,0(r6)
   25354:	88800017 	ldw	r2,0(r17)
   25358:	31800104 	addi	r6,r6,4
   2535c:	20ffffcc 	andi	r3,r4,65535
   25360:	194b883a 	add	r5,r3,r5
   25364:	10ffffcc 	andi	r3,r2,65535
   25368:	28c7c83a 	sub	r3,r5,r3
   2536c:	1004d43a 	srli	r2,r2,16
   25370:	2008d43a 	srli	r4,r4,16
   25374:	180bd43a 	srai	r5,r3,16
   25378:	18ffffcc 	andi	r3,r3,65535
   2537c:	2089c83a 	sub	r4,r4,r2
   25380:	2149883a 	add	r4,r4,r5
   25384:	2004943a 	slli	r2,r4,16
   25388:	8c400104 	addi	r17,r17,4
   2538c:	200bd43a 	srai	r5,r4,16
   25390:	10c6b03a 	or	r3,r2,r3
   25394:	30ffff15 	stw	r3,-4(r6)
   25398:	a47fed2e 	bgeu	r20,r17,25350 <_gp+0xfffe94dc>
   2539c:	9485883a 	add	r2,r18,r18
   253a0:	1085883a 	add	r2,r2,r2
   253a4:	a887883a 	add	r3,r21,r2
   253a8:	18800017 	ldw	r2,0(r3)
   253ac:	10000b1e 	bne	r2,zero,253dc <quorem+0x1c8>
   253b0:	18bfff04 	addi	r2,r3,-4
   253b4:	a880082e 	bgeu	r21,r2,253d8 <quorem+0x1c4>
   253b8:	18ffff17 	ldw	r3,-4(r3)
   253bc:	18000326 	beq	r3,zero,253cc <quorem+0x1b8>
   253c0:	00000506 	br	253d8 <quorem+0x1c4>
   253c4:	10c00017 	ldw	r3,0(r2)
   253c8:	1800031e 	bne	r3,zero,253d8 <quorem+0x1c4>
   253cc:	10bfff04 	addi	r2,r2,-4
   253d0:	94bfffc4 	addi	r18,r18,-1
   253d4:	a8bffb36 	bltu	r21,r2,253c4 <_gp+0xfffe9550>
   253d8:	84800415 	stw	r18,16(r16)
   253dc:	9805883a 	mov	r2,r19
   253e0:	dfc00817 	ldw	ra,32(sp)
   253e4:	ddc00717 	ldw	r23,28(sp)
   253e8:	dd800617 	ldw	r22,24(sp)
   253ec:	dd400517 	ldw	r21,20(sp)
   253f0:	dd000417 	ldw	r20,16(sp)
   253f4:	dcc00317 	ldw	r19,12(sp)
   253f8:	dc800217 	ldw	r18,8(sp)
   253fc:	dc400117 	ldw	r17,4(sp)
   25400:	dc000017 	ldw	r16,0(sp)
   25404:	dec00904 	addi	sp,sp,36
   25408:	f800283a 	ret
   2540c:	0005883a 	mov	r2,zero
   25410:	003ff306 	br	253e0 <_gp+0xfffe956c>

00025414 <_dtoa_r>:
   25414:	20801017 	ldw	r2,64(r4)
   25418:	deffde04 	addi	sp,sp,-136
   2541c:	dd401d15 	stw	r21,116(sp)
   25420:	dcc01b15 	stw	r19,108(sp)
   25424:	dc801a15 	stw	r18,104(sp)
   25428:	dc401915 	stw	r17,100(sp)
   2542c:	dc001815 	stw	r16,96(sp)
   25430:	dfc02115 	stw	ra,132(sp)
   25434:	df002015 	stw	fp,128(sp)
   25438:	ddc01f15 	stw	r23,124(sp)
   2543c:	dd801e15 	stw	r22,120(sp)
   25440:	dd001c15 	stw	r20,112(sp)
   25444:	d9c00315 	stw	r7,12(sp)
   25448:	2021883a 	mov	r16,r4
   2544c:	302b883a 	mov	r21,r6
   25450:	2825883a 	mov	r18,r5
   25454:	dc402417 	ldw	r17,144(sp)
   25458:	3027883a 	mov	r19,r6
   2545c:	10000826 	beq	r2,zero,25480 <_dtoa_r+0x6c>
   25460:	21801117 	ldw	r6,68(r4)
   25464:	00c00044 	movi	r3,1
   25468:	100b883a 	mov	r5,r2
   2546c:	1986983a 	sll	r3,r3,r6
   25470:	11800115 	stw	r6,4(r2)
   25474:	10c00215 	stw	r3,8(r2)
   25478:	00282880 	call	28288 <_Bfree>
   2547c:	80001015 	stw	zero,64(r16)
   25480:	a8002d16 	blt	r21,zero,25538 <_dtoa_r+0x124>
   25484:	88000015 	stw	zero,0(r17)
   25488:	a8dffc2c 	andhi	r3,r21,32752
   2548c:	009ffc34 	movhi	r2,32752
   25490:	18801b26 	beq	r3,r2,25500 <_dtoa_r+0xec>
   25494:	9009883a 	mov	r4,r18
   25498:	980b883a 	mov	r5,r19
   2549c:	000d883a 	mov	r6,zero
   254a0:	000f883a 	mov	r7,zero
   254a4:	002d51c0 	call	2d51c <__eqdf2>
   254a8:	10002a1e 	bne	r2,zero,25554 <_dtoa_r+0x140>
   254ac:	d8c02317 	ldw	r3,140(sp)
   254b0:	d9002517 	ldw	r4,148(sp)
   254b4:	00800044 	movi	r2,1
   254b8:	18800015 	stw	r2,0(r3)
   254bc:	2001a226 	beq	r4,zero,25b48 <_dtoa_r+0x734>
   254c0:	008000f4 	movhi	r2,3
   254c4:	10865f44 	addi	r2,r2,6525
   254c8:	20800015 	stw	r2,0(r4)
   254cc:	10bfffc4 	addi	r2,r2,-1
   254d0:	dfc02117 	ldw	ra,132(sp)
   254d4:	df002017 	ldw	fp,128(sp)
   254d8:	ddc01f17 	ldw	r23,124(sp)
   254dc:	dd801e17 	ldw	r22,120(sp)
   254e0:	dd401d17 	ldw	r21,116(sp)
   254e4:	dd001c17 	ldw	r20,112(sp)
   254e8:	dcc01b17 	ldw	r19,108(sp)
   254ec:	dc801a17 	ldw	r18,104(sp)
   254f0:	dc401917 	ldw	r17,100(sp)
   254f4:	dc001817 	ldw	r16,96(sp)
   254f8:	dec02204 	addi	sp,sp,136
   254fc:	f800283a 	ret
   25500:	d8c02317 	ldw	r3,140(sp)
   25504:	0089c3c4 	movi	r2,9999
   25508:	18800015 	stw	r2,0(r3)
   2550c:	90017c26 	beq	r18,zero,25b00 <_dtoa_r+0x6ec>
   25510:	008000f4 	movhi	r2,3
   25514:	10866b04 	addi	r2,r2,6572
   25518:	d9002517 	ldw	r4,148(sp)
   2551c:	203fec26 	beq	r4,zero,254d0 <_gp+0xfffe965c>
   25520:	10c000c7 	ldb	r3,3(r2)
   25524:	18017d1e 	bne	r3,zero,25b1c <_dtoa_r+0x708>
   25528:	10c000c4 	addi	r3,r2,3
   2552c:	d9802517 	ldw	r6,148(sp)
   25530:	30c00015 	stw	r3,0(r6)
   25534:	003fe606 	br	254d0 <_gp+0xfffe965c>
   25538:	04e00034 	movhi	r19,32768
   2553c:	9cffffc4 	addi	r19,r19,-1
   25540:	00800044 	movi	r2,1
   25544:	ace6703a 	and	r19,r21,r19
   25548:	88800015 	stw	r2,0(r17)
   2554c:	982b883a 	mov	r21,r19
   25550:	003fcd06 	br	25488 <_gp+0xfffe9614>
   25554:	d8800204 	addi	r2,sp,8
   25558:	a822d53a 	srli	r17,r21,20
   2555c:	d8800015 	stw	r2,0(sp)
   25560:	8009883a 	mov	r4,r16
   25564:	900b883a 	mov	r5,r18
   25568:	980d883a 	mov	r6,r19
   2556c:	d9c00104 	addi	r7,sp,4
   25570:	0028e280 	call	28e28 <__d2b>
   25574:	1039883a 	mov	fp,r2
   25578:	88016a1e 	bne	r17,zero,25b24 <_dtoa_r+0x710>
   2557c:	dd000217 	ldw	r20,8(sp)
   25580:	dc400117 	ldw	r17,4(sp)
   25584:	00befbc4 	movi	r2,-1041
   25588:	a463883a 	add	r17,r20,r17
   2558c:	8882ea16 	blt	r17,r2,26138 <_dtoa_r+0xd24>
   25590:	00bf0384 	movi	r2,-1010
   25594:	1445c83a 	sub	r2,r2,r17
   25598:	89010484 	addi	r4,r17,1042
   2559c:	a8aa983a 	sll	r21,r21,r2
   255a0:	9108d83a 	srl	r4,r18,r4
   255a4:	a908b03a 	or	r4,r21,r4
   255a8:	002e8ac0 	call	2e8ac <__floatunsidf>
   255ac:	017f8434 	movhi	r5,65040
   255b0:	01800044 	movi	r6,1
   255b4:	1009883a 	mov	r4,r2
   255b8:	194b883a 	add	r5,r3,r5
   255bc:	8c7fffc4 	addi	r17,r17,-1
   255c0:	d9800f15 	stw	r6,60(sp)
   255c4:	000d883a 	mov	r6,zero
   255c8:	01cffe34 	movhi	r7,16376
   255cc:	002de840 	call	2de84 <__subdf3>
   255d0:	0198dbf4 	movhi	r6,25455
   255d4:	01cff4f4 	movhi	r7,16339
   255d8:	1009883a 	mov	r4,r2
   255dc:	180b883a 	mov	r5,r3
   255e0:	3190d844 	addi	r6,r6,17249
   255e4:	39e1e9c4 	addi	r7,r7,-30809
   255e8:	002d7600 	call	2d760 <__muldf3>
   255ec:	01a2d874 	movhi	r6,35681
   255f0:	01cff1f4 	movhi	r7,16327
   255f4:	180b883a 	mov	r5,r3
   255f8:	31b22cc4 	addi	r6,r6,-14157
   255fc:	39e28a04 	addi	r7,r7,-30168
   25600:	1009883a 	mov	r4,r2
   25604:	002c3b40 	call	2c3b4 <__adddf3>
   25608:	8809883a 	mov	r4,r17
   2560c:	102d883a 	mov	r22,r2
   25610:	182b883a 	mov	r21,r3
   25614:	002e7dc0 	call	2e7dc <__floatsidf>
   25618:	019427f4 	movhi	r6,20639
   2561c:	01cff4f4 	movhi	r7,16339
   25620:	1009883a 	mov	r4,r2
   25624:	180b883a 	mov	r5,r3
   25628:	319e7ec4 	addi	r6,r6,31227
   2562c:	39d104c4 	addi	r7,r7,17427
   25630:	002d7600 	call	2d760 <__muldf3>
   25634:	b009883a 	mov	r4,r22
   25638:	a80b883a 	mov	r5,r21
   2563c:	100d883a 	mov	r6,r2
   25640:	180f883a 	mov	r7,r3
   25644:	002c3b40 	call	2c3b4 <__adddf3>
   25648:	1009883a 	mov	r4,r2
   2564c:	180b883a 	mov	r5,r3
   25650:	102d883a 	mov	r22,r2
   25654:	182b883a 	mov	r21,r3
   25658:	002e7540 	call	2e754 <__fixdfsi>
   2565c:	b009883a 	mov	r4,r22
   25660:	a80b883a 	mov	r5,r21
   25664:	000d883a 	mov	r6,zero
   25668:	000f883a 	mov	r7,zero
   2566c:	d8800515 	stw	r2,20(sp)
   25670:	002d6800 	call	2d680 <__ledf2>
   25674:	10023116 	blt	r2,zero,25f3c <_dtoa_r+0xb28>
   25678:	d8c00517 	ldw	r3,20(sp)
   2567c:	00800584 	movi	r2,22
   25680:	10c21f36 	bltu	r2,r3,25f00 <_dtoa_r+0xaec>
   25684:	180490fa 	slli	r2,r3,3
   25688:	00c000f4 	movhi	r3,3
   2568c:	18c68704 	addi	r3,r3,6684
   25690:	1885883a 	add	r2,r3,r2
   25694:	11000017 	ldw	r4,0(r2)
   25698:	11400117 	ldw	r5,4(r2)
   2569c:	900d883a 	mov	r6,r18
   256a0:	980f883a 	mov	r7,r19
   256a4:	002d5a00 	call	2d5a0 <__gedf2>
   256a8:	0082a70e 	bge	zero,r2,26148 <_dtoa_r+0xd34>
   256ac:	d9000517 	ldw	r4,20(sp)
   256b0:	d8000d15 	stw	zero,52(sp)
   256b4:	213fffc4 	addi	r4,r4,-1
   256b8:	d9000515 	stw	r4,20(sp)
   256bc:	a463c83a 	sub	r17,r20,r17
   256c0:	8dbfffc4 	addi	r22,r17,-1
   256c4:	b0021916 	blt	r22,zero,25f2c <_dtoa_r+0xb18>
   256c8:	d8000815 	stw	zero,32(sp)
   256cc:	d8800517 	ldw	r2,20(sp)
   256d0:	10020e16 	blt	r2,zero,25f0c <_dtoa_r+0xaf8>
   256d4:	b0ad883a 	add	r22,r22,r2
   256d8:	d8800a15 	stw	r2,40(sp)
   256dc:	d8000915 	stw	zero,36(sp)
   256e0:	d8c00317 	ldw	r3,12(sp)
   256e4:	00800244 	movi	r2,9
   256e8:	10c11a36 	bltu	r2,r3,25b54 <_dtoa_r+0x740>
   256ec:	00800144 	movi	r2,5
   256f0:	10c4fc0e 	bge	r2,r3,26ae4 <_dtoa_r+0x16d0>
   256f4:	18ffff04 	addi	r3,r3,-4
   256f8:	d8c00315 	stw	r3,12(sp)
   256fc:	0029883a 	mov	r20,zero
   25700:	d9800317 	ldw	r6,12(sp)
   25704:	008000c4 	movi	r2,3
   25708:	3083bd26 	beq	r6,r2,26600 <_dtoa_r+0x11ec>
   2570c:	1183670e 	bge	r2,r6,264ac <_dtoa_r+0x1098>
   25710:	d8c00317 	ldw	r3,12(sp)
   25714:	00800104 	movi	r2,4
   25718:	1882e726 	beq	r3,r2,262b8 <_dtoa_r+0xea4>
   2571c:	00800144 	movi	r2,5
   25720:	1884f21e 	bne	r3,r2,26aec <_dtoa_r+0x16d8>
   25724:	00800044 	movi	r2,1
   25728:	d8800b15 	stw	r2,44(sp)
   2572c:	d8c02217 	ldw	r3,136(sp)
   25730:	d9000517 	ldw	r4,20(sp)
   25734:	1907883a 	add	r3,r3,r4
   25738:	19800044 	addi	r6,r3,1
   2573c:	d8c00c15 	stw	r3,48(sp)
   25740:	d9800615 	stw	r6,24(sp)
   25744:	0183c30e 	bge	zero,r6,26654 <_dtoa_r+0x1240>
   25748:	d9800617 	ldw	r6,24(sp)
   2574c:	3023883a 	mov	r17,r6
   25750:	80001115 	stw	zero,68(r16)
   25754:	008005c4 	movi	r2,23
   25758:	1184f62e 	bgeu	r2,r6,26b34 <_dtoa_r+0x1720>
   2575c:	00c00044 	movi	r3,1
   25760:	00800104 	movi	r2,4
   25764:	1085883a 	add	r2,r2,r2
   25768:	11000504 	addi	r4,r2,20
   2576c:	180b883a 	mov	r5,r3
   25770:	18c00044 	addi	r3,r3,1
   25774:	313ffb2e 	bgeu	r6,r4,25764 <_gp+0xfffe98f0>
   25778:	81401115 	stw	r5,68(r16)
   2577c:	8009883a 	mov	r4,r16
   25780:	00281e00 	call	281e0 <_Balloc>
   25784:	d8800715 	stw	r2,28(sp)
   25788:	80801015 	stw	r2,64(r16)
   2578c:	00800384 	movi	r2,14
   25790:	1440fd36 	bltu	r2,r17,25b88 <_dtoa_r+0x774>
   25794:	a000fc26 	beq	r20,zero,25b88 <_dtoa_r+0x774>
   25798:	d8800517 	ldw	r2,20(sp)
   2579c:	0083b90e 	bge	zero,r2,26684 <_dtoa_r+0x1270>
   257a0:	d8c00517 	ldw	r3,20(sp)
   257a4:	108003cc 	andi	r2,r2,15
   257a8:	100490fa 	slli	r2,r2,3
   257ac:	182fd13a 	srai	r23,r3,4
   257b0:	00c000f4 	movhi	r3,3
   257b4:	18c68704 	addi	r3,r3,6684
   257b8:	1885883a 	add	r2,r3,r2
   257bc:	b8c0040c 	andi	r3,r23,16
   257c0:	12c00017 	ldw	r11,0(r2)
   257c4:	12800117 	ldw	r10,4(r2)
   257c8:	18039726 	beq	r3,zero,26628 <_dtoa_r+0x1214>
   257cc:	008000f4 	movhi	r2,3
   257d0:	10867d04 	addi	r2,r2,6644
   257d4:	11800817 	ldw	r6,32(r2)
   257d8:	11c00917 	ldw	r7,36(r2)
   257dc:	9009883a 	mov	r4,r18
   257e0:	980b883a 	mov	r5,r19
   257e4:	da801615 	stw	r10,88(sp)
   257e8:	dac01515 	stw	r11,84(sp)
   257ec:	002cc500 	call	2cc50 <__divdf3>
   257f0:	da801617 	ldw	r10,88(sp)
   257f4:	dac01517 	ldw	r11,84(sp)
   257f8:	bdc003cc 	andi	r23,r23,15
   257fc:	044000c4 	movi	r17,3
   25800:	d8800e15 	stw	r2,56(sp)
   25804:	182b883a 	mov	r21,r3
   25808:	b8001126 	beq	r23,zero,25850 <_dtoa_r+0x43c>
   2580c:	050000f4 	movhi	r20,3
   25810:	a5067d04 	addi	r20,r20,6644
   25814:	5805883a 	mov	r2,r11
   25818:	5007883a 	mov	r3,r10
   2581c:	b980004c 	andi	r6,r23,1
   25820:	1009883a 	mov	r4,r2
   25824:	b82fd07a 	srai	r23,r23,1
   25828:	180b883a 	mov	r5,r3
   2582c:	30000426 	beq	r6,zero,25840 <_dtoa_r+0x42c>
   25830:	a1800017 	ldw	r6,0(r20)
   25834:	a1c00117 	ldw	r7,4(r20)
   25838:	8c400044 	addi	r17,r17,1
   2583c:	002d7600 	call	2d760 <__muldf3>
   25840:	a5000204 	addi	r20,r20,8
   25844:	b83ff51e 	bne	r23,zero,2581c <_gp+0xfffe99a8>
   25848:	1017883a 	mov	r11,r2
   2584c:	1815883a 	mov	r10,r3
   25850:	d9000e17 	ldw	r4,56(sp)
   25854:	a80b883a 	mov	r5,r21
   25858:	580d883a 	mov	r6,r11
   2585c:	500f883a 	mov	r7,r10
   25860:	002cc500 	call	2cc50 <__divdf3>
   25864:	1029883a 	mov	r20,r2
   25868:	182b883a 	mov	r21,r3
   2586c:	d9800d17 	ldw	r6,52(sp)
   25870:	30000626 	beq	r6,zero,2588c <_dtoa_r+0x478>
   25874:	a009883a 	mov	r4,r20
   25878:	a80b883a 	mov	r5,r21
   2587c:	000d883a 	mov	r6,zero
   25880:	01cffc34 	movhi	r7,16368
   25884:	002d6800 	call	2d680 <__ledf2>
   25888:	10043216 	blt	r2,zero,26954 <_dtoa_r+0x1540>
   2588c:	8809883a 	mov	r4,r17
   25890:	002e7dc0 	call	2e7dc <__floatsidf>
   25894:	1009883a 	mov	r4,r2
   25898:	180b883a 	mov	r5,r3
   2589c:	a00d883a 	mov	r6,r20
   258a0:	a80f883a 	mov	r7,r21
   258a4:	002d7600 	call	2d760 <__muldf3>
   258a8:	000d883a 	mov	r6,zero
   258ac:	1009883a 	mov	r4,r2
   258b0:	180b883a 	mov	r5,r3
   258b4:	01d00734 	movhi	r7,16412
   258b8:	002c3b40 	call	2c3b4 <__adddf3>
   258bc:	1023883a 	mov	r17,r2
   258c0:	d9800617 	ldw	r6,24(sp)
   258c4:	00bf3034 	movhi	r2,64704
   258c8:	1885883a 	add	r2,r3,r2
   258cc:	d8800e15 	stw	r2,56(sp)
   258d0:	30032e26 	beq	r6,zero,2658c <_dtoa_r+0x1178>
   258d4:	d8c00517 	ldw	r3,20(sp)
   258d8:	da800617 	ldw	r10,24(sp)
   258dc:	d8c01215 	stw	r3,72(sp)
   258e0:	d9000b17 	ldw	r4,44(sp)
   258e4:	2003b026 	beq	r4,zero,267a8 <_dtoa_r+0x1394>
   258e8:	50bfffc4 	addi	r2,r10,-1
   258ec:	100490fa 	slli	r2,r2,3
   258f0:	00c000f4 	movhi	r3,3
   258f4:	18c68704 	addi	r3,r3,6684
   258f8:	1885883a 	add	r2,r3,r2
   258fc:	11800017 	ldw	r6,0(r2)
   25900:	11c00117 	ldw	r7,4(r2)
   25904:	d8800717 	ldw	r2,28(sp)
   25908:	0009883a 	mov	r4,zero
   2590c:	014ff834 	movhi	r5,16352
   25910:	da801615 	stw	r10,88(sp)
   25914:	15c00044 	addi	r23,r2,1
   25918:	002cc500 	call	2cc50 <__divdf3>
   2591c:	d9c00e17 	ldw	r7,56(sp)
   25920:	880d883a 	mov	r6,r17
   25924:	1009883a 	mov	r4,r2
   25928:	180b883a 	mov	r5,r3
   2592c:	002de840 	call	2de84 <__subdf3>
   25930:	a80b883a 	mov	r5,r21
   25934:	a009883a 	mov	r4,r20
   25938:	d8c01015 	stw	r3,64(sp)
   2593c:	d8800e15 	stw	r2,56(sp)
   25940:	002e7540 	call	2e754 <__fixdfsi>
   25944:	1009883a 	mov	r4,r2
   25948:	d8801715 	stw	r2,92(sp)
   2594c:	002e7dc0 	call	2e7dc <__floatsidf>
   25950:	a009883a 	mov	r4,r20
   25954:	a80b883a 	mov	r5,r21
   25958:	100d883a 	mov	r6,r2
   2595c:	180f883a 	mov	r7,r3
   25960:	002de840 	call	2de84 <__subdf3>
   25964:	da001717 	ldw	r8,92(sp)
   25968:	1829883a 	mov	r20,r3
   2596c:	d8c00717 	ldw	r3,28(sp)
   25970:	d9000e17 	ldw	r4,56(sp)
   25974:	d9401017 	ldw	r5,64(sp)
   25978:	42000c04 	addi	r8,r8,48
   2597c:	1023883a 	mov	r17,r2
   25980:	1a000005 	stb	r8,0(r3)
   25984:	880d883a 	mov	r6,r17
   25988:	a00f883a 	mov	r7,r20
   2598c:	402b883a 	mov	r21,r8
   25990:	002d5a00 	call	2d5a0 <__gedf2>
   25994:	00844516 	blt	zero,r2,26aac <_dtoa_r+0x1698>
   25998:	0009883a 	mov	r4,zero
   2599c:	014ffc34 	movhi	r5,16368
   259a0:	880d883a 	mov	r6,r17
   259a4:	a00f883a 	mov	r7,r20
   259a8:	002de840 	call	2de84 <__subdf3>
   259ac:	d9000e17 	ldw	r4,56(sp)
   259b0:	d9401017 	ldw	r5,64(sp)
   259b4:	100d883a 	mov	r6,r2
   259b8:	180f883a 	mov	r7,r3
   259bc:	002d5a00 	call	2d5a0 <__gedf2>
   259c0:	da801617 	ldw	r10,88(sp)
   259c4:	00843616 	blt	zero,r2,26aa0 <_dtoa_r+0x168c>
   259c8:	00800044 	movi	r2,1
   259cc:	12806e0e 	bge	r2,r10,25b88 <_dtoa_r+0x774>
   259d0:	d9000717 	ldw	r4,28(sp)
   259d4:	dd801315 	stw	r22,76(sp)
   259d8:	dc001115 	stw	r16,68(sp)
   259dc:	2295883a 	add	r10,r4,r10
   259e0:	dcc01415 	stw	r19,80(sp)
   259e4:	502d883a 	mov	r22,r10
   259e8:	dcc01017 	ldw	r19,64(sp)
   259ec:	b821883a 	mov	r16,r23
   259f0:	dc801015 	stw	r18,64(sp)
   259f4:	dc800e17 	ldw	r18,56(sp)
   259f8:	00000906 	br	25a20 <_dtoa_r+0x60c>
   259fc:	002de840 	call	2de84 <__subdf3>
   25a00:	1009883a 	mov	r4,r2
   25a04:	180b883a 	mov	r5,r3
   25a08:	900d883a 	mov	r6,r18
   25a0c:	980f883a 	mov	r7,r19
   25a10:	002d6800 	call	2d680 <__ledf2>
   25a14:	10040e16 	blt	r2,zero,26a50 <_dtoa_r+0x163c>
   25a18:	b821883a 	mov	r16,r23
   25a1c:	bd841026 	beq	r23,r22,26a60 <_dtoa_r+0x164c>
   25a20:	9009883a 	mov	r4,r18
   25a24:	980b883a 	mov	r5,r19
   25a28:	000d883a 	mov	r6,zero
   25a2c:	01d00934 	movhi	r7,16420
   25a30:	002d7600 	call	2d760 <__muldf3>
   25a34:	000d883a 	mov	r6,zero
   25a38:	01d00934 	movhi	r7,16420
   25a3c:	8809883a 	mov	r4,r17
   25a40:	a00b883a 	mov	r5,r20
   25a44:	1025883a 	mov	r18,r2
   25a48:	1827883a 	mov	r19,r3
   25a4c:	002d7600 	call	2d760 <__muldf3>
   25a50:	180b883a 	mov	r5,r3
   25a54:	1009883a 	mov	r4,r2
   25a58:	1823883a 	mov	r17,r3
   25a5c:	1029883a 	mov	r20,r2
   25a60:	002e7540 	call	2e754 <__fixdfsi>
   25a64:	1009883a 	mov	r4,r2
   25a68:	102b883a 	mov	r21,r2
   25a6c:	002e7dc0 	call	2e7dc <__floatsidf>
   25a70:	a009883a 	mov	r4,r20
   25a74:	880b883a 	mov	r5,r17
   25a78:	100d883a 	mov	r6,r2
   25a7c:	180f883a 	mov	r7,r3
   25a80:	002de840 	call	2de84 <__subdf3>
   25a84:	ad400c04 	addi	r21,r21,48
   25a88:	1009883a 	mov	r4,r2
   25a8c:	180b883a 	mov	r5,r3
   25a90:	900d883a 	mov	r6,r18
   25a94:	980f883a 	mov	r7,r19
   25a98:	85400005 	stb	r21,0(r16)
   25a9c:	1023883a 	mov	r17,r2
   25aa0:	1829883a 	mov	r20,r3
   25aa4:	002d6800 	call	2d680 <__ledf2>
   25aa8:	bdc00044 	addi	r23,r23,1
   25aac:	0009883a 	mov	r4,zero
   25ab0:	014ffc34 	movhi	r5,16368
   25ab4:	880d883a 	mov	r6,r17
   25ab8:	a00f883a 	mov	r7,r20
   25abc:	103fcf0e 	bge	r2,zero,259fc <_gp+0xfffe9b88>
   25ac0:	d9801217 	ldw	r6,72(sp)
   25ac4:	dc001117 	ldw	r16,68(sp)
   25ac8:	d9800515 	stw	r6,20(sp)
   25acc:	8009883a 	mov	r4,r16
   25ad0:	e00b883a 	mov	r5,fp
   25ad4:	00282880 	call	28288 <_Bfree>
   25ad8:	d8c00517 	ldw	r3,20(sp)
   25adc:	d9002317 	ldw	r4,140(sp)
   25ae0:	d9802517 	ldw	r6,148(sp)
   25ae4:	b8000005 	stb	zero,0(r23)
   25ae8:	18800044 	addi	r2,r3,1
   25aec:	20800015 	stw	r2,0(r4)
   25af0:	30027226 	beq	r6,zero,264bc <_dtoa_r+0x10a8>
   25af4:	35c00015 	stw	r23,0(r6)
   25af8:	d8800717 	ldw	r2,28(sp)
   25afc:	003e7406 	br	254d0 <_gp+0xfffe965c>
   25b00:	00800434 	movhi	r2,16
   25b04:	10bfffc4 	addi	r2,r2,-1
   25b08:	a8aa703a 	and	r21,r21,r2
   25b0c:	a83e801e 	bne	r21,zero,25510 <_gp+0xfffe969c>
   25b10:	008000f4 	movhi	r2,3
   25b14:	10866804 	addi	r2,r2,6560
   25b18:	003e7f06 	br	25518 <_gp+0xfffe96a4>
   25b1c:	10c00204 	addi	r3,r2,8
   25b20:	003e8206 	br	2552c <_gp+0xfffe96b8>
   25b24:	01400434 	movhi	r5,16
   25b28:	297fffc4 	addi	r5,r5,-1
   25b2c:	994a703a 	and	r5,r19,r5
   25b30:	9009883a 	mov	r4,r18
   25b34:	8c7f0044 	addi	r17,r17,-1023
   25b38:	294ffc34 	orhi	r5,r5,16368
   25b3c:	dd000217 	ldw	r20,8(sp)
   25b40:	d8000f15 	stw	zero,60(sp)
   25b44:	003e9f06 	br	255c4 <_gp+0xfffe9750>
   25b48:	008000f4 	movhi	r2,3
   25b4c:	10865f04 	addi	r2,r2,6524
   25b50:	003e5f06 	br	254d0 <_gp+0xfffe965c>
   25b54:	80001115 	stw	zero,68(r16)
   25b58:	8009883a 	mov	r4,r16
   25b5c:	000b883a 	mov	r5,zero
   25b60:	00281e00 	call	281e0 <_Balloc>
   25b64:	01bfffc4 	movi	r6,-1
   25b68:	d8800715 	stw	r2,28(sp)
   25b6c:	80801015 	stw	r2,64(r16)
   25b70:	00800044 	movi	r2,1
   25b74:	d9800c15 	stw	r6,48(sp)
   25b78:	d8800b15 	stw	r2,44(sp)
   25b7c:	d9800615 	stw	r6,24(sp)
   25b80:	d8002215 	stw	zero,136(sp)
   25b84:	d8000315 	stw	zero,12(sp)
   25b88:	d8800117 	ldw	r2,4(sp)
   25b8c:	10008e16 	blt	r2,zero,25dc8 <_dtoa_r+0x9b4>
   25b90:	d9000517 	ldw	r4,20(sp)
   25b94:	00c00384 	movi	r3,14
   25b98:	19008b16 	blt	r3,r4,25dc8 <_dtoa_r+0x9b4>
   25b9c:	200490fa 	slli	r2,r4,3
   25ba0:	00c000f4 	movhi	r3,3
   25ba4:	d9802217 	ldw	r6,136(sp)
   25ba8:	18c68704 	addi	r3,r3,6684
   25bac:	1885883a 	add	r2,r3,r2
   25bb0:	14400017 	ldw	r17,0(r2)
   25bb4:	15000117 	ldw	r20,4(r2)
   25bb8:	3001c716 	blt	r6,zero,262d8 <_dtoa_r+0xec4>
   25bbc:	880d883a 	mov	r6,r17
   25bc0:	a00f883a 	mov	r7,r20
   25bc4:	9009883a 	mov	r4,r18
   25bc8:	980b883a 	mov	r5,r19
   25bcc:	002cc500 	call	2cc50 <__divdf3>
   25bd0:	180b883a 	mov	r5,r3
   25bd4:	1009883a 	mov	r4,r2
   25bd8:	002e7540 	call	2e754 <__fixdfsi>
   25bdc:	1009883a 	mov	r4,r2
   25be0:	102d883a 	mov	r22,r2
   25be4:	002e7dc0 	call	2e7dc <__floatsidf>
   25be8:	1009883a 	mov	r4,r2
   25bec:	180b883a 	mov	r5,r3
   25bf0:	880d883a 	mov	r6,r17
   25bf4:	a00f883a 	mov	r7,r20
   25bf8:	002d7600 	call	2d760 <__muldf3>
   25bfc:	9009883a 	mov	r4,r18
   25c00:	980b883a 	mov	r5,r19
   25c04:	100d883a 	mov	r6,r2
   25c08:	180f883a 	mov	r7,r3
   25c0c:	002de840 	call	2de84 <__subdf3>
   25c10:	d9000717 	ldw	r4,28(sp)
   25c14:	d9800617 	ldw	r6,24(sp)
   25c18:	180b883a 	mov	r5,r3
   25c1c:	b0c00c04 	addi	r3,r22,48
   25c20:	20c00005 	stb	r3,0(r4)
   25c24:	25c00044 	addi	r23,r4,1
   25c28:	01000044 	movi	r4,1
   25c2c:	1011883a 	mov	r8,r2
   25c30:	2807883a 	mov	r3,r5
   25c34:	31003d26 	beq	r6,r4,25d2c <_dtoa_r+0x918>
   25c38:	000d883a 	mov	r6,zero
   25c3c:	01d00934 	movhi	r7,16420
   25c40:	1009883a 	mov	r4,r2
   25c44:	002d7600 	call	2d760 <__muldf3>
   25c48:	1009883a 	mov	r4,r2
   25c4c:	180b883a 	mov	r5,r3
   25c50:	000d883a 	mov	r6,zero
   25c54:	000f883a 	mov	r7,zero
   25c58:	1027883a 	mov	r19,r2
   25c5c:	182b883a 	mov	r21,r3
   25c60:	002d51c0 	call	2d51c <__eqdf2>
   25c64:	103f9926 	beq	r2,zero,25acc <_gp+0xfffe9c58>
   25c68:	d8c00617 	ldw	r3,24(sp)
   25c6c:	d9000717 	ldw	r4,28(sp)
   25c70:	b825883a 	mov	r18,r23
   25c74:	18bfffc4 	addi	r2,r3,-1
   25c78:	20ad883a 	add	r22,r4,r2
   25c7c:	dc000315 	stw	r16,12(sp)
   25c80:	00000a06 	br	25cac <_dtoa_r+0x898>
   25c84:	002d7600 	call	2d760 <__muldf3>
   25c88:	1009883a 	mov	r4,r2
   25c8c:	180b883a 	mov	r5,r3
   25c90:	000d883a 	mov	r6,zero
   25c94:	000f883a 	mov	r7,zero
   25c98:	1027883a 	mov	r19,r2
   25c9c:	182b883a 	mov	r21,r3
   25ca0:	b825883a 	mov	r18,r23
   25ca4:	002d51c0 	call	2d51c <__eqdf2>
   25ca8:	10022626 	beq	r2,zero,26544 <_dtoa_r+0x1130>
   25cac:	880d883a 	mov	r6,r17
   25cb0:	a00f883a 	mov	r7,r20
   25cb4:	9809883a 	mov	r4,r19
   25cb8:	a80b883a 	mov	r5,r21
   25cbc:	002cc500 	call	2cc50 <__divdf3>
   25cc0:	180b883a 	mov	r5,r3
   25cc4:	1009883a 	mov	r4,r2
   25cc8:	002e7540 	call	2e754 <__fixdfsi>
   25ccc:	1009883a 	mov	r4,r2
   25cd0:	1021883a 	mov	r16,r2
   25cd4:	002e7dc0 	call	2e7dc <__floatsidf>
   25cd8:	1009883a 	mov	r4,r2
   25cdc:	180b883a 	mov	r5,r3
   25ce0:	880d883a 	mov	r6,r17
   25ce4:	a00f883a 	mov	r7,r20
   25ce8:	002d7600 	call	2d760 <__muldf3>
   25cec:	9809883a 	mov	r4,r19
   25cf0:	a80b883a 	mov	r5,r21
   25cf4:	100d883a 	mov	r6,r2
   25cf8:	180f883a 	mov	r7,r3
   25cfc:	002de840 	call	2de84 <__subdf3>
   25d00:	82000c04 	addi	r8,r16,48
   25d04:	92000005 	stb	r8,0(r18)
   25d08:	1009883a 	mov	r4,r2
   25d0c:	180b883a 	mov	r5,r3
   25d10:	000d883a 	mov	r6,zero
   25d14:	01d00934 	movhi	r7,16420
   25d18:	1011883a 	mov	r8,r2
   25d1c:	bdc00044 	addi	r23,r23,1
   25d20:	95bfd81e 	bne	r18,r22,25c84 <_gp+0xfffe9e10>
   25d24:	802d883a 	mov	r22,r16
   25d28:	dc000317 	ldw	r16,12(sp)
   25d2c:	4009883a 	mov	r4,r8
   25d30:	180b883a 	mov	r5,r3
   25d34:	400d883a 	mov	r6,r8
   25d38:	180f883a 	mov	r7,r3
   25d3c:	002c3b40 	call	2c3b4 <__adddf3>
   25d40:	8809883a 	mov	r4,r17
   25d44:	a00b883a 	mov	r5,r20
   25d48:	100d883a 	mov	r6,r2
   25d4c:	180f883a 	mov	r7,r3
   25d50:	1027883a 	mov	r19,r2
   25d54:	1825883a 	mov	r18,r3
   25d58:	002d6800 	call	2d680 <__ledf2>
   25d5c:	10000816 	blt	r2,zero,25d80 <_dtoa_r+0x96c>
   25d60:	8809883a 	mov	r4,r17
   25d64:	a00b883a 	mov	r5,r20
   25d68:	980d883a 	mov	r6,r19
   25d6c:	900f883a 	mov	r7,r18
   25d70:	002d51c0 	call	2d51c <__eqdf2>
   25d74:	103f551e 	bne	r2,zero,25acc <_gp+0xfffe9c58>
   25d78:	b580004c 	andi	r22,r22,1
   25d7c:	b03f5326 	beq	r22,zero,25acc <_gp+0xfffe9c58>
   25d80:	bd7fffc3 	ldbu	r21,-1(r23)
   25d84:	b8bfffc4 	addi	r2,r23,-1
   25d88:	1007883a 	mov	r3,r2
   25d8c:	01400e44 	movi	r5,57
   25d90:	d9800717 	ldw	r6,28(sp)
   25d94:	00000506 	br	25dac <_dtoa_r+0x998>
   25d98:	18ffffc4 	addi	r3,r3,-1
   25d9c:	30825e26 	beq	r6,r2,26718 <_dtoa_r+0x1304>
   25da0:	1d400003 	ldbu	r21,0(r3)
   25da4:	102f883a 	mov	r23,r2
   25da8:	10bfffc4 	addi	r2,r2,-1
   25dac:	a9003fcc 	andi	r4,r21,255
   25db0:	2100201c 	xori	r4,r4,128
   25db4:	213fe004 	addi	r4,r4,-128
   25db8:	217ff726 	beq	r4,r5,25d98 <_gp+0xfffe9f24>
   25dbc:	aa000044 	addi	r8,r21,1
   25dc0:	12000005 	stb	r8,0(r2)
   25dc4:	003f4106 	br	25acc <_gp+0xfffe9c58>
   25dc8:	d8c00b17 	ldw	r3,44(sp)
   25dcc:	18006726 	beq	r3,zero,25f6c <_dtoa_r+0xb58>
   25dd0:	d9000317 	ldw	r4,12(sp)
   25dd4:	00c00044 	movi	r3,1
   25dd8:	19016a0e 	bge	r3,r4,26384 <_dtoa_r+0xf70>
   25ddc:	d8800617 	ldw	r2,24(sp)
   25de0:	d8c00917 	ldw	r3,36(sp)
   25de4:	157fffc4 	addi	r21,r2,-1
   25de8:	1d420716 	blt	r3,r21,26608 <_dtoa_r+0x11f4>
   25dec:	1d6bc83a 	sub	r21,r3,r21
   25df0:	d8800617 	ldw	r2,24(sp)
   25df4:	1002c716 	blt	r2,zero,26914 <_dtoa_r+0x1500>
   25df8:	dd000817 	ldw	r20,32(sp)
   25dfc:	d8800617 	ldw	r2,24(sp)
   25e00:	d9800817 	ldw	r6,32(sp)
   25e04:	8009883a 	mov	r4,r16
   25e08:	01400044 	movi	r5,1
   25e0c:	308d883a 	add	r6,r6,r2
   25e10:	d9800815 	stw	r6,32(sp)
   25e14:	b0ad883a 	add	r22,r22,r2
   25e18:	00285ec0 	call	285ec <__i2b>
   25e1c:	1023883a 	mov	r17,r2
   25e20:	a0000826 	beq	r20,zero,25e44 <_dtoa_r+0xa30>
   25e24:	0580070e 	bge	zero,r22,25e44 <_dtoa_r+0xa30>
   25e28:	b005883a 	mov	r2,r22
   25e2c:	a5812016 	blt	r20,r22,262b0 <_dtoa_r+0xe9c>
   25e30:	d8c00817 	ldw	r3,32(sp)
   25e34:	a0a9c83a 	sub	r20,r20,r2
   25e38:	b0adc83a 	sub	r22,r22,r2
   25e3c:	1887c83a 	sub	r3,r3,r2
   25e40:	d8c00815 	stw	r3,32(sp)
   25e44:	d9000917 	ldw	r4,36(sp)
   25e48:	0100140e 	bge	zero,r4,25e9c <_dtoa_r+0xa88>
   25e4c:	d9800b17 	ldw	r6,44(sp)
   25e50:	3001e526 	beq	r6,zero,265e8 <_dtoa_r+0x11d4>
   25e54:	05400e0e 	bge	zero,r21,25e90 <_dtoa_r+0xa7c>
   25e58:	880b883a 	mov	r5,r17
   25e5c:	8009883a 	mov	r4,r16
   25e60:	a80d883a 	mov	r6,r21
   25e64:	00288240 	call	28824 <__pow5mult>
   25e68:	e00d883a 	mov	r6,fp
   25e6c:	8009883a 	mov	r4,r16
   25e70:	100b883a 	mov	r5,r2
   25e74:	1023883a 	mov	r17,r2
   25e78:	00286280 	call	28628 <__multiply>
   25e7c:	102f883a 	mov	r23,r2
   25e80:	e00b883a 	mov	r5,fp
   25e84:	8009883a 	mov	r4,r16
   25e88:	00282880 	call	28288 <_Bfree>
   25e8c:	b839883a 	mov	fp,r23
   25e90:	d8800917 	ldw	r2,36(sp)
   25e94:	154dc83a 	sub	r6,r2,r21
   25e98:	3001281e 	bne	r6,zero,2633c <_dtoa_r+0xf28>
   25e9c:	05c00044 	movi	r23,1
   25ea0:	8009883a 	mov	r4,r16
   25ea4:	b80b883a 	mov	r5,r23
   25ea8:	00285ec0 	call	285ec <__i2b>
   25eac:	d8c00a17 	ldw	r3,40(sp)
   25eb0:	102b883a 	mov	r21,r2
   25eb4:	00c0310e 	bge	zero,r3,25f7c <_dtoa_r+0xb68>
   25eb8:	8009883a 	mov	r4,r16
   25ebc:	100b883a 	mov	r5,r2
   25ec0:	180d883a 	mov	r6,r3
   25ec4:	00288240 	call	28824 <__pow5mult>
   25ec8:	d9000317 	ldw	r4,12(sp)
   25ecc:	102b883a 	mov	r21,r2
   25ed0:	b9011f0e 	bge	r23,r4,26350 <_dtoa_r+0xf3c>
   25ed4:	0027883a 	mov	r19,zero
   25ed8:	a8800417 	ldw	r2,16(r21)
   25edc:	10800104 	addi	r2,r2,4
   25ee0:	1085883a 	add	r2,r2,r2
   25ee4:	1085883a 	add	r2,r2,r2
   25ee8:	a885883a 	add	r2,r21,r2
   25eec:	11000017 	ldw	r4,0(r2)
   25ef0:	00284d40 	call	284d4 <__hi0bits>
   25ef4:	00c00804 	movi	r3,32
   25ef8:	1885c83a 	sub	r2,r3,r2
   25efc:	00002506 	br	25f94 <_dtoa_r+0xb80>
   25f00:	01800044 	movi	r6,1
   25f04:	d9800d15 	stw	r6,52(sp)
   25f08:	003dec06 	br	256bc <_gp+0xfffe9848>
   25f0c:	d8c00817 	ldw	r3,32(sp)
   25f10:	d9000517 	ldw	r4,20(sp)
   25f14:	d8000a15 	stw	zero,40(sp)
   25f18:	1907c83a 	sub	r3,r3,r4
   25f1c:	010dc83a 	sub	r6,zero,r4
   25f20:	d8c00815 	stw	r3,32(sp)
   25f24:	d9800915 	stw	r6,36(sp)
   25f28:	003ded06 	br	256e0 <_gp+0xfffe986c>
   25f2c:	05adc83a 	sub	r22,zero,r22
   25f30:	dd800815 	stw	r22,32(sp)
   25f34:	002d883a 	mov	r22,zero
   25f38:	003de406 	br	256cc <_gp+0xfffe9858>
   25f3c:	d9000517 	ldw	r4,20(sp)
   25f40:	002e7dc0 	call	2e7dc <__floatsidf>
   25f44:	1009883a 	mov	r4,r2
   25f48:	180b883a 	mov	r5,r3
   25f4c:	b00d883a 	mov	r6,r22
   25f50:	a80f883a 	mov	r7,r21
   25f54:	002d51c0 	call	2d51c <__eqdf2>
   25f58:	103dc726 	beq	r2,zero,25678 <_gp+0xfffe9804>
   25f5c:	d8800517 	ldw	r2,20(sp)
   25f60:	10bfffc4 	addi	r2,r2,-1
   25f64:	d8800515 	stw	r2,20(sp)
   25f68:	003dc306 	br	25678 <_gp+0xfffe9804>
   25f6c:	dd400917 	ldw	r21,36(sp)
   25f70:	dd000817 	ldw	r20,32(sp)
   25f74:	0023883a 	mov	r17,zero
   25f78:	003fa906 	br	25e20 <_gp+0xfffe9fac>
   25f7c:	d9800317 	ldw	r6,12(sp)
   25f80:	b981670e 	bge	r23,r6,26520 <_dtoa_r+0x110c>
   25f84:	0027883a 	mov	r19,zero
   25f88:	d8c00a17 	ldw	r3,40(sp)
   25f8c:	183fd21e 	bne	r3,zero,25ed8 <_gp+0xfffea064>
   25f90:	00800044 	movi	r2,1
   25f94:	1585883a 	add	r2,r2,r22
   25f98:	108007cc 	andi	r2,r2,31
   25f9c:	10005f26 	beq	r2,zero,2611c <_dtoa_r+0xd08>
   25fa0:	00c00804 	movi	r3,32
   25fa4:	1887c83a 	sub	r3,r3,r2
   25fa8:	01000104 	movi	r4,4
   25fac:	20c2dd0e 	bge	r4,r3,26b24 <_dtoa_r+0x1710>
   25fb0:	d9000817 	ldw	r4,32(sp)
   25fb4:	00c00704 	movi	r3,28
   25fb8:	1885c83a 	sub	r2,r3,r2
   25fbc:	2089883a 	add	r4,r4,r2
   25fc0:	d9000815 	stw	r4,32(sp)
   25fc4:	a0a9883a 	add	r20,r20,r2
   25fc8:	b0ad883a 	add	r22,r22,r2
   25fcc:	d8800817 	ldw	r2,32(sp)
   25fd0:	0080050e 	bge	zero,r2,25fe8 <_dtoa_r+0xbd4>
   25fd4:	e00b883a 	mov	r5,fp
   25fd8:	8009883a 	mov	r4,r16
   25fdc:	100d883a 	mov	r6,r2
   25fe0:	00289640 	call	28964 <__lshift>
   25fe4:	1039883a 	mov	fp,r2
   25fe8:	0580050e 	bge	zero,r22,26000 <_dtoa_r+0xbec>
   25fec:	a80b883a 	mov	r5,r21
   25ff0:	8009883a 	mov	r4,r16
   25ff4:	b00d883a 	mov	r6,r22
   25ff8:	00289640 	call	28964 <__lshift>
   25ffc:	102b883a 	mov	r21,r2
   26000:	d8c00d17 	ldw	r3,52(sp)
   26004:	1801161e 	bne	r3,zero,26460 <_dtoa_r+0x104c>
   26008:	d8c00617 	ldw	r3,24(sp)
   2600c:	00c12d0e 	bge	zero,r3,264c4 <_dtoa_r+0x10b0>
   26010:	d8c00b17 	ldw	r3,44(sp)
   26014:	1800571e 	bne	r3,zero,26174 <_dtoa_r+0xd60>
   26018:	dc800717 	ldw	r18,28(sp)
   2601c:	dcc00617 	ldw	r19,24(sp)
   26020:	9029883a 	mov	r20,r18
   26024:	00000206 	br	26030 <_dtoa_r+0xc1c>
   26028:	00282b00 	call	282b0 <__multadd>
   2602c:	1039883a 	mov	fp,r2
   26030:	e009883a 	mov	r4,fp
   26034:	a80b883a 	mov	r5,r21
   26038:	00252140 	call	25214 <quorem>
   2603c:	10800c04 	addi	r2,r2,48
   26040:	90800005 	stb	r2,0(r18)
   26044:	94800044 	addi	r18,r18,1
   26048:	9507c83a 	sub	r3,r18,r20
   2604c:	8009883a 	mov	r4,r16
   26050:	e00b883a 	mov	r5,fp
   26054:	01800284 	movi	r6,10
   26058:	000f883a 	mov	r7,zero
   2605c:	1cfff216 	blt	r3,r19,26028 <_gp+0xfffea1b4>
   26060:	1011883a 	mov	r8,r2
   26064:	d8800617 	ldw	r2,24(sp)
   26068:	00822e0e 	bge	zero,r2,26924 <_dtoa_r+0x1510>
   2606c:	d9000717 	ldw	r4,28(sp)
   26070:	0025883a 	mov	r18,zero
   26074:	20af883a 	add	r23,r4,r2
   26078:	e00b883a 	mov	r5,fp
   2607c:	01800044 	movi	r6,1
   26080:	8009883a 	mov	r4,r16
   26084:	da001715 	stw	r8,92(sp)
   26088:	00289640 	call	28964 <__lshift>
   2608c:	1009883a 	mov	r4,r2
   26090:	a80b883a 	mov	r5,r21
   26094:	1039883a 	mov	fp,r2
   26098:	0028ab40 	call	28ab4 <__mcmp>
   2609c:	da001717 	ldw	r8,92(sp)
   260a0:	00816e0e 	bge	zero,r2,2665c <_dtoa_r+0x1248>
   260a4:	b93fffc3 	ldbu	r4,-1(r23)
   260a8:	b8bfffc4 	addi	r2,r23,-1
   260ac:	1007883a 	mov	r3,r2
   260b0:	01800e44 	movi	r6,57
   260b4:	d9c00717 	ldw	r7,28(sp)
   260b8:	00000506 	br	260d0 <_dtoa_r+0xcbc>
   260bc:	18ffffc4 	addi	r3,r3,-1
   260c0:	38811926 	beq	r7,r2,26528 <_dtoa_r+0x1114>
   260c4:	19000003 	ldbu	r4,0(r3)
   260c8:	102f883a 	mov	r23,r2
   260cc:	10bfffc4 	addi	r2,r2,-1
   260d0:	21403fcc 	andi	r5,r4,255
   260d4:	2940201c 	xori	r5,r5,128
   260d8:	297fe004 	addi	r5,r5,-128
   260dc:	29bff726 	beq	r5,r6,260bc <_gp+0xfffea248>
   260e0:	21000044 	addi	r4,r4,1
   260e4:	11000005 	stb	r4,0(r2)
   260e8:	8009883a 	mov	r4,r16
   260ec:	a80b883a 	mov	r5,r21
   260f0:	00282880 	call	28288 <_Bfree>
   260f4:	883e7526 	beq	r17,zero,25acc <_gp+0xfffe9c58>
   260f8:	90000426 	beq	r18,zero,2610c <_dtoa_r+0xcf8>
   260fc:	94400326 	beq	r18,r17,2610c <_dtoa_r+0xcf8>
   26100:	8009883a 	mov	r4,r16
   26104:	900b883a 	mov	r5,r18
   26108:	00282880 	call	28288 <_Bfree>
   2610c:	8009883a 	mov	r4,r16
   26110:	880b883a 	mov	r5,r17
   26114:	00282880 	call	28288 <_Bfree>
   26118:	003e6c06 	br	25acc <_gp+0xfffe9c58>
   2611c:	00800704 	movi	r2,28
   26120:	d9800817 	ldw	r6,32(sp)
   26124:	a0a9883a 	add	r20,r20,r2
   26128:	b0ad883a 	add	r22,r22,r2
   2612c:	308d883a 	add	r6,r6,r2
   26130:	d9800815 	stw	r6,32(sp)
   26134:	003fa506 	br	25fcc <_gp+0xfffea158>
   26138:	013efb84 	movi	r4,-1042
   2613c:	246bc83a 	sub	r21,r4,r17
   26140:	9548983a 	sll	r4,r18,r21
   26144:	003d1806 	br	255a8 <_gp+0xfffe9734>
   26148:	d8000d15 	stw	zero,52(sp)
   2614c:	003d5b06 	br	256bc <_gp+0xfffe9848>
   26150:	880b883a 	mov	r5,r17
   26154:	8009883a 	mov	r4,r16
   26158:	01800284 	movi	r6,10
   2615c:	000f883a 	mov	r7,zero
   26160:	00282b00 	call	282b0 <__multadd>
   26164:	1023883a 	mov	r17,r2
   26168:	d8800c17 	ldw	r2,48(sp)
   2616c:	0082550e 	bge	zero,r2,26ac4 <_dtoa_r+0x16b0>
   26170:	d8800615 	stw	r2,24(sp)
   26174:	0500050e 	bge	zero,r20,2618c <_dtoa_r+0xd78>
   26178:	880b883a 	mov	r5,r17
   2617c:	8009883a 	mov	r4,r16
   26180:	a00d883a 	mov	r6,r20
   26184:	00289640 	call	28964 <__lshift>
   26188:	1023883a 	mov	r17,r2
   2618c:	98016a1e 	bne	r19,zero,26738 <_dtoa_r+0x1324>
   26190:	8829883a 	mov	r20,r17
   26194:	d9000617 	ldw	r4,24(sp)
   26198:	dcc00717 	ldw	r19,28(sp)
   2619c:	9480004c 	andi	r18,r18,1
   261a0:	20bfffc4 	addi	r2,r4,-1
   261a4:	9885883a 	add	r2,r19,r2
   261a8:	d8800415 	stw	r2,16(sp)
   261ac:	dc800615 	stw	r18,24(sp)
   261b0:	e009883a 	mov	r4,fp
   261b4:	a80b883a 	mov	r5,r21
   261b8:	00252140 	call	25214 <quorem>
   261bc:	e009883a 	mov	r4,fp
   261c0:	880b883a 	mov	r5,r17
   261c4:	102f883a 	mov	r23,r2
   261c8:	0028ab40 	call	28ab4 <__mcmp>
   261cc:	8009883a 	mov	r4,r16
   261d0:	a80b883a 	mov	r5,r21
   261d4:	a00d883a 	mov	r6,r20
   261d8:	102d883a 	mov	r22,r2
   261dc:	0028b140 	call	28b14 <__mdiff>
   261e0:	1007883a 	mov	r3,r2
   261e4:	10800317 	ldw	r2,12(r2)
   261e8:	bc800c04 	addi	r18,r23,48
   261ec:	1000971e 	bne	r2,zero,2644c <_dtoa_r+0x1038>
   261f0:	180b883a 	mov	r5,r3
   261f4:	e009883a 	mov	r4,fp
   261f8:	d8c01515 	stw	r3,84(sp)
   261fc:	0028ab40 	call	28ab4 <__mcmp>
   26200:	d8c01517 	ldw	r3,84(sp)
   26204:	8009883a 	mov	r4,r16
   26208:	d8801515 	stw	r2,84(sp)
   2620c:	180b883a 	mov	r5,r3
   26210:	00282880 	call	28288 <_Bfree>
   26214:	d8801517 	ldw	r2,84(sp)
   26218:	1000041e 	bne	r2,zero,2622c <_dtoa_r+0xe18>
   2621c:	d9800317 	ldw	r6,12(sp)
   26220:	3000021e 	bne	r6,zero,2622c <_dtoa_r+0xe18>
   26224:	d8c00617 	ldw	r3,24(sp)
   26228:	18007626 	beq	r3,zero,26404 <_dtoa_r+0xff0>
   2622c:	b0005b16 	blt	r22,zero,2639c <_dtoa_r+0xf88>
   26230:	b000041e 	bne	r22,zero,26244 <_dtoa_r+0xe30>
   26234:	d9000317 	ldw	r4,12(sp)
   26238:	2000021e 	bne	r4,zero,26244 <_dtoa_r+0xe30>
   2623c:	d8c00617 	ldw	r3,24(sp)
   26240:	18005626 	beq	r3,zero,2639c <_dtoa_r+0xf88>
   26244:	00814d16 	blt	zero,r2,2677c <_dtoa_r+0x1368>
   26248:	d8c00417 	ldw	r3,16(sp)
   2624c:	9d800044 	addi	r22,r19,1
   26250:	9c800005 	stb	r18,0(r19)
   26254:	b02f883a 	mov	r23,r22
   26258:	98c14c26 	beq	r19,r3,2678c <_dtoa_r+0x1378>
   2625c:	e00b883a 	mov	r5,fp
   26260:	8009883a 	mov	r4,r16
   26264:	01800284 	movi	r6,10
   26268:	000f883a 	mov	r7,zero
   2626c:	00282b00 	call	282b0 <__multadd>
   26270:	1039883a 	mov	fp,r2
   26274:	8d006d26 	beq	r17,r20,2642c <_dtoa_r+0x1018>
   26278:	880b883a 	mov	r5,r17
   2627c:	01800284 	movi	r6,10
   26280:	000f883a 	mov	r7,zero
   26284:	8009883a 	mov	r4,r16
   26288:	00282b00 	call	282b0 <__multadd>
   2628c:	a00b883a 	mov	r5,r20
   26290:	8009883a 	mov	r4,r16
   26294:	01800284 	movi	r6,10
   26298:	000f883a 	mov	r7,zero
   2629c:	1023883a 	mov	r17,r2
   262a0:	00282b00 	call	282b0 <__multadd>
   262a4:	1029883a 	mov	r20,r2
   262a8:	b027883a 	mov	r19,r22
   262ac:	003fc006 	br	261b0 <_gp+0xfffea33c>
   262b0:	a005883a 	mov	r2,r20
   262b4:	003ede06 	br	25e30 <_gp+0xfffe9fbc>
   262b8:	01000044 	movi	r4,1
   262bc:	d9000b15 	stw	r4,44(sp)
   262c0:	d9802217 	ldw	r6,136(sp)
   262c4:	0180dc0e 	bge	zero,r6,26638 <_dtoa_r+0x1224>
   262c8:	3023883a 	mov	r17,r6
   262cc:	d9800c15 	stw	r6,48(sp)
   262d0:	d9800615 	stw	r6,24(sp)
   262d4:	003d1e06 	br	25750 <_gp+0xfffe98dc>
   262d8:	d8800617 	ldw	r2,24(sp)
   262dc:	00be3716 	blt	zero,r2,25bbc <_gp+0xfffe9d48>
   262e0:	1000be1e 	bne	r2,zero,265dc <_dtoa_r+0x11c8>
   262e4:	8809883a 	mov	r4,r17
   262e8:	a00b883a 	mov	r5,r20
   262ec:	000d883a 	mov	r6,zero
   262f0:	01d00534 	movhi	r7,16404
   262f4:	002d7600 	call	2d760 <__muldf3>
   262f8:	1009883a 	mov	r4,r2
   262fc:	180b883a 	mov	r5,r3
   26300:	900d883a 	mov	r6,r18
   26304:	980f883a 	mov	r7,r19
   26308:	002d5a00 	call	2d5a0 <__gedf2>
   2630c:	002b883a 	mov	r21,zero
   26310:	0023883a 	mov	r17,zero
   26314:	10007a16 	blt	r2,zero,26500 <_dtoa_r+0x10ec>
   26318:	d9002217 	ldw	r4,136(sp)
   2631c:	ddc00717 	ldw	r23,28(sp)
   26320:	0108303a 	nor	r4,zero,r4
   26324:	d9000515 	stw	r4,20(sp)
   26328:	8009883a 	mov	r4,r16
   2632c:	a80b883a 	mov	r5,r21
   26330:	00282880 	call	28288 <_Bfree>
   26334:	883f751e 	bne	r17,zero,2610c <_gp+0xfffea298>
   26338:	003de406 	br	25acc <_gp+0xfffe9c58>
   2633c:	e00b883a 	mov	r5,fp
   26340:	8009883a 	mov	r4,r16
   26344:	00288240 	call	28824 <__pow5mult>
   26348:	1039883a 	mov	fp,r2
   2634c:	003ed306 	br	25e9c <_gp+0xfffea028>
   26350:	903ee01e 	bne	r18,zero,25ed4 <_gp+0xfffea060>
   26354:	00800434 	movhi	r2,16
   26358:	10bfffc4 	addi	r2,r2,-1
   2635c:	9884703a 	and	r2,r19,r2
   26360:	103f081e 	bne	r2,zero,25f84 <_gp+0xfffea110>
   26364:	9cdffc2c 	andhi	r19,r19,32752
   26368:	983f0626 	beq	r19,zero,25f84 <_gp+0xfffea110>
   2636c:	d8800817 	ldw	r2,32(sp)
   26370:	b5800044 	addi	r22,r22,1
   26374:	04c00044 	movi	r19,1
   26378:	10800044 	addi	r2,r2,1
   2637c:	d8800815 	stw	r2,32(sp)
   26380:	003f0106 	br	25f88 <_gp+0xfffea114>
   26384:	d9800f17 	ldw	r6,60(sp)
   26388:	30016826 	beq	r6,zero,2692c <_dtoa_r+0x1518>
   2638c:	10810cc4 	addi	r2,r2,1075
   26390:	dd400917 	ldw	r21,36(sp)
   26394:	dd000817 	ldw	r20,32(sp)
   26398:	003e9906 	br	25e00 <_gp+0xfffe9f8c>
   2639c:	9011883a 	mov	r8,r18
   263a0:	4007883a 	mov	r3,r8
   263a4:	e02d883a 	mov	r22,fp
   263a8:	0080100e 	bge	zero,r2,263ec <_dtoa_r+0xfd8>
   263ac:	01800044 	movi	r6,1
   263b0:	8009883a 	mov	r4,r16
   263b4:	e00b883a 	mov	r5,fp
   263b8:	da001515 	stw	r8,84(sp)
   263bc:	da001715 	stw	r8,92(sp)
   263c0:	00289640 	call	28964 <__lshift>
   263c4:	1009883a 	mov	r4,r2
   263c8:	a80b883a 	mov	r5,r21
   263cc:	102d883a 	mov	r22,r2
   263d0:	0028ab40 	call	28ab4 <__mcmp>
   263d4:	d8c01517 	ldw	r3,84(sp)
   263d8:	da001717 	ldw	r8,92(sp)
   263dc:	0081a50e 	bge	zero,r2,26a74 <_dtoa_r+0x1660>
   263e0:	00800e44 	movi	r2,57
   263e4:	40817b26 	beq	r8,r2,269d4 <_dtoa_r+0x15c0>
   263e8:	40c00044 	addi	r3,r8,1
   263ec:	8825883a 	mov	r18,r17
   263f0:	9dc00044 	addi	r23,r19,1
   263f4:	98c00005 	stb	r3,0(r19)
   263f8:	a023883a 	mov	r17,r20
   263fc:	b039883a 	mov	fp,r22
   26400:	003f3906 	br	260e8 <_gp+0xfffea274>
   26404:	00800e44 	movi	r2,57
   26408:	9011883a 	mov	r8,r18
   2640c:	90817226 	beq	r18,r2,269d8 <_dtoa_r+0x15c4>
   26410:	0580010e 	bge	zero,r22,26418 <_dtoa_r+0x1004>
   26414:	ba000c44 	addi	r8,r23,49
   26418:	8825883a 	mov	r18,r17
   2641c:	9dc00044 	addi	r23,r19,1
   26420:	9a000005 	stb	r8,0(r19)
   26424:	a023883a 	mov	r17,r20
   26428:	003f2f06 	br	260e8 <_gp+0xfffea274>
   2642c:	880b883a 	mov	r5,r17
   26430:	8009883a 	mov	r4,r16
   26434:	01800284 	movi	r6,10
   26438:	000f883a 	mov	r7,zero
   2643c:	00282b00 	call	282b0 <__multadd>
   26440:	1023883a 	mov	r17,r2
   26444:	1029883a 	mov	r20,r2
   26448:	003f9706 	br	262a8 <_gp+0xfffea434>
   2644c:	8009883a 	mov	r4,r16
   26450:	180b883a 	mov	r5,r3
   26454:	00282880 	call	28288 <_Bfree>
   26458:	00800044 	movi	r2,1
   2645c:	003f7306 	br	2622c <_gp+0xfffea3b8>
   26460:	e009883a 	mov	r4,fp
   26464:	a80b883a 	mov	r5,r21
   26468:	0028ab40 	call	28ab4 <__mcmp>
   2646c:	103ee60e 	bge	r2,zero,26008 <_gp+0xfffea194>
   26470:	8009883a 	mov	r4,r16
   26474:	e00b883a 	mov	r5,fp
   26478:	01800284 	movi	r6,10
   2647c:	000f883a 	mov	r7,zero
   26480:	00282b00 	call	282b0 <__multadd>
   26484:	d9000517 	ldw	r4,20(sp)
   26488:	d9800b17 	ldw	r6,44(sp)
   2648c:	1039883a 	mov	fp,r2
   26490:	213fffc4 	addi	r4,r4,-1
   26494:	d9000515 	stw	r4,20(sp)
   26498:	303f2d1e 	bne	r6,zero,26150 <_gp+0xfffea2dc>
   2649c:	d9000c17 	ldw	r4,48(sp)
   264a0:	0101780e 	bge	zero,r4,26a84 <_dtoa_r+0x1670>
   264a4:	d9000615 	stw	r4,24(sp)
   264a8:	003edb06 	br	26018 <_gp+0xfffea1a4>
   264ac:	00800084 	movi	r2,2
   264b0:	30818e1e 	bne	r6,r2,26aec <_dtoa_r+0x16d8>
   264b4:	d8000b15 	stw	zero,44(sp)
   264b8:	003f8106 	br	262c0 <_gp+0xfffea44c>
   264bc:	d8800717 	ldw	r2,28(sp)
   264c0:	003c0306 	br	254d0 <_gp+0xfffe965c>
   264c4:	d9000317 	ldw	r4,12(sp)
   264c8:	00800084 	movi	r2,2
   264cc:	113ed00e 	bge	r2,r4,26010 <_gp+0xfffea19c>
   264d0:	d8c00617 	ldw	r3,24(sp)
   264d4:	183f901e 	bne	r3,zero,26318 <_gp+0xfffea4a4>
   264d8:	a80b883a 	mov	r5,r21
   264dc:	8009883a 	mov	r4,r16
   264e0:	01800144 	movi	r6,5
   264e4:	000f883a 	mov	r7,zero
   264e8:	00282b00 	call	282b0 <__multadd>
   264ec:	e009883a 	mov	r4,fp
   264f0:	100b883a 	mov	r5,r2
   264f4:	102b883a 	mov	r21,r2
   264f8:	0028ab40 	call	28ab4 <__mcmp>
   264fc:	00bf860e 	bge	zero,r2,26318 <_gp+0xfffea4a4>
   26500:	d9800717 	ldw	r6,28(sp)
   26504:	00800c44 	movi	r2,49
   26508:	30800005 	stb	r2,0(r6)
   2650c:	d8800517 	ldw	r2,20(sp)
   26510:	35c00044 	addi	r23,r6,1
   26514:	10800044 	addi	r2,r2,1
   26518:	d8800515 	stw	r2,20(sp)
   2651c:	003f8206 	br	26328 <_gp+0xfffea4b4>
   26520:	903e981e 	bne	r18,zero,25f84 <_gp+0xfffea110>
   26524:	003f8b06 	br	26354 <_gp+0xfffea4e0>
   26528:	d9800517 	ldw	r6,20(sp)
   2652c:	d8c00717 	ldw	r3,28(sp)
   26530:	00800c44 	movi	r2,49
   26534:	31800044 	addi	r6,r6,1
   26538:	d9800515 	stw	r6,20(sp)
   2653c:	18800005 	stb	r2,0(r3)
   26540:	003ee906 	br	260e8 <_gp+0xfffea274>
   26544:	dc000317 	ldw	r16,12(sp)
   26548:	003d6006 	br	25acc <_gp+0xfffe9c58>
   2654c:	8809883a 	mov	r4,r17
   26550:	002e7dc0 	call	2e7dc <__floatsidf>
   26554:	a009883a 	mov	r4,r20
   26558:	a80b883a 	mov	r5,r21
   2655c:	100d883a 	mov	r6,r2
   26560:	180f883a 	mov	r7,r3
   26564:	002d7600 	call	2d760 <__muldf3>
   26568:	1009883a 	mov	r4,r2
   2656c:	180b883a 	mov	r5,r3
   26570:	000d883a 	mov	r6,zero
   26574:	01d00734 	movhi	r7,16412
   26578:	002c3b40 	call	2c3b4 <__adddf3>
   2657c:	1023883a 	mov	r17,r2
   26580:	00bf3034 	movhi	r2,64704
   26584:	1885883a 	add	r2,r3,r2
   26588:	d8800e15 	stw	r2,56(sp)
   2658c:	a009883a 	mov	r4,r20
   26590:	a80b883a 	mov	r5,r21
   26594:	000d883a 	mov	r6,zero
   26598:	01d00534 	movhi	r7,16404
   2659c:	002de840 	call	2de84 <__subdf3>
   265a0:	d9c00e17 	ldw	r7,56(sp)
   265a4:	1009883a 	mov	r4,r2
   265a8:	180b883a 	mov	r5,r3
   265ac:	880d883a 	mov	r6,r17
   265b0:	102b883a 	mov	r21,r2
   265b4:	1829883a 	mov	r20,r3
   265b8:	002d5a00 	call	2d5a0 <__gedf2>
   265bc:	00807716 	blt	zero,r2,2679c <_dtoa_r+0x1388>
   265c0:	d8800e17 	ldw	r2,56(sp)
   265c4:	a809883a 	mov	r4,r21
   265c8:	a00b883a 	mov	r5,r20
   265cc:	11e0003c 	xorhi	r7,r2,32768
   265d0:	880d883a 	mov	r6,r17
   265d4:	002d6800 	call	2d680 <__ledf2>
   265d8:	103d6b0e 	bge	r2,zero,25b88 <_gp+0xfffe9d14>
   265dc:	002b883a 	mov	r21,zero
   265e0:	0023883a 	mov	r17,zero
   265e4:	003f4c06 	br	26318 <_gp+0xfffea4a4>
   265e8:	d9800917 	ldw	r6,36(sp)
   265ec:	e00b883a 	mov	r5,fp
   265f0:	8009883a 	mov	r4,r16
   265f4:	00288240 	call	28824 <__pow5mult>
   265f8:	1039883a 	mov	fp,r2
   265fc:	003e2706 	br	25e9c <_gp+0xfffea028>
   26600:	d8000b15 	stw	zero,44(sp)
   26604:	003c4906 	br	2572c <_gp+0xfffe98b8>
   26608:	d9000917 	ldw	r4,36(sp)
   2660c:	d9800a17 	ldw	r6,40(sp)
   26610:	dd400915 	stw	r21,36(sp)
   26614:	a905c83a 	sub	r2,r21,r4
   26618:	308d883a 	add	r6,r6,r2
   2661c:	d9800a15 	stw	r6,40(sp)
   26620:	002b883a 	mov	r21,zero
   26624:	003df206 	br	25df0 <_gp+0xfffe9f7c>
   26628:	dc800e15 	stw	r18,56(sp)
   2662c:	982b883a 	mov	r21,r19
   26630:	04400084 	movi	r17,2
   26634:	003c7406 	br	25808 <_gp+0xfffe9994>
   26638:	04400044 	movi	r17,1
   2663c:	dc400c15 	stw	r17,48(sp)
   26640:	dc400615 	stw	r17,24(sp)
   26644:	dc402215 	stw	r17,136(sp)
   26648:	80001115 	stw	zero,68(r16)
   2664c:	000b883a 	mov	r5,zero
   26650:	003c4a06 	br	2577c <_gp+0xfffe9908>
   26654:	3023883a 	mov	r17,r6
   26658:	003ffb06 	br	26648 <_gp+0xfffea7d4>
   2665c:	1000021e 	bne	r2,zero,26668 <_dtoa_r+0x1254>
   26660:	4200004c 	andi	r8,r8,1
   26664:	403e8f1e 	bne	r8,zero,260a4 <_gp+0xfffea230>
   26668:	01000c04 	movi	r4,48
   2666c:	00000106 	br	26674 <_dtoa_r+0x1260>
   26670:	102f883a 	mov	r23,r2
   26674:	b8bfffc4 	addi	r2,r23,-1
   26678:	10c00007 	ldb	r3,0(r2)
   2667c:	193ffc26 	beq	r3,r4,26670 <_gp+0xfffea7fc>
   26680:	003e9906 	br	260e8 <_gp+0xfffea274>
   26684:	d9000517 	ldw	r4,20(sp)
   26688:	012fc83a 	sub	r23,zero,r4
   2668c:	b800ad26 	beq	r23,zero,26944 <_dtoa_r+0x1530>
   26690:	b88003cc 	andi	r2,r23,15
   26694:	100490fa 	slli	r2,r2,3
   26698:	00c000f4 	movhi	r3,3
   2669c:	18c68704 	addi	r3,r3,6684
   266a0:	1885883a 	add	r2,r3,r2
   266a4:	11800017 	ldw	r6,0(r2)
   266a8:	11c00117 	ldw	r7,4(r2)
   266ac:	b82fd13a 	srai	r23,r23,4
   266b0:	9009883a 	mov	r4,r18
   266b4:	980b883a 	mov	r5,r19
   266b8:	002d7600 	call	2d760 <__muldf3>
   266bc:	1029883a 	mov	r20,r2
   266c0:	182b883a 	mov	r21,r3
   266c4:	b800f426 	beq	r23,zero,26a98 <_dtoa_r+0x1684>
   266c8:	020000f4 	movhi	r8,3
   266cc:	42067d04 	addi	r8,r8,6644
   266d0:	8029883a 	mov	r20,r16
   266d4:	04400084 	movi	r17,2
   266d8:	4021883a 	mov	r16,r8
   266dc:	b980004c 	andi	r6,r23,1
   266e0:	1009883a 	mov	r4,r2
   266e4:	b82fd07a 	srai	r23,r23,1
   266e8:	180b883a 	mov	r5,r3
   266ec:	30000426 	beq	r6,zero,26700 <_dtoa_r+0x12ec>
   266f0:	81800017 	ldw	r6,0(r16)
   266f4:	81c00117 	ldw	r7,4(r16)
   266f8:	8c400044 	addi	r17,r17,1
   266fc:	002d7600 	call	2d760 <__muldf3>
   26700:	84000204 	addi	r16,r16,8
   26704:	b83ff51e 	bne	r23,zero,266dc <_gp+0xfffea868>
   26708:	a021883a 	mov	r16,r20
   2670c:	182b883a 	mov	r21,r3
   26710:	1029883a 	mov	r20,r2
   26714:	003c5506 	br	2586c <_gp+0xfffe99f8>
   26718:	d9800517 	ldw	r6,20(sp)
   2671c:	d9000717 	ldw	r4,28(sp)
   26720:	00c00c04 	movi	r3,48
   26724:	31800044 	addi	r6,r6,1
   26728:	d9800515 	stw	r6,20(sp)
   2672c:	20c00005 	stb	r3,0(r4)
   26730:	02000c44 	movi	r8,49
   26734:	003da206 	br	25dc0 <_gp+0xfffe9f4c>
   26738:	89400117 	ldw	r5,4(r17)
   2673c:	8009883a 	mov	r4,r16
   26740:	00281e00 	call	281e0 <_Balloc>
   26744:	89800417 	ldw	r6,16(r17)
   26748:	11000304 	addi	r4,r2,12
   2674c:	89400304 	addi	r5,r17,12
   26750:	31800084 	addi	r6,r6,2
   26754:	318d883a 	add	r6,r6,r6
   26758:	318d883a 	add	r6,r6,r6
   2675c:	1027883a 	mov	r19,r2
   26760:	0027f4c0 	call	27f4c <memcpy>
   26764:	8009883a 	mov	r4,r16
   26768:	980b883a 	mov	r5,r19
   2676c:	01800044 	movi	r6,1
   26770:	00289640 	call	28964 <__lshift>
   26774:	1029883a 	mov	r20,r2
   26778:	003e8606 	br	26194 <_gp+0xfffea320>
   2677c:	00800e44 	movi	r2,57
   26780:	90809526 	beq	r18,r2,269d8 <_dtoa_r+0x15c4>
   26784:	92000044 	addi	r8,r18,1
   26788:	003f2306 	br	26418 <_gp+0xfffea5a4>
   2678c:	9011883a 	mov	r8,r18
   26790:	8825883a 	mov	r18,r17
   26794:	a023883a 	mov	r17,r20
   26798:	003e3706 	br	26078 <_gp+0xfffea204>
   2679c:	002b883a 	mov	r21,zero
   267a0:	0023883a 	mov	r17,zero
   267a4:	003f5606 	br	26500 <_gp+0xfffea68c>
   267a8:	51bfffc4 	addi	r6,r10,-1
   267ac:	300490fa 	slli	r2,r6,3
   267b0:	00c000f4 	movhi	r3,3
   267b4:	18c68704 	addi	r3,r3,6684
   267b8:	1885883a 	add	r2,r3,r2
   267bc:	d9c00e17 	ldw	r7,56(sp)
   267c0:	11000017 	ldw	r4,0(r2)
   267c4:	11400117 	ldw	r5,4(r2)
   267c8:	d8800717 	ldw	r2,28(sp)
   267cc:	d9801015 	stw	r6,64(sp)
   267d0:	880d883a 	mov	r6,r17
   267d4:	da801615 	stw	r10,88(sp)
   267d8:	15c00044 	addi	r23,r2,1
   267dc:	002d7600 	call	2d760 <__muldf3>
   267e0:	a80b883a 	mov	r5,r21
   267e4:	a009883a 	mov	r4,r20
   267e8:	d8c01115 	stw	r3,68(sp)
   267ec:	d8800e15 	stw	r2,56(sp)
   267f0:	002e7540 	call	2e754 <__fixdfsi>
   267f4:	1009883a 	mov	r4,r2
   267f8:	1023883a 	mov	r17,r2
   267fc:	002e7dc0 	call	2e7dc <__floatsidf>
   26800:	a009883a 	mov	r4,r20
   26804:	a80b883a 	mov	r5,r21
   26808:	100d883a 	mov	r6,r2
   2680c:	180f883a 	mov	r7,r3
   26810:	002de840 	call	2de84 <__subdf3>
   26814:	1813883a 	mov	r9,r3
   26818:	d8c00717 	ldw	r3,28(sp)
   2681c:	8c400c04 	addi	r17,r17,48
   26820:	1011883a 	mov	r8,r2
   26824:	1c400005 	stb	r17,0(r3)
   26828:	da801617 	ldw	r10,88(sp)
   2682c:	00800044 	movi	r2,1
   26830:	50802326 	beq	r10,r2,268c0 <_dtoa_r+0x14ac>
   26834:	d8800717 	ldw	r2,28(sp)
   26838:	b82b883a 	mov	r21,r23
   2683c:	dc001315 	stw	r16,76(sp)
   26840:	12a9883a 	add	r20,r2,r10
   26844:	4807883a 	mov	r3,r9
   26848:	4005883a 	mov	r2,r8
   2684c:	dc801415 	stw	r18,80(sp)
   26850:	000d883a 	mov	r6,zero
   26854:	01d00934 	movhi	r7,16420
   26858:	1009883a 	mov	r4,r2
   2685c:	180b883a 	mov	r5,r3
   26860:	002d7600 	call	2d760 <__muldf3>
   26864:	180b883a 	mov	r5,r3
   26868:	1009883a 	mov	r4,r2
   2686c:	1821883a 	mov	r16,r3
   26870:	1025883a 	mov	r18,r2
   26874:	002e7540 	call	2e754 <__fixdfsi>
   26878:	1009883a 	mov	r4,r2
   2687c:	1023883a 	mov	r17,r2
   26880:	002e7dc0 	call	2e7dc <__floatsidf>
   26884:	9009883a 	mov	r4,r18
   26888:	800b883a 	mov	r5,r16
   2688c:	100d883a 	mov	r6,r2
   26890:	180f883a 	mov	r7,r3
   26894:	8c400c04 	addi	r17,r17,48
   26898:	002de840 	call	2de84 <__subdf3>
   2689c:	ad400044 	addi	r21,r21,1
   268a0:	ac7fffc5 	stb	r17,-1(r21)
   268a4:	ad3fea1e 	bne	r21,r20,26850 <_gp+0xfffea9dc>
   268a8:	1813883a 	mov	r9,r3
   268ac:	d8c01017 	ldw	r3,64(sp)
   268b0:	dc001317 	ldw	r16,76(sp)
   268b4:	dc801417 	ldw	r18,80(sp)
   268b8:	1011883a 	mov	r8,r2
   268bc:	b8ef883a 	add	r23,r23,r3
   268c0:	d9000e17 	ldw	r4,56(sp)
   268c4:	d9401117 	ldw	r5,68(sp)
   268c8:	000d883a 	mov	r6,zero
   268cc:	01cff834 	movhi	r7,16352
   268d0:	da001715 	stw	r8,92(sp)
   268d4:	da401515 	stw	r9,84(sp)
   268d8:	002c3b40 	call	2c3b4 <__adddf3>
   268dc:	da001717 	ldw	r8,92(sp)
   268e0:	da401517 	ldw	r9,84(sp)
   268e4:	1009883a 	mov	r4,r2
   268e8:	400d883a 	mov	r6,r8
   268ec:	480f883a 	mov	r7,r9
   268f0:	180b883a 	mov	r5,r3
   268f4:	002d6800 	call	2d680 <__ledf2>
   268f8:	da001717 	ldw	r8,92(sp)
   268fc:	da401517 	ldw	r9,84(sp)
   26900:	10003b0e 	bge	r2,zero,269f0 <_dtoa_r+0x15dc>
   26904:	d9001217 	ldw	r4,72(sp)
   26908:	bd7fffc3 	ldbu	r21,-1(r23)
   2690c:	d9000515 	stw	r4,20(sp)
   26910:	003d1c06 	br	25d84 <_gp+0xfffe9f10>
   26914:	d8c00817 	ldw	r3,32(sp)
   26918:	18a9c83a 	sub	r20,r3,r2
   2691c:	0005883a 	mov	r2,zero
   26920:	003d3706 	br	25e00 <_gp+0xfffe9f8c>
   26924:	00800044 	movi	r2,1
   26928:	003dd006 	br	2606c <_gp+0xfffea1f8>
   2692c:	d8c00217 	ldw	r3,8(sp)
   26930:	00800d84 	movi	r2,54
   26934:	dd400917 	ldw	r21,36(sp)
   26938:	10c5c83a 	sub	r2,r2,r3
   2693c:	dd000817 	ldw	r20,32(sp)
   26940:	003d2f06 	br	25e00 <_gp+0xfffe9f8c>
   26944:	9029883a 	mov	r20,r18
   26948:	982b883a 	mov	r21,r19
   2694c:	04400084 	movi	r17,2
   26950:	003bc606 	br	2586c <_gp+0xfffe99f8>
   26954:	d8800617 	ldw	r2,24(sp)
   26958:	103efc26 	beq	r2,zero,2654c <_gp+0xfffea6d8>
   2695c:	d8c00c17 	ldw	r3,48(sp)
   26960:	00fc890e 	bge	zero,r3,25b88 <_gp+0xfffe9d14>
   26964:	a80b883a 	mov	r5,r21
   26968:	a009883a 	mov	r4,r20
   2696c:	000d883a 	mov	r6,zero
   26970:	01d00934 	movhi	r7,16420
   26974:	002d7600 	call	2d760 <__muldf3>
   26978:	89000044 	addi	r4,r17,1
   2697c:	1029883a 	mov	r20,r2
   26980:	182b883a 	mov	r21,r3
   26984:	002e7dc0 	call	2e7dc <__floatsidf>
   26988:	a009883a 	mov	r4,r20
   2698c:	a80b883a 	mov	r5,r21
   26990:	100d883a 	mov	r6,r2
   26994:	180f883a 	mov	r7,r3
   26998:	002d7600 	call	2d760 <__muldf3>
   2699c:	1009883a 	mov	r4,r2
   269a0:	180b883a 	mov	r5,r3
   269a4:	000d883a 	mov	r6,zero
   269a8:	01d00734 	movhi	r7,16412
   269ac:	002c3b40 	call	2c3b4 <__adddf3>
   269b0:	d9000517 	ldw	r4,20(sp)
   269b4:	1023883a 	mov	r17,r2
   269b8:	00bf3034 	movhi	r2,64704
   269bc:	213fffc4 	addi	r4,r4,-1
   269c0:	1885883a 	add	r2,r3,r2
   269c4:	d9001215 	stw	r4,72(sp)
   269c8:	d8800e15 	stw	r2,56(sp)
   269cc:	da800c17 	ldw	r10,48(sp)
   269d0:	003bc306 	br	258e0 <_gp+0xfffe9a6c>
   269d4:	b039883a 	mov	fp,r22
   269d8:	01000e44 	movi	r4,57
   269dc:	8825883a 	mov	r18,r17
   269e0:	9dc00044 	addi	r23,r19,1
   269e4:	99000005 	stb	r4,0(r19)
   269e8:	a023883a 	mov	r17,r20
   269ec:	003dae06 	br	260a8 <_gp+0xfffea234>
   269f0:	d9800e17 	ldw	r6,56(sp)
   269f4:	d9c01117 	ldw	r7,68(sp)
   269f8:	0009883a 	mov	r4,zero
   269fc:	014ff834 	movhi	r5,16352
   26a00:	da001715 	stw	r8,92(sp)
   26a04:	da401515 	stw	r9,84(sp)
   26a08:	002de840 	call	2de84 <__subdf3>
   26a0c:	da001717 	ldw	r8,92(sp)
   26a10:	da401517 	ldw	r9,84(sp)
   26a14:	1009883a 	mov	r4,r2
   26a18:	180b883a 	mov	r5,r3
   26a1c:	400d883a 	mov	r6,r8
   26a20:	480f883a 	mov	r7,r9
   26a24:	002d5a00 	call	2d5a0 <__gedf2>
   26a28:	00bc570e 	bge	zero,r2,25b88 <_gp+0xfffe9d14>
   26a2c:	01000c04 	movi	r4,48
   26a30:	00000106 	br	26a38 <_dtoa_r+0x1624>
   26a34:	102f883a 	mov	r23,r2
   26a38:	b8bfffc4 	addi	r2,r23,-1
   26a3c:	10c00007 	ldb	r3,0(r2)
   26a40:	193ffc26 	beq	r3,r4,26a34 <_gp+0xfffeabc0>
   26a44:	d9801217 	ldw	r6,72(sp)
   26a48:	d9800515 	stw	r6,20(sp)
   26a4c:	003c1f06 	br	25acc <_gp+0xfffe9c58>
   26a50:	d8801217 	ldw	r2,72(sp)
   26a54:	dc001117 	ldw	r16,68(sp)
   26a58:	d8800515 	stw	r2,20(sp)
   26a5c:	003cc906 	br	25d84 <_gp+0xfffe9f10>
   26a60:	dd801317 	ldw	r22,76(sp)
   26a64:	dc001117 	ldw	r16,68(sp)
   26a68:	dcc01417 	ldw	r19,80(sp)
   26a6c:	dc801017 	ldw	r18,64(sp)
   26a70:	003c4506 	br	25b88 <_gp+0xfffe9d14>
   26a74:	103e5d1e 	bne	r2,zero,263ec <_gp+0xfffea578>
   26a78:	4080004c 	andi	r2,r8,1
   26a7c:	103e5b26 	beq	r2,zero,263ec <_gp+0xfffea578>
   26a80:	003e5706 	br	263e0 <_gp+0xfffea56c>
   26a84:	d8c00317 	ldw	r3,12(sp)
   26a88:	00800084 	movi	r2,2
   26a8c:	10c00a16 	blt	r2,r3,26ab8 <_dtoa_r+0x16a4>
   26a90:	d9000c17 	ldw	r4,48(sp)
   26a94:	003e8306 	br	264a4 <_gp+0xfffea630>
   26a98:	04400084 	movi	r17,2
   26a9c:	003b7306 	br	2586c <_gp+0xfffe99f8>
   26aa0:	d9801217 	ldw	r6,72(sp)
   26aa4:	d9800515 	stw	r6,20(sp)
   26aa8:	003cb606 	br	25d84 <_gp+0xfffe9f10>
   26aac:	d9001217 	ldw	r4,72(sp)
   26ab0:	d9000515 	stw	r4,20(sp)
   26ab4:	003c0506 	br	25acc <_gp+0xfffe9c58>
   26ab8:	d9800c17 	ldw	r6,48(sp)
   26abc:	d9800615 	stw	r6,24(sp)
   26ac0:	003e8306 	br	264d0 <_gp+0xfffea65c>
   26ac4:	d9800317 	ldw	r6,12(sp)
   26ac8:	00800084 	movi	r2,2
   26acc:	11800216 	blt	r2,r6,26ad8 <_dtoa_r+0x16c4>
   26ad0:	d8800c17 	ldw	r2,48(sp)
   26ad4:	003da606 	br	26170 <_gp+0xfffea2fc>
   26ad8:	d8800c17 	ldw	r2,48(sp)
   26adc:	d8800615 	stw	r2,24(sp)
   26ae0:	003e7b06 	br	264d0 <_gp+0xfffea65c>
   26ae4:	05000044 	movi	r20,1
   26ae8:	003b0506 	br	25700 <_gp+0xfffe988c>
   26aec:	8009883a 	mov	r4,r16
   26af0:	80001115 	stw	zero,68(r16)
   26af4:	000b883a 	mov	r5,zero
   26af8:	00281e00 	call	281e0 <_Balloc>
   26afc:	d8800715 	stw	r2,28(sp)
   26b00:	d8c00717 	ldw	r3,28(sp)
   26b04:	00bfffc4 	movi	r2,-1
   26b08:	01000044 	movi	r4,1
   26b0c:	d8800c15 	stw	r2,48(sp)
   26b10:	80c01015 	stw	r3,64(r16)
   26b14:	d9000b15 	stw	r4,44(sp)
   26b18:	d8800615 	stw	r2,24(sp)
   26b1c:	d8002215 	stw	zero,136(sp)
   26b20:	003c1906 	br	25b88 <_gp+0xfffe9d14>
   26b24:	193d2926 	beq	r3,r4,25fcc <_gp+0xfffea158>
   26b28:	00c00f04 	movi	r3,60
   26b2c:	1885c83a 	sub	r2,r3,r2
   26b30:	003d7b06 	br	26120 <_gp+0xfffea2ac>
   26b34:	000b883a 	mov	r5,zero
   26b38:	003b1006 	br	2577c <_gp+0xfffe9908>

00026b3c <__sflush_r>:
   26b3c:	2880030b 	ldhu	r2,12(r5)
   26b40:	defffb04 	addi	sp,sp,-20
   26b44:	dcc00315 	stw	r19,12(sp)
   26b48:	dc400115 	stw	r17,4(sp)
   26b4c:	dfc00415 	stw	ra,16(sp)
   26b50:	dc800215 	stw	r18,8(sp)
   26b54:	dc000015 	stw	r16,0(sp)
   26b58:	10c0020c 	andi	r3,r2,8
   26b5c:	2823883a 	mov	r17,r5
   26b60:	2027883a 	mov	r19,r4
   26b64:	1800311e 	bne	r3,zero,26c2c <__sflush_r+0xf0>
   26b68:	28c00117 	ldw	r3,4(r5)
   26b6c:	10820014 	ori	r2,r2,2048
   26b70:	2880030d 	sth	r2,12(r5)
   26b74:	00c04b0e 	bge	zero,r3,26ca4 <__sflush_r+0x168>
   26b78:	8a000a17 	ldw	r8,40(r17)
   26b7c:	40002326 	beq	r8,zero,26c0c <__sflush_r+0xd0>
   26b80:	9c000017 	ldw	r16,0(r19)
   26b84:	10c4000c 	andi	r3,r2,4096
   26b88:	98000015 	stw	zero,0(r19)
   26b8c:	18004826 	beq	r3,zero,26cb0 <__sflush_r+0x174>
   26b90:	89801417 	ldw	r6,80(r17)
   26b94:	10c0010c 	andi	r3,r2,4
   26b98:	18000626 	beq	r3,zero,26bb4 <__sflush_r+0x78>
   26b9c:	88c00117 	ldw	r3,4(r17)
   26ba0:	88800c17 	ldw	r2,48(r17)
   26ba4:	30cdc83a 	sub	r6,r6,r3
   26ba8:	10000226 	beq	r2,zero,26bb4 <__sflush_r+0x78>
   26bac:	88800f17 	ldw	r2,60(r17)
   26bb0:	308dc83a 	sub	r6,r6,r2
   26bb4:	89400717 	ldw	r5,28(r17)
   26bb8:	9809883a 	mov	r4,r19
   26bbc:	000f883a 	mov	r7,zero
   26bc0:	403ee83a 	callr	r8
   26bc4:	00ffffc4 	movi	r3,-1
   26bc8:	10c04426 	beq	r2,r3,26cdc <__sflush_r+0x1a0>
   26bcc:	88c0030b 	ldhu	r3,12(r17)
   26bd0:	89000417 	ldw	r4,16(r17)
   26bd4:	88000115 	stw	zero,4(r17)
   26bd8:	197dffcc 	andi	r5,r3,63487
   26bdc:	8940030d 	sth	r5,12(r17)
   26be0:	89000015 	stw	r4,0(r17)
   26be4:	18c4000c 	andi	r3,r3,4096
   26be8:	18002c1e 	bne	r3,zero,26c9c <__sflush_r+0x160>
   26bec:	89400c17 	ldw	r5,48(r17)
   26bf0:	9c000015 	stw	r16,0(r19)
   26bf4:	28000526 	beq	r5,zero,26c0c <__sflush_r+0xd0>
   26bf8:	88801004 	addi	r2,r17,64
   26bfc:	28800226 	beq	r5,r2,26c08 <__sflush_r+0xcc>
   26c00:	9809883a 	mov	r4,r19
   26c04:	00272940 	call	27294 <_free_r>
   26c08:	88000c15 	stw	zero,48(r17)
   26c0c:	0005883a 	mov	r2,zero
   26c10:	dfc00417 	ldw	ra,16(sp)
   26c14:	dcc00317 	ldw	r19,12(sp)
   26c18:	dc800217 	ldw	r18,8(sp)
   26c1c:	dc400117 	ldw	r17,4(sp)
   26c20:	dc000017 	ldw	r16,0(sp)
   26c24:	dec00504 	addi	sp,sp,20
   26c28:	f800283a 	ret
   26c2c:	2c800417 	ldw	r18,16(r5)
   26c30:	903ff626 	beq	r18,zero,26c0c <_gp+0xfffead98>
   26c34:	2c000017 	ldw	r16,0(r5)
   26c38:	108000cc 	andi	r2,r2,3
   26c3c:	2c800015 	stw	r18,0(r5)
   26c40:	84a1c83a 	sub	r16,r16,r18
   26c44:	1000131e 	bne	r2,zero,26c94 <__sflush_r+0x158>
   26c48:	28800517 	ldw	r2,20(r5)
   26c4c:	88800215 	stw	r2,8(r17)
   26c50:	04000316 	blt	zero,r16,26c60 <__sflush_r+0x124>
   26c54:	003fed06 	br	26c0c <_gp+0xfffead98>
   26c58:	90a5883a 	add	r18,r18,r2
   26c5c:	043feb0e 	bge	zero,r16,26c0c <_gp+0xfffead98>
   26c60:	88800917 	ldw	r2,36(r17)
   26c64:	89400717 	ldw	r5,28(r17)
   26c68:	800f883a 	mov	r7,r16
   26c6c:	900d883a 	mov	r6,r18
   26c70:	9809883a 	mov	r4,r19
   26c74:	103ee83a 	callr	r2
   26c78:	80a1c83a 	sub	r16,r16,r2
   26c7c:	00bff616 	blt	zero,r2,26c58 <_gp+0xfffeade4>
   26c80:	88c0030b 	ldhu	r3,12(r17)
   26c84:	00bfffc4 	movi	r2,-1
   26c88:	18c01014 	ori	r3,r3,64
   26c8c:	88c0030d 	sth	r3,12(r17)
   26c90:	003fdf06 	br	26c10 <_gp+0xfffead9c>
   26c94:	0005883a 	mov	r2,zero
   26c98:	003fec06 	br	26c4c <_gp+0xfffeadd8>
   26c9c:	88801415 	stw	r2,80(r17)
   26ca0:	003fd206 	br	26bec <_gp+0xfffead78>
   26ca4:	28c00f17 	ldw	r3,60(r5)
   26ca8:	00ffb316 	blt	zero,r3,26b78 <_gp+0xfffead04>
   26cac:	003fd706 	br	26c0c <_gp+0xfffead98>
   26cb0:	89400717 	ldw	r5,28(r17)
   26cb4:	000d883a 	mov	r6,zero
   26cb8:	9809883a 	mov	r4,r19
   26cbc:	01c00044 	movi	r7,1
   26cc0:	403ee83a 	callr	r8
   26cc4:	100d883a 	mov	r6,r2
   26cc8:	00bfffc4 	movi	r2,-1
   26ccc:	30801426 	beq	r6,r2,26d20 <__sflush_r+0x1e4>
   26cd0:	8880030b 	ldhu	r2,12(r17)
   26cd4:	8a000a17 	ldw	r8,40(r17)
   26cd8:	003fae06 	br	26b94 <_gp+0xfffead20>
   26cdc:	98c00017 	ldw	r3,0(r19)
   26ce0:	183fba26 	beq	r3,zero,26bcc <_gp+0xfffead58>
   26ce4:	01000744 	movi	r4,29
   26ce8:	19000626 	beq	r3,r4,26d04 <__sflush_r+0x1c8>
   26cec:	01000584 	movi	r4,22
   26cf0:	19000426 	beq	r3,r4,26d04 <__sflush_r+0x1c8>
   26cf4:	88c0030b 	ldhu	r3,12(r17)
   26cf8:	18c01014 	ori	r3,r3,64
   26cfc:	88c0030d 	sth	r3,12(r17)
   26d00:	003fc306 	br	26c10 <_gp+0xfffead9c>
   26d04:	8880030b 	ldhu	r2,12(r17)
   26d08:	88c00417 	ldw	r3,16(r17)
   26d0c:	88000115 	stw	zero,4(r17)
   26d10:	10bdffcc 	andi	r2,r2,63487
   26d14:	8880030d 	sth	r2,12(r17)
   26d18:	88c00015 	stw	r3,0(r17)
   26d1c:	003fb306 	br	26bec <_gp+0xfffead78>
   26d20:	98800017 	ldw	r2,0(r19)
   26d24:	103fea26 	beq	r2,zero,26cd0 <_gp+0xfffeae5c>
   26d28:	00c00744 	movi	r3,29
   26d2c:	10c00226 	beq	r2,r3,26d38 <__sflush_r+0x1fc>
   26d30:	00c00584 	movi	r3,22
   26d34:	10ffd21e 	bne	r2,r3,26c80 <_gp+0xfffeae0c>
   26d38:	9c000015 	stw	r16,0(r19)
   26d3c:	0005883a 	mov	r2,zero
   26d40:	003fb306 	br	26c10 <_gp+0xfffead9c>

00026d44 <_fflush_r>:
   26d44:	defffd04 	addi	sp,sp,-12
   26d48:	dc000115 	stw	r16,4(sp)
   26d4c:	dfc00215 	stw	ra,8(sp)
   26d50:	2021883a 	mov	r16,r4
   26d54:	20000226 	beq	r4,zero,26d60 <_fflush_r+0x1c>
   26d58:	20800e17 	ldw	r2,56(r4)
   26d5c:	10000c26 	beq	r2,zero,26d90 <_fflush_r+0x4c>
   26d60:	2880030f 	ldh	r2,12(r5)
   26d64:	1000051e 	bne	r2,zero,26d7c <_fflush_r+0x38>
   26d68:	0005883a 	mov	r2,zero
   26d6c:	dfc00217 	ldw	ra,8(sp)
   26d70:	dc000117 	ldw	r16,4(sp)
   26d74:	dec00304 	addi	sp,sp,12
   26d78:	f800283a 	ret
   26d7c:	8009883a 	mov	r4,r16
   26d80:	dfc00217 	ldw	ra,8(sp)
   26d84:	dc000117 	ldw	r16,4(sp)
   26d88:	dec00304 	addi	sp,sp,12
   26d8c:	0026b3c1 	jmpi	26b3c <__sflush_r>
   26d90:	d9400015 	stw	r5,0(sp)
   26d94:	00271200 	call	27120 <__sinit>
   26d98:	d9400017 	ldw	r5,0(sp)
   26d9c:	003ff006 	br	26d60 <_gp+0xfffeaeec>

00026da0 <fflush>:
   26da0:	20000526 	beq	r4,zero,26db8 <fflush+0x18>
   26da4:	008000f4 	movhi	r2,3
   26da8:	108fa304 	addi	r2,r2,16012
   26dac:	200b883a 	mov	r5,r4
   26db0:	11000017 	ldw	r4,0(r2)
   26db4:	0026d441 	jmpi	26d44 <_fflush_r>
   26db8:	008000f4 	movhi	r2,3
   26dbc:	108fa204 	addi	r2,r2,16008
   26dc0:	11000017 	ldw	r4,0(r2)
   26dc4:	014000b4 	movhi	r5,2
   26dc8:	295b5104 	addi	r5,r5,27972
   26dcc:	0027b081 	jmpi	27b08 <_fwalk_reent>

00026dd0 <__fp_lock>:
   26dd0:	0005883a 	mov	r2,zero
   26dd4:	f800283a 	ret

00026dd8 <__fp_unlock>:
   26dd8:	0005883a 	mov	r2,zero
   26ddc:	f800283a 	ret

00026de0 <_cleanup_r>:
   26de0:	014000f4 	movhi	r5,3
   26de4:	296c8d04 	addi	r5,r5,-19916
   26de8:	0027b081 	jmpi	27b08 <_fwalk_reent>

00026dec <__sinit.part.1>:
   26dec:	defff704 	addi	sp,sp,-36
   26df0:	00c000b4 	movhi	r3,2
   26df4:	dfc00815 	stw	ra,32(sp)
   26df8:	ddc00715 	stw	r23,28(sp)
   26dfc:	dd800615 	stw	r22,24(sp)
   26e00:	dd400515 	stw	r21,20(sp)
   26e04:	dd000415 	stw	r20,16(sp)
   26e08:	dcc00315 	stw	r19,12(sp)
   26e0c:	dc800215 	stw	r18,8(sp)
   26e10:	dc400115 	stw	r17,4(sp)
   26e14:	dc000015 	stw	r16,0(sp)
   26e18:	18db7804 	addi	r3,r3,28128
   26e1c:	24000117 	ldw	r16,4(r4)
   26e20:	20c00f15 	stw	r3,60(r4)
   26e24:	2080bb04 	addi	r2,r4,748
   26e28:	00c000c4 	movi	r3,3
   26e2c:	20c0b915 	stw	r3,740(r4)
   26e30:	2080ba15 	stw	r2,744(r4)
   26e34:	2000b815 	stw	zero,736(r4)
   26e38:	05c00204 	movi	r23,8
   26e3c:	00800104 	movi	r2,4
   26e40:	2025883a 	mov	r18,r4
   26e44:	b80d883a 	mov	r6,r23
   26e48:	81001704 	addi	r4,r16,92
   26e4c:	000b883a 	mov	r5,zero
   26e50:	80000015 	stw	zero,0(r16)
   26e54:	80000115 	stw	zero,4(r16)
   26e58:	80000215 	stw	zero,8(r16)
   26e5c:	8080030d 	sth	r2,12(r16)
   26e60:	80001915 	stw	zero,100(r16)
   26e64:	8000038d 	sth	zero,14(r16)
   26e68:	80000415 	stw	zero,16(r16)
   26e6c:	80000515 	stw	zero,20(r16)
   26e70:	80000615 	stw	zero,24(r16)
   26e74:	0022d3c0 	call	22d3c <memset>
   26e78:	058000f4 	movhi	r22,3
   26e7c:	94400217 	ldw	r17,8(r18)
   26e80:	054000f4 	movhi	r21,3
   26e84:	050000f4 	movhi	r20,3
   26e88:	04c000f4 	movhi	r19,3
   26e8c:	b5a63204 	addi	r22,r22,-26424
   26e90:	ad664904 	addi	r21,r21,-26332
   26e94:	a5266804 	addi	r20,r20,-26208
   26e98:	9ce67f04 	addi	r19,r19,-26116
   26e9c:	85800815 	stw	r22,32(r16)
   26ea0:	85400915 	stw	r21,36(r16)
   26ea4:	85000a15 	stw	r20,40(r16)
   26ea8:	84c00b15 	stw	r19,44(r16)
   26eac:	84000715 	stw	r16,28(r16)
   26eb0:	00800284 	movi	r2,10
   26eb4:	8880030d 	sth	r2,12(r17)
   26eb8:	00800044 	movi	r2,1
   26ebc:	89001704 	addi	r4,r17,92
   26ec0:	b80d883a 	mov	r6,r23
   26ec4:	000b883a 	mov	r5,zero
   26ec8:	88000015 	stw	zero,0(r17)
   26ecc:	88000115 	stw	zero,4(r17)
   26ed0:	88000215 	stw	zero,8(r17)
   26ed4:	88001915 	stw	zero,100(r17)
   26ed8:	8880038d 	sth	r2,14(r17)
   26edc:	88000415 	stw	zero,16(r17)
   26ee0:	88000515 	stw	zero,20(r17)
   26ee4:	88000615 	stw	zero,24(r17)
   26ee8:	0022d3c0 	call	22d3c <memset>
   26eec:	94000317 	ldw	r16,12(r18)
   26ef0:	00800484 	movi	r2,18
   26ef4:	8c400715 	stw	r17,28(r17)
   26ef8:	8d800815 	stw	r22,32(r17)
   26efc:	8d400915 	stw	r21,36(r17)
   26f00:	8d000a15 	stw	r20,40(r17)
   26f04:	8cc00b15 	stw	r19,44(r17)
   26f08:	8080030d 	sth	r2,12(r16)
   26f0c:	00800084 	movi	r2,2
   26f10:	80000015 	stw	zero,0(r16)
   26f14:	80000115 	stw	zero,4(r16)
   26f18:	80000215 	stw	zero,8(r16)
   26f1c:	80001915 	stw	zero,100(r16)
   26f20:	8080038d 	sth	r2,14(r16)
   26f24:	80000415 	stw	zero,16(r16)
   26f28:	80000515 	stw	zero,20(r16)
   26f2c:	80000615 	stw	zero,24(r16)
   26f30:	81001704 	addi	r4,r16,92
   26f34:	000b883a 	mov	r5,zero
   26f38:	b80d883a 	mov	r6,r23
   26f3c:	0022d3c0 	call	22d3c <memset>
   26f40:	00800044 	movi	r2,1
   26f44:	84000715 	stw	r16,28(r16)
   26f48:	85800815 	stw	r22,32(r16)
   26f4c:	85400915 	stw	r21,36(r16)
   26f50:	85000a15 	stw	r20,40(r16)
   26f54:	84c00b15 	stw	r19,44(r16)
   26f58:	90800e15 	stw	r2,56(r18)
   26f5c:	dfc00817 	ldw	ra,32(sp)
   26f60:	ddc00717 	ldw	r23,28(sp)
   26f64:	dd800617 	ldw	r22,24(sp)
   26f68:	dd400517 	ldw	r21,20(sp)
   26f6c:	dd000417 	ldw	r20,16(sp)
   26f70:	dcc00317 	ldw	r19,12(sp)
   26f74:	dc800217 	ldw	r18,8(sp)
   26f78:	dc400117 	ldw	r17,4(sp)
   26f7c:	dc000017 	ldw	r16,0(sp)
   26f80:	dec00904 	addi	sp,sp,36
   26f84:	f800283a 	ret

00026f88 <__sfmoreglue>:
   26f88:	defffc04 	addi	sp,sp,-16
   26f8c:	dc400115 	stw	r17,4(sp)
   26f90:	2c7fffc4 	addi	r17,r5,-1
   26f94:	8c401a24 	muli	r17,r17,104
   26f98:	dc800215 	stw	r18,8(sp)
   26f9c:	2825883a 	mov	r18,r5
   26fa0:	89401d04 	addi	r5,r17,116
   26fa4:	dc000015 	stw	r16,0(sp)
   26fa8:	dfc00315 	stw	ra,12(sp)
   26fac:	00225940 	call	22594 <_malloc_r>
   26fb0:	1021883a 	mov	r16,r2
   26fb4:	10000726 	beq	r2,zero,26fd4 <__sfmoreglue+0x4c>
   26fb8:	11000304 	addi	r4,r2,12
   26fbc:	10000015 	stw	zero,0(r2)
   26fc0:	14800115 	stw	r18,4(r2)
   26fc4:	11000215 	stw	r4,8(r2)
   26fc8:	000b883a 	mov	r5,zero
   26fcc:	89801a04 	addi	r6,r17,104
   26fd0:	0022d3c0 	call	22d3c <memset>
   26fd4:	8005883a 	mov	r2,r16
   26fd8:	dfc00317 	ldw	ra,12(sp)
   26fdc:	dc800217 	ldw	r18,8(sp)
   26fe0:	dc400117 	ldw	r17,4(sp)
   26fe4:	dc000017 	ldw	r16,0(sp)
   26fe8:	dec00404 	addi	sp,sp,16
   26fec:	f800283a 	ret

00026ff0 <__sfp>:
   26ff0:	008000f4 	movhi	r2,3
   26ff4:	defffb04 	addi	sp,sp,-20
   26ff8:	108fa204 	addi	r2,r2,16008
   26ffc:	dc800215 	stw	r18,8(sp)
   27000:	14800017 	ldw	r18,0(r2)
   27004:	dcc00315 	stw	r19,12(sp)
   27008:	dfc00415 	stw	ra,16(sp)
   2700c:	90800e17 	ldw	r2,56(r18)
   27010:	dc400115 	stw	r17,4(sp)
   27014:	dc000015 	stw	r16,0(sp)
   27018:	2027883a 	mov	r19,r4
   2701c:	1000021e 	bne	r2,zero,27028 <__sfp+0x38>
   27020:	9009883a 	mov	r4,r18
   27024:	0026dec0 	call	26dec <__sinit.part.1>
   27028:	9480b804 	addi	r18,r18,736
   2702c:	047fffc4 	movi	r17,-1
   27030:	91400117 	ldw	r5,4(r18)
   27034:	94000217 	ldw	r16,8(r18)
   27038:	297fffc4 	addi	r5,r5,-1
   2703c:	28000a16 	blt	r5,zero,27068 <__sfp+0x78>
   27040:	8080030f 	ldh	r2,12(r16)
   27044:	10000c26 	beq	r2,zero,27078 <__sfp+0x88>
   27048:	80c01d04 	addi	r3,r16,116
   2704c:	00000206 	br	27058 <__sfp+0x68>
   27050:	18bfe60f 	ldh	r2,-104(r3)
   27054:	10000826 	beq	r2,zero,27078 <__sfp+0x88>
   27058:	297fffc4 	addi	r5,r5,-1
   2705c:	1c3ffd04 	addi	r16,r3,-12
   27060:	18c01a04 	addi	r3,r3,104
   27064:	2c7ffa1e 	bne	r5,r17,27050 <_gp+0xfffeb1dc>
   27068:	90800017 	ldw	r2,0(r18)
   2706c:	10001d26 	beq	r2,zero,270e4 <__sfp+0xf4>
   27070:	1025883a 	mov	r18,r2
   27074:	003fee06 	br	27030 <_gp+0xfffeb1bc>
   27078:	00bfffc4 	movi	r2,-1
   2707c:	8080038d 	sth	r2,14(r16)
   27080:	00800044 	movi	r2,1
   27084:	8080030d 	sth	r2,12(r16)
   27088:	80001915 	stw	zero,100(r16)
   2708c:	80000015 	stw	zero,0(r16)
   27090:	80000215 	stw	zero,8(r16)
   27094:	80000115 	stw	zero,4(r16)
   27098:	80000415 	stw	zero,16(r16)
   2709c:	80000515 	stw	zero,20(r16)
   270a0:	80000615 	stw	zero,24(r16)
   270a4:	81001704 	addi	r4,r16,92
   270a8:	000b883a 	mov	r5,zero
   270ac:	01800204 	movi	r6,8
   270b0:	0022d3c0 	call	22d3c <memset>
   270b4:	8005883a 	mov	r2,r16
   270b8:	80000c15 	stw	zero,48(r16)
   270bc:	80000d15 	stw	zero,52(r16)
   270c0:	80001115 	stw	zero,68(r16)
   270c4:	80001215 	stw	zero,72(r16)
   270c8:	dfc00417 	ldw	ra,16(sp)
   270cc:	dcc00317 	ldw	r19,12(sp)
   270d0:	dc800217 	ldw	r18,8(sp)
   270d4:	dc400117 	ldw	r17,4(sp)
   270d8:	dc000017 	ldw	r16,0(sp)
   270dc:	dec00504 	addi	sp,sp,20
   270e0:	f800283a 	ret
   270e4:	9809883a 	mov	r4,r19
   270e8:	01400104 	movi	r5,4
   270ec:	0026f880 	call	26f88 <__sfmoreglue>
   270f0:	90800015 	stw	r2,0(r18)
   270f4:	103fde1e 	bne	r2,zero,27070 <_gp+0xfffeb1fc>
   270f8:	00800304 	movi	r2,12
   270fc:	98800015 	stw	r2,0(r19)
   27100:	0005883a 	mov	r2,zero
   27104:	003ff006 	br	270c8 <_gp+0xfffeb254>

00027108 <_cleanup>:
   27108:	008000f4 	movhi	r2,3
   2710c:	108fa204 	addi	r2,r2,16008
   27110:	11000017 	ldw	r4,0(r2)
   27114:	014000f4 	movhi	r5,3
   27118:	296c8d04 	addi	r5,r5,-19916
   2711c:	0027b081 	jmpi	27b08 <_fwalk_reent>

00027120 <__sinit>:
   27120:	20800e17 	ldw	r2,56(r4)
   27124:	10000126 	beq	r2,zero,2712c <__sinit+0xc>
   27128:	f800283a 	ret
   2712c:	0026dec1 	jmpi	26dec <__sinit.part.1>

00027130 <__sfp_lock_acquire>:
   27130:	f800283a 	ret

00027134 <__sfp_lock_release>:
   27134:	f800283a 	ret

00027138 <__sinit_lock_acquire>:
   27138:	f800283a 	ret

0002713c <__sinit_lock_release>:
   2713c:	f800283a 	ret

00027140 <__fp_lock_all>:
   27140:	008000f4 	movhi	r2,3
   27144:	108fa304 	addi	r2,r2,16012
   27148:	11000017 	ldw	r4,0(r2)
   2714c:	014000b4 	movhi	r5,2
   27150:	295b7404 	addi	r5,r5,28112
   27154:	0027a441 	jmpi	27a44 <_fwalk>

00027158 <__fp_unlock_all>:
   27158:	008000f4 	movhi	r2,3
   2715c:	108fa304 	addi	r2,r2,16012
   27160:	11000017 	ldw	r4,0(r2)
   27164:	014000b4 	movhi	r5,2
   27168:	295b7604 	addi	r5,r5,28120
   2716c:	0027a441 	jmpi	27a44 <_fwalk>

00027170 <_malloc_trim_r>:
   27170:	defffb04 	addi	sp,sp,-20
   27174:	dcc00315 	stw	r19,12(sp)
   27178:	04c000f4 	movhi	r19,3
   2717c:	dc800215 	stw	r18,8(sp)
   27180:	dc400115 	stw	r17,4(sp)
   27184:	dc000015 	stw	r16,0(sp)
   27188:	dfc00415 	stw	ra,16(sp)
   2718c:	2821883a 	mov	r16,r5
   27190:	9cc8f204 	addi	r19,r19,9160
   27194:	2025883a 	mov	r18,r4
   27198:	002ef740 	call	2ef74 <__malloc_lock>
   2719c:	98800217 	ldw	r2,8(r19)
   271a0:	14400117 	ldw	r17,4(r2)
   271a4:	00bfff04 	movi	r2,-4
   271a8:	88a2703a 	and	r17,r17,r2
   271ac:	8c21c83a 	sub	r16,r17,r16
   271b0:	8403fbc4 	addi	r16,r16,4079
   271b4:	8020d33a 	srli	r16,r16,12
   271b8:	0083ffc4 	movi	r2,4095
   271bc:	843fffc4 	addi	r16,r16,-1
   271c0:	8020933a 	slli	r16,r16,12
   271c4:	1400060e 	bge	r2,r16,271e0 <_malloc_trim_r+0x70>
   271c8:	9009883a 	mov	r4,r18
   271cc:	000b883a 	mov	r5,zero
   271d0:	0022fa40 	call	22fa4 <_sbrk_r>
   271d4:	98c00217 	ldw	r3,8(r19)
   271d8:	1c47883a 	add	r3,r3,r17
   271dc:	10c00a26 	beq	r2,r3,27208 <_malloc_trim_r+0x98>
   271e0:	9009883a 	mov	r4,r18
   271e4:	002ef940 	call	2ef94 <__malloc_unlock>
   271e8:	0005883a 	mov	r2,zero
   271ec:	dfc00417 	ldw	ra,16(sp)
   271f0:	dcc00317 	ldw	r19,12(sp)
   271f4:	dc800217 	ldw	r18,8(sp)
   271f8:	dc400117 	ldw	r17,4(sp)
   271fc:	dc000017 	ldw	r16,0(sp)
   27200:	dec00504 	addi	sp,sp,20
   27204:	f800283a 	ret
   27208:	9009883a 	mov	r4,r18
   2720c:	040bc83a 	sub	r5,zero,r16
   27210:	0022fa40 	call	22fa4 <_sbrk_r>
   27214:	00ffffc4 	movi	r3,-1
   27218:	10c00d26 	beq	r2,r3,27250 <_malloc_trim_r+0xe0>
   2721c:	00c000f4 	movhi	r3,3
   27220:	18d86204 	addi	r3,r3,24968
   27224:	18800017 	ldw	r2,0(r3)
   27228:	99000217 	ldw	r4,8(r19)
   2722c:	8c23c83a 	sub	r17,r17,r16
   27230:	8c400054 	ori	r17,r17,1
   27234:	1421c83a 	sub	r16,r2,r16
   27238:	24400115 	stw	r17,4(r4)
   2723c:	9009883a 	mov	r4,r18
   27240:	1c000015 	stw	r16,0(r3)
   27244:	002ef940 	call	2ef94 <__malloc_unlock>
   27248:	00800044 	movi	r2,1
   2724c:	003fe706 	br	271ec <_gp+0xfffeb378>
   27250:	9009883a 	mov	r4,r18
   27254:	000b883a 	mov	r5,zero
   27258:	0022fa40 	call	22fa4 <_sbrk_r>
   2725c:	99000217 	ldw	r4,8(r19)
   27260:	014003c4 	movi	r5,15
   27264:	1107c83a 	sub	r3,r2,r4
   27268:	28ffdd0e 	bge	r5,r3,271e0 <_gp+0xfffeb36c>
   2726c:	014000f4 	movhi	r5,3
   27270:	294fa004 	addi	r5,r5,16000
   27274:	29400017 	ldw	r5,0(r5)
   27278:	18c00054 	ori	r3,r3,1
   2727c:	20c00115 	stw	r3,4(r4)
   27280:	00c000f4 	movhi	r3,3
   27284:	1145c83a 	sub	r2,r2,r5
   27288:	18d86204 	addi	r3,r3,24968
   2728c:	18800015 	stw	r2,0(r3)
   27290:	003fd306 	br	271e0 <_gp+0xfffeb36c>

00027294 <_free_r>:
   27294:	28004c26 	beq	r5,zero,273c8 <_free_r+0x134>
   27298:	defffd04 	addi	sp,sp,-12
   2729c:	dc400115 	stw	r17,4(sp)
   272a0:	dc000015 	stw	r16,0(sp)
   272a4:	2023883a 	mov	r17,r4
   272a8:	2821883a 	mov	r16,r5
   272ac:	dfc00215 	stw	ra,8(sp)
   272b0:	002ef740 	call	2ef74 <__malloc_lock>
   272b4:	813fff17 	ldw	r4,-4(r16)
   272b8:	00bfff84 	movi	r2,-2
   272bc:	024000f4 	movhi	r9,3
   272c0:	81bffe04 	addi	r6,r16,-8
   272c4:	2084703a 	and	r2,r4,r2
   272c8:	4a48f204 	addi	r9,r9,9160
   272cc:	308b883a 	add	r5,r6,r2
   272d0:	2a000117 	ldw	r8,4(r5)
   272d4:	49c00217 	ldw	r7,8(r9)
   272d8:	00ffff04 	movi	r3,-4
   272dc:	40c6703a 	and	r3,r8,r3
   272e0:	39405326 	beq	r7,r5,27430 <_free_r+0x19c>
   272e4:	28c00115 	stw	r3,4(r5)
   272e8:	2100004c 	andi	r4,r4,1
   272ec:	2000091e 	bne	r4,zero,27314 <_free_r+0x80>
   272f0:	81fffe17 	ldw	r7,-8(r16)
   272f4:	4a000204 	addi	r8,r9,8
   272f8:	31cdc83a 	sub	r6,r6,r7
   272fc:	31000217 	ldw	r4,8(r6)
   27300:	11c5883a 	add	r2,r2,r7
   27304:	22006126 	beq	r4,r8,2748c <_free_r+0x1f8>
   27308:	31c00317 	ldw	r7,12(r6)
   2730c:	21c00315 	stw	r7,12(r4)
   27310:	39000215 	stw	r4,8(r7)
   27314:	28c9883a 	add	r4,r5,r3
   27318:	21c00117 	ldw	r7,4(r4)
   2731c:	39c0004c 	andi	r7,r7,1
   27320:	38000d1e 	bne	r7,zero,27358 <_free_r+0xc4>
   27324:	29000217 	ldw	r4,8(r5)
   27328:	10c5883a 	add	r2,r2,r3
   2732c:	00c000f4 	movhi	r3,3
   27330:	18c8f404 	addi	r3,r3,9168
   27334:	20c07526 	beq	r4,r3,2750c <_free_r+0x278>
   27338:	29c00317 	ldw	r7,12(r5)
   2733c:	11400054 	ori	r5,r2,1
   27340:	3087883a 	add	r3,r6,r2
   27344:	21c00315 	stw	r7,12(r4)
   27348:	39000215 	stw	r4,8(r7)
   2734c:	31400115 	stw	r5,4(r6)
   27350:	18800015 	stw	r2,0(r3)
   27354:	00000406 	br	27368 <_free_r+0xd4>
   27358:	10c00054 	ori	r3,r2,1
   2735c:	30c00115 	stw	r3,4(r6)
   27360:	3087883a 	add	r3,r6,r2
   27364:	18800015 	stw	r2,0(r3)
   27368:	00c07fc4 	movi	r3,511
   2736c:	18801736 	bltu	r3,r2,273cc <_free_r+0x138>
   27370:	1004d0fa 	srli	r2,r2,3
   27374:	01400044 	movi	r5,1
   27378:	49000117 	ldw	r4,4(r9)
   2737c:	1087883a 	add	r3,r2,r2
   27380:	18c7883a 	add	r3,r3,r3
   27384:	1005d0ba 	srai	r2,r2,2
   27388:	18c7883a 	add	r3,r3,r3
   2738c:	1a47883a 	add	r3,r3,r9
   27390:	19c00217 	ldw	r7,8(r3)
   27394:	2884983a 	sll	r2,r5,r2
   27398:	30c00315 	stw	r3,12(r6)
   2739c:	31c00215 	stw	r7,8(r6)
   273a0:	1104b03a 	or	r2,r2,r4
   273a4:	19800215 	stw	r6,8(r3)
   273a8:	48800115 	stw	r2,4(r9)
   273ac:	39800315 	stw	r6,12(r7)
   273b0:	8809883a 	mov	r4,r17
   273b4:	dfc00217 	ldw	ra,8(sp)
   273b8:	dc400117 	ldw	r17,4(sp)
   273bc:	dc000017 	ldw	r16,0(sp)
   273c0:	dec00304 	addi	sp,sp,12
   273c4:	002ef941 	jmpi	2ef94 <__malloc_unlock>
   273c8:	f800283a 	ret
   273cc:	1006d27a 	srli	r3,r2,9
   273d0:	01000104 	movi	r4,4
   273d4:	20c04036 	bltu	r4,r3,274d8 <_free_r+0x244>
   273d8:	1006d1ba 	srli	r3,r2,6
   273dc:	19400e04 	addi	r5,r3,56
   273e0:	2947883a 	add	r3,r5,r5
   273e4:	18c7883a 	add	r3,r3,r3
   273e8:	18c7883a 	add	r3,r3,r3
   273ec:	1a49883a 	add	r4,r3,r9
   273f0:	20c00217 	ldw	r3,8(r4)
   273f4:	01c000f4 	movhi	r7,3
   273f8:	39c8f204 	addi	r7,r7,9160
   273fc:	19003b26 	beq	r3,r4,274ec <_free_r+0x258>
   27400:	01ffff04 	movi	r7,-4
   27404:	19400117 	ldw	r5,4(r3)
   27408:	29ca703a 	and	r5,r5,r7
   2740c:	1140022e 	bgeu	r2,r5,27418 <_free_r+0x184>
   27410:	18c00217 	ldw	r3,8(r3)
   27414:	20fffb1e 	bne	r4,r3,27404 <_gp+0xfffeb590>
   27418:	18800317 	ldw	r2,12(r3)
   2741c:	30800315 	stw	r2,12(r6)
   27420:	30c00215 	stw	r3,8(r6)
   27424:	11800215 	stw	r6,8(r2)
   27428:	19800315 	stw	r6,12(r3)
   2742c:	003fe006 	br	273b0 <_gp+0xfffeb53c>
   27430:	2100004c 	andi	r4,r4,1
   27434:	1885883a 	add	r2,r3,r2
   27438:	2000071e 	bne	r4,zero,27458 <_free_r+0x1c4>
   2743c:	817ffe17 	ldw	r5,-8(r16)
   27440:	314dc83a 	sub	r6,r6,r5
   27444:	30c00317 	ldw	r3,12(r6)
   27448:	31000217 	ldw	r4,8(r6)
   2744c:	1145883a 	add	r2,r2,r5
   27450:	20c00315 	stw	r3,12(r4)
   27454:	19000215 	stw	r4,8(r3)
   27458:	10c00054 	ori	r3,r2,1
   2745c:	30c00115 	stw	r3,4(r6)
   27460:	00c000f4 	movhi	r3,3
   27464:	18cfa104 	addi	r3,r3,16004
   27468:	18c00017 	ldw	r3,0(r3)
   2746c:	49800215 	stw	r6,8(r9)
   27470:	10ffcf36 	bltu	r2,r3,273b0 <_gp+0xfffeb53c>
   27474:	008000f4 	movhi	r2,3
   27478:	10985604 	addi	r2,r2,24920
   2747c:	11400017 	ldw	r5,0(r2)
   27480:	8809883a 	mov	r4,r17
   27484:	00271700 	call	27170 <_malloc_trim_r>
   27488:	003fc906 	br	273b0 <_gp+0xfffeb53c>
   2748c:	28c9883a 	add	r4,r5,r3
   27490:	21000117 	ldw	r4,4(r4)
   27494:	2100004c 	andi	r4,r4,1
   27498:	20000a1e 	bne	r4,zero,274c4 <_free_r+0x230>
   2749c:	29000317 	ldw	r4,12(r5)
   274a0:	29400217 	ldw	r5,8(r5)
   274a4:	10c5883a 	add	r2,r2,r3
   274a8:	10c00054 	ori	r3,r2,1
   274ac:	29000315 	stw	r4,12(r5)
   274b0:	21400215 	stw	r5,8(r4)
   274b4:	30c00115 	stw	r3,4(r6)
   274b8:	308d883a 	add	r6,r6,r2
   274bc:	30800015 	stw	r2,0(r6)
   274c0:	003fbb06 	br	273b0 <_gp+0xfffeb53c>
   274c4:	10c00054 	ori	r3,r2,1
   274c8:	30c00115 	stw	r3,4(r6)
   274cc:	308d883a 	add	r6,r6,r2
   274d0:	30800015 	stw	r2,0(r6)
   274d4:	003fb606 	br	273b0 <_gp+0xfffeb53c>
   274d8:	01000504 	movi	r4,20
   274dc:	20c01436 	bltu	r4,r3,27530 <_free_r+0x29c>
   274e0:	194016c4 	addi	r5,r3,91
   274e4:	2947883a 	add	r3,r5,r5
   274e8:	003fbe06 	br	273e4 <_gp+0xfffeb570>
   274ec:	280bd0ba 	srai	r5,r5,2
   274f0:	00800044 	movi	r2,1
   274f4:	39000117 	ldw	r4,4(r7)
   274f8:	114a983a 	sll	r5,r2,r5
   274fc:	1805883a 	mov	r2,r3
   27500:	2908b03a 	or	r4,r5,r4
   27504:	39000115 	stw	r4,4(r7)
   27508:	003fc406 	br	2741c <_gp+0xfffeb5a8>
   2750c:	49800515 	stw	r6,20(r9)
   27510:	49800415 	stw	r6,16(r9)
   27514:	10c00054 	ori	r3,r2,1
   27518:	31000315 	stw	r4,12(r6)
   2751c:	31000215 	stw	r4,8(r6)
   27520:	30c00115 	stw	r3,4(r6)
   27524:	308d883a 	add	r6,r6,r2
   27528:	30800015 	stw	r2,0(r6)
   2752c:	003fa006 	br	273b0 <_gp+0xfffeb53c>
   27530:	01001504 	movi	r4,84
   27534:	20c00436 	bltu	r4,r3,27548 <_free_r+0x2b4>
   27538:	1006d33a 	srli	r3,r2,12
   2753c:	19401b84 	addi	r5,r3,110
   27540:	2947883a 	add	r3,r5,r5
   27544:	003fa706 	br	273e4 <_gp+0xfffeb570>
   27548:	01005504 	movi	r4,340
   2754c:	20c00436 	bltu	r4,r3,27560 <_free_r+0x2cc>
   27550:	1006d3fa 	srli	r3,r2,15
   27554:	19401dc4 	addi	r5,r3,119
   27558:	2947883a 	add	r3,r5,r5
   2755c:	003fa106 	br	273e4 <_gp+0xfffeb570>
   27560:	01015504 	movi	r4,1364
   27564:	20c00436 	bltu	r4,r3,27578 <_free_r+0x2e4>
   27568:	1006d4ba 	srli	r3,r2,18
   2756c:	19401f04 	addi	r5,r3,124
   27570:	2947883a 	add	r3,r5,r5
   27574:	003f9b06 	br	273e4 <_gp+0xfffeb570>
   27578:	00c03f04 	movi	r3,252
   2757c:	01401f84 	movi	r5,126
   27580:	003f9806 	br	273e4 <_gp+0xfffeb570>

00027584 <__sfvwrite_r>:
   27584:	30800217 	ldw	r2,8(r6)
   27588:	10006726 	beq	r2,zero,27728 <__sfvwrite_r+0x1a4>
   2758c:	defff404 	addi	sp,sp,-48
   27590:	dd000615 	stw	r20,24(sp)
   27594:	2029883a 	mov	r20,r4
   27598:	2900030b 	ldhu	r4,12(r5)
   2759c:	ddc00915 	stw	r23,36(sp)
   275a0:	dc000215 	stw	r16,8(sp)
   275a4:	dfc00b15 	stw	ra,44(sp)
   275a8:	df000a15 	stw	fp,40(sp)
   275ac:	dd800815 	stw	r22,32(sp)
   275b0:	dd400715 	stw	r21,28(sp)
   275b4:	dcc00515 	stw	r19,20(sp)
   275b8:	dc800415 	stw	r18,16(sp)
   275bc:	dc400315 	stw	r17,12(sp)
   275c0:	2080020c 	andi	r2,r4,8
   275c4:	2821883a 	mov	r16,r5
   275c8:	302f883a 	mov	r23,r6
   275cc:	10002726 	beq	r2,zero,2766c <__sfvwrite_r+0xe8>
   275d0:	28800417 	ldw	r2,16(r5)
   275d4:	10002526 	beq	r2,zero,2766c <__sfvwrite_r+0xe8>
   275d8:	2080008c 	andi	r2,r4,2
   275dc:	bc400017 	ldw	r17,0(r23)
   275e0:	10002a26 	beq	r2,zero,2768c <__sfvwrite_r+0x108>
   275e4:	05600034 	movhi	r21,32768
   275e8:	0027883a 	mov	r19,zero
   275ec:	0025883a 	mov	r18,zero
   275f0:	ad7f0004 	addi	r21,r21,-1024
   275f4:	980d883a 	mov	r6,r19
   275f8:	a009883a 	mov	r4,r20
   275fc:	90004626 	beq	r18,zero,27718 <__sfvwrite_r+0x194>
   27600:	900f883a 	mov	r7,r18
   27604:	81400717 	ldw	r5,28(r16)
   27608:	ac80022e 	bgeu	r21,r18,27614 <__sfvwrite_r+0x90>
   2760c:	01e00034 	movhi	r7,32768
   27610:	39ff0004 	addi	r7,r7,-1024
   27614:	80800917 	ldw	r2,36(r16)
   27618:	103ee83a 	callr	r2
   2761c:	0080520e 	bge	zero,r2,27768 <__sfvwrite_r+0x1e4>
   27620:	b8c00217 	ldw	r3,8(r23)
   27624:	98a7883a 	add	r19,r19,r2
   27628:	90a5c83a 	sub	r18,r18,r2
   2762c:	1885c83a 	sub	r2,r3,r2
   27630:	b8800215 	stw	r2,8(r23)
   27634:	103fef1e 	bne	r2,zero,275f4 <_gp+0xfffeb780>
   27638:	0005883a 	mov	r2,zero
   2763c:	dfc00b17 	ldw	ra,44(sp)
   27640:	df000a17 	ldw	fp,40(sp)
   27644:	ddc00917 	ldw	r23,36(sp)
   27648:	dd800817 	ldw	r22,32(sp)
   2764c:	dd400717 	ldw	r21,28(sp)
   27650:	dd000617 	ldw	r20,24(sp)
   27654:	dcc00517 	ldw	r19,20(sp)
   27658:	dc800417 	ldw	r18,16(sp)
   2765c:	dc400317 	ldw	r17,12(sp)
   27660:	dc000217 	ldw	r16,8(sp)
   27664:	dec00c04 	addi	sp,sp,48
   27668:	f800283a 	ret
   2766c:	a009883a 	mov	r4,r20
   27670:	800b883a 	mov	r5,r16
   27674:	00250c00 	call	250c0 <__swsetup_r>
   27678:	1000ec1e 	bne	r2,zero,27a2c <__sfvwrite_r+0x4a8>
   2767c:	8100030b 	ldhu	r4,12(r16)
   27680:	bc400017 	ldw	r17,0(r23)
   27684:	2080008c 	andi	r2,r4,2
   27688:	103fd61e 	bne	r2,zero,275e4 <_gp+0xfffeb770>
   2768c:	2080004c 	andi	r2,r4,1
   27690:	10003a1e 	bne	r2,zero,2777c <__sfvwrite_r+0x1f8>
   27694:	0039883a 	mov	fp,zero
   27698:	0025883a 	mov	r18,zero
   2769c:	90001a26 	beq	r18,zero,27708 <__sfvwrite_r+0x184>
   276a0:	2080800c 	andi	r2,r4,512
   276a4:	85800217 	ldw	r22,8(r16)
   276a8:	10007626 	beq	r2,zero,27884 <__sfvwrite_r+0x300>
   276ac:	b027883a 	mov	r19,r22
   276b0:	95809436 	bltu	r18,r22,27904 <__sfvwrite_r+0x380>
   276b4:	2081200c 	andi	r2,r4,1152
   276b8:	10009f1e 	bne	r2,zero,27938 <__sfvwrite_r+0x3b4>
   276bc:	81000017 	ldw	r4,0(r16)
   276c0:	e00b883a 	mov	r5,fp
   276c4:	980d883a 	mov	r6,r19
   276c8:	00280840 	call	28084 <memmove>
   276cc:	81000217 	ldw	r4,8(r16)
   276d0:	81400017 	ldw	r5,0(r16)
   276d4:	9005883a 	mov	r2,r18
   276d8:	2587c83a 	sub	r3,r4,r22
   276dc:	2ce7883a 	add	r19,r5,r19
   276e0:	80c00215 	stw	r3,8(r16)
   276e4:	84c00015 	stw	r19,0(r16)
   276e8:	b8c00217 	ldw	r3,8(r23)
   276ec:	e0b9883a 	add	fp,fp,r2
   276f0:	90a5c83a 	sub	r18,r18,r2
   276f4:	1885c83a 	sub	r2,r3,r2
   276f8:	b8800215 	stw	r2,8(r23)
   276fc:	103fce26 	beq	r2,zero,27638 <_gp+0xfffeb7c4>
   27700:	8100030b 	ldhu	r4,12(r16)
   27704:	903fe61e 	bne	r18,zero,276a0 <_gp+0xfffeb82c>
   27708:	8f000017 	ldw	fp,0(r17)
   2770c:	8c800117 	ldw	r18,4(r17)
   27710:	8c400204 	addi	r17,r17,8
   27714:	003fe106 	br	2769c <_gp+0xfffeb828>
   27718:	8cc00017 	ldw	r19,0(r17)
   2771c:	8c800117 	ldw	r18,4(r17)
   27720:	8c400204 	addi	r17,r17,8
   27724:	003fb306 	br	275f4 <_gp+0xfffeb780>
   27728:	0005883a 	mov	r2,zero
   2772c:	f800283a 	ret
   27730:	00a00034 	movhi	r2,32768
   27734:	10bfffc4 	addi	r2,r2,-1
   27738:	9009883a 	mov	r4,r18
   2773c:	1480012e 	bgeu	r2,r18,27744 <__sfvwrite_r+0x1c0>
   27740:	1009883a 	mov	r4,r2
   27744:	980b883a 	mov	r5,r19
   27748:	00224ac0 	call	224ac <__divsi3>
   2774c:	81400717 	ldw	r5,28(r16)
   27750:	80c00917 	ldw	r3,36(r16)
   27754:	988f383a 	mul	r7,r19,r2
   27758:	a009883a 	mov	r4,r20
   2775c:	e00d883a 	mov	r6,fp
   27760:	183ee83a 	callr	r3
   27764:	00bfe016 	blt	zero,r2,276e8 <_gp+0xfffeb874>
   27768:	8080030b 	ldhu	r2,12(r16)
   2776c:	10801014 	ori	r2,r2,64
   27770:	8080030d 	sth	r2,12(r16)
   27774:	00bfffc4 	movi	r2,-1
   27778:	003fb006 	br	2763c <_gp+0xfffeb7c8>
   2777c:	0027883a 	mov	r19,zero
   27780:	0011883a 	mov	r8,zero
   27784:	0039883a 	mov	fp,zero
   27788:	0025883a 	mov	r18,zero
   2778c:	90001f26 	beq	r18,zero,2780c <__sfvwrite_r+0x288>
   27790:	40006026 	beq	r8,zero,27914 <__sfvwrite_r+0x390>
   27794:	982b883a 	mov	r21,r19
   27798:	94c0012e 	bgeu	r18,r19,277a0 <__sfvwrite_r+0x21c>
   2779c:	902b883a 	mov	r21,r18
   277a0:	81000017 	ldw	r4,0(r16)
   277a4:	80800417 	ldw	r2,16(r16)
   277a8:	a82d883a 	mov	r22,r21
   277ac:	81800217 	ldw	r6,8(r16)
   277b0:	81c00517 	ldw	r7,20(r16)
   277b4:	1100022e 	bgeu	r2,r4,277c0 <__sfvwrite_r+0x23c>
   277b8:	31c7883a 	add	r3,r6,r7
   277bc:	1d401816 	blt	r3,r21,27820 <__sfvwrite_r+0x29c>
   277c0:	a9c04416 	blt	r21,r7,278d4 <__sfvwrite_r+0x350>
   277c4:	80800917 	ldw	r2,36(r16)
   277c8:	81400717 	ldw	r5,28(r16)
   277cc:	a009883a 	mov	r4,r20
   277d0:	da000115 	stw	r8,4(sp)
   277d4:	e00d883a 	mov	r6,fp
   277d8:	103ee83a 	callr	r2
   277dc:	102d883a 	mov	r22,r2
   277e0:	da000117 	ldw	r8,4(sp)
   277e4:	00bfe00e 	bge	zero,r2,27768 <_gp+0xfffeb8f4>
   277e8:	9da7c83a 	sub	r19,r19,r22
   277ec:	98001f26 	beq	r19,zero,2786c <__sfvwrite_r+0x2e8>
   277f0:	b8800217 	ldw	r2,8(r23)
   277f4:	e5b9883a 	add	fp,fp,r22
   277f8:	95a5c83a 	sub	r18,r18,r22
   277fc:	15adc83a 	sub	r22,r2,r22
   27800:	bd800215 	stw	r22,8(r23)
   27804:	b03f8c26 	beq	r22,zero,27638 <_gp+0xfffeb7c4>
   27808:	903fe11e 	bne	r18,zero,27790 <_gp+0xfffeb91c>
   2780c:	8f000017 	ldw	fp,0(r17)
   27810:	8c800117 	ldw	r18,4(r17)
   27814:	0011883a 	mov	r8,zero
   27818:	8c400204 	addi	r17,r17,8
   2781c:	003fdb06 	br	2778c <_gp+0xfffeb918>
   27820:	180d883a 	mov	r6,r3
   27824:	e00b883a 	mov	r5,fp
   27828:	da000115 	stw	r8,4(sp)
   2782c:	d8c00015 	stw	r3,0(sp)
   27830:	00280840 	call	28084 <memmove>
   27834:	d8c00017 	ldw	r3,0(sp)
   27838:	80800017 	ldw	r2,0(r16)
   2783c:	a009883a 	mov	r4,r20
   27840:	800b883a 	mov	r5,r16
   27844:	10c5883a 	add	r2,r2,r3
   27848:	80800015 	stw	r2,0(r16)
   2784c:	d8c00015 	stw	r3,0(sp)
   27850:	0026d440 	call	26d44 <_fflush_r>
   27854:	d8c00017 	ldw	r3,0(sp)
   27858:	da000117 	ldw	r8,4(sp)
   2785c:	103fc21e 	bne	r2,zero,27768 <_gp+0xfffeb8f4>
   27860:	182d883a 	mov	r22,r3
   27864:	9da7c83a 	sub	r19,r19,r22
   27868:	983fe11e 	bne	r19,zero,277f0 <_gp+0xfffeb97c>
   2786c:	a009883a 	mov	r4,r20
   27870:	800b883a 	mov	r5,r16
   27874:	0026d440 	call	26d44 <_fflush_r>
   27878:	103fbb1e 	bne	r2,zero,27768 <_gp+0xfffeb8f4>
   2787c:	0011883a 	mov	r8,zero
   27880:	003fdb06 	br	277f0 <_gp+0xfffeb97c>
   27884:	81000017 	ldw	r4,0(r16)
   27888:	80800417 	ldw	r2,16(r16)
   2788c:	11000236 	bltu	r2,r4,27898 <__sfvwrite_r+0x314>
   27890:	84c00517 	ldw	r19,20(r16)
   27894:	94ffa62e 	bgeu	r18,r19,27730 <_gp+0xfffeb8bc>
   27898:	9027883a 	mov	r19,r18
   2789c:	b480012e 	bgeu	r22,r18,278a4 <__sfvwrite_r+0x320>
   278a0:	b027883a 	mov	r19,r22
   278a4:	e00b883a 	mov	r5,fp
   278a8:	980d883a 	mov	r6,r19
   278ac:	00280840 	call	28084 <memmove>
   278b0:	80800217 	ldw	r2,8(r16)
   278b4:	80c00017 	ldw	r3,0(r16)
   278b8:	14c5c83a 	sub	r2,r2,r19
   278bc:	1cc7883a 	add	r3,r3,r19
   278c0:	80800215 	stw	r2,8(r16)
   278c4:	80c00015 	stw	r3,0(r16)
   278c8:	10004326 	beq	r2,zero,279d8 <__sfvwrite_r+0x454>
   278cc:	9805883a 	mov	r2,r19
   278d0:	003f8506 	br	276e8 <_gp+0xfffeb874>
   278d4:	a80d883a 	mov	r6,r21
   278d8:	e00b883a 	mov	r5,fp
   278dc:	da000115 	stw	r8,4(sp)
   278e0:	00280840 	call	28084 <memmove>
   278e4:	80800217 	ldw	r2,8(r16)
   278e8:	80c00017 	ldw	r3,0(r16)
   278ec:	da000117 	ldw	r8,4(sp)
   278f0:	1545c83a 	sub	r2,r2,r21
   278f4:	1d6b883a 	add	r21,r3,r21
   278f8:	80800215 	stw	r2,8(r16)
   278fc:	85400015 	stw	r21,0(r16)
   27900:	003fb906 	br	277e8 <_gp+0xfffeb974>
   27904:	81000017 	ldw	r4,0(r16)
   27908:	902d883a 	mov	r22,r18
   2790c:	9027883a 	mov	r19,r18
   27910:	003f6b06 	br	276c0 <_gp+0xfffeb84c>
   27914:	e009883a 	mov	r4,fp
   27918:	01400284 	movi	r5,10
   2791c:	900d883a 	mov	r6,r18
   27920:	0027e640 	call	27e64 <memchr>
   27924:	10003e26 	beq	r2,zero,27a20 <__sfvwrite_r+0x49c>
   27928:	10800044 	addi	r2,r2,1
   2792c:	1727c83a 	sub	r19,r2,fp
   27930:	02000044 	movi	r8,1
   27934:	003f9706 	br	27794 <_gp+0xfffeb920>
   27938:	80800517 	ldw	r2,20(r16)
   2793c:	81400417 	ldw	r5,16(r16)
   27940:	80c00017 	ldw	r3,0(r16)
   27944:	10a7883a 	add	r19,r2,r2
   27948:	9885883a 	add	r2,r19,r2
   2794c:	1026d7fa 	srli	r19,r2,31
   27950:	196bc83a 	sub	r21,r3,r5
   27954:	a9800044 	addi	r6,r21,1
   27958:	9885883a 	add	r2,r19,r2
   2795c:	1027d07a 	srai	r19,r2,1
   27960:	3485883a 	add	r2,r6,r18
   27964:	980d883a 	mov	r6,r19
   27968:	9880022e 	bgeu	r19,r2,27974 <__sfvwrite_r+0x3f0>
   2796c:	1027883a 	mov	r19,r2
   27970:	100d883a 	mov	r6,r2
   27974:	2101000c 	andi	r4,r4,1024
   27978:	20001c26 	beq	r4,zero,279ec <__sfvwrite_r+0x468>
   2797c:	a009883a 	mov	r4,r20
   27980:	300b883a 	mov	r5,r6
   27984:	00225940 	call	22594 <_malloc_r>
   27988:	102d883a 	mov	r22,r2
   2798c:	10002926 	beq	r2,zero,27a34 <__sfvwrite_r+0x4b0>
   27990:	81400417 	ldw	r5,16(r16)
   27994:	1009883a 	mov	r4,r2
   27998:	a80d883a 	mov	r6,r21
   2799c:	0027f4c0 	call	27f4c <memcpy>
   279a0:	8080030b 	ldhu	r2,12(r16)
   279a4:	00fedfc4 	movi	r3,-1153
   279a8:	10c4703a 	and	r2,r2,r3
   279ac:	10802014 	ori	r2,r2,128
   279b0:	8080030d 	sth	r2,12(r16)
   279b4:	b549883a 	add	r4,r22,r21
   279b8:	9d4bc83a 	sub	r5,r19,r21
   279bc:	85800415 	stw	r22,16(r16)
   279c0:	84c00515 	stw	r19,20(r16)
   279c4:	81000015 	stw	r4,0(r16)
   279c8:	902d883a 	mov	r22,r18
   279cc:	81400215 	stw	r5,8(r16)
   279d0:	9027883a 	mov	r19,r18
   279d4:	003f3a06 	br	276c0 <_gp+0xfffeb84c>
   279d8:	a009883a 	mov	r4,r20
   279dc:	800b883a 	mov	r5,r16
   279e0:	0026d440 	call	26d44 <_fflush_r>
   279e4:	103fb926 	beq	r2,zero,278cc <_gp+0xfffeba58>
   279e8:	003f5f06 	br	27768 <_gp+0xfffeb8f4>
   279ec:	a009883a 	mov	r4,r20
   279f0:	00292ec0 	call	292ec <_realloc_r>
   279f4:	102d883a 	mov	r22,r2
   279f8:	103fee1e 	bne	r2,zero,279b4 <_gp+0xfffebb40>
   279fc:	81400417 	ldw	r5,16(r16)
   27a00:	a009883a 	mov	r4,r20
   27a04:	00272940 	call	27294 <_free_r>
   27a08:	8080030b 	ldhu	r2,12(r16)
   27a0c:	00ffdfc4 	movi	r3,-129
   27a10:	1884703a 	and	r2,r3,r2
   27a14:	00c00304 	movi	r3,12
   27a18:	a0c00015 	stw	r3,0(r20)
   27a1c:	003f5306 	br	2776c <_gp+0xfffeb8f8>
   27a20:	94c00044 	addi	r19,r18,1
   27a24:	02000044 	movi	r8,1
   27a28:	003f5a06 	br	27794 <_gp+0xfffeb920>
   27a2c:	00bfffc4 	movi	r2,-1
   27a30:	003f0206 	br	2763c <_gp+0xfffeb7c8>
   27a34:	00800304 	movi	r2,12
   27a38:	a0800015 	stw	r2,0(r20)
   27a3c:	8080030b 	ldhu	r2,12(r16)
   27a40:	003f4a06 	br	2776c <_gp+0xfffeb8f8>

00027a44 <_fwalk>:
   27a44:	defff704 	addi	sp,sp,-36
   27a48:	dd000415 	stw	r20,16(sp)
   27a4c:	dfc00815 	stw	ra,32(sp)
   27a50:	ddc00715 	stw	r23,28(sp)
   27a54:	dd800615 	stw	r22,24(sp)
   27a58:	dd400515 	stw	r21,20(sp)
   27a5c:	dcc00315 	stw	r19,12(sp)
   27a60:	dc800215 	stw	r18,8(sp)
   27a64:	dc400115 	stw	r17,4(sp)
   27a68:	dc000015 	stw	r16,0(sp)
   27a6c:	2500b804 	addi	r20,r4,736
   27a70:	a0002326 	beq	r20,zero,27b00 <_fwalk+0xbc>
   27a74:	282b883a 	mov	r21,r5
   27a78:	002f883a 	mov	r23,zero
   27a7c:	05800044 	movi	r22,1
   27a80:	04ffffc4 	movi	r19,-1
   27a84:	a4400117 	ldw	r17,4(r20)
   27a88:	a4800217 	ldw	r18,8(r20)
   27a8c:	8c7fffc4 	addi	r17,r17,-1
   27a90:	88000d16 	blt	r17,zero,27ac8 <_fwalk+0x84>
   27a94:	94000304 	addi	r16,r18,12
   27a98:	94800384 	addi	r18,r18,14
   27a9c:	80c0000b 	ldhu	r3,0(r16)
   27aa0:	8c7fffc4 	addi	r17,r17,-1
   27aa4:	813ffd04 	addi	r4,r16,-12
   27aa8:	b0c0042e 	bgeu	r22,r3,27abc <_fwalk+0x78>
   27aac:	90c0000f 	ldh	r3,0(r18)
   27ab0:	1cc00226 	beq	r3,r19,27abc <_fwalk+0x78>
   27ab4:	a83ee83a 	callr	r21
   27ab8:	b8aeb03a 	or	r23,r23,r2
   27abc:	84001a04 	addi	r16,r16,104
   27ac0:	94801a04 	addi	r18,r18,104
   27ac4:	8cfff51e 	bne	r17,r19,27a9c <_gp+0xfffebc28>
   27ac8:	a5000017 	ldw	r20,0(r20)
   27acc:	a03fed1e 	bne	r20,zero,27a84 <_gp+0xfffebc10>
   27ad0:	b805883a 	mov	r2,r23
   27ad4:	dfc00817 	ldw	ra,32(sp)
   27ad8:	ddc00717 	ldw	r23,28(sp)
   27adc:	dd800617 	ldw	r22,24(sp)
   27ae0:	dd400517 	ldw	r21,20(sp)
   27ae4:	dd000417 	ldw	r20,16(sp)
   27ae8:	dcc00317 	ldw	r19,12(sp)
   27aec:	dc800217 	ldw	r18,8(sp)
   27af0:	dc400117 	ldw	r17,4(sp)
   27af4:	dc000017 	ldw	r16,0(sp)
   27af8:	dec00904 	addi	sp,sp,36
   27afc:	f800283a 	ret
   27b00:	002f883a 	mov	r23,zero
   27b04:	003ff206 	br	27ad0 <_gp+0xfffebc5c>

00027b08 <_fwalk_reent>:
   27b08:	defff704 	addi	sp,sp,-36
   27b0c:	dd400515 	stw	r21,20(sp)
   27b10:	dfc00815 	stw	ra,32(sp)
   27b14:	ddc00715 	stw	r23,28(sp)
   27b18:	dd800615 	stw	r22,24(sp)
   27b1c:	dd000415 	stw	r20,16(sp)
   27b20:	dcc00315 	stw	r19,12(sp)
   27b24:	dc800215 	stw	r18,8(sp)
   27b28:	dc400115 	stw	r17,4(sp)
   27b2c:	dc000015 	stw	r16,0(sp)
   27b30:	2540b804 	addi	r21,r4,736
   27b34:	a8002326 	beq	r21,zero,27bc4 <_fwalk_reent+0xbc>
   27b38:	2829883a 	mov	r20,r5
   27b3c:	202d883a 	mov	r22,r4
   27b40:	002f883a 	mov	r23,zero
   27b44:	04c00044 	movi	r19,1
   27b48:	04bfffc4 	movi	r18,-1
   27b4c:	ac400117 	ldw	r17,4(r21)
   27b50:	ac000217 	ldw	r16,8(r21)
   27b54:	8c7fffc4 	addi	r17,r17,-1
   27b58:	88000c16 	blt	r17,zero,27b8c <_fwalk_reent+0x84>
   27b5c:	84000304 	addi	r16,r16,12
   27b60:	80c0000b 	ldhu	r3,0(r16)
   27b64:	8c7fffc4 	addi	r17,r17,-1
   27b68:	817ffd04 	addi	r5,r16,-12
   27b6c:	98c0052e 	bgeu	r19,r3,27b84 <_fwalk_reent+0x7c>
   27b70:	80c0008f 	ldh	r3,2(r16)
   27b74:	b009883a 	mov	r4,r22
   27b78:	1c800226 	beq	r3,r18,27b84 <_fwalk_reent+0x7c>
   27b7c:	a03ee83a 	callr	r20
   27b80:	b8aeb03a 	or	r23,r23,r2
   27b84:	84001a04 	addi	r16,r16,104
   27b88:	8cbff51e 	bne	r17,r18,27b60 <_gp+0xfffebcec>
   27b8c:	ad400017 	ldw	r21,0(r21)
   27b90:	a83fee1e 	bne	r21,zero,27b4c <_gp+0xfffebcd8>
   27b94:	b805883a 	mov	r2,r23
   27b98:	dfc00817 	ldw	ra,32(sp)
   27b9c:	ddc00717 	ldw	r23,28(sp)
   27ba0:	dd800617 	ldw	r22,24(sp)
   27ba4:	dd400517 	ldw	r21,20(sp)
   27ba8:	dd000417 	ldw	r20,16(sp)
   27bac:	dcc00317 	ldw	r19,12(sp)
   27bb0:	dc800217 	ldw	r18,8(sp)
   27bb4:	dc400117 	ldw	r17,4(sp)
   27bb8:	dc000017 	ldw	r16,0(sp)
   27bbc:	dec00904 	addi	sp,sp,36
   27bc0:	f800283a 	ret
   27bc4:	002f883a 	mov	r23,zero
   27bc8:	003ff206 	br	27b94 <_gp+0xfffebd20>

00027bcc <_setlocale_r>:
   27bcc:	30001b26 	beq	r6,zero,27c3c <_setlocale_r+0x70>
   27bd0:	014000f4 	movhi	r5,3
   27bd4:	defffe04 	addi	sp,sp,-8
   27bd8:	29466d04 	addi	r5,r5,6580
   27bdc:	3009883a 	mov	r4,r6
   27be0:	dc000015 	stw	r16,0(sp)
   27be4:	dfc00115 	stw	ra,4(sp)
   27be8:	3021883a 	mov	r16,r6
   27bec:	0029a040 	call	29a04 <strcmp>
   27bf0:	1000061e 	bne	r2,zero,27c0c <_setlocale_r+0x40>
   27bf4:	008000f4 	movhi	r2,3
   27bf8:	10866c04 	addi	r2,r2,6576
   27bfc:	dfc00117 	ldw	ra,4(sp)
   27c00:	dc000017 	ldw	r16,0(sp)
   27c04:	dec00204 	addi	sp,sp,8
   27c08:	f800283a 	ret
   27c0c:	014000f4 	movhi	r5,3
   27c10:	29466c04 	addi	r5,r5,6576
   27c14:	8009883a 	mov	r4,r16
   27c18:	0029a040 	call	29a04 <strcmp>
   27c1c:	103ff526 	beq	r2,zero,27bf4 <_gp+0xfffebd80>
   27c20:	014000f4 	movhi	r5,3
   27c24:	29465704 	addi	r5,r5,6492
   27c28:	8009883a 	mov	r4,r16
   27c2c:	0029a040 	call	29a04 <strcmp>
   27c30:	103ff026 	beq	r2,zero,27bf4 <_gp+0xfffebd80>
   27c34:	0005883a 	mov	r2,zero
   27c38:	003ff006 	br	27bfc <_gp+0xfffebd88>
   27c3c:	008000f4 	movhi	r2,3
   27c40:	10866c04 	addi	r2,r2,6576
   27c44:	f800283a 	ret

00027c48 <__locale_charset>:
   27c48:	008000f4 	movhi	r2,3
   27c4c:	108b0504 	addi	r2,r2,11284
   27c50:	f800283a 	ret

00027c54 <__locale_mb_cur_max>:
   27c54:	008000f4 	movhi	r2,3
   27c58:	108fa404 	addi	r2,r2,16016
   27c5c:	10800017 	ldw	r2,0(r2)
   27c60:	f800283a 	ret

00027c64 <__locale_msgcharset>:
   27c64:	008000f4 	movhi	r2,3
   27c68:	108afd04 	addi	r2,r2,11252
   27c6c:	f800283a 	ret

00027c70 <__locale_cjk_lang>:
   27c70:	0005883a 	mov	r2,zero
   27c74:	f800283a 	ret

00027c78 <_localeconv_r>:
   27c78:	008000f4 	movhi	r2,3
   27c7c:	108b0d04 	addi	r2,r2,11316
   27c80:	f800283a 	ret

00027c84 <setlocale>:
   27c84:	00c000f4 	movhi	r3,3
   27c88:	18cfa304 	addi	r3,r3,16012
   27c8c:	2005883a 	mov	r2,r4
   27c90:	19000017 	ldw	r4,0(r3)
   27c94:	280d883a 	mov	r6,r5
   27c98:	100b883a 	mov	r5,r2
   27c9c:	0027bcc1 	jmpi	27bcc <_setlocale_r>

00027ca0 <localeconv>:
   27ca0:	008000f4 	movhi	r2,3
   27ca4:	108b0d04 	addi	r2,r2,11316
   27ca8:	f800283a 	ret

00027cac <__smakebuf_r>:
   27cac:	2880030b 	ldhu	r2,12(r5)
   27cb0:	10c0008c 	andi	r3,r2,2
   27cb4:	1800401e 	bne	r3,zero,27db8 <__smakebuf_r+0x10c>
   27cb8:	deffec04 	addi	sp,sp,-80
   27cbc:	dc000f15 	stw	r16,60(sp)
   27cc0:	2821883a 	mov	r16,r5
   27cc4:	2940038f 	ldh	r5,14(r5)
   27cc8:	dc401015 	stw	r17,64(sp)
   27ccc:	dfc01315 	stw	ra,76(sp)
   27cd0:	dcc01215 	stw	r19,72(sp)
   27cd4:	dc801115 	stw	r18,68(sp)
   27cd8:	2023883a 	mov	r17,r4
   27cdc:	28001b16 	blt	r5,zero,27d4c <__smakebuf_r+0xa0>
   27ce0:	d80d883a 	mov	r6,sp
   27ce4:	002b5180 	call	2b518 <_fstat_r>
   27ce8:	10001716 	blt	r2,zero,27d48 <__smakebuf_r+0x9c>
   27cec:	d8800117 	ldw	r2,4(sp)
   27cf0:	00e00014 	movui	r3,32768
   27cf4:	10bc000c 	andi	r2,r2,61440
   27cf8:	10c03726 	beq	r2,r3,27dd8 <__smakebuf_r+0x12c>
   27cfc:	80c0030b 	ldhu	r3,12(r16)
   27d00:	18c20014 	ori	r3,r3,2048
   27d04:	80c0030d 	sth	r3,12(r16)
   27d08:	00c80004 	movi	r3,8192
   27d0c:	10c03c1e 	bne	r2,r3,27e00 <__smakebuf_r+0x154>
   27d10:	8140038f 	ldh	r5,14(r16)
   27d14:	8809883a 	mov	r4,r17
   27d18:	002b5700 	call	2b570 <_isatty_r>
   27d1c:	10004e26 	beq	r2,zero,27e58 <__smakebuf_r+0x1ac>
   27d20:	8080030b 	ldhu	r2,12(r16)
   27d24:	04c00044 	movi	r19,1
   27d28:	80c010c4 	addi	r3,r16,67
   27d2c:	14c4b03a 	or	r2,r2,r19
   27d30:	8080030d 	sth	r2,12(r16)
   27d34:	80c00015 	stw	r3,0(r16)
   27d38:	80c00415 	stw	r3,16(r16)
   27d3c:	84c00515 	stw	r19,20(r16)
   27d40:	04810004 	movi	r18,1024
   27d44:	00000706 	br	27d64 <__smakebuf_r+0xb8>
   27d48:	8080030b 	ldhu	r2,12(r16)
   27d4c:	10c0200c 	andi	r3,r2,128
   27d50:	18001f1e 	bne	r3,zero,27dd0 <__smakebuf_r+0x124>
   27d54:	04810004 	movi	r18,1024
   27d58:	10820014 	ori	r2,r2,2048
   27d5c:	8080030d 	sth	r2,12(r16)
   27d60:	0027883a 	mov	r19,zero
   27d64:	8809883a 	mov	r4,r17
   27d68:	900b883a 	mov	r5,r18
   27d6c:	00225940 	call	22594 <_malloc_r>
   27d70:	10002e26 	beq	r2,zero,27e2c <__smakebuf_r+0x180>
   27d74:	80c0030b 	ldhu	r3,12(r16)
   27d78:	010000b4 	movhi	r4,2
   27d7c:	211b7804 	addi	r4,r4,28128
   27d80:	89000f15 	stw	r4,60(r17)
   27d84:	18c02014 	ori	r3,r3,128
   27d88:	80c0030d 	sth	r3,12(r16)
   27d8c:	80800015 	stw	r2,0(r16)
   27d90:	80800415 	stw	r2,16(r16)
   27d94:	84800515 	stw	r18,20(r16)
   27d98:	98001c1e 	bne	r19,zero,27e0c <__smakebuf_r+0x160>
   27d9c:	dfc01317 	ldw	ra,76(sp)
   27da0:	dcc01217 	ldw	r19,72(sp)
   27da4:	dc801117 	ldw	r18,68(sp)
   27da8:	dc401017 	ldw	r17,64(sp)
   27dac:	dc000f17 	ldw	r16,60(sp)
   27db0:	dec01404 	addi	sp,sp,80
   27db4:	f800283a 	ret
   27db8:	288010c4 	addi	r2,r5,67
   27dbc:	28800015 	stw	r2,0(r5)
   27dc0:	28800415 	stw	r2,16(r5)
   27dc4:	00800044 	movi	r2,1
   27dc8:	28800515 	stw	r2,20(r5)
   27dcc:	f800283a 	ret
   27dd0:	04801004 	movi	r18,64
   27dd4:	003fe006 	br	27d58 <_gp+0xfffebee4>
   27dd8:	81000a17 	ldw	r4,40(r16)
   27ddc:	00c000f4 	movhi	r3,3
   27de0:	18e66804 	addi	r3,r3,-26208
   27de4:	20ffc51e 	bne	r4,r3,27cfc <_gp+0xfffebe88>
   27de8:	80c0030b 	ldhu	r3,12(r16)
   27dec:	01010004 	movi	r4,1024
   27df0:	81001315 	stw	r4,76(r16)
   27df4:	1906b03a 	or	r3,r3,r4
   27df8:	80c0030d 	sth	r3,12(r16)
   27dfc:	003fc206 	br	27d08 <_gp+0xfffebe94>
   27e00:	0027883a 	mov	r19,zero
   27e04:	04810004 	movi	r18,1024
   27e08:	003fd606 	br	27d64 <_gp+0xfffebef0>
   27e0c:	8140038f 	ldh	r5,14(r16)
   27e10:	8809883a 	mov	r4,r17
   27e14:	002b5700 	call	2b570 <_isatty_r>
   27e18:	103fe026 	beq	r2,zero,27d9c <_gp+0xfffebf28>
   27e1c:	8080030b 	ldhu	r2,12(r16)
   27e20:	10800054 	ori	r2,r2,1
   27e24:	8080030d 	sth	r2,12(r16)
   27e28:	003fdc06 	br	27d9c <_gp+0xfffebf28>
   27e2c:	8080030b 	ldhu	r2,12(r16)
   27e30:	10c0800c 	andi	r3,r2,512
   27e34:	183fd91e 	bne	r3,zero,27d9c <_gp+0xfffebf28>
   27e38:	10800094 	ori	r2,r2,2
   27e3c:	80c010c4 	addi	r3,r16,67
   27e40:	8080030d 	sth	r2,12(r16)
   27e44:	00800044 	movi	r2,1
   27e48:	80c00015 	stw	r3,0(r16)
   27e4c:	80c00415 	stw	r3,16(r16)
   27e50:	80800515 	stw	r2,20(r16)
   27e54:	003fd106 	br	27d9c <_gp+0xfffebf28>
   27e58:	04c00044 	movi	r19,1
   27e5c:	04810004 	movi	r18,1024
   27e60:	003fc006 	br	27d64 <_gp+0xfffebef0>

00027e64 <memchr>:
   27e64:	208000cc 	andi	r2,r4,3
   27e68:	280f883a 	mov	r7,r5
   27e6c:	10003526 	beq	r2,zero,27f44 <memchr+0xe0>
   27e70:	30bfffc4 	addi	r2,r6,-1
   27e74:	30001b26 	beq	r6,zero,27ee4 <memchr+0x80>
   27e78:	21800003 	ldbu	r6,0(r4)
   27e7c:	28c03fcc 	andi	r3,r5,255
   27e80:	30c01a26 	beq	r6,r3,27eec <memchr+0x88>
   27e84:	180d883a 	mov	r6,r3
   27e88:	00000406 	br	27e9c <memchr+0x38>
   27e8c:	10001526 	beq	r2,zero,27ee4 <memchr+0x80>
   27e90:	20c00003 	ldbu	r3,0(r4)
   27e94:	10bfffc4 	addi	r2,r2,-1
   27e98:	19801426 	beq	r3,r6,27eec <memchr+0x88>
   27e9c:	21000044 	addi	r4,r4,1
   27ea0:	20c000cc 	andi	r3,r4,3
   27ea4:	183ff91e 	bne	r3,zero,27e8c <_gp+0xfffec018>
   27ea8:	024000c4 	movi	r9,3
   27eac:	48801136 	bltu	r9,r2,27ef4 <memchr+0x90>
   27eb0:	10000c26 	beq	r2,zero,27ee4 <memchr+0x80>
   27eb4:	20c00003 	ldbu	r3,0(r4)
   27eb8:	29403fcc 	andi	r5,r5,255
   27ebc:	19400b26 	beq	r3,r5,27eec <memchr+0x88>
   27ec0:	20c00044 	addi	r3,r4,1
   27ec4:	2085883a 	add	r2,r4,r2
   27ec8:	39803fcc 	andi	r6,r7,255
   27ecc:	00000306 	br	27edc <memchr+0x78>
   27ed0:	18c00044 	addi	r3,r3,1
   27ed4:	197fffc3 	ldbu	r5,-1(r3)
   27ed8:	29800426 	beq	r5,r6,27eec <memchr+0x88>
   27edc:	1809883a 	mov	r4,r3
   27ee0:	18bffb1e 	bne	r3,r2,27ed0 <_gp+0xfffec05c>
   27ee4:	0005883a 	mov	r2,zero
   27ee8:	f800283a 	ret
   27eec:	2005883a 	mov	r2,r4
   27ef0:	f800283a 	ret
   27ef4:	28c03fcc 	andi	r3,r5,255
   27ef8:	1810923a 	slli	r8,r3,8
   27efc:	02ffbff4 	movhi	r11,65279
   27f00:	02a02074 	movhi	r10,32897
   27f04:	40c6b03a 	or	r3,r8,r3
   27f08:	1810943a 	slli	r8,r3,16
   27f0c:	5affbfc4 	addi	r11,r11,-257
   27f10:	52a02004 	addi	r10,r10,-32640
   27f14:	40d0b03a 	or	r8,r8,r3
   27f18:	20c00017 	ldw	r3,0(r4)
   27f1c:	40c6f03a 	xor	r3,r8,r3
   27f20:	1acd883a 	add	r6,r3,r11
   27f24:	00c6303a 	nor	r3,zero,r3
   27f28:	30c6703a 	and	r3,r6,r3
   27f2c:	1a86703a 	and	r3,r3,r10
   27f30:	183fdf1e 	bne	r3,zero,27eb0 <_gp+0xfffec03c>
   27f34:	10bfff04 	addi	r2,r2,-4
   27f38:	21000104 	addi	r4,r4,4
   27f3c:	48bff636 	bltu	r9,r2,27f18 <_gp+0xfffec0a4>
   27f40:	003fdb06 	br	27eb0 <_gp+0xfffec03c>
   27f44:	3005883a 	mov	r2,r6
   27f48:	003fd706 	br	27ea8 <_gp+0xfffec034>

00027f4c <memcpy>:
   27f4c:	deffff04 	addi	sp,sp,-4
   27f50:	dc000015 	stw	r16,0(sp)
   27f54:	00c003c4 	movi	r3,15
   27f58:	2005883a 	mov	r2,r4
   27f5c:	1980432e 	bgeu	r3,r6,2806c <memcpy+0x120>
   27f60:	2146b03a 	or	r3,r4,r5
   27f64:	18c000cc 	andi	r3,r3,3
   27f68:	1800421e 	bne	r3,zero,28074 <memcpy+0x128>
   27f6c:	343ffc04 	addi	r16,r6,-16
   27f70:	8020d13a 	srli	r16,r16,4
   27f74:	28c00104 	addi	r3,r5,4
   27f78:	23400104 	addi	r13,r4,4
   27f7c:	801e913a 	slli	r15,r16,4
   27f80:	2b000204 	addi	r12,r5,8
   27f84:	22c00204 	addi	r11,r4,8
   27f88:	7bc00504 	addi	r15,r15,20
   27f8c:	2a800304 	addi	r10,r5,12
   27f90:	22400304 	addi	r9,r4,12
   27f94:	2bdf883a 	add	r15,r5,r15
   27f98:	2811883a 	mov	r8,r5
   27f9c:	200f883a 	mov	r7,r4
   27fa0:	41000017 	ldw	r4,0(r8)
   27fa4:	39c00404 	addi	r7,r7,16
   27fa8:	18c00404 	addi	r3,r3,16
   27fac:	393ffc15 	stw	r4,-16(r7)
   27fb0:	1bbffc17 	ldw	r14,-16(r3)
   27fb4:	6b400404 	addi	r13,r13,16
   27fb8:	5ac00404 	addi	r11,r11,16
   27fbc:	6bbffc15 	stw	r14,-16(r13)
   27fc0:	63800017 	ldw	r14,0(r12)
   27fc4:	4a400404 	addi	r9,r9,16
   27fc8:	42000404 	addi	r8,r8,16
   27fcc:	5bbffc15 	stw	r14,-16(r11)
   27fd0:	53800017 	ldw	r14,0(r10)
   27fd4:	63000404 	addi	r12,r12,16
   27fd8:	52800404 	addi	r10,r10,16
   27fdc:	4bbffc15 	stw	r14,-16(r9)
   27fe0:	1bffef1e 	bne	r3,r15,27fa0 <_gp+0xfffec12c>
   27fe4:	81c00044 	addi	r7,r16,1
   27fe8:	380e913a 	slli	r7,r7,4
   27fec:	310003cc 	andi	r4,r6,15
   27ff0:	02c000c4 	movi	r11,3
   27ff4:	11c7883a 	add	r3,r2,r7
   27ff8:	29cb883a 	add	r5,r5,r7
   27ffc:	59001f2e 	bgeu	r11,r4,2807c <memcpy+0x130>
   28000:	1813883a 	mov	r9,r3
   28004:	2811883a 	mov	r8,r5
   28008:	200f883a 	mov	r7,r4
   2800c:	42800017 	ldw	r10,0(r8)
   28010:	4a400104 	addi	r9,r9,4
   28014:	39ffff04 	addi	r7,r7,-4
   28018:	4abfff15 	stw	r10,-4(r9)
   2801c:	42000104 	addi	r8,r8,4
   28020:	59fffa36 	bltu	r11,r7,2800c <_gp+0xfffec198>
   28024:	213fff04 	addi	r4,r4,-4
   28028:	2008d0ba 	srli	r4,r4,2
   2802c:	318000cc 	andi	r6,r6,3
   28030:	21000044 	addi	r4,r4,1
   28034:	2109883a 	add	r4,r4,r4
   28038:	2109883a 	add	r4,r4,r4
   2803c:	1907883a 	add	r3,r3,r4
   28040:	290b883a 	add	r5,r5,r4
   28044:	30000626 	beq	r6,zero,28060 <memcpy+0x114>
   28048:	198d883a 	add	r6,r3,r6
   2804c:	29c00003 	ldbu	r7,0(r5)
   28050:	18c00044 	addi	r3,r3,1
   28054:	29400044 	addi	r5,r5,1
   28058:	19ffffc5 	stb	r7,-1(r3)
   2805c:	19bffb1e 	bne	r3,r6,2804c <_gp+0xfffec1d8>
   28060:	dc000017 	ldw	r16,0(sp)
   28064:	dec00104 	addi	sp,sp,4
   28068:	f800283a 	ret
   2806c:	2007883a 	mov	r3,r4
   28070:	003ff406 	br	28044 <_gp+0xfffec1d0>
   28074:	2007883a 	mov	r3,r4
   28078:	003ff306 	br	28048 <_gp+0xfffec1d4>
   2807c:	200d883a 	mov	r6,r4
   28080:	003ff006 	br	28044 <_gp+0xfffec1d0>

00028084 <memmove>:
   28084:	2005883a 	mov	r2,r4
   28088:	29000b2e 	bgeu	r5,r4,280b8 <memmove+0x34>
   2808c:	298f883a 	add	r7,r5,r6
   28090:	21c0092e 	bgeu	r4,r7,280b8 <memmove+0x34>
   28094:	2187883a 	add	r3,r4,r6
   28098:	198bc83a 	sub	r5,r3,r6
   2809c:	30004b26 	beq	r6,zero,281cc <memmove+0x148>
   280a0:	39ffffc4 	addi	r7,r7,-1
   280a4:	39000003 	ldbu	r4,0(r7)
   280a8:	18ffffc4 	addi	r3,r3,-1
   280ac:	19000005 	stb	r4,0(r3)
   280b0:	197ffb1e 	bne	r3,r5,280a0 <_gp+0xfffec22c>
   280b4:	f800283a 	ret
   280b8:	00c003c4 	movi	r3,15
   280bc:	1980412e 	bgeu	r3,r6,281c4 <memmove+0x140>
   280c0:	1146b03a 	or	r3,r2,r5
   280c4:	18c000cc 	andi	r3,r3,3
   280c8:	1800411e 	bne	r3,zero,281d0 <memmove+0x14c>
   280cc:	33fffc04 	addi	r15,r6,-16
   280d0:	781ed13a 	srli	r15,r15,4
   280d4:	28c00104 	addi	r3,r5,4
   280d8:	13400104 	addi	r13,r2,4
   280dc:	781c913a 	slli	r14,r15,4
   280e0:	2b000204 	addi	r12,r5,8
   280e4:	12c00204 	addi	r11,r2,8
   280e8:	73800504 	addi	r14,r14,20
   280ec:	2a800304 	addi	r10,r5,12
   280f0:	12400304 	addi	r9,r2,12
   280f4:	2b9d883a 	add	r14,r5,r14
   280f8:	2811883a 	mov	r8,r5
   280fc:	100f883a 	mov	r7,r2
   28100:	41000017 	ldw	r4,0(r8)
   28104:	39c00404 	addi	r7,r7,16
   28108:	18c00404 	addi	r3,r3,16
   2810c:	393ffc15 	stw	r4,-16(r7)
   28110:	193ffc17 	ldw	r4,-16(r3)
   28114:	6b400404 	addi	r13,r13,16
   28118:	5ac00404 	addi	r11,r11,16
   2811c:	693ffc15 	stw	r4,-16(r13)
   28120:	61000017 	ldw	r4,0(r12)
   28124:	4a400404 	addi	r9,r9,16
   28128:	42000404 	addi	r8,r8,16
   2812c:	593ffc15 	stw	r4,-16(r11)
   28130:	51000017 	ldw	r4,0(r10)
   28134:	63000404 	addi	r12,r12,16
   28138:	52800404 	addi	r10,r10,16
   2813c:	493ffc15 	stw	r4,-16(r9)
   28140:	1bbfef1e 	bne	r3,r14,28100 <_gp+0xfffec28c>
   28144:	79000044 	addi	r4,r15,1
   28148:	2008913a 	slli	r4,r4,4
   2814c:	328003cc 	andi	r10,r6,15
   28150:	02c000c4 	movi	r11,3
   28154:	1107883a 	add	r3,r2,r4
   28158:	290b883a 	add	r5,r5,r4
   2815c:	5a801e2e 	bgeu	r11,r10,281d8 <memmove+0x154>
   28160:	1813883a 	mov	r9,r3
   28164:	2811883a 	mov	r8,r5
   28168:	500f883a 	mov	r7,r10
   2816c:	41000017 	ldw	r4,0(r8)
   28170:	4a400104 	addi	r9,r9,4
   28174:	39ffff04 	addi	r7,r7,-4
   28178:	493fff15 	stw	r4,-4(r9)
   2817c:	42000104 	addi	r8,r8,4
   28180:	59fffa36 	bltu	r11,r7,2816c <_gp+0xfffec2f8>
   28184:	513fff04 	addi	r4,r10,-4
   28188:	2008d0ba 	srli	r4,r4,2
   2818c:	318000cc 	andi	r6,r6,3
   28190:	21000044 	addi	r4,r4,1
   28194:	2109883a 	add	r4,r4,r4
   28198:	2109883a 	add	r4,r4,r4
   2819c:	1907883a 	add	r3,r3,r4
   281a0:	290b883a 	add	r5,r5,r4
   281a4:	30000926 	beq	r6,zero,281cc <memmove+0x148>
   281a8:	198d883a 	add	r6,r3,r6
   281ac:	29c00003 	ldbu	r7,0(r5)
   281b0:	18c00044 	addi	r3,r3,1
   281b4:	29400044 	addi	r5,r5,1
   281b8:	19ffffc5 	stb	r7,-1(r3)
   281bc:	19bffb1e 	bne	r3,r6,281ac <_gp+0xfffec338>
   281c0:	f800283a 	ret
   281c4:	1007883a 	mov	r3,r2
   281c8:	003ff606 	br	281a4 <_gp+0xfffec330>
   281cc:	f800283a 	ret
   281d0:	1007883a 	mov	r3,r2
   281d4:	003ff406 	br	281a8 <_gp+0xfffec334>
   281d8:	500d883a 	mov	r6,r10
   281dc:	003ff106 	br	281a4 <_gp+0xfffec330>

000281e0 <_Balloc>:
   281e0:	20801317 	ldw	r2,76(r4)
   281e4:	defffc04 	addi	sp,sp,-16
   281e8:	dc400115 	stw	r17,4(sp)
   281ec:	dc000015 	stw	r16,0(sp)
   281f0:	dfc00315 	stw	ra,12(sp)
   281f4:	dc800215 	stw	r18,8(sp)
   281f8:	2023883a 	mov	r17,r4
   281fc:	2821883a 	mov	r16,r5
   28200:	10000f26 	beq	r2,zero,28240 <_Balloc+0x60>
   28204:	8407883a 	add	r3,r16,r16
   28208:	18c7883a 	add	r3,r3,r3
   2820c:	10c7883a 	add	r3,r2,r3
   28210:	18800017 	ldw	r2,0(r3)
   28214:	10001126 	beq	r2,zero,2825c <_Balloc+0x7c>
   28218:	11000017 	ldw	r4,0(r2)
   2821c:	19000015 	stw	r4,0(r3)
   28220:	10000415 	stw	zero,16(r2)
   28224:	10000315 	stw	zero,12(r2)
   28228:	dfc00317 	ldw	ra,12(sp)
   2822c:	dc800217 	ldw	r18,8(sp)
   28230:	dc400117 	ldw	r17,4(sp)
   28234:	dc000017 	ldw	r16,0(sp)
   28238:	dec00404 	addi	sp,sp,16
   2823c:	f800283a 	ret
   28240:	01400104 	movi	r5,4
   28244:	01800844 	movi	r6,33
   28248:	002b1700 	call	2b170 <_calloc_r>
   2824c:	88801315 	stw	r2,76(r17)
   28250:	103fec1e 	bne	r2,zero,28204 <_gp+0xfffec390>
   28254:	0005883a 	mov	r2,zero
   28258:	003ff306 	br	28228 <_gp+0xfffec3b4>
   2825c:	01400044 	movi	r5,1
   28260:	2c24983a 	sll	r18,r5,r16
   28264:	8809883a 	mov	r4,r17
   28268:	91800144 	addi	r6,r18,5
   2826c:	318d883a 	add	r6,r6,r6
   28270:	318d883a 	add	r6,r6,r6
   28274:	002b1700 	call	2b170 <_calloc_r>
   28278:	103ff626 	beq	r2,zero,28254 <_gp+0xfffec3e0>
   2827c:	14000115 	stw	r16,4(r2)
   28280:	14800215 	stw	r18,8(r2)
   28284:	003fe606 	br	28220 <_gp+0xfffec3ac>

00028288 <_Bfree>:
   28288:	28000826 	beq	r5,zero,282ac <_Bfree+0x24>
   2828c:	28c00117 	ldw	r3,4(r5)
   28290:	20801317 	ldw	r2,76(r4)
   28294:	18c7883a 	add	r3,r3,r3
   28298:	18c7883a 	add	r3,r3,r3
   2829c:	10c5883a 	add	r2,r2,r3
   282a0:	10c00017 	ldw	r3,0(r2)
   282a4:	28c00015 	stw	r3,0(r5)
   282a8:	11400015 	stw	r5,0(r2)
   282ac:	f800283a 	ret

000282b0 <__multadd>:
   282b0:	defffa04 	addi	sp,sp,-24
   282b4:	dc000115 	stw	r16,4(sp)
   282b8:	2c000417 	ldw	r16,16(r5)
   282bc:	dc800315 	stw	r18,12(sp)
   282c0:	dc400215 	stw	r17,8(sp)
   282c4:	dfc00515 	stw	ra,20(sp)
   282c8:	dcc00415 	stw	r19,16(sp)
   282cc:	2823883a 	mov	r17,r5
   282d0:	2025883a 	mov	r18,r4
   282d4:	2a400504 	addi	r9,r5,20
   282d8:	0015883a 	mov	r10,zero
   282dc:	4a000017 	ldw	r8,0(r9)
   282e0:	4a400104 	addi	r9,r9,4
   282e4:	52800044 	addi	r10,r10,1
   282e8:	40ffffcc 	andi	r3,r8,65535
   282ec:	1987383a 	mul	r3,r3,r6
   282f0:	4010d43a 	srli	r8,r8,16
   282f4:	19cf883a 	add	r7,r3,r7
   282f8:	4191383a 	mul	r8,r8,r6
   282fc:	3816d43a 	srli	r11,r7,16
   28300:	38ffffcc 	andi	r3,r7,65535
   28304:	5a0f883a 	add	r7,r11,r8
   28308:	3810943a 	slli	r8,r7,16
   2830c:	380ed43a 	srli	r7,r7,16
   28310:	40c7883a 	add	r3,r8,r3
   28314:	48ffff15 	stw	r3,-4(r9)
   28318:	543ff016 	blt	r10,r16,282dc <_gp+0xfffec468>
   2831c:	38000926 	beq	r7,zero,28344 <__multadd+0x94>
   28320:	88800217 	ldw	r2,8(r17)
   28324:	80800f0e 	bge	r16,r2,28364 <__multadd+0xb4>
   28328:	80800144 	addi	r2,r16,5
   2832c:	1085883a 	add	r2,r2,r2
   28330:	1085883a 	add	r2,r2,r2
   28334:	8885883a 	add	r2,r17,r2
   28338:	11c00015 	stw	r7,0(r2)
   2833c:	84000044 	addi	r16,r16,1
   28340:	8c000415 	stw	r16,16(r17)
   28344:	8805883a 	mov	r2,r17
   28348:	dfc00517 	ldw	ra,20(sp)
   2834c:	dcc00417 	ldw	r19,16(sp)
   28350:	dc800317 	ldw	r18,12(sp)
   28354:	dc400217 	ldw	r17,8(sp)
   28358:	dc000117 	ldw	r16,4(sp)
   2835c:	dec00604 	addi	sp,sp,24
   28360:	f800283a 	ret
   28364:	89400117 	ldw	r5,4(r17)
   28368:	9009883a 	mov	r4,r18
   2836c:	d9c00015 	stw	r7,0(sp)
   28370:	29400044 	addi	r5,r5,1
   28374:	00281e00 	call	281e0 <_Balloc>
   28378:	89800417 	ldw	r6,16(r17)
   2837c:	11000304 	addi	r4,r2,12
   28380:	89400304 	addi	r5,r17,12
   28384:	31800084 	addi	r6,r6,2
   28388:	318d883a 	add	r6,r6,r6
   2838c:	318d883a 	add	r6,r6,r6
   28390:	1027883a 	mov	r19,r2
   28394:	0027f4c0 	call	27f4c <memcpy>
   28398:	d9c00017 	ldw	r7,0(sp)
   2839c:	88000a26 	beq	r17,zero,283c8 <__multadd+0x118>
   283a0:	89000117 	ldw	r4,4(r17)
   283a4:	90c01317 	ldw	r3,76(r18)
   283a8:	2109883a 	add	r4,r4,r4
   283ac:	2109883a 	add	r4,r4,r4
   283b0:	1907883a 	add	r3,r3,r4
   283b4:	18800017 	ldw	r2,0(r3)
   283b8:	88800015 	stw	r2,0(r17)
   283bc:	1c400015 	stw	r17,0(r3)
   283c0:	9823883a 	mov	r17,r19
   283c4:	003fd806 	br	28328 <_gp+0xfffec4b4>
   283c8:	9823883a 	mov	r17,r19
   283cc:	003fd606 	br	28328 <_gp+0xfffec4b4>

000283d0 <__s2b>:
   283d0:	defff904 	addi	sp,sp,-28
   283d4:	dc400115 	stw	r17,4(sp)
   283d8:	dc000015 	stw	r16,0(sp)
   283dc:	2023883a 	mov	r17,r4
   283e0:	2821883a 	mov	r16,r5
   283e4:	39000204 	addi	r4,r7,8
   283e8:	01400244 	movi	r5,9
   283ec:	dcc00315 	stw	r19,12(sp)
   283f0:	dc800215 	stw	r18,8(sp)
   283f4:	dfc00615 	stw	ra,24(sp)
   283f8:	dd400515 	stw	r21,20(sp)
   283fc:	dd000415 	stw	r20,16(sp)
   28400:	3825883a 	mov	r18,r7
   28404:	3027883a 	mov	r19,r6
   28408:	00224ac0 	call	224ac <__divsi3>
   2840c:	00c00044 	movi	r3,1
   28410:	000b883a 	mov	r5,zero
   28414:	1880030e 	bge	r3,r2,28424 <__s2b+0x54>
   28418:	18c7883a 	add	r3,r3,r3
   2841c:	29400044 	addi	r5,r5,1
   28420:	18bffd16 	blt	r3,r2,28418 <_gp+0xfffec5a4>
   28424:	8809883a 	mov	r4,r17
   28428:	00281e00 	call	281e0 <_Balloc>
   2842c:	d8c00717 	ldw	r3,28(sp)
   28430:	10c00515 	stw	r3,20(r2)
   28434:	00c00044 	movi	r3,1
   28438:	10c00415 	stw	r3,16(r2)
   2843c:	00c00244 	movi	r3,9
   28440:	1cc0210e 	bge	r3,r19,284c8 <__s2b+0xf8>
   28444:	80eb883a 	add	r21,r16,r3
   28448:	a829883a 	mov	r20,r21
   2844c:	84e1883a 	add	r16,r16,r19
   28450:	a1c00007 	ldb	r7,0(r20)
   28454:	8809883a 	mov	r4,r17
   28458:	a5000044 	addi	r20,r20,1
   2845c:	100b883a 	mov	r5,r2
   28460:	01800284 	movi	r6,10
   28464:	39fff404 	addi	r7,r7,-48
   28468:	00282b00 	call	282b0 <__multadd>
   2846c:	a43ff81e 	bne	r20,r16,28450 <_gp+0xfffec5dc>
   28470:	ace1883a 	add	r16,r21,r19
   28474:	843ffe04 	addi	r16,r16,-8
   28478:	9c800a0e 	bge	r19,r18,284a4 <__s2b+0xd4>
   2847c:	94e5c83a 	sub	r18,r18,r19
   28480:	84a5883a 	add	r18,r16,r18
   28484:	81c00007 	ldb	r7,0(r16)
   28488:	8809883a 	mov	r4,r17
   2848c:	84000044 	addi	r16,r16,1
   28490:	100b883a 	mov	r5,r2
   28494:	01800284 	movi	r6,10
   28498:	39fff404 	addi	r7,r7,-48
   2849c:	00282b00 	call	282b0 <__multadd>
   284a0:	84bff81e 	bne	r16,r18,28484 <_gp+0xfffec610>
   284a4:	dfc00617 	ldw	ra,24(sp)
   284a8:	dd400517 	ldw	r21,20(sp)
   284ac:	dd000417 	ldw	r20,16(sp)
   284b0:	dcc00317 	ldw	r19,12(sp)
   284b4:	dc800217 	ldw	r18,8(sp)
   284b8:	dc400117 	ldw	r17,4(sp)
   284bc:	dc000017 	ldw	r16,0(sp)
   284c0:	dec00704 	addi	sp,sp,28
   284c4:	f800283a 	ret
   284c8:	84000284 	addi	r16,r16,10
   284cc:	1827883a 	mov	r19,r3
   284d0:	003fe906 	br	28478 <_gp+0xfffec604>

000284d4 <__hi0bits>:
   284d4:	20bfffec 	andhi	r2,r4,65535
   284d8:	1000141e 	bne	r2,zero,2852c <__hi0bits+0x58>
   284dc:	2008943a 	slli	r4,r4,16
   284e0:	00800404 	movi	r2,16
   284e4:	20ffc02c 	andhi	r3,r4,65280
   284e8:	1800021e 	bne	r3,zero,284f4 <__hi0bits+0x20>
   284ec:	2008923a 	slli	r4,r4,8
   284f0:	10800204 	addi	r2,r2,8
   284f4:	20fc002c 	andhi	r3,r4,61440
   284f8:	1800021e 	bne	r3,zero,28504 <__hi0bits+0x30>
   284fc:	2008913a 	slli	r4,r4,4
   28500:	10800104 	addi	r2,r2,4
   28504:	20f0002c 	andhi	r3,r4,49152
   28508:	1800031e 	bne	r3,zero,28518 <__hi0bits+0x44>
   2850c:	2109883a 	add	r4,r4,r4
   28510:	10800084 	addi	r2,r2,2
   28514:	2109883a 	add	r4,r4,r4
   28518:	20000316 	blt	r4,zero,28528 <__hi0bits+0x54>
   2851c:	2110002c 	andhi	r4,r4,16384
   28520:	2000041e 	bne	r4,zero,28534 <__hi0bits+0x60>
   28524:	00800804 	movi	r2,32
   28528:	f800283a 	ret
   2852c:	0005883a 	mov	r2,zero
   28530:	003fec06 	br	284e4 <_gp+0xfffec670>
   28534:	10800044 	addi	r2,r2,1
   28538:	f800283a 	ret

0002853c <__lo0bits>:
   2853c:	20c00017 	ldw	r3,0(r4)
   28540:	188001cc 	andi	r2,r3,7
   28544:	10000826 	beq	r2,zero,28568 <__lo0bits+0x2c>
   28548:	1880004c 	andi	r2,r3,1
   2854c:	1000211e 	bne	r2,zero,285d4 <__lo0bits+0x98>
   28550:	1880008c 	andi	r2,r3,2
   28554:	1000211e 	bne	r2,zero,285dc <__lo0bits+0xa0>
   28558:	1806d0ba 	srli	r3,r3,2
   2855c:	00800084 	movi	r2,2
   28560:	20c00015 	stw	r3,0(r4)
   28564:	f800283a 	ret
   28568:	18bfffcc 	andi	r2,r3,65535
   2856c:	10001326 	beq	r2,zero,285bc <__lo0bits+0x80>
   28570:	0005883a 	mov	r2,zero
   28574:	19403fcc 	andi	r5,r3,255
   28578:	2800021e 	bne	r5,zero,28584 <__lo0bits+0x48>
   2857c:	1806d23a 	srli	r3,r3,8
   28580:	10800204 	addi	r2,r2,8
   28584:	194003cc 	andi	r5,r3,15
   28588:	2800021e 	bne	r5,zero,28594 <__lo0bits+0x58>
   2858c:	1806d13a 	srli	r3,r3,4
   28590:	10800104 	addi	r2,r2,4
   28594:	194000cc 	andi	r5,r3,3
   28598:	2800021e 	bne	r5,zero,285a4 <__lo0bits+0x68>
   2859c:	1806d0ba 	srli	r3,r3,2
   285a0:	10800084 	addi	r2,r2,2
   285a4:	1940004c 	andi	r5,r3,1
   285a8:	2800081e 	bne	r5,zero,285cc <__lo0bits+0x90>
   285ac:	1806d07a 	srli	r3,r3,1
   285b0:	1800051e 	bne	r3,zero,285c8 <__lo0bits+0x8c>
   285b4:	00800804 	movi	r2,32
   285b8:	f800283a 	ret
   285bc:	1806d43a 	srli	r3,r3,16
   285c0:	00800404 	movi	r2,16
   285c4:	003feb06 	br	28574 <_gp+0xfffec700>
   285c8:	10800044 	addi	r2,r2,1
   285cc:	20c00015 	stw	r3,0(r4)
   285d0:	f800283a 	ret
   285d4:	0005883a 	mov	r2,zero
   285d8:	f800283a 	ret
   285dc:	1806d07a 	srli	r3,r3,1
   285e0:	00800044 	movi	r2,1
   285e4:	20c00015 	stw	r3,0(r4)
   285e8:	f800283a 	ret

000285ec <__i2b>:
   285ec:	defffd04 	addi	sp,sp,-12
   285f0:	dc000015 	stw	r16,0(sp)
   285f4:	04000044 	movi	r16,1
   285f8:	dc400115 	stw	r17,4(sp)
   285fc:	2823883a 	mov	r17,r5
   28600:	800b883a 	mov	r5,r16
   28604:	dfc00215 	stw	ra,8(sp)
   28608:	00281e00 	call	281e0 <_Balloc>
   2860c:	14400515 	stw	r17,20(r2)
   28610:	14000415 	stw	r16,16(r2)
   28614:	dfc00217 	ldw	ra,8(sp)
   28618:	dc400117 	ldw	r17,4(sp)
   2861c:	dc000017 	ldw	r16,0(sp)
   28620:	dec00304 	addi	sp,sp,12
   28624:	f800283a 	ret

00028628 <__multiply>:
   28628:	defffa04 	addi	sp,sp,-24
   2862c:	dcc00315 	stw	r19,12(sp)
   28630:	dc800215 	stw	r18,8(sp)
   28634:	2cc00417 	ldw	r19,16(r5)
   28638:	34800417 	ldw	r18,16(r6)
   2863c:	dd000415 	stw	r20,16(sp)
   28640:	dc400115 	stw	r17,4(sp)
   28644:	dfc00515 	stw	ra,20(sp)
   28648:	dc000015 	stw	r16,0(sp)
   2864c:	2829883a 	mov	r20,r5
   28650:	3023883a 	mov	r17,r6
   28654:	9c807016 	blt	r19,r18,28818 <__multiply+0x1f0>
   28658:	9005883a 	mov	r2,r18
   2865c:	9825883a 	mov	r18,r19
   28660:	1027883a 	mov	r19,r2
   28664:	a0800217 	ldw	r2,8(r20)
   28668:	94e1883a 	add	r16,r18,r19
   2866c:	a1400117 	ldw	r5,4(r20)
   28670:	1400010e 	bge	r2,r16,28678 <__multiply+0x50>
   28674:	29400044 	addi	r5,r5,1
   28678:	00281e00 	call	281e0 <_Balloc>
   2867c:	8417883a 	add	r11,r16,r16
   28680:	13000504 	addi	r12,r2,20
   28684:	5ad7883a 	add	r11,r11,r11
   28688:	62d7883a 	add	r11,r12,r11
   2868c:	6007883a 	mov	r3,r12
   28690:	62c0032e 	bgeu	r12,r11,286a0 <__multiply+0x78>
   28694:	18000015 	stw	zero,0(r3)
   28698:	18c00104 	addi	r3,r3,4
   2869c:	1afffd36 	bltu	r3,r11,28694 <_gp+0xfffec820>
   286a0:	9ce7883a 	add	r19,r19,r19
   286a4:	94a5883a 	add	r18,r18,r18
   286a8:	89800504 	addi	r6,r17,20
   286ac:	9ce7883a 	add	r19,r19,r19
   286b0:	a3800504 	addi	r14,r20,20
   286b4:	94a5883a 	add	r18,r18,r18
   286b8:	34db883a 	add	r13,r6,r19
   286bc:	7495883a 	add	r10,r14,r18
   286c0:	3340422e 	bgeu	r6,r13,287cc <__multiply+0x1a4>
   286c4:	34400017 	ldw	r17,0(r6)
   286c8:	8cbfffcc 	andi	r18,r17,65535
   286cc:	90001b26 	beq	r18,zero,2873c <__multiply+0x114>
   286d0:	6013883a 	mov	r9,r12
   286d4:	7023883a 	mov	r17,r14
   286d8:	0011883a 	mov	r8,zero
   286dc:	88c00017 	ldw	r3,0(r17)
   286e0:	4bc00017 	ldw	r15,0(r9)
   286e4:	8c400104 	addi	r17,r17,4
   286e8:	19ffffcc 	andi	r7,r3,65535
   286ec:	3c8f383a 	mul	r7,r7,r18
   286f0:	1808d43a 	srli	r4,r3,16
   286f4:	797fffcc 	andi	r5,r15,65535
   286f8:	29cb883a 	add	r5,r5,r7
   286fc:	2a0b883a 	add	r5,r5,r8
   28700:	2489383a 	mul	r4,r4,r18
   28704:	7806d43a 	srli	r3,r15,16
   28708:	2810d43a 	srli	r8,r5,16
   2870c:	297fffcc 	andi	r5,r5,65535
   28710:	1907883a 	add	r3,r3,r4
   28714:	1a07883a 	add	r3,r3,r8
   28718:	1808943a 	slli	r4,r3,16
   2871c:	480f883a 	mov	r7,r9
   28720:	1810d43a 	srli	r8,r3,16
   28724:	214ab03a 	or	r5,r4,r5
   28728:	49400015 	stw	r5,0(r9)
   2872c:	4a400104 	addi	r9,r9,4
   28730:	8abfea36 	bltu	r17,r10,286dc <_gp+0xfffec868>
   28734:	3a000115 	stw	r8,4(r7)
   28738:	34400017 	ldw	r17,0(r6)
   2873c:	8822d43a 	srli	r17,r17,16
   28740:	88001f26 	beq	r17,zero,287c0 <__multiply+0x198>
   28744:	60c00017 	ldw	r3,0(r12)
   28748:	7013883a 	mov	r9,r14
   2874c:	601f883a 	mov	r15,r12
   28750:	1811883a 	mov	r8,r3
   28754:	6027883a 	mov	r19,r12
   28758:	000f883a 	mov	r7,zero
   2875c:	00000106 	br	28764 <__multiply+0x13c>
   28760:	9027883a 	mov	r19,r18
   28764:	4940000b 	ldhu	r5,0(r9)
   28768:	4010d43a 	srli	r8,r8,16
   2876c:	193fffcc 	andi	r4,r3,65535
   28770:	2c4b383a 	mul	r5,r5,r17
   28774:	7bc00104 	addi	r15,r15,4
   28778:	4a400104 	addi	r9,r9,4
   2877c:	2a0b883a 	add	r5,r5,r8
   28780:	29cb883a 	add	r5,r5,r7
   28784:	2806943a 	slli	r3,r5,16
   28788:	9c800104 	addi	r18,r19,4
   2878c:	280ad43a 	srli	r5,r5,16
   28790:	1908b03a 	or	r4,r3,r4
   28794:	793fff15 	stw	r4,-4(r15)
   28798:	48ffff17 	ldw	r3,-4(r9)
   2879c:	92000017 	ldw	r8,0(r18)
   287a0:	1806d43a 	srli	r3,r3,16
   287a4:	413fffcc 	andi	r4,r8,65535
   287a8:	1c47383a 	mul	r3,r3,r17
   287ac:	1907883a 	add	r3,r3,r4
   287b0:	1947883a 	add	r3,r3,r5
   287b4:	180ed43a 	srli	r7,r3,16
   287b8:	4abfe936 	bltu	r9,r10,28760 <_gp+0xfffec8ec>
   287bc:	98c00115 	stw	r3,4(r19)
   287c0:	31800104 	addi	r6,r6,4
   287c4:	63000104 	addi	r12,r12,4
   287c8:	337fbe36 	bltu	r6,r13,286c4 <_gp+0xfffec850>
   287cc:	0400090e 	bge	zero,r16,287f4 <__multiply+0x1cc>
   287d0:	58ffff17 	ldw	r3,-4(r11)
   287d4:	5affff04 	addi	r11,r11,-4
   287d8:	18000326 	beq	r3,zero,287e8 <__multiply+0x1c0>
   287dc:	00000506 	br	287f4 <__multiply+0x1cc>
   287e0:	58c00017 	ldw	r3,0(r11)
   287e4:	1800031e 	bne	r3,zero,287f4 <__multiply+0x1cc>
   287e8:	843fffc4 	addi	r16,r16,-1
   287ec:	5affff04 	addi	r11,r11,-4
   287f0:	803ffb1e 	bne	r16,zero,287e0 <_gp+0xfffec96c>
   287f4:	14000415 	stw	r16,16(r2)
   287f8:	dfc00517 	ldw	ra,20(sp)
   287fc:	dd000417 	ldw	r20,16(sp)
   28800:	dcc00317 	ldw	r19,12(sp)
   28804:	dc800217 	ldw	r18,8(sp)
   28808:	dc400117 	ldw	r17,4(sp)
   2880c:	dc000017 	ldw	r16,0(sp)
   28810:	dec00604 	addi	sp,sp,24
   28814:	f800283a 	ret
   28818:	3029883a 	mov	r20,r6
   2881c:	2823883a 	mov	r17,r5
   28820:	003f9006 	br	28664 <_gp+0xfffec7f0>

00028824 <__pow5mult>:
   28824:	defffa04 	addi	sp,sp,-24
   28828:	dcc00315 	stw	r19,12(sp)
   2882c:	dc800215 	stw	r18,8(sp)
   28830:	dc000015 	stw	r16,0(sp)
   28834:	dfc00515 	stw	ra,20(sp)
   28838:	dd000415 	stw	r20,16(sp)
   2883c:	dc400115 	stw	r17,4(sp)
   28840:	308000cc 	andi	r2,r6,3
   28844:	3021883a 	mov	r16,r6
   28848:	2027883a 	mov	r19,r4
   2884c:	2825883a 	mov	r18,r5
   28850:	10002e1e 	bne	r2,zero,2890c <__pow5mult+0xe8>
   28854:	8021d0ba 	srai	r16,r16,2
   28858:	80001a26 	beq	r16,zero,288c4 <__pow5mult+0xa0>
   2885c:	9c401217 	ldw	r17,72(r19)
   28860:	8800061e 	bne	r17,zero,2887c <__pow5mult+0x58>
   28864:	00003406 	br	28938 <__pow5mult+0x114>
   28868:	8021d07a 	srai	r16,r16,1
   2886c:	80001526 	beq	r16,zero,288c4 <__pow5mult+0xa0>
   28870:	88800017 	ldw	r2,0(r17)
   28874:	10001c26 	beq	r2,zero,288e8 <__pow5mult+0xc4>
   28878:	1023883a 	mov	r17,r2
   2887c:	80c0004c 	andi	r3,r16,1
   28880:	183ff926 	beq	r3,zero,28868 <_gp+0xfffec9f4>
   28884:	900b883a 	mov	r5,r18
   28888:	880d883a 	mov	r6,r17
   2888c:	9809883a 	mov	r4,r19
   28890:	00286280 	call	28628 <__multiply>
   28894:	90001b26 	beq	r18,zero,28904 <__pow5mult+0xe0>
   28898:	91c00117 	ldw	r7,4(r18)
   2889c:	98c01317 	ldw	r3,76(r19)
   288a0:	8021d07a 	srai	r16,r16,1
   288a4:	39cf883a 	add	r7,r7,r7
   288a8:	39cf883a 	add	r7,r7,r7
   288ac:	19c7883a 	add	r3,r3,r7
   288b0:	19000017 	ldw	r4,0(r3)
   288b4:	91000015 	stw	r4,0(r18)
   288b8:	1c800015 	stw	r18,0(r3)
   288bc:	1025883a 	mov	r18,r2
   288c0:	803feb1e 	bne	r16,zero,28870 <_gp+0xfffec9fc>
   288c4:	9005883a 	mov	r2,r18
   288c8:	dfc00517 	ldw	ra,20(sp)
   288cc:	dd000417 	ldw	r20,16(sp)
   288d0:	dcc00317 	ldw	r19,12(sp)
   288d4:	dc800217 	ldw	r18,8(sp)
   288d8:	dc400117 	ldw	r17,4(sp)
   288dc:	dc000017 	ldw	r16,0(sp)
   288e0:	dec00604 	addi	sp,sp,24
   288e4:	f800283a 	ret
   288e8:	9809883a 	mov	r4,r19
   288ec:	880b883a 	mov	r5,r17
   288f0:	880d883a 	mov	r6,r17
   288f4:	00286280 	call	28628 <__multiply>
   288f8:	88800015 	stw	r2,0(r17)
   288fc:	10000015 	stw	zero,0(r2)
   28900:	003fdd06 	br	28878 <_gp+0xfffeca04>
   28904:	1025883a 	mov	r18,r2
   28908:	003fd706 	br	28868 <_gp+0xfffec9f4>
   2890c:	10bfffc4 	addi	r2,r2,-1
   28910:	1085883a 	add	r2,r2,r2
   28914:	00c000f4 	movhi	r3,3
   28918:	18c67004 	addi	r3,r3,6592
   2891c:	1085883a 	add	r2,r2,r2
   28920:	1885883a 	add	r2,r3,r2
   28924:	11800017 	ldw	r6,0(r2)
   28928:	000f883a 	mov	r7,zero
   2892c:	00282b00 	call	282b0 <__multadd>
   28930:	1025883a 	mov	r18,r2
   28934:	003fc706 	br	28854 <_gp+0xfffec9e0>
   28938:	05000044 	movi	r20,1
   2893c:	9809883a 	mov	r4,r19
   28940:	a00b883a 	mov	r5,r20
   28944:	00281e00 	call	281e0 <_Balloc>
   28948:	1023883a 	mov	r17,r2
   2894c:	00809c44 	movi	r2,625
   28950:	88800515 	stw	r2,20(r17)
   28954:	8d000415 	stw	r20,16(r17)
   28958:	9c401215 	stw	r17,72(r19)
   2895c:	88000015 	stw	zero,0(r17)
   28960:	003fc606 	br	2887c <_gp+0xfffeca08>

00028964 <__lshift>:
   28964:	defff904 	addi	sp,sp,-28
   28968:	dd000415 	stw	r20,16(sp)
   2896c:	dcc00315 	stw	r19,12(sp)
   28970:	3029d17a 	srai	r20,r6,5
   28974:	2cc00417 	ldw	r19,16(r5)
   28978:	28800217 	ldw	r2,8(r5)
   2897c:	dd400515 	stw	r21,20(sp)
   28980:	a4e7883a 	add	r19,r20,r19
   28984:	dc800215 	stw	r18,8(sp)
   28988:	dc400115 	stw	r17,4(sp)
   2898c:	dc000015 	stw	r16,0(sp)
   28990:	dfc00615 	stw	ra,24(sp)
   28994:	9c000044 	addi	r16,r19,1
   28998:	2823883a 	mov	r17,r5
   2899c:	302b883a 	mov	r21,r6
   289a0:	2025883a 	mov	r18,r4
   289a4:	29400117 	ldw	r5,4(r5)
   289a8:	1400030e 	bge	r2,r16,289b8 <__lshift+0x54>
   289ac:	1085883a 	add	r2,r2,r2
   289b0:	29400044 	addi	r5,r5,1
   289b4:	143ffd16 	blt	r2,r16,289ac <_gp+0xfffecb38>
   289b8:	9009883a 	mov	r4,r18
   289bc:	00281e00 	call	281e0 <_Balloc>
   289c0:	11c00504 	addi	r7,r2,20
   289c4:	0500090e 	bge	zero,r20,289ec <__lshift+0x88>
   289c8:	3811883a 	mov	r8,r7
   289cc:	0007883a 	mov	r3,zero
   289d0:	40000015 	stw	zero,0(r8)
   289d4:	18c00044 	addi	r3,r3,1
   289d8:	42000104 	addi	r8,r8,4
   289dc:	1d3ffc1e 	bne	r3,r20,289d0 <_gp+0xfffecb5c>
   289e0:	18c7883a 	add	r3,r3,r3
   289e4:	18c7883a 	add	r3,r3,r3
   289e8:	38cf883a 	add	r7,r7,r3
   289ec:	89000417 	ldw	r4,16(r17)
   289f0:	88c00504 	addi	r3,r17,20
   289f4:	a98007cc 	andi	r6,r21,31
   289f8:	2109883a 	add	r4,r4,r4
   289fc:	2109883a 	add	r4,r4,r4
   28a00:	1909883a 	add	r4,r3,r4
   28a04:	30002326 	beq	r6,zero,28a94 <__lshift+0x130>
   28a08:	01400804 	movi	r5,32
   28a0c:	298bc83a 	sub	r5,r5,r6
   28a10:	0013883a 	mov	r9,zero
   28a14:	1a000017 	ldw	r8,0(r3)
   28a18:	3815883a 	mov	r10,r7
   28a1c:	39c00104 	addi	r7,r7,4
   28a20:	4190983a 	sll	r8,r8,r6
   28a24:	18c00104 	addi	r3,r3,4
   28a28:	4a10b03a 	or	r8,r9,r8
   28a2c:	3a3fff15 	stw	r8,-4(r7)
   28a30:	1a3fff17 	ldw	r8,-4(r3)
   28a34:	4152d83a 	srl	r9,r8,r5
   28a38:	193ff636 	bltu	r3,r4,28a14 <_gp+0xfffecba0>
   28a3c:	52400115 	stw	r9,4(r10)
   28a40:	48001a1e 	bne	r9,zero,28aac <__lshift+0x148>
   28a44:	843fffc4 	addi	r16,r16,-1
   28a48:	14000415 	stw	r16,16(r2)
   28a4c:	88000826 	beq	r17,zero,28a70 <__lshift+0x10c>
   28a50:	89000117 	ldw	r4,4(r17)
   28a54:	90c01317 	ldw	r3,76(r18)
   28a58:	2109883a 	add	r4,r4,r4
   28a5c:	2109883a 	add	r4,r4,r4
   28a60:	1907883a 	add	r3,r3,r4
   28a64:	19000017 	ldw	r4,0(r3)
   28a68:	89000015 	stw	r4,0(r17)
   28a6c:	1c400015 	stw	r17,0(r3)
   28a70:	dfc00617 	ldw	ra,24(sp)
   28a74:	dd400517 	ldw	r21,20(sp)
   28a78:	dd000417 	ldw	r20,16(sp)
   28a7c:	dcc00317 	ldw	r19,12(sp)
   28a80:	dc800217 	ldw	r18,8(sp)
   28a84:	dc400117 	ldw	r17,4(sp)
   28a88:	dc000017 	ldw	r16,0(sp)
   28a8c:	dec00704 	addi	sp,sp,28
   28a90:	f800283a 	ret
   28a94:	19400017 	ldw	r5,0(r3)
   28a98:	39c00104 	addi	r7,r7,4
   28a9c:	18c00104 	addi	r3,r3,4
   28aa0:	397fff15 	stw	r5,-4(r7)
   28aa4:	193ffb36 	bltu	r3,r4,28a94 <_gp+0xfffecc20>
   28aa8:	003fe606 	br	28a44 <_gp+0xfffecbd0>
   28aac:	9c000084 	addi	r16,r19,2
   28ab0:	003fe406 	br	28a44 <_gp+0xfffecbd0>

00028ab4 <__mcmp>:
   28ab4:	20800417 	ldw	r2,16(r4)
   28ab8:	28c00417 	ldw	r3,16(r5)
   28abc:	10c5c83a 	sub	r2,r2,r3
   28ac0:	1000111e 	bne	r2,zero,28b08 <__mcmp+0x54>
   28ac4:	18c7883a 	add	r3,r3,r3
   28ac8:	18c7883a 	add	r3,r3,r3
   28acc:	21000504 	addi	r4,r4,20
   28ad0:	29400504 	addi	r5,r5,20
   28ad4:	20c5883a 	add	r2,r4,r3
   28ad8:	28cb883a 	add	r5,r5,r3
   28adc:	00000106 	br	28ae4 <__mcmp+0x30>
   28ae0:	20800a2e 	bgeu	r4,r2,28b0c <__mcmp+0x58>
   28ae4:	10bfff04 	addi	r2,r2,-4
   28ae8:	297fff04 	addi	r5,r5,-4
   28aec:	11800017 	ldw	r6,0(r2)
   28af0:	28c00017 	ldw	r3,0(r5)
   28af4:	30fffa26 	beq	r6,r3,28ae0 <_gp+0xfffecc6c>
   28af8:	30c00236 	bltu	r6,r3,28b04 <__mcmp+0x50>
   28afc:	00800044 	movi	r2,1
   28b00:	f800283a 	ret
   28b04:	00bfffc4 	movi	r2,-1
   28b08:	f800283a 	ret
   28b0c:	0005883a 	mov	r2,zero
   28b10:	f800283a 	ret

00028b14 <__mdiff>:
   28b14:	defffb04 	addi	sp,sp,-20
   28b18:	dc000015 	stw	r16,0(sp)
   28b1c:	2821883a 	mov	r16,r5
   28b20:	dcc00315 	stw	r19,12(sp)
   28b24:	300b883a 	mov	r5,r6
   28b28:	2027883a 	mov	r19,r4
   28b2c:	8009883a 	mov	r4,r16
   28b30:	dc800215 	stw	r18,8(sp)
   28b34:	dfc00415 	stw	ra,16(sp)
   28b38:	dc400115 	stw	r17,4(sp)
   28b3c:	3025883a 	mov	r18,r6
   28b40:	0028ab40 	call	28ab4 <__mcmp>
   28b44:	10005226 	beq	r2,zero,28c90 <__mdiff+0x17c>
   28b48:	10004c16 	blt	r2,zero,28c7c <__mdiff+0x168>
   28b4c:	0023883a 	mov	r17,zero
   28b50:	81400117 	ldw	r5,4(r16)
   28b54:	9809883a 	mov	r4,r19
   28b58:	00281e00 	call	281e0 <_Balloc>
   28b5c:	83400417 	ldw	r13,16(r16)
   28b60:	93800417 	ldw	r14,16(r18)
   28b64:	81000504 	addi	r4,r16,20
   28b68:	6b59883a 	add	r12,r13,r13
   28b6c:	739d883a 	add	r14,r14,r14
   28b70:	6319883a 	add	r12,r12,r12
   28b74:	91800504 	addi	r6,r18,20
   28b78:	739d883a 	add	r14,r14,r14
   28b7c:	14400315 	stw	r17,12(r2)
   28b80:	2319883a 	add	r12,r4,r12
   28b84:	339d883a 	add	r14,r6,r14
   28b88:	12400504 	addi	r9,r2,20
   28b8c:	0007883a 	mov	r3,zero
   28b90:	22000017 	ldw	r8,0(r4)
   28b94:	32800017 	ldw	r10,0(r6)
   28b98:	4ac00104 	addi	r11,r9,4
   28b9c:	41ffffcc 	andi	r7,r8,65535
   28ba0:	38c7883a 	add	r3,r7,r3
   28ba4:	51ffffcc 	andi	r7,r10,65535
   28ba8:	19cfc83a 	sub	r7,r3,r7
   28bac:	4010d43a 	srli	r8,r8,16
   28bb0:	5014d43a 	srli	r10,r10,16
   28bb4:	3807d43a 	srai	r3,r7,16
   28bb8:	39ffffcc 	andi	r7,r7,65535
   28bbc:	4291c83a 	sub	r8,r8,r10
   28bc0:	40c7883a 	add	r3,r8,r3
   28bc4:	1810943a 	slli	r8,r3,16
   28bc8:	31800104 	addi	r6,r6,4
   28bcc:	21000104 	addi	r4,r4,4
   28bd0:	41ceb03a 	or	r7,r8,r7
   28bd4:	49c00015 	stw	r7,0(r9)
   28bd8:	1807d43a 	srai	r3,r3,16
   28bdc:	580b883a 	mov	r5,r11
   28be0:	5813883a 	mov	r9,r11
   28be4:	33bfea36 	bltu	r6,r14,28b90 <_gp+0xfffecd1c>
   28be8:	2011883a 	mov	r8,r4
   28bec:	2300152e 	bgeu	r4,r12,28c44 <__mdiff+0x130>
   28bf0:	21400017 	ldw	r5,0(r4)
   28bf4:	4a400104 	addi	r9,r9,4
   28bf8:	21000104 	addi	r4,r4,4
   28bfc:	29ffffcc 	andi	r7,r5,65535
   28c00:	38c7883a 	add	r3,r7,r3
   28c04:	280ad43a 	srli	r5,r5,16
   28c08:	180dd43a 	srai	r6,r3,16
   28c0c:	19ffffcc 	andi	r7,r3,65535
   28c10:	3147883a 	add	r3,r6,r5
   28c14:	180a943a 	slli	r5,r3,16
   28c18:	1807d43a 	srai	r3,r3,16
   28c1c:	29ceb03a 	or	r7,r5,r7
   28c20:	49ffff15 	stw	r7,-4(r9)
   28c24:	233ff236 	bltu	r4,r12,28bf0 <_gp+0xfffecd7c>
   28c28:	0206303a 	nor	r3,zero,r8
   28c2c:	1b07883a 	add	r3,r3,r12
   28c30:	1806d0ba 	srli	r3,r3,2
   28c34:	18c00044 	addi	r3,r3,1
   28c38:	18c7883a 	add	r3,r3,r3
   28c3c:	18c7883a 	add	r3,r3,r3
   28c40:	58cb883a 	add	r5,r11,r3
   28c44:	28ffff04 	addi	r3,r5,-4
   28c48:	3800041e 	bne	r7,zero,28c5c <__mdiff+0x148>
   28c4c:	18ffff04 	addi	r3,r3,-4
   28c50:	19000017 	ldw	r4,0(r3)
   28c54:	6b7fffc4 	addi	r13,r13,-1
   28c58:	203ffc26 	beq	r4,zero,28c4c <_gp+0xfffecdd8>
   28c5c:	13400415 	stw	r13,16(r2)
   28c60:	dfc00417 	ldw	ra,16(sp)
   28c64:	dcc00317 	ldw	r19,12(sp)
   28c68:	dc800217 	ldw	r18,8(sp)
   28c6c:	dc400117 	ldw	r17,4(sp)
   28c70:	dc000017 	ldw	r16,0(sp)
   28c74:	dec00504 	addi	sp,sp,20
   28c78:	f800283a 	ret
   28c7c:	8005883a 	mov	r2,r16
   28c80:	04400044 	movi	r17,1
   28c84:	9021883a 	mov	r16,r18
   28c88:	1025883a 	mov	r18,r2
   28c8c:	003fb006 	br	28b50 <_gp+0xfffeccdc>
   28c90:	9809883a 	mov	r4,r19
   28c94:	000b883a 	mov	r5,zero
   28c98:	00281e00 	call	281e0 <_Balloc>
   28c9c:	00c00044 	movi	r3,1
   28ca0:	10c00415 	stw	r3,16(r2)
   28ca4:	10000515 	stw	zero,20(r2)
   28ca8:	003fed06 	br	28c60 <_gp+0xfffecdec>

00028cac <__ulp>:
   28cac:	295ffc2c 	andhi	r5,r5,32752
   28cb0:	00bf3034 	movhi	r2,64704
   28cb4:	2887883a 	add	r3,r5,r2
   28cb8:	00c0020e 	bge	zero,r3,28cc4 <__ulp+0x18>
   28cbc:	0005883a 	mov	r2,zero
   28cc0:	f800283a 	ret
   28cc4:	00c7c83a 	sub	r3,zero,r3
   28cc8:	180bd53a 	srai	r5,r3,20
   28ccc:	008004c4 	movi	r2,19
   28cd0:	11400a0e 	bge	r2,r5,28cfc <__ulp+0x50>
   28cd4:	00800c84 	movi	r2,50
   28cd8:	0007883a 	mov	r3,zero
   28cdc:	11400516 	blt	r2,r5,28cf4 <__ulp+0x48>
   28ce0:	00800cc4 	movi	r2,51
   28ce4:	114bc83a 	sub	r5,r2,r5
   28ce8:	00800044 	movi	r2,1
   28cec:	1144983a 	sll	r2,r2,r5
   28cf0:	f800283a 	ret
   28cf4:	00800044 	movi	r2,1
   28cf8:	f800283a 	ret
   28cfc:	00800234 	movhi	r2,8
   28d00:	1147d83a 	sra	r3,r2,r5
   28d04:	0005883a 	mov	r2,zero
   28d08:	f800283a 	ret

00028d0c <__b2d>:
   28d0c:	defffa04 	addi	sp,sp,-24
   28d10:	dc000015 	stw	r16,0(sp)
   28d14:	24000417 	ldw	r16,16(r4)
   28d18:	dc400115 	stw	r17,4(sp)
   28d1c:	24400504 	addi	r17,r4,20
   28d20:	8421883a 	add	r16,r16,r16
   28d24:	8421883a 	add	r16,r16,r16
   28d28:	8c21883a 	add	r16,r17,r16
   28d2c:	dc800215 	stw	r18,8(sp)
   28d30:	84bfff17 	ldw	r18,-4(r16)
   28d34:	dd000415 	stw	r20,16(sp)
   28d38:	dcc00315 	stw	r19,12(sp)
   28d3c:	9009883a 	mov	r4,r18
   28d40:	2829883a 	mov	r20,r5
   28d44:	dfc00515 	stw	ra,20(sp)
   28d48:	00284d40 	call	284d4 <__hi0bits>
   28d4c:	00c00804 	movi	r3,32
   28d50:	1887c83a 	sub	r3,r3,r2
   28d54:	a0c00015 	stw	r3,0(r20)
   28d58:	00c00284 	movi	r3,10
   28d5c:	84ffff04 	addi	r19,r16,-4
   28d60:	18801216 	blt	r3,r2,28dac <__b2d+0xa0>
   28d64:	014002c4 	movi	r5,11
   28d68:	2889c83a 	sub	r4,r5,r2
   28d6c:	9106d83a 	srl	r3,r18,r4
   28d70:	18cffc34 	orhi	r3,r3,16368
   28d74:	8cc0282e 	bgeu	r17,r19,28e18 <__b2d+0x10c>
   28d78:	817ffe17 	ldw	r5,-8(r16)
   28d7c:	290ad83a 	srl	r5,r5,r4
   28d80:	10800544 	addi	r2,r2,21
   28d84:	9084983a 	sll	r2,r18,r2
   28d88:	2884b03a 	or	r2,r5,r2
   28d8c:	dfc00517 	ldw	ra,20(sp)
   28d90:	dd000417 	ldw	r20,16(sp)
   28d94:	dcc00317 	ldw	r19,12(sp)
   28d98:	dc800217 	ldw	r18,8(sp)
   28d9c:	dc400117 	ldw	r17,4(sp)
   28da0:	dc000017 	ldw	r16,0(sp)
   28da4:	dec00604 	addi	sp,sp,24
   28da8:	f800283a 	ret
   28dac:	113ffd44 	addi	r4,r2,-11
   28db0:	8cc00f2e 	bgeu	r17,r19,28df0 <__b2d+0xe4>
   28db4:	81bffe04 	addi	r6,r16,-8
   28db8:	817ffe17 	ldw	r5,-8(r16)
   28dbc:	20001326 	beq	r4,zero,28e0c <__b2d+0x100>
   28dc0:	00c00ac4 	movi	r3,43
   28dc4:	1885c83a 	sub	r2,r3,r2
   28dc8:	2886d83a 	srl	r3,r5,r2
   28dcc:	9124983a 	sll	r18,r18,r4
   28dd0:	90e4b03a 	or	r18,r18,r3
   28dd4:	90cffc34 	orhi	r3,r18,16368
   28dd8:	8980112e 	bgeu	r17,r6,28e20 <__b2d+0x114>
   28ddc:	81bffd17 	ldw	r6,-12(r16)
   28de0:	308cd83a 	srl	r6,r6,r2
   28de4:	2904983a 	sll	r2,r5,r4
   28de8:	1184b03a 	or	r2,r2,r6
   28dec:	003fe706 	br	28d8c <_gp+0xfffecf18>
   28df0:	20000526 	beq	r4,zero,28e08 <__b2d+0xfc>
   28df4:	9124983a 	sll	r18,r18,r4
   28df8:	000d883a 	mov	r6,zero
   28dfc:	000b883a 	mov	r5,zero
   28e00:	90cffc34 	orhi	r3,r18,16368
   28e04:	003ff706 	br	28de4 <_gp+0xfffecf70>
   28e08:	000b883a 	mov	r5,zero
   28e0c:	90cffc34 	orhi	r3,r18,16368
   28e10:	2805883a 	mov	r2,r5
   28e14:	003fdd06 	br	28d8c <_gp+0xfffecf18>
   28e18:	000b883a 	mov	r5,zero
   28e1c:	003fd806 	br	28d80 <_gp+0xfffecf0c>
   28e20:	000d883a 	mov	r6,zero
   28e24:	003fef06 	br	28de4 <_gp+0xfffecf70>

00028e28 <__d2b>:
   28e28:	defff704 	addi	sp,sp,-36
   28e2c:	dc000215 	stw	r16,8(sp)
   28e30:	3021883a 	mov	r16,r6
   28e34:	dc400315 	stw	r17,12(sp)
   28e38:	8022907a 	slli	r17,r16,1
   28e3c:	dd400715 	stw	r21,28(sp)
   28e40:	282b883a 	mov	r21,r5
   28e44:	01400044 	movi	r5,1
   28e48:	dd000615 	stw	r20,24(sp)
   28e4c:	dcc00515 	stw	r19,20(sp)
   28e50:	dc800415 	stw	r18,16(sp)
   28e54:	dfc00815 	stw	ra,32(sp)
   28e58:	3829883a 	mov	r20,r7
   28e5c:	dc800917 	ldw	r18,36(sp)
   28e60:	8822d57a 	srli	r17,r17,21
   28e64:	00281e00 	call	281e0 <_Balloc>
   28e68:	1027883a 	mov	r19,r2
   28e6c:	00800434 	movhi	r2,16
   28e70:	10bfffc4 	addi	r2,r2,-1
   28e74:	808c703a 	and	r6,r16,r2
   28e78:	88000126 	beq	r17,zero,28e80 <__d2b+0x58>
   28e7c:	31800434 	orhi	r6,r6,16
   28e80:	d9800015 	stw	r6,0(sp)
   28e84:	a8001f26 	beq	r21,zero,28f04 <__d2b+0xdc>
   28e88:	d9000104 	addi	r4,sp,4
   28e8c:	dd400115 	stw	r21,4(sp)
   28e90:	002853c0 	call	2853c <__lo0bits>
   28e94:	d8c00017 	ldw	r3,0(sp)
   28e98:	1000291e 	bne	r2,zero,28f40 <__d2b+0x118>
   28e9c:	d9000117 	ldw	r4,4(sp)
   28ea0:	99000515 	stw	r4,20(r19)
   28ea4:	1820c03a 	cmpne	r16,r3,zero
   28ea8:	84000044 	addi	r16,r16,1
   28eac:	98c00615 	stw	r3,24(r19)
   28eb0:	9c000415 	stw	r16,16(r19)
   28eb4:	88001b1e 	bne	r17,zero,28f24 <__d2b+0xfc>
   28eb8:	800690ba 	slli	r3,r16,2
   28ebc:	10bef384 	addi	r2,r2,-1074
   28ec0:	a0800015 	stw	r2,0(r20)
   28ec4:	98c5883a 	add	r2,r19,r3
   28ec8:	11000417 	ldw	r4,16(r2)
   28ecc:	8020917a 	slli	r16,r16,5
   28ed0:	00284d40 	call	284d4 <__hi0bits>
   28ed4:	8085c83a 	sub	r2,r16,r2
   28ed8:	90800015 	stw	r2,0(r18)
   28edc:	9805883a 	mov	r2,r19
   28ee0:	dfc00817 	ldw	ra,32(sp)
   28ee4:	dd400717 	ldw	r21,28(sp)
   28ee8:	dd000617 	ldw	r20,24(sp)
   28eec:	dcc00517 	ldw	r19,20(sp)
   28ef0:	dc800417 	ldw	r18,16(sp)
   28ef4:	dc400317 	ldw	r17,12(sp)
   28ef8:	dc000217 	ldw	r16,8(sp)
   28efc:	dec00904 	addi	sp,sp,36
   28f00:	f800283a 	ret
   28f04:	d809883a 	mov	r4,sp
   28f08:	002853c0 	call	2853c <__lo0bits>
   28f0c:	d8c00017 	ldw	r3,0(sp)
   28f10:	04000044 	movi	r16,1
   28f14:	9c000415 	stw	r16,16(r19)
   28f18:	98c00515 	stw	r3,20(r19)
   28f1c:	10800804 	addi	r2,r2,32
   28f20:	883fe526 	beq	r17,zero,28eb8 <_gp+0xfffed044>
   28f24:	8c7ef344 	addi	r17,r17,-1075
   28f28:	88a3883a 	add	r17,r17,r2
   28f2c:	00c00d44 	movi	r3,53
   28f30:	a4400015 	stw	r17,0(r20)
   28f34:	1885c83a 	sub	r2,r3,r2
   28f38:	90800015 	stw	r2,0(r18)
   28f3c:	003fe706 	br	28edc <_gp+0xfffed068>
   28f40:	01000804 	movi	r4,32
   28f44:	2089c83a 	sub	r4,r4,r2
   28f48:	1908983a 	sll	r4,r3,r4
   28f4c:	d9400117 	ldw	r5,4(sp)
   28f50:	1886d83a 	srl	r3,r3,r2
   28f54:	2148b03a 	or	r4,r4,r5
   28f58:	99000515 	stw	r4,20(r19)
   28f5c:	d8c00015 	stw	r3,0(sp)
   28f60:	003fd006 	br	28ea4 <_gp+0xfffed030>

00028f64 <__ratio>:
   28f64:	defff904 	addi	sp,sp,-28
   28f68:	dc400315 	stw	r17,12(sp)
   28f6c:	2823883a 	mov	r17,r5
   28f70:	d9400104 	addi	r5,sp,4
   28f74:	dfc00615 	stw	ra,24(sp)
   28f78:	dcc00515 	stw	r19,20(sp)
   28f7c:	dc800415 	stw	r18,16(sp)
   28f80:	2027883a 	mov	r19,r4
   28f84:	dc000215 	stw	r16,8(sp)
   28f88:	0028d0c0 	call	28d0c <__b2d>
   28f8c:	8809883a 	mov	r4,r17
   28f90:	d80b883a 	mov	r5,sp
   28f94:	1025883a 	mov	r18,r2
   28f98:	1821883a 	mov	r16,r3
   28f9c:	0028d0c0 	call	28d0c <__b2d>
   28fa0:	8a400417 	ldw	r9,16(r17)
   28fa4:	9a000417 	ldw	r8,16(r19)
   28fa8:	100d883a 	mov	r6,r2
   28fac:	d8800017 	ldw	r2,0(sp)
   28fb0:	4251c83a 	sub	r8,r8,r9
   28fb4:	4012917a 	slli	r9,r8,5
   28fb8:	da000117 	ldw	r8,4(sp)
   28fbc:	4091c83a 	sub	r8,r8,r2
   28fc0:	4251883a 	add	r8,r8,r9
   28fc4:	02000d0e 	bge	zero,r8,28ffc <__ratio+0x98>
   28fc8:	4010953a 	slli	r8,r8,20
   28fcc:	4421883a 	add	r16,r8,r16
   28fd0:	9009883a 	mov	r4,r18
   28fd4:	800b883a 	mov	r5,r16
   28fd8:	180f883a 	mov	r7,r3
   28fdc:	002cc500 	call	2cc50 <__divdf3>
   28fe0:	dfc00617 	ldw	ra,24(sp)
   28fe4:	dcc00517 	ldw	r19,20(sp)
   28fe8:	dc800417 	ldw	r18,16(sp)
   28fec:	dc400317 	ldw	r17,12(sp)
   28ff0:	dc000217 	ldw	r16,8(sp)
   28ff4:	dec00704 	addi	sp,sp,28
   28ff8:	f800283a 	ret
   28ffc:	4010953a 	slli	r8,r8,20
   29000:	1a07c83a 	sub	r3,r3,r8
   29004:	003ff206 	br	28fd0 <_gp+0xfffed15c>

00029008 <_mprec_log10>:
   29008:	defffe04 	addi	sp,sp,-8
   2900c:	dc000015 	stw	r16,0(sp)
   29010:	dfc00115 	stw	ra,4(sp)
   29014:	008005c4 	movi	r2,23
   29018:	2021883a 	mov	r16,r4
   2901c:	11000d0e 	bge	r2,r4,29054 <_mprec_log10+0x4c>
   29020:	0005883a 	mov	r2,zero
   29024:	00cffc34 	movhi	r3,16368
   29028:	843fffc4 	addi	r16,r16,-1
   2902c:	1009883a 	mov	r4,r2
   29030:	180b883a 	mov	r5,r3
   29034:	000d883a 	mov	r6,zero
   29038:	01d00934 	movhi	r7,16420
   2903c:	002d7600 	call	2d760 <__muldf3>
   29040:	803ff91e 	bne	r16,zero,29028 <_gp+0xfffed1b4>
   29044:	dfc00117 	ldw	ra,4(sp)
   29048:	dc000017 	ldw	r16,0(sp)
   2904c:	dec00204 	addi	sp,sp,8
   29050:	f800283a 	ret
   29054:	202090fa 	slli	r16,r4,3
   29058:	008000f4 	movhi	r2,3
   2905c:	10868704 	addi	r2,r2,6684
   29060:	1421883a 	add	r16,r2,r16
   29064:	80800017 	ldw	r2,0(r16)
   29068:	80c00117 	ldw	r3,4(r16)
   2906c:	dfc00117 	ldw	ra,4(sp)
   29070:	dc000017 	ldw	r16,0(sp)
   29074:	dec00204 	addi	sp,sp,8
   29078:	f800283a 	ret

0002907c <__copybits>:
   2907c:	297fffc4 	addi	r5,r5,-1
   29080:	280fd17a 	srai	r7,r5,5
   29084:	30c00417 	ldw	r3,16(r6)
   29088:	30800504 	addi	r2,r6,20
   2908c:	39c00044 	addi	r7,r7,1
   29090:	18c7883a 	add	r3,r3,r3
   29094:	39cf883a 	add	r7,r7,r7
   29098:	18c7883a 	add	r3,r3,r3
   2909c:	39cf883a 	add	r7,r7,r7
   290a0:	10c7883a 	add	r3,r2,r3
   290a4:	21cf883a 	add	r7,r4,r7
   290a8:	10c00d2e 	bgeu	r2,r3,290e0 <__copybits+0x64>
   290ac:	200b883a 	mov	r5,r4
   290b0:	12000017 	ldw	r8,0(r2)
   290b4:	29400104 	addi	r5,r5,4
   290b8:	10800104 	addi	r2,r2,4
   290bc:	2a3fff15 	stw	r8,-4(r5)
   290c0:	10fffb36 	bltu	r2,r3,290b0 <_gp+0xfffed23c>
   290c4:	1985c83a 	sub	r2,r3,r6
   290c8:	10bffac4 	addi	r2,r2,-21
   290cc:	1004d0ba 	srli	r2,r2,2
   290d0:	10800044 	addi	r2,r2,1
   290d4:	1085883a 	add	r2,r2,r2
   290d8:	1085883a 	add	r2,r2,r2
   290dc:	2089883a 	add	r4,r4,r2
   290e0:	21c0032e 	bgeu	r4,r7,290f0 <__copybits+0x74>
   290e4:	20000015 	stw	zero,0(r4)
   290e8:	21000104 	addi	r4,r4,4
   290ec:	21fffd36 	bltu	r4,r7,290e4 <_gp+0xfffed270>
   290f0:	f800283a 	ret

000290f4 <__any_on>:
   290f4:	20c00417 	ldw	r3,16(r4)
   290f8:	2805d17a 	srai	r2,r5,5
   290fc:	21000504 	addi	r4,r4,20
   29100:	18800d0e 	bge	r3,r2,29138 <__any_on+0x44>
   29104:	18c7883a 	add	r3,r3,r3
   29108:	18c7883a 	add	r3,r3,r3
   2910c:	20c7883a 	add	r3,r4,r3
   29110:	20c0192e 	bgeu	r4,r3,29178 <__any_on+0x84>
   29114:	18bfff17 	ldw	r2,-4(r3)
   29118:	18ffff04 	addi	r3,r3,-4
   2911c:	1000041e 	bne	r2,zero,29130 <__any_on+0x3c>
   29120:	20c0142e 	bgeu	r4,r3,29174 <__any_on+0x80>
   29124:	18ffff04 	addi	r3,r3,-4
   29128:	19400017 	ldw	r5,0(r3)
   2912c:	283ffc26 	beq	r5,zero,29120 <_gp+0xfffed2ac>
   29130:	00800044 	movi	r2,1
   29134:	f800283a 	ret
   29138:	10c00a0e 	bge	r2,r3,29164 <__any_on+0x70>
   2913c:	1085883a 	add	r2,r2,r2
   29140:	1085883a 	add	r2,r2,r2
   29144:	294007cc 	andi	r5,r5,31
   29148:	2087883a 	add	r3,r4,r2
   2914c:	283ff026 	beq	r5,zero,29110 <_gp+0xfffed29c>
   29150:	19800017 	ldw	r6,0(r3)
   29154:	3144d83a 	srl	r2,r6,r5
   29158:	114a983a 	sll	r5,r2,r5
   2915c:	29bff41e 	bne	r5,r6,29130 <_gp+0xfffed2bc>
   29160:	003feb06 	br	29110 <_gp+0xfffed29c>
   29164:	1085883a 	add	r2,r2,r2
   29168:	1085883a 	add	r2,r2,r2
   2916c:	2087883a 	add	r3,r4,r2
   29170:	003fe706 	br	29110 <_gp+0xfffed29c>
   29174:	f800283a 	ret
   29178:	0005883a 	mov	r2,zero
   2917c:	f800283a 	ret

00029180 <_putc_r>:
   29180:	defffc04 	addi	sp,sp,-16
   29184:	dc000215 	stw	r16,8(sp)
   29188:	dfc00315 	stw	ra,12(sp)
   2918c:	2021883a 	mov	r16,r4
   29190:	20000226 	beq	r4,zero,2919c <_putc_r+0x1c>
   29194:	20800e17 	ldw	r2,56(r4)
   29198:	10001b26 	beq	r2,zero,29208 <_putc_r+0x88>
   2919c:	30800217 	ldw	r2,8(r6)
   291a0:	10bfffc4 	addi	r2,r2,-1
   291a4:	30800215 	stw	r2,8(r6)
   291a8:	10000a16 	blt	r2,zero,291d4 <_putc_r+0x54>
   291ac:	30800017 	ldw	r2,0(r6)
   291b0:	11400005 	stb	r5,0(r2)
   291b4:	30800017 	ldw	r2,0(r6)
   291b8:	10c00044 	addi	r3,r2,1
   291bc:	30c00015 	stw	r3,0(r6)
   291c0:	10800003 	ldbu	r2,0(r2)
   291c4:	dfc00317 	ldw	ra,12(sp)
   291c8:	dc000217 	ldw	r16,8(sp)
   291cc:	dec00404 	addi	sp,sp,16
   291d0:	f800283a 	ret
   291d4:	30c00617 	ldw	r3,24(r6)
   291d8:	10c00616 	blt	r2,r3,291f4 <_putc_r+0x74>
   291dc:	30800017 	ldw	r2,0(r6)
   291e0:	00c00284 	movi	r3,10
   291e4:	11400005 	stb	r5,0(r2)
   291e8:	30800017 	ldw	r2,0(r6)
   291ec:	11400003 	ldbu	r5,0(r2)
   291f0:	28fff11e 	bne	r5,r3,291b8 <_gp+0xfffed344>
   291f4:	8009883a 	mov	r4,r16
   291f8:	dfc00317 	ldw	ra,12(sp)
   291fc:	dc000217 	ldw	r16,8(sp)
   29200:	dec00404 	addi	sp,sp,16
   29204:	002af6c1 	jmpi	2af6c <__swbuf_r>
   29208:	d9400015 	stw	r5,0(sp)
   2920c:	d9800115 	stw	r6,4(sp)
   29210:	00271200 	call	27120 <__sinit>
   29214:	d9800117 	ldw	r6,4(sp)
   29218:	d9400017 	ldw	r5,0(sp)
   2921c:	003fdf06 	br	2919c <_gp+0xfffed328>

00029220 <putc>:
   29220:	008000f4 	movhi	r2,3
   29224:	defffc04 	addi	sp,sp,-16
   29228:	108fa304 	addi	r2,r2,16012
   2922c:	dc400115 	stw	r17,4(sp)
   29230:	14400017 	ldw	r17,0(r2)
   29234:	dc800215 	stw	r18,8(sp)
   29238:	dc000015 	stw	r16,0(sp)
   2923c:	dfc00315 	stw	ra,12(sp)
   29240:	2025883a 	mov	r18,r4
   29244:	2821883a 	mov	r16,r5
   29248:	88000226 	beq	r17,zero,29254 <putc+0x34>
   2924c:	88800e17 	ldw	r2,56(r17)
   29250:	10001a26 	beq	r2,zero,292bc <putc+0x9c>
   29254:	80800217 	ldw	r2,8(r16)
   29258:	10bfffc4 	addi	r2,r2,-1
   2925c:	80800215 	stw	r2,8(r16)
   29260:	10000c16 	blt	r2,zero,29294 <putc+0x74>
   29264:	80800017 	ldw	r2,0(r16)
   29268:	14800005 	stb	r18,0(r2)
   2926c:	80800017 	ldw	r2,0(r16)
   29270:	10c00044 	addi	r3,r2,1
   29274:	80c00015 	stw	r3,0(r16)
   29278:	10800003 	ldbu	r2,0(r2)
   2927c:	dfc00317 	ldw	ra,12(sp)
   29280:	dc800217 	ldw	r18,8(sp)
   29284:	dc400117 	ldw	r17,4(sp)
   29288:	dc000017 	ldw	r16,0(sp)
   2928c:	dec00404 	addi	sp,sp,16
   29290:	f800283a 	ret
   29294:	80c00617 	ldw	r3,24(r16)
   29298:	10c00b16 	blt	r2,r3,292c8 <putc+0xa8>
   2929c:	80800017 	ldw	r2,0(r16)
   292a0:	00c00284 	movi	r3,10
   292a4:	14800005 	stb	r18,0(r2)
   292a8:	80800017 	ldw	r2,0(r16)
   292ac:	11400003 	ldbu	r5,0(r2)
   292b0:	28ffef1e 	bne	r5,r3,29270 <_gp+0xfffed3fc>
   292b4:	8809883a 	mov	r4,r17
   292b8:	00000506 	br	292d0 <putc+0xb0>
   292bc:	8809883a 	mov	r4,r17
   292c0:	00271200 	call	27120 <__sinit>
   292c4:	003fe306 	br	29254 <_gp+0xfffed3e0>
   292c8:	8809883a 	mov	r4,r17
   292cc:	900b883a 	mov	r5,r18
   292d0:	800d883a 	mov	r6,r16
   292d4:	dfc00317 	ldw	ra,12(sp)
   292d8:	dc800217 	ldw	r18,8(sp)
   292dc:	dc400117 	ldw	r17,4(sp)
   292e0:	dc000017 	ldw	r16,0(sp)
   292e4:	dec00404 	addi	sp,sp,16
   292e8:	002af6c1 	jmpi	2af6c <__swbuf_r>

000292ec <_realloc_r>:
   292ec:	defff604 	addi	sp,sp,-40
   292f0:	dd000415 	stw	r20,16(sp)
   292f4:	dc400115 	stw	r17,4(sp)
   292f8:	dfc00915 	stw	ra,36(sp)
   292fc:	df000815 	stw	fp,32(sp)
   29300:	ddc00715 	stw	r23,28(sp)
   29304:	dd800615 	stw	r22,24(sp)
   29308:	dd400515 	stw	r21,20(sp)
   2930c:	dcc00315 	stw	r19,12(sp)
   29310:	dc800215 	stw	r18,8(sp)
   29314:	dc000015 	stw	r16,0(sp)
   29318:	2829883a 	mov	r20,r5
   2931c:	3023883a 	mov	r17,r6
   29320:	2800ad26 	beq	r5,zero,295d8 <_realloc_r+0x2ec>
   29324:	2025883a 	mov	r18,r4
   29328:	002ef740 	call	2ef74 <__malloc_lock>
   2932c:	a0ffff17 	ldw	r3,-4(r20)
   29330:	043fff04 	movi	r16,-4
   29334:	890002c4 	addi	r4,r17,11
   29338:	01c00584 	movi	r7,22
   2933c:	a57ffe04 	addi	r21,r20,-8
   29340:	1c20703a 	and	r16,r3,r16
   29344:	39001d2e 	bgeu	r7,r4,293bc <_realloc_r+0xd0>
   29348:	05bffe04 	movi	r22,-8
   2934c:	25ac703a 	and	r22,r4,r22
   29350:	b00f883a 	mov	r7,r22
   29354:	b0006516 	blt	r22,zero,294ec <_realloc_r+0x200>
   29358:	b4406436 	bltu	r22,r17,294ec <_realloc_r+0x200>
   2935c:	81c01a0e 	bge	r16,r7,293c8 <_realloc_r+0xdc>
   29360:	070000f4 	movhi	fp,3
   29364:	e708f204 	addi	fp,fp,9160
   29368:	e1400217 	ldw	r5,8(fp)
   2936c:	ac11883a 	add	r8,r21,r16
   29370:	2a006226 	beq	r5,r8,294fc <_realloc_r+0x210>
   29374:	41800117 	ldw	r6,4(r8)
   29378:	027fff84 	movi	r9,-2
   2937c:	3252703a 	and	r9,r6,r9
   29380:	4253883a 	add	r9,r8,r9
   29384:	49000117 	ldw	r4,4(r9)
   29388:	2100004c 	andi	r4,r4,1
   2938c:	2000281e 	bne	r4,zero,29430 <_realloc_r+0x144>
   29390:	00bfff04 	movi	r2,-4
   29394:	3084703a 	and	r2,r6,r2
   29398:	1409883a 	add	r4,r2,r16
   2939c:	21c05e16 	blt	r4,r7,29518 <_realloc_r+0x22c>
   293a0:	40800317 	ldw	r2,12(r8)
   293a4:	41400217 	ldw	r5,8(r8)
   293a8:	a023883a 	mov	r17,r20
   293ac:	2021883a 	mov	r16,r4
   293b0:	28800315 	stw	r2,12(r5)
   293b4:	11400215 	stw	r5,8(r2)
   293b8:	00000406 	br	293cc <_realloc_r+0xe0>
   293bc:	01c00404 	movi	r7,16
   293c0:	382d883a 	mov	r22,r7
   293c4:	003fe406 	br	29358 <_gp+0xfffed4e4>
   293c8:	a023883a 	mov	r17,r20
   293cc:	858fc83a 	sub	r7,r16,r22
   293d0:	008003c4 	movi	r2,15
   293d4:	18c0004c 	andi	r3,r3,1
   293d8:	11c07236 	bltu	r2,r7,295a4 <_realloc_r+0x2b8>
   293dc:	1c06b03a 	or	r3,r3,r16
   293e0:	a8c00115 	stw	r3,4(r21)
   293e4:	ac21883a 	add	r16,r21,r16
   293e8:	80800117 	ldw	r2,4(r16)
   293ec:	10800054 	ori	r2,r2,1
   293f0:	80800115 	stw	r2,4(r16)
   293f4:	9009883a 	mov	r4,r18
   293f8:	002ef940 	call	2ef94 <__malloc_unlock>
   293fc:	8805883a 	mov	r2,r17
   29400:	dfc00917 	ldw	ra,36(sp)
   29404:	df000817 	ldw	fp,32(sp)
   29408:	ddc00717 	ldw	r23,28(sp)
   2940c:	dd800617 	ldw	r22,24(sp)
   29410:	dd400517 	ldw	r21,20(sp)
   29414:	dd000417 	ldw	r20,16(sp)
   29418:	dcc00317 	ldw	r19,12(sp)
   2941c:	dc800217 	ldw	r18,8(sp)
   29420:	dc400117 	ldw	r17,4(sp)
   29424:	dc000017 	ldw	r16,0(sp)
   29428:	dec00a04 	addi	sp,sp,40
   2942c:	f800283a 	ret
   29430:	18c0004c 	andi	r3,r3,1
   29434:	1800081e 	bne	r3,zero,29458 <_realloc_r+0x16c>
   29438:	a4fffe17 	ldw	r19,-8(r20)
   2943c:	00bfff04 	movi	r2,-4
   29440:	ace7c83a 	sub	r19,r21,r19
   29444:	98c00117 	ldw	r3,4(r19)
   29448:	1886703a 	and	r3,r3,r2
   2944c:	98000226 	beq	r19,zero,29458 <_realloc_r+0x16c>
   29450:	1c2f883a 	add	r23,r3,r16
   29454:	b9c06d0e 	bge	r23,r7,2960c <_realloc_r+0x320>
   29458:	880b883a 	mov	r5,r17
   2945c:	9009883a 	mov	r4,r18
   29460:	00225940 	call	22594 <_malloc_r>
   29464:	1023883a 	mov	r17,r2
   29468:	1000ef26 	beq	r2,zero,29828 <_realloc_r+0x53c>
   2946c:	a0ffff17 	ldw	r3,-4(r20)
   29470:	113ffe04 	addi	r4,r2,-8
   29474:	00bfff84 	movi	r2,-2
   29478:	1884703a 	and	r2,r3,r2
   2947c:	a885883a 	add	r2,r21,r2
   29480:	2080bf26 	beq	r4,r2,29780 <_realloc_r+0x494>
   29484:	81bfff04 	addi	r6,r16,-4
   29488:	00800904 	movi	r2,36
   2948c:	11808936 	bltu	r2,r6,296b4 <_realloc_r+0x3c8>
   29490:	00c004c4 	movi	r3,19
   29494:	19806c2e 	bgeu	r3,r6,29648 <_realloc_r+0x35c>
   29498:	a0c00017 	ldw	r3,0(r20)
   2949c:	88c00015 	stw	r3,0(r17)
   294a0:	a0c00117 	ldw	r3,4(r20)
   294a4:	88c00115 	stw	r3,4(r17)
   294a8:	00c006c4 	movi	r3,27
   294ac:	1980ac36 	bltu	r3,r6,29760 <_realloc_r+0x474>
   294b0:	88800204 	addi	r2,r17,8
   294b4:	a0c00204 	addi	r3,r20,8
   294b8:	19000017 	ldw	r4,0(r3)
   294bc:	11000015 	stw	r4,0(r2)
   294c0:	19000117 	ldw	r4,4(r3)
   294c4:	11000115 	stw	r4,4(r2)
   294c8:	18c00217 	ldw	r3,8(r3)
   294cc:	10c00215 	stw	r3,8(r2)
   294d0:	a00b883a 	mov	r5,r20
   294d4:	9009883a 	mov	r4,r18
   294d8:	00272940 	call	27294 <_free_r>
   294dc:	9009883a 	mov	r4,r18
   294e0:	002ef940 	call	2ef94 <__malloc_unlock>
   294e4:	8805883a 	mov	r2,r17
   294e8:	003fc506 	br	29400 <_gp+0xfffed58c>
   294ec:	00800304 	movi	r2,12
   294f0:	90800015 	stw	r2,0(r18)
   294f4:	0005883a 	mov	r2,zero
   294f8:	003fc106 	br	29400 <_gp+0xfffed58c>
   294fc:	29800117 	ldw	r6,4(r5)
   29500:	00bfff04 	movi	r2,-4
   29504:	b1000404 	addi	r4,r22,16
   29508:	3084703a 	and	r2,r6,r2
   2950c:	140d883a 	add	r6,r2,r16
   29510:	31005b0e 	bge	r6,r4,29680 <_realloc_r+0x394>
   29514:	2811883a 	mov	r8,r5
   29518:	18c0004c 	andi	r3,r3,1
   2951c:	183fce1e 	bne	r3,zero,29458 <_gp+0xfffed5e4>
   29520:	a4fffe17 	ldw	r19,-8(r20)
   29524:	00ffff04 	movi	r3,-4
   29528:	ace7c83a 	sub	r19,r21,r19
   2952c:	99000117 	ldw	r4,4(r19)
   29530:	20c6703a 	and	r3,r4,r3
   29534:	403fc526 	beq	r8,zero,2944c <_gp+0xfffed5d8>
   29538:	1c2f883a 	add	r23,r3,r16
   2953c:	b8af883a 	add	r23,r23,r2
   29540:	41406026 	beq	r8,r5,296c4 <_realloc_r+0x3d8>
   29544:	b9ffc116 	blt	r23,r7,2944c <_gp+0xfffed5d8>
   29548:	40c00217 	ldw	r3,8(r8)
   2954c:	40800317 	ldw	r2,12(r8)
   29550:	81bfff04 	addi	r6,r16,-4
   29554:	01000904 	movi	r4,36
   29558:	18800315 	stw	r2,12(r3)
   2955c:	10c00215 	stw	r3,8(r2)
   29560:	99400217 	ldw	r5,8(r19)
   29564:	98c00317 	ldw	r3,12(r19)
   29568:	9c400204 	addi	r17,r19,8
   2956c:	28c00315 	stw	r3,12(r5)
   29570:	19400215 	stw	r5,8(r3)
   29574:	21802d36 	bltu	r4,r6,2962c <_realloc_r+0x340>
   29578:	008004c4 	movi	r2,19
   2957c:	1180352e 	bgeu	r2,r6,29654 <_realloc_r+0x368>
   29580:	a0800017 	ldw	r2,0(r20)
   29584:	98800215 	stw	r2,8(r19)
   29588:	a0800117 	ldw	r2,4(r20)
   2958c:	98800315 	stw	r2,12(r19)
   29590:	008006c4 	movi	r2,27
   29594:	11808036 	bltu	r2,r6,29798 <_realloc_r+0x4ac>
   29598:	98c00404 	addi	r3,r19,16
   2959c:	a5000204 	addi	r20,r20,8
   295a0:	00002d06 	br	29658 <_realloc_r+0x36c>
   295a4:	1d86b03a 	or	r3,r3,r22
   295a8:	ad8b883a 	add	r5,r21,r22
   295ac:	a8c00115 	stw	r3,4(r21)
   295b0:	38800054 	ori	r2,r7,1
   295b4:	28800115 	stw	r2,4(r5)
   295b8:	29cf883a 	add	r7,r5,r7
   295bc:	38800117 	ldw	r2,4(r7)
   295c0:	9009883a 	mov	r4,r18
   295c4:	29400204 	addi	r5,r5,8
   295c8:	10800054 	ori	r2,r2,1
   295cc:	38800115 	stw	r2,4(r7)
   295d0:	00272940 	call	27294 <_free_r>
   295d4:	003f8706 	br	293f4 <_gp+0xfffed580>
   295d8:	300b883a 	mov	r5,r6
   295dc:	dfc00917 	ldw	ra,36(sp)
   295e0:	df000817 	ldw	fp,32(sp)
   295e4:	ddc00717 	ldw	r23,28(sp)
   295e8:	dd800617 	ldw	r22,24(sp)
   295ec:	dd400517 	ldw	r21,20(sp)
   295f0:	dd000417 	ldw	r20,16(sp)
   295f4:	dcc00317 	ldw	r19,12(sp)
   295f8:	dc800217 	ldw	r18,8(sp)
   295fc:	dc400117 	ldw	r17,4(sp)
   29600:	dc000017 	ldw	r16,0(sp)
   29604:	dec00a04 	addi	sp,sp,40
   29608:	00225941 	jmpi	22594 <_malloc_r>
   2960c:	98800317 	ldw	r2,12(r19)
   29610:	98c00217 	ldw	r3,8(r19)
   29614:	81bfff04 	addi	r6,r16,-4
   29618:	01000904 	movi	r4,36
   2961c:	18800315 	stw	r2,12(r3)
   29620:	10c00215 	stw	r3,8(r2)
   29624:	9c400204 	addi	r17,r19,8
   29628:	21bfd32e 	bgeu	r4,r6,29578 <_gp+0xfffed704>
   2962c:	8809883a 	mov	r4,r17
   29630:	a00b883a 	mov	r5,r20
   29634:	00280840 	call	28084 <memmove>
   29638:	98c00117 	ldw	r3,4(r19)
   2963c:	b821883a 	mov	r16,r23
   29640:	982b883a 	mov	r21,r19
   29644:	003f6106 	br	293cc <_gp+0xfffed558>
   29648:	8805883a 	mov	r2,r17
   2964c:	a007883a 	mov	r3,r20
   29650:	003f9906 	br	294b8 <_gp+0xfffed644>
   29654:	8807883a 	mov	r3,r17
   29658:	a0800017 	ldw	r2,0(r20)
   2965c:	b821883a 	mov	r16,r23
   29660:	982b883a 	mov	r21,r19
   29664:	18800015 	stw	r2,0(r3)
   29668:	a0800117 	ldw	r2,4(r20)
   2966c:	18800115 	stw	r2,4(r3)
   29670:	a0800217 	ldw	r2,8(r20)
   29674:	18800215 	stw	r2,8(r3)
   29678:	98c00117 	ldw	r3,4(r19)
   2967c:	003f5306 	br	293cc <_gp+0xfffed558>
   29680:	adab883a 	add	r21,r21,r22
   29684:	3585c83a 	sub	r2,r6,r22
   29688:	e5400215 	stw	r21,8(fp)
   2968c:	10800054 	ori	r2,r2,1
   29690:	a8800115 	stw	r2,4(r21)
   29694:	a0bfff17 	ldw	r2,-4(r20)
   29698:	9009883a 	mov	r4,r18
   2969c:	1080004c 	andi	r2,r2,1
   296a0:	b0acb03a 	or	r22,r22,r2
   296a4:	a5bfff15 	stw	r22,-4(r20)
   296a8:	002ef940 	call	2ef94 <__malloc_unlock>
   296ac:	a005883a 	mov	r2,r20
   296b0:	003f5306 	br	29400 <_gp+0xfffed58c>
   296b4:	8809883a 	mov	r4,r17
   296b8:	a00b883a 	mov	r5,r20
   296bc:	00280840 	call	28084 <memmove>
   296c0:	003f8306 	br	294d0 <_gp+0xfffed65c>
   296c4:	b0800404 	addi	r2,r22,16
   296c8:	b8bf6016 	blt	r23,r2,2944c <_gp+0xfffed5d8>
   296cc:	98800317 	ldw	r2,12(r19)
   296d0:	98c00217 	ldw	r3,8(r19)
   296d4:	81bfff04 	addi	r6,r16,-4
   296d8:	01000904 	movi	r4,36
   296dc:	18800315 	stw	r2,12(r3)
   296e0:	10c00215 	stw	r3,8(r2)
   296e4:	9c400204 	addi	r17,r19,8
   296e8:	21804336 	bltu	r4,r6,297f8 <_realloc_r+0x50c>
   296ec:	008004c4 	movi	r2,19
   296f0:	11803f2e 	bgeu	r2,r6,297f0 <_realloc_r+0x504>
   296f4:	a0800017 	ldw	r2,0(r20)
   296f8:	98800215 	stw	r2,8(r19)
   296fc:	a0800117 	ldw	r2,4(r20)
   29700:	98800315 	stw	r2,12(r19)
   29704:	008006c4 	movi	r2,27
   29708:	11803f36 	bltu	r2,r6,29808 <_realloc_r+0x51c>
   2970c:	98800404 	addi	r2,r19,16
   29710:	a5000204 	addi	r20,r20,8
   29714:	a0c00017 	ldw	r3,0(r20)
   29718:	10c00015 	stw	r3,0(r2)
   2971c:	a0c00117 	ldw	r3,4(r20)
   29720:	10c00115 	stw	r3,4(r2)
   29724:	a0c00217 	ldw	r3,8(r20)
   29728:	10c00215 	stw	r3,8(r2)
   2972c:	9d87883a 	add	r3,r19,r22
   29730:	bd85c83a 	sub	r2,r23,r22
   29734:	e0c00215 	stw	r3,8(fp)
   29738:	10800054 	ori	r2,r2,1
   2973c:	18800115 	stw	r2,4(r3)
   29740:	98800117 	ldw	r2,4(r19)
   29744:	9009883a 	mov	r4,r18
   29748:	1080004c 	andi	r2,r2,1
   2974c:	b0acb03a 	or	r22,r22,r2
   29750:	9d800115 	stw	r22,4(r19)
   29754:	002ef940 	call	2ef94 <__malloc_unlock>
   29758:	8805883a 	mov	r2,r17
   2975c:	003f2806 	br	29400 <_gp+0xfffed58c>
   29760:	a0c00217 	ldw	r3,8(r20)
   29764:	88c00215 	stw	r3,8(r17)
   29768:	a0c00317 	ldw	r3,12(r20)
   2976c:	88c00315 	stw	r3,12(r17)
   29770:	30801126 	beq	r6,r2,297b8 <_realloc_r+0x4cc>
   29774:	88800404 	addi	r2,r17,16
   29778:	a0c00404 	addi	r3,r20,16
   2977c:	003f4e06 	br	294b8 <_gp+0xfffed644>
   29780:	893fff17 	ldw	r4,-4(r17)
   29784:	00bfff04 	movi	r2,-4
   29788:	a023883a 	mov	r17,r20
   2978c:	2084703a 	and	r2,r4,r2
   29790:	80a1883a 	add	r16,r16,r2
   29794:	003f0d06 	br	293cc <_gp+0xfffed558>
   29798:	a0800217 	ldw	r2,8(r20)
   2979c:	98800415 	stw	r2,16(r19)
   297a0:	a0800317 	ldw	r2,12(r20)
   297a4:	98800515 	stw	r2,20(r19)
   297a8:	31000a26 	beq	r6,r4,297d4 <_realloc_r+0x4e8>
   297ac:	98c00604 	addi	r3,r19,24
   297b0:	a5000404 	addi	r20,r20,16
   297b4:	003fa806 	br	29658 <_gp+0xfffed7e4>
   297b8:	a1000417 	ldw	r4,16(r20)
   297bc:	88800604 	addi	r2,r17,24
   297c0:	a0c00604 	addi	r3,r20,24
   297c4:	89000415 	stw	r4,16(r17)
   297c8:	a1000517 	ldw	r4,20(r20)
   297cc:	89000515 	stw	r4,20(r17)
   297d0:	003f3906 	br	294b8 <_gp+0xfffed644>
   297d4:	a0800417 	ldw	r2,16(r20)
   297d8:	a5000604 	addi	r20,r20,24
   297dc:	98c00804 	addi	r3,r19,32
   297e0:	98800615 	stw	r2,24(r19)
   297e4:	a0bfff17 	ldw	r2,-4(r20)
   297e8:	98800715 	stw	r2,28(r19)
   297ec:	003f9a06 	br	29658 <_gp+0xfffed7e4>
   297f0:	8805883a 	mov	r2,r17
   297f4:	003fc706 	br	29714 <_gp+0xfffed8a0>
   297f8:	8809883a 	mov	r4,r17
   297fc:	a00b883a 	mov	r5,r20
   29800:	00280840 	call	28084 <memmove>
   29804:	003fc906 	br	2972c <_gp+0xfffed8b8>
   29808:	a0800217 	ldw	r2,8(r20)
   2980c:	98800415 	stw	r2,16(r19)
   29810:	a0800317 	ldw	r2,12(r20)
   29814:	98800515 	stw	r2,20(r19)
   29818:	31000726 	beq	r6,r4,29838 <_realloc_r+0x54c>
   2981c:	98800604 	addi	r2,r19,24
   29820:	a5000404 	addi	r20,r20,16
   29824:	003fbb06 	br	29714 <_gp+0xfffed8a0>
   29828:	9009883a 	mov	r4,r18
   2982c:	002ef940 	call	2ef94 <__malloc_unlock>
   29830:	0005883a 	mov	r2,zero
   29834:	003ef206 	br	29400 <_gp+0xfffed58c>
   29838:	a0c00417 	ldw	r3,16(r20)
   2983c:	a5000604 	addi	r20,r20,24
   29840:	98800804 	addi	r2,r19,32
   29844:	98c00615 	stw	r3,24(r19)
   29848:	a0ffff17 	ldw	r3,-4(r20)
   2984c:	98c00715 	stw	r3,28(r19)
   29850:	003fb006 	br	29714 <_gp+0xfffed8a0>

00029854 <__fpclassifyd>:
   29854:	00a00034 	movhi	r2,32768
   29858:	10bfffc4 	addi	r2,r2,-1
   2985c:	2884703a 	and	r2,r5,r2
   29860:	10000726 	beq	r2,zero,29880 <__fpclassifyd+0x2c>
   29864:	00fffc34 	movhi	r3,65520
   29868:	019ff834 	movhi	r6,32736
   2986c:	28c7883a 	add	r3,r5,r3
   29870:	31bfffc4 	addi	r6,r6,-1
   29874:	30c00536 	bltu	r6,r3,2988c <__fpclassifyd+0x38>
   29878:	00800104 	movi	r2,4
   2987c:	f800283a 	ret
   29880:	2000021e 	bne	r4,zero,2988c <__fpclassifyd+0x38>
   29884:	00800084 	movi	r2,2
   29888:	f800283a 	ret
   2988c:	00dffc34 	movhi	r3,32752
   29890:	019ff834 	movhi	r6,32736
   29894:	28cb883a 	add	r5,r5,r3
   29898:	31bfffc4 	addi	r6,r6,-1
   2989c:	317ff62e 	bgeu	r6,r5,29878 <_gp+0xfffeda04>
   298a0:	01400434 	movhi	r5,16
   298a4:	297fffc4 	addi	r5,r5,-1
   298a8:	28800236 	bltu	r5,r2,298b4 <__fpclassifyd+0x60>
   298ac:	008000c4 	movi	r2,3
   298b0:	f800283a 	ret
   298b4:	10c00226 	beq	r2,r3,298c0 <__fpclassifyd+0x6c>
   298b8:	0005883a 	mov	r2,zero
   298bc:	f800283a 	ret
   298c0:	2005003a 	cmpeq	r2,r4,zero
   298c4:	f800283a 	ret

000298c8 <__sread>:
   298c8:	defffe04 	addi	sp,sp,-8
   298cc:	dc000015 	stw	r16,0(sp)
   298d0:	2821883a 	mov	r16,r5
   298d4:	2940038f 	ldh	r5,14(r5)
   298d8:	dfc00115 	stw	ra,4(sp)
   298dc:	002b6200 	call	2b620 <_read_r>
   298e0:	10000716 	blt	r2,zero,29900 <__sread+0x38>
   298e4:	80c01417 	ldw	r3,80(r16)
   298e8:	1887883a 	add	r3,r3,r2
   298ec:	80c01415 	stw	r3,80(r16)
   298f0:	dfc00117 	ldw	ra,4(sp)
   298f4:	dc000017 	ldw	r16,0(sp)
   298f8:	dec00204 	addi	sp,sp,8
   298fc:	f800283a 	ret
   29900:	80c0030b 	ldhu	r3,12(r16)
   29904:	18fbffcc 	andi	r3,r3,61439
   29908:	80c0030d 	sth	r3,12(r16)
   2990c:	dfc00117 	ldw	ra,4(sp)
   29910:	dc000017 	ldw	r16,0(sp)
   29914:	dec00204 	addi	sp,sp,8
   29918:	f800283a 	ret

0002991c <__seofread>:
   2991c:	0005883a 	mov	r2,zero
   29920:	f800283a 	ret

00029924 <__swrite>:
   29924:	2880030b 	ldhu	r2,12(r5)
   29928:	defffb04 	addi	sp,sp,-20
   2992c:	dcc00315 	stw	r19,12(sp)
   29930:	dc800215 	stw	r18,8(sp)
   29934:	dc400115 	stw	r17,4(sp)
   29938:	dc000015 	stw	r16,0(sp)
   2993c:	dfc00415 	stw	ra,16(sp)
   29940:	10c0400c 	andi	r3,r2,256
   29944:	2821883a 	mov	r16,r5
   29948:	2027883a 	mov	r19,r4
   2994c:	3025883a 	mov	r18,r6
   29950:	3823883a 	mov	r17,r7
   29954:	18000526 	beq	r3,zero,2996c <__swrite+0x48>
   29958:	2940038f 	ldh	r5,14(r5)
   2995c:	000d883a 	mov	r6,zero
   29960:	01c00084 	movi	r7,2
   29964:	002b5c40 	call	2b5c4 <_lseek_r>
   29968:	8080030b 	ldhu	r2,12(r16)
   2996c:	8140038f 	ldh	r5,14(r16)
   29970:	10bbffcc 	andi	r2,r2,61439
   29974:	9809883a 	mov	r4,r19
   29978:	900d883a 	mov	r6,r18
   2997c:	880f883a 	mov	r7,r17
   29980:	8080030d 	sth	r2,12(r16)
   29984:	dfc00417 	ldw	ra,16(sp)
   29988:	dcc00317 	ldw	r19,12(sp)
   2998c:	dc800217 	ldw	r18,8(sp)
   29990:	dc400117 	ldw	r17,4(sp)
   29994:	dc000017 	ldw	r16,0(sp)
   29998:	dec00504 	addi	sp,sp,20
   2999c:	002b0c01 	jmpi	2b0c0 <_write_r>

000299a0 <__sseek>:
   299a0:	defffe04 	addi	sp,sp,-8
   299a4:	dc000015 	stw	r16,0(sp)
   299a8:	2821883a 	mov	r16,r5
   299ac:	2940038f 	ldh	r5,14(r5)
   299b0:	dfc00115 	stw	ra,4(sp)
   299b4:	002b5c40 	call	2b5c4 <_lseek_r>
   299b8:	00ffffc4 	movi	r3,-1
   299bc:	10c00826 	beq	r2,r3,299e0 <__sseek+0x40>
   299c0:	80c0030b 	ldhu	r3,12(r16)
   299c4:	80801415 	stw	r2,80(r16)
   299c8:	18c40014 	ori	r3,r3,4096
   299cc:	80c0030d 	sth	r3,12(r16)
   299d0:	dfc00117 	ldw	ra,4(sp)
   299d4:	dc000017 	ldw	r16,0(sp)
   299d8:	dec00204 	addi	sp,sp,8
   299dc:	f800283a 	ret
   299e0:	80c0030b 	ldhu	r3,12(r16)
   299e4:	18fbffcc 	andi	r3,r3,61439
   299e8:	80c0030d 	sth	r3,12(r16)
   299ec:	dfc00117 	ldw	ra,4(sp)
   299f0:	dc000017 	ldw	r16,0(sp)
   299f4:	dec00204 	addi	sp,sp,8
   299f8:	f800283a 	ret

000299fc <__sclose>:
   299fc:	2940038f 	ldh	r5,14(r5)
   29a00:	002b11c1 	jmpi	2b11c <_close_r>

00029a04 <strcmp>:
   29a04:	2144b03a 	or	r2,r4,r5
   29a08:	108000cc 	andi	r2,r2,3
   29a0c:	1000171e 	bne	r2,zero,29a6c <strcmp+0x68>
   29a10:	20800017 	ldw	r2,0(r4)
   29a14:	28c00017 	ldw	r3,0(r5)
   29a18:	10c0141e 	bne	r2,r3,29a6c <strcmp+0x68>
   29a1c:	027fbff4 	movhi	r9,65279
   29a20:	4a7fbfc4 	addi	r9,r9,-257
   29a24:	0086303a 	nor	r3,zero,r2
   29a28:	02202074 	movhi	r8,32897
   29a2c:	1245883a 	add	r2,r2,r9
   29a30:	42202004 	addi	r8,r8,-32640
   29a34:	10c4703a 	and	r2,r2,r3
   29a38:	1204703a 	and	r2,r2,r8
   29a3c:	10000226 	beq	r2,zero,29a48 <strcmp+0x44>
   29a40:	00001706 	br	29aa0 <strcmp+0x9c>
   29a44:	1000161e 	bne	r2,zero,29aa0 <strcmp+0x9c>
   29a48:	21000104 	addi	r4,r4,4
   29a4c:	20c00017 	ldw	r3,0(r4)
   29a50:	29400104 	addi	r5,r5,4
   29a54:	29800017 	ldw	r6,0(r5)
   29a58:	1a4f883a 	add	r7,r3,r9
   29a5c:	00c4303a 	nor	r2,zero,r3
   29a60:	3884703a 	and	r2,r7,r2
   29a64:	1204703a 	and	r2,r2,r8
   29a68:	19bff626 	beq	r3,r6,29a44 <_gp+0xfffedbd0>
   29a6c:	20800007 	ldb	r2,0(r4)
   29a70:	1000051e 	bne	r2,zero,29a88 <strcmp+0x84>
   29a74:	00000606 	br	29a90 <strcmp+0x8c>
   29a78:	21000044 	addi	r4,r4,1
   29a7c:	20800007 	ldb	r2,0(r4)
   29a80:	29400044 	addi	r5,r5,1
   29a84:	10000226 	beq	r2,zero,29a90 <strcmp+0x8c>
   29a88:	28c00007 	ldb	r3,0(r5)
   29a8c:	10fffa26 	beq	r2,r3,29a78 <_gp+0xfffedc04>
   29a90:	20800003 	ldbu	r2,0(r4)
   29a94:	28c00003 	ldbu	r3,0(r5)
   29a98:	10c5c83a 	sub	r2,r2,r3
   29a9c:	f800283a 	ret
   29aa0:	0005883a 	mov	r2,zero
   29aa4:	f800283a 	ret

00029aa8 <__sprint_r.part.0>:
   29aa8:	28801917 	ldw	r2,100(r5)
   29aac:	defff604 	addi	sp,sp,-40
   29ab0:	dd400515 	stw	r21,20(sp)
   29ab4:	dcc00315 	stw	r19,12(sp)
   29ab8:	dfc00915 	stw	ra,36(sp)
   29abc:	df000815 	stw	fp,32(sp)
   29ac0:	ddc00715 	stw	r23,28(sp)
   29ac4:	dd800615 	stw	r22,24(sp)
   29ac8:	dd000415 	stw	r20,16(sp)
   29acc:	dc800215 	stw	r18,8(sp)
   29ad0:	dc400115 	stw	r17,4(sp)
   29ad4:	dc000015 	stw	r16,0(sp)
   29ad8:	1088000c 	andi	r2,r2,8192
   29adc:	2827883a 	mov	r19,r5
   29ae0:	302b883a 	mov	r21,r6
   29ae4:	10002d26 	beq	r2,zero,29b9c <__sprint_r.part.0+0xf4>
   29ae8:	30800217 	ldw	r2,8(r6)
   29aec:	35800017 	ldw	r22,0(r6)
   29af0:	10002826 	beq	r2,zero,29b94 <__sprint_r.part.0+0xec>
   29af4:	2029883a 	mov	r20,r4
   29af8:	b5c00104 	addi	r23,r22,4
   29afc:	04bfffc4 	movi	r18,-1
   29b00:	bc400017 	ldw	r17,0(r23)
   29b04:	b4000017 	ldw	r16,0(r22)
   29b08:	0039883a 	mov	fp,zero
   29b0c:	8822d0ba 	srli	r17,r17,2
   29b10:	04400316 	blt	zero,r17,29b20 <__sprint_r.part.0+0x78>
   29b14:	00001806 	br	29b78 <__sprint_r.part.0+0xd0>
   29b18:	84000104 	addi	r16,r16,4
   29b1c:	8f001526 	beq	r17,fp,29b74 <__sprint_r.part.0+0xcc>
   29b20:	81400017 	ldw	r5,0(r16)
   29b24:	a009883a 	mov	r4,r20
   29b28:	980d883a 	mov	r6,r19
   29b2c:	002b3380 	call	2b338 <_fputwc_r>
   29b30:	e7000044 	addi	fp,fp,1
   29b34:	14bff81e 	bne	r2,r18,29b18 <_gp+0xfffedca4>
   29b38:	9005883a 	mov	r2,r18
   29b3c:	a8000215 	stw	zero,8(r21)
   29b40:	a8000115 	stw	zero,4(r21)
   29b44:	dfc00917 	ldw	ra,36(sp)
   29b48:	df000817 	ldw	fp,32(sp)
   29b4c:	ddc00717 	ldw	r23,28(sp)
   29b50:	dd800617 	ldw	r22,24(sp)
   29b54:	dd400517 	ldw	r21,20(sp)
   29b58:	dd000417 	ldw	r20,16(sp)
   29b5c:	dcc00317 	ldw	r19,12(sp)
   29b60:	dc800217 	ldw	r18,8(sp)
   29b64:	dc400117 	ldw	r17,4(sp)
   29b68:	dc000017 	ldw	r16,0(sp)
   29b6c:	dec00a04 	addi	sp,sp,40
   29b70:	f800283a 	ret
   29b74:	a8800217 	ldw	r2,8(r21)
   29b78:	8c63883a 	add	r17,r17,r17
   29b7c:	8c63883a 	add	r17,r17,r17
   29b80:	1445c83a 	sub	r2,r2,r17
   29b84:	a8800215 	stw	r2,8(r21)
   29b88:	b5800204 	addi	r22,r22,8
   29b8c:	bdc00204 	addi	r23,r23,8
   29b90:	103fdb1e 	bne	r2,zero,29b00 <_gp+0xfffedc8c>
   29b94:	0005883a 	mov	r2,zero
   29b98:	003fe806 	br	29b3c <_gp+0xfffedcc8>
   29b9c:	00275840 	call	27584 <__sfvwrite_r>
   29ba0:	003fe606 	br	29b3c <_gp+0xfffedcc8>

00029ba4 <__sprint_r>:
   29ba4:	30c00217 	ldw	r3,8(r6)
   29ba8:	18000126 	beq	r3,zero,29bb0 <__sprint_r+0xc>
   29bac:	0029aa81 	jmpi	29aa8 <__sprint_r.part.0>
   29bb0:	30000115 	stw	zero,4(r6)
   29bb4:	0005883a 	mov	r2,zero
   29bb8:	f800283a 	ret

00029bbc <___vfiprintf_internal_r>:
   29bbc:	deffca04 	addi	sp,sp,-216
   29bc0:	dd803215 	stw	r22,200(sp)
   29bc4:	dd403115 	stw	r21,196(sp)
   29bc8:	dfc03515 	stw	ra,212(sp)
   29bcc:	df003415 	stw	fp,208(sp)
   29bd0:	ddc03315 	stw	r23,204(sp)
   29bd4:	dd003015 	stw	r20,192(sp)
   29bd8:	dcc02f15 	stw	r19,188(sp)
   29bdc:	dc802e15 	stw	r18,184(sp)
   29be0:	dc402d15 	stw	r17,180(sp)
   29be4:	dc002c15 	stw	r16,176(sp)
   29be8:	d9002015 	stw	r4,128(sp)
   29bec:	d9c02215 	stw	r7,136(sp)
   29bf0:	282b883a 	mov	r21,r5
   29bf4:	302d883a 	mov	r22,r6
   29bf8:	20000226 	beq	r4,zero,29c04 <___vfiprintf_internal_r+0x48>
   29bfc:	20800e17 	ldw	r2,56(r4)
   29c00:	1001b126 	beq	r2,zero,2a2c8 <___vfiprintf_internal_r+0x70c>
   29c04:	a880030b 	ldhu	r2,12(r21)
   29c08:	10c8000c 	andi	r3,r2,8192
   29c0c:	1800061e 	bne	r3,zero,29c28 <___vfiprintf_internal_r+0x6c>
   29c10:	a9001917 	ldw	r4,100(r21)
   29c14:	00f7ffc4 	movi	r3,-8193
   29c18:	10880014 	ori	r2,r2,8192
   29c1c:	20c6703a 	and	r3,r4,r3
   29c20:	a880030d 	sth	r2,12(r21)
   29c24:	a8c01915 	stw	r3,100(r21)
   29c28:	10c0020c 	andi	r3,r2,8
   29c2c:	18018926 	beq	r3,zero,2a254 <___vfiprintf_internal_r+0x698>
   29c30:	a8c00417 	ldw	r3,16(r21)
   29c34:	18018726 	beq	r3,zero,2a254 <___vfiprintf_internal_r+0x698>
   29c38:	1080068c 	andi	r2,r2,26
   29c3c:	00c00284 	movi	r3,10
   29c40:	10c18c26 	beq	r2,r3,2a274 <___vfiprintf_internal_r+0x6b8>
   29c44:	d8801a04 	addi	r2,sp,104
   29c48:	d8c019c4 	addi	r3,sp,103
   29c4c:	070000f4 	movhi	fp,3
   29c50:	05c000f4 	movhi	r23,3
   29c54:	10c9c83a 	sub	r4,r2,r3
   29c58:	e706bd04 	addi	fp,fp,6900
   29c5c:	bdc6b904 	addi	r23,r23,6884
   29c60:	d8801e15 	stw	r2,120(sp)
   29c64:	d8c01f15 	stw	r3,124(sp)
   29c68:	dec01a15 	stw	sp,104(sp)
   29c6c:	d8001c15 	stw	zero,112(sp)
   29c70:	d8001b15 	stw	zero,108(sp)
   29c74:	d8002615 	stw	zero,152(sp)
   29c78:	d8002315 	stw	zero,140(sp)
   29c7c:	d9002715 	stw	r4,156(sp)
   29c80:	d811883a 	mov	r8,sp
   29c84:	dd402115 	stw	r21,132(sp)
   29c88:	b021883a 	mov	r16,r22
   29c8c:	80800007 	ldb	r2,0(r16)
   29c90:	10037226 	beq	r2,zero,2aa5c <___vfiprintf_internal_r+0xea0>
   29c94:	01000944 	movi	r4,37
   29c98:	11037026 	beq	r2,r4,2aa5c <___vfiprintf_internal_r+0xea0>
   29c9c:	8005883a 	mov	r2,r16
   29ca0:	00000106 	br	29ca8 <___vfiprintf_internal_r+0xec>
   29ca4:	19000326 	beq	r3,r4,29cb4 <___vfiprintf_internal_r+0xf8>
   29ca8:	10800044 	addi	r2,r2,1
   29cac:	10c00007 	ldb	r3,0(r2)
   29cb0:	183ffc1e 	bne	r3,zero,29ca4 <_gp+0xfffede30>
   29cb4:	1425c83a 	sub	r18,r2,r16
   29cb8:	1023883a 	mov	r17,r2
   29cbc:	90001026 	beq	r18,zero,29d00 <___vfiprintf_internal_r+0x144>
   29cc0:	d8c01c17 	ldw	r3,112(sp)
   29cc4:	d8801b17 	ldw	r2,108(sp)
   29cc8:	44000015 	stw	r16,0(r8)
   29ccc:	90c7883a 	add	r3,r18,r3
   29cd0:	10800044 	addi	r2,r2,1
   29cd4:	44800115 	stw	r18,4(r8)
   29cd8:	d8c01c15 	stw	r3,112(sp)
   29cdc:	d8801b15 	stw	r2,108(sp)
   29ce0:	010001c4 	movi	r4,7
   29ce4:	2080750e 	bge	r4,r2,29ebc <___vfiprintf_internal_r+0x300>
   29ce8:	18036f1e 	bne	r3,zero,2aaa8 <___vfiprintf_internal_r+0xeec>
   29cec:	d8802317 	ldw	r2,140(sp)
   29cf0:	d8001b15 	stw	zero,108(sp)
   29cf4:	d811883a 	mov	r8,sp
   29cf8:	1485883a 	add	r2,r2,r18
   29cfc:	d8802315 	stw	r2,140(sp)
   29d00:	88800007 	ldb	r2,0(r17)
   29d04:	10041026 	beq	r2,zero,2ad48 <___vfiprintf_internal_r+0x118c>
   29d08:	88c00047 	ldb	r3,1(r17)
   29d0c:	88800044 	addi	r2,r17,1
   29d10:	d8001d85 	stb	zero,118(sp)
   29d14:	000f883a 	mov	r7,zero
   29d18:	027fffc4 	movi	r9,-1
   29d1c:	0025883a 	mov	r18,zero
   29d20:	002b883a 	mov	r21,zero
   29d24:	01401604 	movi	r5,88
   29d28:	01800244 	movi	r6,9
   29d2c:	03400a84 	movi	r13,42
   29d30:	03001b04 	movi	r12,108
   29d34:	14000044 	addi	r16,r2,1
   29d38:	18bff804 	addi	r2,r3,-32
   29d3c:	28825536 	bltu	r5,r2,2a694 <___vfiprintf_internal_r+0xad8>
   29d40:	100490ba 	slli	r2,r2,2
   29d44:	010000f4 	movhi	r4,3
   29d48:	21275604 	addi	r4,r4,-25256
   29d4c:	1105883a 	add	r2,r2,r4
   29d50:	10800017 	ldw	r2,0(r2)
   29d54:	1000683a 	jmp	r2
   29d58:	0002a458 	cmpnei	zero,zero,2705
   29d5c:	0002a694 	movui	zero,2714
   29d60:	0002a694 	movui	zero,2714
   29d64:	0002a478 	rdprs	zero,zero,2705
   29d68:	0002a694 	movui	zero,2714
   29d6c:	0002a694 	movui	zero,2714
   29d70:	0002a694 	movui	zero,2714
   29d74:	0002a694 	movui	zero,2714
   29d78:	0002a694 	movui	zero,2714
   29d7c:	0002a694 	movui	zero,2714
   29d80:	0002a488 	cmpgei	zero,zero,2706
   29d84:	0002a4a8 	cmpgeui	zero,zero,2706
   29d88:	0002a694 	movui	zero,2714
   29d8c:	0002a2d0 	cmplti	zero,zero,2699
   29d90:	0002a3bc 	xorhi	zero,zero,2702
   29d94:	0002a694 	movui	zero,2714
   29d98:	0002a33c 	xorhi	zero,zero,2700
   29d9c:	0002a34c 	andi	zero,zero,2701
   29da0:	0002a34c 	andi	zero,zero,2701
   29da4:	0002a34c 	andi	zero,zero,2701
   29da8:	0002a34c 	andi	zero,zero,2701
   29dac:	0002a34c 	andi	zero,zero,2701
   29db0:	0002a34c 	andi	zero,zero,2701
   29db4:	0002a34c 	andi	zero,zero,2701
   29db8:	0002a34c 	andi	zero,zero,2701
   29dbc:	0002a34c 	andi	zero,zero,2701
   29dc0:	0002a694 	movui	zero,2714
   29dc4:	0002a694 	movui	zero,2714
   29dc8:	0002a694 	movui	zero,2714
   29dcc:	0002a694 	movui	zero,2714
   29dd0:	0002a694 	movui	zero,2714
   29dd4:	0002a694 	movui	zero,2714
   29dd8:	0002a694 	movui	zero,2714
   29ddc:	0002a694 	movui	zero,2714
   29de0:	0002a694 	movui	zero,2714
   29de4:	0002a694 	movui	zero,2714
   29de8:	0002a378 	rdprs	zero,zero,2701
   29dec:	0002a694 	movui	zero,2714
   29df0:	0002a694 	movui	zero,2714
   29df4:	0002a694 	movui	zero,2714
   29df8:	0002a694 	movui	zero,2714
   29dfc:	0002a694 	movui	zero,2714
   29e00:	0002a694 	movui	zero,2714
   29e04:	0002a694 	movui	zero,2714
   29e08:	0002a694 	movui	zero,2714
   29e0c:	0002a694 	movui	zero,2714
   29e10:	0002a694 	movui	zero,2714
   29e14:	00029f04 	movi	zero,2684
   29e18:	0002a694 	movui	zero,2714
   29e1c:	0002a694 	movui	zero,2714
   29e20:	0002a694 	movui	zero,2714
   29e24:	0002a694 	movui	zero,2714
   29e28:	0002a694 	movui	zero,2714
   29e2c:	00029ed0 	cmplti	zero,zero,2683
   29e30:	0002a694 	movui	zero,2714
   29e34:	0002a694 	movui	zero,2714
   29e38:	0002a518 	cmpnei	zero,zero,2708
   29e3c:	0002a694 	movui	zero,2714
   29e40:	0002a694 	movui	zero,2714
   29e44:	0002a694 	movui	zero,2714
   29e48:	0002a694 	movui	zero,2714
   29e4c:	0002a694 	movui	zero,2714
   29e50:	0002a694 	movui	zero,2714
   29e54:	0002a694 	movui	zero,2714
   29e58:	0002a694 	movui	zero,2714
   29e5c:	0002a694 	movui	zero,2714
   29e60:	0002a694 	movui	zero,2714
   29e64:	0002a4b8 	rdprs	zero,zero,2706
   29e68:	0002a4e4 	muli	zero,zero,2707
   29e6c:	0002a694 	movui	zero,2714
   29e70:	0002a694 	movui	zero,2714
   29e74:	0002a694 	movui	zero,2714
   29e78:	0002a5c0 	call	2a5c <__reset-0x1d5a4>
   29e7c:	0002a4e4 	muli	zero,zero,2707
   29e80:	0002a694 	movui	zero,2714
   29e84:	0002a694 	movui	zero,2714
   29e88:	0002a5d0 	cmplti	zero,zero,2711
   29e8c:	0002a694 	movui	zero,2714
   29e90:	0002a3fc 	xorhi	zero,zero,2703
   29e94:	00029f08 	cmpgei	zero,zero,2684
   29e98:	0002a5e4 	muli	zero,zero,2711
   29e9c:	0002a624 	muli	zero,zero,2712
   29ea0:	0002a694 	movui	zero,2714
   29ea4:	0002a56c 	andhi	zero,zero,2709
   29ea8:	0002a694 	movui	zero,2714
   29eac:	00029ed4 	movui	zero,2683
   29eb0:	0002a694 	movui	zero,2714
   29eb4:	0002a694 	movui	zero,2714
   29eb8:	0002a634 	movhi	zero,2712
   29ebc:	42000204 	addi	r8,r8,8
   29ec0:	d8802317 	ldw	r2,140(sp)
   29ec4:	1485883a 	add	r2,r2,r18
   29ec8:	d8802315 	stw	r2,140(sp)
   29ecc:	003f8c06 	br	29d00 <_gp+0xfffede8c>
   29ed0:	ad400414 	ori	r21,r21,16
   29ed4:	a880080c 	andi	r2,r21,32
   29ed8:	1001e61e 	bne	r2,zero,2a674 <___vfiprintf_internal_r+0xab8>
   29edc:	a880040c 	andi	r2,r21,16
   29ee0:	10034726 	beq	r2,zero,2ac00 <___vfiprintf_internal_r+0x1044>
   29ee4:	d8802217 	ldw	r2,136(sp)
   29ee8:	001b883a 	mov	r13,zero
   29eec:	15800017 	ldw	r22,0(r2)
   29ef0:	10800104 	addi	r2,r2,4
   29ef4:	d8802215 	stw	r2,136(sp)
   29ef8:	b009883a 	mov	r4,r22
   29efc:	00800044 	movi	r2,1
   29f00:	00000c06 	br	29f34 <___vfiprintf_internal_r+0x378>
   29f04:	ad400414 	ori	r21,r21,16
   29f08:	a880080c 	andi	r2,r21,32
   29f0c:	1001491e 	bne	r2,zero,2a434 <___vfiprintf_internal_r+0x878>
   29f10:	a880040c 	andi	r2,r21,16
   29f14:	10032d26 	beq	r2,zero,2abcc <___vfiprintf_internal_r+0x1010>
   29f18:	d9002217 	ldw	r4,136(sp)
   29f1c:	001b883a 	mov	r13,zero
   29f20:	0005883a 	mov	r2,zero
   29f24:	25800017 	ldw	r22,0(r4)
   29f28:	21000104 	addi	r4,r4,4
   29f2c:	d9002215 	stw	r4,136(sp)
   29f30:	b009883a 	mov	r4,r22
   29f34:	d8001d85 	stb	zero,118(sp)
   29f38:	4827883a 	mov	r19,r9
   29f3c:	001d883a 	mov	r14,zero
   29f40:	48000216 	blt	r9,zero,29f4c <___vfiprintf_internal_r+0x390>
   29f44:	00ffdfc4 	movi	r3,-129
   29f48:	a8ea703a 	and	r21,r21,r3
   29f4c:	2002071e 	bne	r4,zero,2a76c <___vfiprintf_internal_r+0xbb0>
   29f50:	4802ad26 	beq	r9,zero,2aa08 <___vfiprintf_internal_r+0xe4c>
   29f54:	10803fcc 	andi	r2,r2,255
   29f58:	00c00044 	movi	r3,1
   29f5c:	10c22b26 	beq	r2,r3,2a80c <___vfiprintf_internal_r+0xc50>
   29f60:	00c00084 	movi	r3,2
   29f64:	dd001a04 	addi	r20,sp,104
   29f68:	10c0dd1e 	bne	r2,r3,2a2e0 <___vfiprintf_internal_r+0x724>
   29f6c:	d9002617 	ldw	r4,152(sp)
   29f70:	b08003cc 	andi	r2,r22,15
   29f74:	6806973a 	slli	r3,r13,28
   29f78:	2085883a 	add	r2,r4,r2
   29f7c:	b02cd13a 	srli	r22,r22,4
   29f80:	10800003 	ldbu	r2,0(r2)
   29f84:	681ad13a 	srli	r13,r13,4
   29f88:	a53fffc4 	addi	r20,r20,-1
   29f8c:	1dacb03a 	or	r22,r3,r22
   29f90:	a0800005 	stb	r2,0(r20)
   29f94:	b344b03a 	or	r2,r22,r13
   29f98:	103ff51e 	bne	r2,zero,29f70 <_gp+0xfffee0fc>
   29f9c:	d9001e17 	ldw	r4,120(sp)
   29fa0:	2527c83a 	sub	r19,r4,r20
   29fa4:	9823883a 	mov	r17,r19
   29fa8:	9a40010e 	bge	r19,r9,29fb0 <___vfiprintf_internal_r+0x3f4>
   29fac:	4823883a 	mov	r17,r9
   29fb0:	73803fcc 	andi	r14,r14,255
   29fb4:	7380201c 	xori	r14,r14,128
   29fb8:	73bfe004 	addi	r14,r14,-128
   29fbc:	70000126 	beq	r14,zero,29fc4 <___vfiprintf_internal_r+0x408>
   29fc0:	8c400044 	addi	r17,r17,1
   29fc4:	ab40008c 	andi	r13,r21,2
   29fc8:	68000126 	beq	r13,zero,29fd0 <___vfiprintf_internal_r+0x414>
   29fcc:	8c400084 	addi	r17,r17,2
   29fd0:	ad80210c 	andi	r22,r21,132
   29fd4:	b001c51e 	bne	r22,zero,2a6ec <___vfiprintf_internal_r+0xb30>
   29fd8:	9447c83a 	sub	r3,r18,r17
   29fdc:	00c1c30e 	bge	zero,r3,2a6ec <___vfiprintf_internal_r+0xb30>
   29fe0:	01c00404 	movi	r7,16
   29fe4:	d8801c17 	ldw	r2,112(sp)
   29fe8:	38c37b0e 	bge	r7,r3,2add8 <___vfiprintf_internal_r+0x121c>
   29fec:	010000f4 	movhi	r4,3
   29ff0:	2106bd04 	addi	r4,r4,6900
   29ff4:	dc002915 	stw	r16,164(sp)
   29ff8:	d9801b17 	ldw	r6,108(sp)
   29ffc:	d9002415 	stw	r4,144(sp)
   2a000:	03c001c4 	movi	r15,7
   2a004:	da402515 	stw	r9,148(sp)
   2a008:	db402815 	stw	r13,160(sp)
   2a00c:	1821883a 	mov	r16,r3
   2a010:	00000506 	br	2a028 <___vfiprintf_internal_r+0x46c>
   2a014:	31400084 	addi	r5,r6,2
   2a018:	42000204 	addi	r8,r8,8
   2a01c:	200d883a 	mov	r6,r4
   2a020:	843ffc04 	addi	r16,r16,-16
   2a024:	3c000d0e 	bge	r7,r16,2a05c <___vfiprintf_internal_r+0x4a0>
   2a028:	10800404 	addi	r2,r2,16
   2a02c:	31000044 	addi	r4,r6,1
   2a030:	47000015 	stw	fp,0(r8)
   2a034:	41c00115 	stw	r7,4(r8)
   2a038:	d8801c15 	stw	r2,112(sp)
   2a03c:	d9001b15 	stw	r4,108(sp)
   2a040:	793ff40e 	bge	r15,r4,2a014 <_gp+0xfffee1a0>
   2a044:	10019b1e 	bne	r2,zero,2a6b4 <___vfiprintf_internal_r+0xaf8>
   2a048:	843ffc04 	addi	r16,r16,-16
   2a04c:	000d883a 	mov	r6,zero
   2a050:	01400044 	movi	r5,1
   2a054:	d811883a 	mov	r8,sp
   2a058:	3c3ff316 	blt	r7,r16,2a028 <_gp+0xfffee1b4>
   2a05c:	8007883a 	mov	r3,r16
   2a060:	da402517 	ldw	r9,148(sp)
   2a064:	db402817 	ldw	r13,160(sp)
   2a068:	dc002917 	ldw	r16,164(sp)
   2a06c:	d9002417 	ldw	r4,144(sp)
   2a070:	1885883a 	add	r2,r3,r2
   2a074:	40c00115 	stw	r3,4(r8)
   2a078:	41000015 	stw	r4,0(r8)
   2a07c:	d8801c15 	stw	r2,112(sp)
   2a080:	d9401b15 	stw	r5,108(sp)
   2a084:	00c001c4 	movi	r3,7
   2a088:	19426a16 	blt	r3,r5,2aa34 <___vfiprintf_internal_r+0xe78>
   2a08c:	d8c01d87 	ldb	r3,118(sp)
   2a090:	42000204 	addi	r8,r8,8
   2a094:	29000044 	addi	r4,r5,1
   2a098:	1801991e 	bne	r3,zero,2a700 <___vfiprintf_internal_r+0xb44>
   2a09c:	68000c26 	beq	r13,zero,2a0d0 <___vfiprintf_internal_r+0x514>
   2a0a0:	d8c01d04 	addi	r3,sp,116
   2a0a4:	10800084 	addi	r2,r2,2
   2a0a8:	40c00015 	stw	r3,0(r8)
   2a0ac:	00c00084 	movi	r3,2
   2a0b0:	40c00115 	stw	r3,4(r8)
   2a0b4:	d8801c15 	stw	r2,112(sp)
   2a0b8:	d9001b15 	stw	r4,108(sp)
   2a0bc:	00c001c4 	movi	r3,7
   2a0c0:	19024c16 	blt	r3,r4,2a9f4 <___vfiprintf_internal_r+0xe38>
   2a0c4:	200b883a 	mov	r5,r4
   2a0c8:	42000204 	addi	r8,r8,8
   2a0cc:	21000044 	addi	r4,r4,1
   2a0d0:	00c02004 	movi	r3,128
   2a0d4:	b0c20126 	beq	r22,r3,2a8dc <___vfiprintf_internal_r+0xd20>
   2a0d8:	4cedc83a 	sub	r22,r9,r19
   2a0dc:	0580230e 	bge	zero,r22,2a16c <___vfiprintf_internal_r+0x5b0>
   2a0e0:	01c00404 	movi	r7,16
   2a0e4:	3d83140e 	bge	r7,r22,2ad38 <___vfiprintf_internal_r+0x117c>
   2a0e8:	010000f4 	movhi	r4,3
   2a0ec:	2106b904 	addi	r4,r4,6884
   2a0f0:	d9002415 	stw	r4,144(sp)
   2a0f4:	034001c4 	movi	r13,7
   2a0f8:	00000506 	br	2a110 <___vfiprintf_internal_r+0x554>
   2a0fc:	29000084 	addi	r4,r5,2
   2a100:	42000204 	addi	r8,r8,8
   2a104:	180b883a 	mov	r5,r3
   2a108:	b5bffc04 	addi	r22,r22,-16
   2a10c:	3d800d0e 	bge	r7,r22,2a144 <___vfiprintf_internal_r+0x588>
   2a110:	10800404 	addi	r2,r2,16
   2a114:	28c00044 	addi	r3,r5,1
   2a118:	45c00015 	stw	r23,0(r8)
   2a11c:	41c00115 	stw	r7,4(r8)
   2a120:	d8801c15 	stw	r2,112(sp)
   2a124:	d8c01b15 	stw	r3,108(sp)
   2a128:	68fff40e 	bge	r13,r3,2a0fc <_gp+0xfffee288>
   2a12c:	1001811e 	bne	r2,zero,2a734 <___vfiprintf_internal_r+0xb78>
   2a130:	b5bffc04 	addi	r22,r22,-16
   2a134:	01000044 	movi	r4,1
   2a138:	000b883a 	mov	r5,zero
   2a13c:	d811883a 	mov	r8,sp
   2a140:	3dbff316 	blt	r7,r22,2a110 <_gp+0xfffee29c>
   2a144:	d8c02417 	ldw	r3,144(sp)
   2a148:	1585883a 	add	r2,r2,r22
   2a14c:	45800115 	stw	r22,4(r8)
   2a150:	40c00015 	stw	r3,0(r8)
   2a154:	d8801c15 	stw	r2,112(sp)
   2a158:	d9001b15 	stw	r4,108(sp)
   2a15c:	00c001c4 	movi	r3,7
   2a160:	1901d016 	blt	r3,r4,2a8a4 <___vfiprintf_internal_r+0xce8>
   2a164:	42000204 	addi	r8,r8,8
   2a168:	21000044 	addi	r4,r4,1
   2a16c:	14c5883a 	add	r2,r2,r19
   2a170:	45000015 	stw	r20,0(r8)
   2a174:	44c00115 	stw	r19,4(r8)
   2a178:	d8801c15 	stw	r2,112(sp)
   2a17c:	d9001b15 	stw	r4,108(sp)
   2a180:	00c001c4 	movi	r3,7
   2a184:	1901cf0e 	bge	r3,r4,2a8c4 <___vfiprintf_internal_r+0xd08>
   2a188:	1002361e 	bne	r2,zero,2aa64 <___vfiprintf_internal_r+0xea8>
   2a18c:	d8001b15 	stw	zero,108(sp)
   2a190:	aac0010c 	andi	r11,r21,4
   2a194:	58002826 	beq	r11,zero,2a238 <___vfiprintf_internal_r+0x67c>
   2a198:	9467c83a 	sub	r19,r18,r17
   2a19c:	d811883a 	mov	r8,sp
   2a1a0:	04c3340e 	bge	zero,r19,2ae74 <___vfiprintf_internal_r+0x12b8>
   2a1a4:	01c00404 	movi	r7,16
   2a1a8:	3cc31b0e 	bge	r7,r19,2ae18 <___vfiprintf_internal_r+0x125c>
   2a1ac:	00c000f4 	movhi	r3,3
   2a1b0:	18c6bd04 	addi	r3,r3,6900
   2a1b4:	d9001b17 	ldw	r4,108(sp)
   2a1b8:	d8c02415 	stw	r3,144(sp)
   2a1bc:	382b883a 	mov	r21,r7
   2a1c0:	050001c4 	movi	r20,7
   2a1c4:	dd802017 	ldw	r22,128(sp)
   2a1c8:	00000506 	br	2a1e0 <___vfiprintf_internal_r+0x624>
   2a1cc:	21400084 	addi	r5,r4,2
   2a1d0:	42000204 	addi	r8,r8,8
   2a1d4:	1809883a 	mov	r4,r3
   2a1d8:	9cfffc04 	addi	r19,r19,-16
   2a1dc:	acc00d0e 	bge	r21,r19,2a214 <___vfiprintf_internal_r+0x658>
   2a1e0:	10800404 	addi	r2,r2,16
   2a1e4:	20c00044 	addi	r3,r4,1
   2a1e8:	47000015 	stw	fp,0(r8)
   2a1ec:	45400115 	stw	r21,4(r8)
   2a1f0:	d8801c15 	stw	r2,112(sp)
   2a1f4:	d8c01b15 	stw	r3,108(sp)
   2a1f8:	a0fff40e 	bge	r20,r3,2a1cc <_gp+0xfffee358>
   2a1fc:	10019f1e 	bne	r2,zero,2a87c <___vfiprintf_internal_r+0xcc0>
   2a200:	9cfffc04 	addi	r19,r19,-16
   2a204:	01400044 	movi	r5,1
   2a208:	0009883a 	mov	r4,zero
   2a20c:	d811883a 	mov	r8,sp
   2a210:	acfff316 	blt	r21,r19,2a1e0 <_gp+0xfffee36c>
   2a214:	d8c02417 	ldw	r3,144(sp)
   2a218:	14c5883a 	add	r2,r2,r19
   2a21c:	44c00115 	stw	r19,4(r8)
   2a220:	40c00015 	stw	r3,0(r8)
   2a224:	d8801c15 	stw	r2,112(sp)
   2a228:	d9401b15 	stw	r5,108(sp)
   2a22c:	00c001c4 	movi	r3,7
   2a230:	1941810e 	bge	r3,r5,2a838 <___vfiprintf_internal_r+0xc7c>
   2a234:	10017a1e 	bne	r2,zero,2a820 <___vfiprintf_internal_r+0xc64>
   2a238:	8c82a416 	blt	r17,r18,2accc <___vfiprintf_internal_r+0x1110>
   2a23c:	d9002317 	ldw	r4,140(sp)
   2a240:	2449883a 	add	r4,r4,r17
   2a244:	d9002315 	stw	r4,140(sp)
   2a248:	d8001b15 	stw	zero,108(sp)
   2a24c:	d811883a 	mov	r8,sp
   2a250:	003e8e06 	br	29c8c <_gp+0xfffede18>
   2a254:	d9002017 	ldw	r4,128(sp)
   2a258:	a80b883a 	mov	r5,r21
   2a25c:	00250c00 	call	250c0 <__swsetup_r>
   2a260:	10000c1e 	bne	r2,zero,2a294 <___vfiprintf_internal_r+0x6d8>
   2a264:	a880030b 	ldhu	r2,12(r21)
   2a268:	00c00284 	movi	r3,10
   2a26c:	1080068c 	andi	r2,r2,26
   2a270:	10fe741e 	bne	r2,r3,29c44 <_gp+0xfffeddd0>
   2a274:	a880038f 	ldh	r2,14(r21)
   2a278:	103e7216 	blt	r2,zero,29c44 <_gp+0xfffeddd0>
   2a27c:	d9002017 	ldw	r4,128(sp)
   2a280:	d9c02217 	ldw	r7,136(sp)
   2a284:	a80b883a 	mov	r5,r21
   2a288:	b00d883a 	mov	r6,r22
   2a28c:	002aeb00 	call	2aeb0 <__sbprintf>
   2a290:	00000106 	br	2a298 <___vfiprintf_internal_r+0x6dc>
   2a294:	00bfffc4 	movi	r2,-1
   2a298:	dfc03517 	ldw	ra,212(sp)
   2a29c:	df003417 	ldw	fp,208(sp)
   2a2a0:	ddc03317 	ldw	r23,204(sp)
   2a2a4:	dd803217 	ldw	r22,200(sp)
   2a2a8:	dd403117 	ldw	r21,196(sp)
   2a2ac:	dd003017 	ldw	r20,192(sp)
   2a2b0:	dcc02f17 	ldw	r19,188(sp)
   2a2b4:	dc802e17 	ldw	r18,184(sp)
   2a2b8:	dc402d17 	ldw	r17,180(sp)
   2a2bc:	dc002c17 	ldw	r16,176(sp)
   2a2c0:	dec03604 	addi	sp,sp,216
   2a2c4:	f800283a 	ret
   2a2c8:	00271200 	call	27120 <__sinit>
   2a2cc:	003e4d06 	br	29c04 <_gp+0xfffedd90>
   2a2d0:	8005883a 	mov	r2,r16
   2a2d4:	ad400114 	ori	r21,r21,4
   2a2d8:	80c00007 	ldb	r3,0(r16)
   2a2dc:	003e9506 	br	29d34 <_gp+0xfffedec0>
   2a2e0:	b006d0fa 	srli	r3,r22,3
   2a2e4:	6808977a 	slli	r4,r13,29
   2a2e8:	681ad0fa 	srli	r13,r13,3
   2a2ec:	b58001cc 	andi	r22,r22,7
   2a2f0:	b0800c04 	addi	r2,r22,48
   2a2f4:	a53fffc4 	addi	r20,r20,-1
   2a2f8:	20ecb03a 	or	r22,r4,r3
   2a2fc:	a0800005 	stb	r2,0(r20)
   2a300:	b346b03a 	or	r3,r22,r13
   2a304:	183ff61e 	bne	r3,zero,2a2e0 <_gp+0xfffee46c>
   2a308:	a8c0004c 	andi	r3,r21,1
   2a30c:	a009883a 	mov	r4,r20
   2a310:	18013b26 	beq	r3,zero,2a800 <___vfiprintf_internal_r+0xc44>
   2a314:	10803fcc 	andi	r2,r2,255
   2a318:	1080201c 	xori	r2,r2,128
   2a31c:	10bfe004 	addi	r2,r2,-128
   2a320:	00c00c04 	movi	r3,48
   2a324:	10ff1d26 	beq	r2,r3,29f9c <_gp+0xfffee128>
   2a328:	d8801e17 	ldw	r2,120(sp)
   2a32c:	a53fffc4 	addi	r20,r20,-1
   2a330:	20ffffc5 	stb	r3,-1(r4)
   2a334:	1527c83a 	sub	r19,r2,r20
   2a338:	003f1a06 	br	29fa4 <_gp+0xfffee130>
   2a33c:	ad402014 	ori	r21,r21,128
   2a340:	8005883a 	mov	r2,r16
   2a344:	80c00007 	ldb	r3,0(r16)
   2a348:	003e7a06 	br	29d34 <_gp+0xfffedec0>
   2a34c:	8005883a 	mov	r2,r16
   2a350:	0025883a 	mov	r18,zero
   2a354:	193ff404 	addi	r4,r3,-48
   2a358:	10c00007 	ldb	r3,0(r2)
   2a35c:	948002a4 	muli	r18,r18,10
   2a360:	84000044 	addi	r16,r16,1
   2a364:	8005883a 	mov	r2,r16
   2a368:	9125883a 	add	r18,r18,r4
   2a36c:	193ff404 	addi	r4,r3,-48
   2a370:	313ff92e 	bgeu	r6,r4,2a358 <_gp+0xfffee4e4>
   2a374:	003e7006 	br	29d38 <_gp+0xfffedec4>
   2a378:	ad400414 	ori	r21,r21,16
   2a37c:	d9c01d85 	stb	r7,118(sp)
   2a380:	a880080c 	andi	r2,r21,32
   2a384:	d8c02217 	ldw	r3,136(sp)
   2a388:	10005a26 	beq	r2,zero,2a4f4 <___vfiprintf_internal_r+0x938>
   2a38c:	d9002217 	ldw	r4,136(sp)
   2a390:	18800117 	ldw	r2,4(r3)
   2a394:	1d800017 	ldw	r22,0(r3)
   2a398:	21000204 	addi	r4,r4,8
   2a39c:	d9002215 	stw	r4,136(sp)
   2a3a0:	101b883a 	mov	r13,r2
   2a3a4:	1001f416 	blt	r2,zero,2ab78 <___vfiprintf_internal_r+0xfbc>
   2a3a8:	db801d83 	ldbu	r14,118(sp)
   2a3ac:	4827883a 	mov	r19,r9
   2a3b0:	00800044 	movi	r2,1
   2a3b4:	b348b03a 	or	r4,r22,r13
   2a3b8:	003ee106 	br	29f40 <_gp+0xfffee0cc>
   2a3bc:	80c00007 	ldb	r3,0(r16)
   2a3c0:	80800044 	addi	r2,r16,1
   2a3c4:	1b42a326 	beq	r3,r13,2ae54 <___vfiprintf_internal_r+0x1298>
   2a3c8:	193ff404 	addi	r4,r3,-48
   2a3cc:	1021883a 	mov	r16,r2
   2a3d0:	0013883a 	mov	r9,zero
   2a3d4:	313e5836 	bltu	r6,r4,29d38 <_gp+0xfffedec4>
   2a3d8:	80c00007 	ldb	r3,0(r16)
   2a3dc:	4a4002a4 	muli	r9,r9,10
   2a3e0:	84000044 	addi	r16,r16,1
   2a3e4:	2253883a 	add	r9,r4,r9
   2a3e8:	193ff404 	addi	r4,r3,-48
   2a3ec:	313ffa2e 	bgeu	r6,r4,2a3d8 <_gp+0xfffee564>
   2a3f0:	483e510e 	bge	r9,zero,29d38 <_gp+0xfffedec4>
   2a3f4:	027fffc4 	movi	r9,-1
   2a3f8:	003e4f06 	br	29d38 <_gp+0xfffedec4>
   2a3fc:	d9c01d85 	stb	r7,118(sp)
   2a400:	a880080c 	andi	r2,r21,32
   2a404:	10020826 	beq	r2,zero,2ac28 <___vfiprintf_internal_r+0x106c>
   2a408:	d8c02217 	ldw	r3,136(sp)
   2a40c:	d9002317 	ldw	r4,140(sp)
   2a410:	18800017 	ldw	r2,0(r3)
   2a414:	2007d7fa 	srai	r3,r4,31
   2a418:	d9002217 	ldw	r4,136(sp)
   2a41c:	10c00115 	stw	r3,4(r2)
   2a420:	21000104 	addi	r4,r4,4
   2a424:	d9002215 	stw	r4,136(sp)
   2a428:	d9002317 	ldw	r4,140(sp)
   2a42c:	11000015 	stw	r4,0(r2)
   2a430:	003e1606 	br	29c8c <_gp+0xfffede18>
   2a434:	d8802217 	ldw	r2,136(sp)
   2a438:	d8c02217 	ldw	r3,136(sp)
   2a43c:	15800017 	ldw	r22,0(r2)
   2a440:	13400117 	ldw	r13,4(r2)
   2a444:	18c00204 	addi	r3,r3,8
   2a448:	0005883a 	mov	r2,zero
   2a44c:	d8c02215 	stw	r3,136(sp)
   2a450:	b348b03a 	or	r4,r22,r13
   2a454:	003eb706 	br	29f34 <_gp+0xfffee0c0>
   2a458:	38803fcc 	andi	r2,r7,255
   2a45c:	1080201c 	xori	r2,r2,128
   2a460:	10bfe004 	addi	r2,r2,-128
   2a464:	1001e31e 	bne	r2,zero,2abf4 <___vfiprintf_internal_r+0x1038>
   2a468:	8005883a 	mov	r2,r16
   2a46c:	01c00804 	movi	r7,32
   2a470:	80c00007 	ldb	r3,0(r16)
   2a474:	003e2f06 	br	29d34 <_gp+0xfffedec0>
   2a478:	ad400054 	ori	r21,r21,1
   2a47c:	8005883a 	mov	r2,r16
   2a480:	80c00007 	ldb	r3,0(r16)
   2a484:	003e2b06 	br	29d34 <_gp+0xfffedec0>
   2a488:	d8c02217 	ldw	r3,136(sp)
   2a48c:	1c800017 	ldw	r18,0(r3)
   2a490:	18c00104 	addi	r3,r3,4
   2a494:	90023816 	blt	r18,zero,2ad78 <___vfiprintf_internal_r+0x11bc>
   2a498:	d8c02215 	stw	r3,136(sp)
   2a49c:	8005883a 	mov	r2,r16
   2a4a0:	80c00007 	ldb	r3,0(r16)
   2a4a4:	003e2306 	br	29d34 <_gp+0xfffedec0>
   2a4a8:	8005883a 	mov	r2,r16
   2a4ac:	01c00ac4 	movi	r7,43
   2a4b0:	80c00007 	ldb	r3,0(r16)
   2a4b4:	003e1f06 	br	29d34 <_gp+0xfffedec0>
   2a4b8:	d8c02217 	ldw	r3,136(sp)
   2a4bc:	04400044 	movi	r17,1
   2a4c0:	d8001d85 	stb	zero,118(sp)
   2a4c4:	18800017 	ldw	r2,0(r3)
   2a4c8:	18c00104 	addi	r3,r3,4
   2a4cc:	d8c02215 	stw	r3,136(sp)
   2a4d0:	d8801005 	stb	r2,64(sp)
   2a4d4:	8827883a 	mov	r19,r17
   2a4d8:	dd001004 	addi	r20,sp,64
   2a4dc:	0013883a 	mov	r9,zero
   2a4e0:	003eb806 	br	29fc4 <_gp+0xfffee150>
   2a4e4:	d9c01d85 	stb	r7,118(sp)
   2a4e8:	a880080c 	andi	r2,r21,32
   2a4ec:	d8c02217 	ldw	r3,136(sp)
   2a4f0:	103fa61e 	bne	r2,zero,2a38c <_gp+0xfffee518>
   2a4f4:	a880040c 	andi	r2,r21,16
   2a4f8:	1001dd26 	beq	r2,zero,2ac70 <___vfiprintf_internal_r+0x10b4>
   2a4fc:	1d800017 	ldw	r22,0(r3)
   2a500:	d8802217 	ldw	r2,136(sp)
   2a504:	b01bd7fa 	srai	r13,r22,31
   2a508:	10800104 	addi	r2,r2,4
   2a50c:	d8802215 	stw	r2,136(sp)
   2a510:	6805883a 	mov	r2,r13
   2a514:	003fa306 	br	2a3a4 <_gp+0xfffee530>
   2a518:	008000f4 	movhi	r2,3
   2a51c:	10865304 	addi	r2,r2,6476
   2a520:	d8802615 	stw	r2,152(sp)
   2a524:	d9c01d85 	stb	r7,118(sp)
   2a528:	a880080c 	andi	r2,r21,32
   2a52c:	10004726 	beq	r2,zero,2a64c <___vfiprintf_internal_r+0xa90>
   2a530:	d9002217 	ldw	r4,136(sp)
   2a534:	25800017 	ldw	r22,0(r4)
   2a538:	23400117 	ldw	r13,4(r4)
   2a53c:	21000204 	addi	r4,r4,8
   2a540:	d9002215 	stw	r4,136(sp)
   2a544:	a880004c 	andi	r2,r21,1
   2a548:	10014e26 	beq	r2,zero,2aa84 <___vfiprintf_internal_r+0xec8>
   2a54c:	b348b03a 	or	r4,r22,r13
   2a550:	20019c26 	beq	r4,zero,2abc4 <___vfiprintf_internal_r+0x1008>
   2a554:	00800c04 	movi	r2,48
   2a558:	d8801d05 	stb	r2,116(sp)
   2a55c:	d8c01d45 	stb	r3,117(sp)
   2a560:	ad400094 	ori	r21,r21,2
   2a564:	00800084 	movi	r2,2
   2a568:	003e7206 	br	29f34 <_gp+0xfffee0c0>
   2a56c:	d8c02217 	ldw	r3,136(sp)
   2a570:	d8001d85 	stb	zero,118(sp)
   2a574:	1d000017 	ldw	r20,0(r3)
   2a578:	1d800104 	addi	r22,r3,4
   2a57c:	a0021c26 	beq	r20,zero,2adf0 <___vfiprintf_internal_r+0x1234>
   2a580:	a009883a 	mov	r4,r20
   2a584:	48020016 	blt	r9,zero,2ad88 <___vfiprintf_internal_r+0x11cc>
   2a588:	480d883a 	mov	r6,r9
   2a58c:	000b883a 	mov	r5,zero
   2a590:	da002a15 	stw	r8,168(sp)
   2a594:	da402b15 	stw	r9,172(sp)
   2a598:	0027e640 	call	27e64 <memchr>
   2a59c:	da002a17 	ldw	r8,168(sp)
   2a5a0:	da402b17 	ldw	r9,172(sp)
   2a5a4:	10022226 	beq	r2,zero,2ae30 <___vfiprintf_internal_r+0x1274>
   2a5a8:	1527c83a 	sub	r19,r2,r20
   2a5ac:	4cc1c916 	blt	r9,r19,2acd4 <___vfiprintf_internal_r+0x1118>
   2a5b0:	db801d83 	ldbu	r14,118(sp)
   2a5b4:	dd802215 	stw	r22,136(sp)
   2a5b8:	0013883a 	mov	r9,zero
   2a5bc:	003e7906 	br	29fa4 <_gp+0xfffee130>
   2a5c0:	ad401014 	ori	r21,r21,64
   2a5c4:	8005883a 	mov	r2,r16
   2a5c8:	80c00007 	ldb	r3,0(r16)
   2a5cc:	003dd906 	br	29d34 <_gp+0xfffedec0>
   2a5d0:	80c00007 	ldb	r3,0(r16)
   2a5d4:	8005883a 	mov	r2,r16
   2a5d8:	1b01e326 	beq	r3,r12,2ad68 <___vfiprintf_internal_r+0x11ac>
   2a5dc:	ad400414 	ori	r21,r21,16
   2a5e0:	003dd406 	br	29d34 <_gp+0xfffedec0>
   2a5e4:	d9002217 	ldw	r4,136(sp)
   2a5e8:	00800c04 	movi	r2,48
   2a5ec:	d8801d05 	stb	r2,116(sp)
   2a5f0:	25800017 	ldw	r22,0(r4)
   2a5f4:	00801e04 	movi	r2,120
   2a5f8:	d8801d45 	stb	r2,117(sp)
   2a5fc:	008000f4 	movhi	r2,3
   2a600:	21000104 	addi	r4,r4,4
   2a604:	10865804 	addi	r2,r2,6496
   2a608:	d9002215 	stw	r4,136(sp)
   2a60c:	d8802615 	stw	r2,152(sp)
   2a610:	001b883a 	mov	r13,zero
   2a614:	ad400094 	ori	r21,r21,2
   2a618:	00800084 	movi	r2,2
   2a61c:	b009883a 	mov	r4,r22
   2a620:	003e4406 	br	29f34 <_gp+0xfffee0c0>
   2a624:	ad400814 	ori	r21,r21,32
   2a628:	8005883a 	mov	r2,r16
   2a62c:	80c00007 	ldb	r3,0(r16)
   2a630:	003dc006 	br	29d34 <_gp+0xfffedec0>
   2a634:	008000f4 	movhi	r2,3
   2a638:	10865804 	addi	r2,r2,6496
   2a63c:	d8802615 	stw	r2,152(sp)
   2a640:	d9c01d85 	stb	r7,118(sp)
   2a644:	a880080c 	andi	r2,r21,32
   2a648:	103fb91e 	bne	r2,zero,2a530 <_gp+0xfffee6bc>
   2a64c:	a880040c 	andi	r2,r21,16
   2a650:	10010f1e 	bne	r2,zero,2aa90 <___vfiprintf_internal_r+0xed4>
   2a654:	a880100c 	andi	r2,r21,64
   2a658:	10010d26 	beq	r2,zero,2aa90 <___vfiprintf_internal_r+0xed4>
   2a65c:	d9002217 	ldw	r4,136(sp)
   2a660:	001b883a 	mov	r13,zero
   2a664:	2580000b 	ldhu	r22,0(r4)
   2a668:	21000104 	addi	r4,r4,4
   2a66c:	d9002215 	stw	r4,136(sp)
   2a670:	003fb406 	br	2a544 <_gp+0xfffee6d0>
   2a674:	d9002217 	ldw	r4,136(sp)
   2a678:	00800044 	movi	r2,1
   2a67c:	25800017 	ldw	r22,0(r4)
   2a680:	23400117 	ldw	r13,4(r4)
   2a684:	21000204 	addi	r4,r4,8
   2a688:	d9002215 	stw	r4,136(sp)
   2a68c:	b348b03a 	or	r4,r22,r13
   2a690:	003e2806 	br	29f34 <_gp+0xfffee0c0>
   2a694:	d9c01d85 	stb	r7,118(sp)
   2a698:	1801ab26 	beq	r3,zero,2ad48 <___vfiprintf_internal_r+0x118c>
   2a69c:	04400044 	movi	r17,1
   2a6a0:	d8c01005 	stb	r3,64(sp)
   2a6a4:	d8001d85 	stb	zero,118(sp)
   2a6a8:	8827883a 	mov	r19,r17
   2a6ac:	dd001004 	addi	r20,sp,64
   2a6b0:	003f8a06 	br	2a4dc <_gp+0xfffee668>
   2a6b4:	d9002017 	ldw	r4,128(sp)
   2a6b8:	d9402117 	ldw	r5,132(sp)
   2a6bc:	d9801a04 	addi	r6,sp,104
   2a6c0:	d9c02b15 	stw	r7,172(sp)
   2a6c4:	dbc02a15 	stw	r15,168(sp)
   2a6c8:	0029aa80 	call	29aa8 <__sprint_r.part.0>
   2a6cc:	d9c02b17 	ldw	r7,172(sp)
   2a6d0:	dbc02a17 	ldw	r15,168(sp)
   2a6d4:	1000631e 	bne	r2,zero,2a864 <___vfiprintf_internal_r+0xca8>
   2a6d8:	d9801b17 	ldw	r6,108(sp)
   2a6dc:	d8801c17 	ldw	r2,112(sp)
   2a6e0:	d811883a 	mov	r8,sp
   2a6e4:	31400044 	addi	r5,r6,1
   2a6e8:	003e4d06 	br	2a020 <_gp+0xfffee1ac>
   2a6ec:	d9401b17 	ldw	r5,108(sp)
   2a6f0:	d8801c17 	ldw	r2,112(sp)
   2a6f4:	29000044 	addi	r4,r5,1
   2a6f8:	d8c01d87 	ldb	r3,118(sp)
   2a6fc:	183e6726 	beq	r3,zero,2a09c <_gp+0xfffee228>
   2a700:	00c00044 	movi	r3,1
   2a704:	d9401d84 	addi	r5,sp,118
   2a708:	10c5883a 	add	r2,r2,r3
   2a70c:	41400015 	stw	r5,0(r8)
   2a710:	40c00115 	stw	r3,4(r8)
   2a714:	d8801c15 	stw	r2,112(sp)
   2a718:	d9001b15 	stw	r4,108(sp)
   2a71c:	014001c4 	movi	r5,7
   2a720:	2900ab16 	blt	r5,r4,2a9d0 <___vfiprintf_internal_r+0xe14>
   2a724:	200b883a 	mov	r5,r4
   2a728:	42000204 	addi	r8,r8,8
   2a72c:	21000044 	addi	r4,r4,1
   2a730:	003e5a06 	br	2a09c <_gp+0xfffee228>
   2a734:	d9002017 	ldw	r4,128(sp)
   2a738:	d9402117 	ldw	r5,132(sp)
   2a73c:	d9801a04 	addi	r6,sp,104
   2a740:	d9c02b15 	stw	r7,172(sp)
   2a744:	db402a15 	stw	r13,168(sp)
   2a748:	0029aa80 	call	29aa8 <__sprint_r.part.0>
   2a74c:	d9c02b17 	ldw	r7,172(sp)
   2a750:	db402a17 	ldw	r13,168(sp)
   2a754:	1000431e 	bne	r2,zero,2a864 <___vfiprintf_internal_r+0xca8>
   2a758:	d9401b17 	ldw	r5,108(sp)
   2a75c:	d8801c17 	ldw	r2,112(sp)
   2a760:	d811883a 	mov	r8,sp
   2a764:	29000044 	addi	r4,r5,1
   2a768:	003e6706 	br	2a108 <_gp+0xfffee294>
   2a76c:	10803fcc 	andi	r2,r2,255
   2a770:	00c00044 	movi	r3,1
   2a774:	10fdfa1e 	bne	r2,r3,29f60 <_gp+0xfffee0ec>
   2a778:	6800021e 	bne	r13,zero,2a784 <___vfiprintf_internal_r+0xbc8>
   2a77c:	00800244 	movi	r2,9
   2a780:	1580222e 	bgeu	r2,r22,2a80c <___vfiprintf_internal_r+0xc50>
   2a784:	dc802415 	stw	r18,144(sp)
   2a788:	dc002515 	stw	r16,148(sp)
   2a78c:	dc401a04 	addi	r17,sp,104
   2a790:	b021883a 	mov	r16,r22
   2a794:	4827883a 	mov	r19,r9
   2a798:	4029883a 	mov	r20,r8
   2a79c:	702d883a 	mov	r22,r14
   2a7a0:	6825883a 	mov	r18,r13
   2a7a4:	8009883a 	mov	r4,r16
   2a7a8:	900b883a 	mov	r5,r18
   2a7ac:	01800284 	movi	r6,10
   2a7b0:	000f883a 	mov	r7,zero
   2a7b4:	002be240 	call	2be24 <__umoddi3>
   2a7b8:	10800c04 	addi	r2,r2,48
   2a7bc:	8c7fffc4 	addi	r17,r17,-1
   2a7c0:	8009883a 	mov	r4,r16
   2a7c4:	900b883a 	mov	r5,r18
   2a7c8:	01800284 	movi	r6,10
   2a7cc:	000f883a 	mov	r7,zero
   2a7d0:	88800005 	stb	r2,0(r17)
   2a7d4:	002b8640 	call	2b864 <__udivdi3>
   2a7d8:	1021883a 	mov	r16,r2
   2a7dc:	10c4b03a 	or	r2,r2,r3
   2a7e0:	1825883a 	mov	r18,r3
   2a7e4:	103fef1e 	bne	r2,zero,2a7a4 <_gp+0xfffee930>
   2a7e8:	dc802417 	ldw	r18,144(sp)
   2a7ec:	dc002517 	ldw	r16,148(sp)
   2a7f0:	a011883a 	mov	r8,r20
   2a7f4:	9813883a 	mov	r9,r19
   2a7f8:	b01d883a 	mov	r14,r22
   2a7fc:	8829883a 	mov	r20,r17
   2a800:	d8c01e17 	ldw	r3,120(sp)
   2a804:	1d27c83a 	sub	r19,r3,r20
   2a808:	003de606 	br	29fa4 <_gp+0xfffee130>
   2a80c:	b5800c04 	addi	r22,r22,48
   2a810:	dd8019c5 	stb	r22,103(sp)
   2a814:	dcc02717 	ldw	r19,156(sp)
   2a818:	dd0019c4 	addi	r20,sp,103
   2a81c:	003de106 	br	29fa4 <_gp+0xfffee130>
   2a820:	d9002017 	ldw	r4,128(sp)
   2a824:	d9402117 	ldw	r5,132(sp)
   2a828:	d9801a04 	addi	r6,sp,104
   2a82c:	0029aa80 	call	29aa8 <__sprint_r.part.0>
   2a830:	10000c1e 	bne	r2,zero,2a864 <___vfiprintf_internal_r+0xca8>
   2a834:	d8801c17 	ldw	r2,112(sp)
   2a838:	8c80010e 	bge	r17,r18,2a840 <___vfiprintf_internal_r+0xc84>
   2a83c:	9023883a 	mov	r17,r18
   2a840:	d8c02317 	ldw	r3,140(sp)
   2a844:	1c47883a 	add	r3,r3,r17
   2a848:	d8c02315 	stw	r3,140(sp)
   2a84c:	103e7e26 	beq	r2,zero,2a248 <_gp+0xfffee3d4>
   2a850:	d9002017 	ldw	r4,128(sp)
   2a854:	d9402117 	ldw	r5,132(sp)
   2a858:	d9801a04 	addi	r6,sp,104
   2a85c:	0029aa80 	call	29aa8 <__sprint_r.part.0>
   2a860:	103e7926 	beq	r2,zero,2a248 <_gp+0xfffee3d4>
   2a864:	dd402117 	ldw	r21,132(sp)
   2a868:	a880030b 	ldhu	r2,12(r21)
   2a86c:	1080100c 	andi	r2,r2,64
   2a870:	103e881e 	bne	r2,zero,2a294 <_gp+0xfffee420>
   2a874:	d8802317 	ldw	r2,140(sp)
   2a878:	003e8706 	br	2a298 <_gp+0xfffee424>
   2a87c:	d9402117 	ldw	r5,132(sp)
   2a880:	b009883a 	mov	r4,r22
   2a884:	d9801a04 	addi	r6,sp,104
   2a888:	0029aa80 	call	29aa8 <__sprint_r.part.0>
   2a88c:	103ff51e 	bne	r2,zero,2a864 <_gp+0xfffee9f0>
   2a890:	d9001b17 	ldw	r4,108(sp)
   2a894:	d8801c17 	ldw	r2,112(sp)
   2a898:	d811883a 	mov	r8,sp
   2a89c:	21400044 	addi	r5,r4,1
   2a8a0:	003e4d06 	br	2a1d8 <_gp+0xfffee364>
   2a8a4:	1000aa1e 	bne	r2,zero,2ab50 <___vfiprintf_internal_r+0xf94>
   2a8a8:	00c00044 	movi	r3,1
   2a8ac:	9805883a 	mov	r2,r19
   2a8b0:	dd000015 	stw	r20,0(sp)
   2a8b4:	dcc00115 	stw	r19,4(sp)
   2a8b8:	dcc01c15 	stw	r19,112(sp)
   2a8bc:	d8c01b15 	stw	r3,108(sp)
   2a8c0:	d811883a 	mov	r8,sp
   2a8c4:	42000204 	addi	r8,r8,8
   2a8c8:	aac0010c 	andi	r11,r21,4
   2a8cc:	583fda26 	beq	r11,zero,2a838 <_gp+0xfffee9c4>
   2a8d0:	9467c83a 	sub	r19,r18,r17
   2a8d4:	04fe3316 	blt	zero,r19,2a1a4 <_gp+0xfffee330>
   2a8d8:	003fd706 	br	2a838 <_gp+0xfffee9c4>
   2a8dc:	946dc83a 	sub	r22,r18,r17
   2a8e0:	05bdfd0e 	bge	zero,r22,2a0d8 <_gp+0xfffee264>
   2a8e4:	00c000f4 	movhi	r3,3
   2a8e8:	18c6b904 	addi	r3,r3,6884
   2a8ec:	01c00404 	movi	r7,16
   2a8f0:	d8c02415 	stw	r3,144(sp)
   2a8f4:	3d81530e 	bge	r7,r22,2ae44 <___vfiprintf_internal_r+0x1288>
   2a8f8:	8007883a 	mov	r3,r16
   2a8fc:	034001c4 	movi	r13,7
   2a900:	b021883a 	mov	r16,r22
   2a904:	da402515 	stw	r9,148(sp)
   2a908:	182d883a 	mov	r22,r3
   2a90c:	00000506 	br	2a924 <___vfiprintf_internal_r+0xd68>
   2a910:	29800084 	addi	r6,r5,2
   2a914:	42000204 	addi	r8,r8,8
   2a918:	180b883a 	mov	r5,r3
   2a91c:	843ffc04 	addi	r16,r16,-16
   2a920:	3c000d0e 	bge	r7,r16,2a958 <___vfiprintf_internal_r+0xd9c>
   2a924:	10800404 	addi	r2,r2,16
   2a928:	28c00044 	addi	r3,r5,1
   2a92c:	45c00015 	stw	r23,0(r8)
   2a930:	41c00115 	stw	r7,4(r8)
   2a934:	d8801c15 	stw	r2,112(sp)
   2a938:	d8c01b15 	stw	r3,108(sp)
   2a93c:	68fff40e 	bge	r13,r3,2a910 <_gp+0xfffeea9c>
   2a940:	1000151e 	bne	r2,zero,2a998 <___vfiprintf_internal_r+0xddc>
   2a944:	843ffc04 	addi	r16,r16,-16
   2a948:	01800044 	movi	r6,1
   2a94c:	000b883a 	mov	r5,zero
   2a950:	d811883a 	mov	r8,sp
   2a954:	3c3ff316 	blt	r7,r16,2a924 <_gp+0xfffeeab0>
   2a958:	da402517 	ldw	r9,148(sp)
   2a95c:	b007883a 	mov	r3,r22
   2a960:	802d883a 	mov	r22,r16
   2a964:	1821883a 	mov	r16,r3
   2a968:	d8c02417 	ldw	r3,144(sp)
   2a96c:	1585883a 	add	r2,r2,r22
   2a970:	45800115 	stw	r22,4(r8)
   2a974:	40c00015 	stw	r3,0(r8)
   2a978:	d8801c15 	stw	r2,112(sp)
   2a97c:	d9801b15 	stw	r6,108(sp)
   2a980:	00c001c4 	movi	r3,7
   2a984:	19806d16 	blt	r3,r6,2ab3c <___vfiprintf_internal_r+0xf80>
   2a988:	42000204 	addi	r8,r8,8
   2a98c:	31000044 	addi	r4,r6,1
   2a990:	300b883a 	mov	r5,r6
   2a994:	003dd006 	br	2a0d8 <_gp+0xfffee264>
   2a998:	d9002017 	ldw	r4,128(sp)
   2a99c:	d9402117 	ldw	r5,132(sp)
   2a9a0:	d9801a04 	addi	r6,sp,104
   2a9a4:	d9c02b15 	stw	r7,172(sp)
   2a9a8:	db402a15 	stw	r13,168(sp)
   2a9ac:	0029aa80 	call	29aa8 <__sprint_r.part.0>
   2a9b0:	d9c02b17 	ldw	r7,172(sp)
   2a9b4:	db402a17 	ldw	r13,168(sp)
   2a9b8:	103faa1e 	bne	r2,zero,2a864 <_gp+0xfffee9f0>
   2a9bc:	d9401b17 	ldw	r5,108(sp)
   2a9c0:	d8801c17 	ldw	r2,112(sp)
   2a9c4:	d811883a 	mov	r8,sp
   2a9c8:	29800044 	addi	r6,r5,1
   2a9cc:	003fd306 	br	2a91c <_gp+0xfffeeaa8>
   2a9d0:	1000401e 	bne	r2,zero,2aad4 <___vfiprintf_internal_r+0xf18>
   2a9d4:	68003b26 	beq	r13,zero,2aac4 <___vfiprintf_internal_r+0xf08>
   2a9d8:	d9001d04 	addi	r4,sp,116
   2a9dc:	00800084 	movi	r2,2
   2a9e0:	d9000015 	stw	r4,0(sp)
   2a9e4:	d8800115 	stw	r2,4(sp)
   2a9e8:	1809883a 	mov	r4,r3
   2a9ec:	d811883a 	mov	r8,sp
   2a9f0:	003db406 	br	2a0c4 <_gp+0xfffee250>
   2a9f4:	1000451e 	bne	r2,zero,2ab0c <___vfiprintf_internal_r+0xf50>
   2a9f8:	01000044 	movi	r4,1
   2a9fc:	000b883a 	mov	r5,zero
   2aa00:	d811883a 	mov	r8,sp
   2aa04:	003db206 	br	2a0d0 <_gp+0xfffee25c>
   2aa08:	10803fcc 	andi	r2,r2,255
   2aa0c:	1000071e 	bne	r2,zero,2aa2c <___vfiprintf_internal_r+0xe70>
   2aa10:	a880004c 	andi	r2,r21,1
   2aa14:	10000526 	beq	r2,zero,2aa2c <___vfiprintf_internal_r+0xe70>
   2aa18:	00800c04 	movi	r2,48
   2aa1c:	d88019c5 	stb	r2,103(sp)
   2aa20:	dcc02717 	ldw	r19,156(sp)
   2aa24:	dd0019c4 	addi	r20,sp,103
   2aa28:	003d5e06 	br	29fa4 <_gp+0xfffee130>
   2aa2c:	dd001a04 	addi	r20,sp,104
   2aa30:	003d5c06 	br	29fa4 <_gp+0xfffee130>
   2aa34:	1000971e 	bne	r2,zero,2ac94 <___vfiprintf_internal_r+0x10d8>
   2aa38:	d8c01d87 	ldb	r3,118(sp)
   2aa3c:	18005826 	beq	r3,zero,2aba0 <___vfiprintf_internal_r+0xfe4>
   2aa40:	00800044 	movi	r2,1
   2aa44:	d8c01d84 	addi	r3,sp,118
   2aa48:	1009883a 	mov	r4,r2
   2aa4c:	d8c00015 	stw	r3,0(sp)
   2aa50:	d8800115 	stw	r2,4(sp)
   2aa54:	d811883a 	mov	r8,sp
   2aa58:	003f3206 	br	2a724 <_gp+0xfffee8b0>
   2aa5c:	8023883a 	mov	r17,r16
   2aa60:	003ca706 	br	29d00 <_gp+0xfffede8c>
   2aa64:	d9002017 	ldw	r4,128(sp)
   2aa68:	d9402117 	ldw	r5,132(sp)
   2aa6c:	d9801a04 	addi	r6,sp,104
   2aa70:	0029aa80 	call	29aa8 <__sprint_r.part.0>
   2aa74:	103f7b1e 	bne	r2,zero,2a864 <_gp+0xfffee9f0>
   2aa78:	d8801c17 	ldw	r2,112(sp)
   2aa7c:	d811883a 	mov	r8,sp
   2aa80:	003f9106 	br	2a8c8 <_gp+0xfffeea54>
   2aa84:	00800084 	movi	r2,2
   2aa88:	b348b03a 	or	r4,r22,r13
   2aa8c:	003d2906 	br	29f34 <_gp+0xfffee0c0>
   2aa90:	d8802217 	ldw	r2,136(sp)
   2aa94:	001b883a 	mov	r13,zero
   2aa98:	15800017 	ldw	r22,0(r2)
   2aa9c:	10800104 	addi	r2,r2,4
   2aaa0:	d8802215 	stw	r2,136(sp)
   2aaa4:	003ea706 	br	2a544 <_gp+0xfffee6d0>
   2aaa8:	d9002017 	ldw	r4,128(sp)
   2aaac:	d9402117 	ldw	r5,132(sp)
   2aab0:	d9801a04 	addi	r6,sp,104
   2aab4:	0029aa80 	call	29aa8 <__sprint_r.part.0>
   2aab8:	103f6a1e 	bne	r2,zero,2a864 <_gp+0xfffee9f0>
   2aabc:	d811883a 	mov	r8,sp
   2aac0:	003cff06 	br	29ec0 <_gp+0xfffee04c>
   2aac4:	000b883a 	mov	r5,zero
   2aac8:	1809883a 	mov	r4,r3
   2aacc:	d811883a 	mov	r8,sp
   2aad0:	003d7f06 	br	2a0d0 <_gp+0xfffee25c>
   2aad4:	d9002017 	ldw	r4,128(sp)
   2aad8:	d9402117 	ldw	r5,132(sp)
   2aadc:	d9801a04 	addi	r6,sp,104
   2aae0:	da402b15 	stw	r9,172(sp)
   2aae4:	db402a15 	stw	r13,168(sp)
   2aae8:	0029aa80 	call	29aa8 <__sprint_r.part.0>
   2aaec:	da402b17 	ldw	r9,172(sp)
   2aaf0:	db402a17 	ldw	r13,168(sp)
   2aaf4:	103f5b1e 	bne	r2,zero,2a864 <_gp+0xfffee9f0>
   2aaf8:	d9401b17 	ldw	r5,108(sp)
   2aafc:	d8801c17 	ldw	r2,112(sp)
   2ab00:	d811883a 	mov	r8,sp
   2ab04:	29000044 	addi	r4,r5,1
   2ab08:	003d6406 	br	2a09c <_gp+0xfffee228>
   2ab0c:	d9002017 	ldw	r4,128(sp)
   2ab10:	d9402117 	ldw	r5,132(sp)
   2ab14:	d9801a04 	addi	r6,sp,104
   2ab18:	da402b15 	stw	r9,172(sp)
   2ab1c:	0029aa80 	call	29aa8 <__sprint_r.part.0>
   2ab20:	da402b17 	ldw	r9,172(sp)
   2ab24:	103f4f1e 	bne	r2,zero,2a864 <_gp+0xfffee9f0>
   2ab28:	d9401b17 	ldw	r5,108(sp)
   2ab2c:	d8801c17 	ldw	r2,112(sp)
   2ab30:	d811883a 	mov	r8,sp
   2ab34:	29000044 	addi	r4,r5,1
   2ab38:	003d6506 	br	2a0d0 <_gp+0xfffee25c>
   2ab3c:	10009a1e 	bne	r2,zero,2ada8 <___vfiprintf_internal_r+0x11ec>
   2ab40:	01000044 	movi	r4,1
   2ab44:	000b883a 	mov	r5,zero
   2ab48:	d811883a 	mov	r8,sp
   2ab4c:	003d6206 	br	2a0d8 <_gp+0xfffee264>
   2ab50:	d9002017 	ldw	r4,128(sp)
   2ab54:	d9402117 	ldw	r5,132(sp)
   2ab58:	d9801a04 	addi	r6,sp,104
   2ab5c:	0029aa80 	call	29aa8 <__sprint_r.part.0>
   2ab60:	103f401e 	bne	r2,zero,2a864 <_gp+0xfffee9f0>
   2ab64:	d9001b17 	ldw	r4,108(sp)
   2ab68:	d8801c17 	ldw	r2,112(sp)
   2ab6c:	d811883a 	mov	r8,sp
   2ab70:	21000044 	addi	r4,r4,1
   2ab74:	003d7d06 	br	2a16c <_gp+0xfffee2f8>
   2ab78:	05adc83a 	sub	r22,zero,r22
   2ab7c:	b004c03a 	cmpne	r2,r22,zero
   2ab80:	035bc83a 	sub	r13,zero,r13
   2ab84:	689bc83a 	sub	r13,r13,r2
   2ab88:	03800b44 	movi	r14,45
   2ab8c:	db801d85 	stb	r14,118(sp)
   2ab90:	4827883a 	mov	r19,r9
   2ab94:	00800044 	movi	r2,1
   2ab98:	b348b03a 	or	r4,r22,r13
   2ab9c:	003ce806 	br	29f40 <_gp+0xfffee0cc>
   2aba0:	000b883a 	mov	r5,zero
   2aba4:	01000044 	movi	r4,1
   2aba8:	d811883a 	mov	r8,sp
   2abac:	683d4826 	beq	r13,zero,2a0d0 <_gp+0xfffee25c>
   2abb0:	00800084 	movi	r2,2
   2abb4:	d8c01d04 	addi	r3,sp,116
   2abb8:	d8c00015 	stw	r3,0(sp)
   2abbc:	d8800115 	stw	r2,4(sp)
   2abc0:	003d4006 	br	2a0c4 <_gp+0xfffee250>
   2abc4:	00800084 	movi	r2,2
   2abc8:	003cda06 	br	29f34 <_gp+0xfffee0c0>
   2abcc:	a880100c 	andi	r2,r21,64
   2abd0:	10004226 	beq	r2,zero,2acdc <___vfiprintf_internal_r+0x1120>
   2abd4:	d8802217 	ldw	r2,136(sp)
   2abd8:	001b883a 	mov	r13,zero
   2abdc:	1580000b 	ldhu	r22,0(r2)
   2abe0:	10800104 	addi	r2,r2,4
   2abe4:	d8802215 	stw	r2,136(sp)
   2abe8:	b009883a 	mov	r4,r22
   2abec:	0005883a 	mov	r2,zero
   2abf0:	003cd006 	br	29f34 <_gp+0xfffee0c0>
   2abf4:	80c00007 	ldb	r3,0(r16)
   2abf8:	8005883a 	mov	r2,r16
   2abfc:	003c4d06 	br	29d34 <_gp+0xfffedec0>
   2ac00:	a880100c 	andi	r2,r21,64
   2ac04:	10004426 	beq	r2,zero,2ad18 <___vfiprintf_internal_r+0x115c>
   2ac08:	d8c02217 	ldw	r3,136(sp)
   2ac0c:	001b883a 	mov	r13,zero
   2ac10:	00800044 	movi	r2,1
   2ac14:	1d80000b 	ldhu	r22,0(r3)
   2ac18:	18c00104 	addi	r3,r3,4
   2ac1c:	d8c02215 	stw	r3,136(sp)
   2ac20:	b009883a 	mov	r4,r22
   2ac24:	003cc306 	br	29f34 <_gp+0xfffee0c0>
   2ac28:	a880040c 	andi	r2,r21,16
   2ac2c:	1000091e 	bne	r2,zero,2ac54 <___vfiprintf_internal_r+0x1098>
   2ac30:	aac0100c 	andi	r11,r21,64
   2ac34:	58000726 	beq	r11,zero,2ac54 <___vfiprintf_internal_r+0x1098>
   2ac38:	d8c02217 	ldw	r3,136(sp)
   2ac3c:	d9002317 	ldw	r4,140(sp)
   2ac40:	18800017 	ldw	r2,0(r3)
   2ac44:	18c00104 	addi	r3,r3,4
   2ac48:	d8c02215 	stw	r3,136(sp)
   2ac4c:	1100000d 	sth	r4,0(r2)
   2ac50:	003c0e06 	br	29c8c <_gp+0xfffede18>
   2ac54:	d8c02217 	ldw	r3,136(sp)
   2ac58:	d9002317 	ldw	r4,140(sp)
   2ac5c:	18800017 	ldw	r2,0(r3)
   2ac60:	18c00104 	addi	r3,r3,4
   2ac64:	d8c02215 	stw	r3,136(sp)
   2ac68:	11000015 	stw	r4,0(r2)
   2ac6c:	003c0706 	br	29c8c <_gp+0xfffede18>
   2ac70:	a880100c 	andi	r2,r21,64
   2ac74:	10002126 	beq	r2,zero,2acfc <___vfiprintf_internal_r+0x1140>
   2ac78:	1d80000f 	ldh	r22,0(r3)
   2ac7c:	d8c02217 	ldw	r3,136(sp)
   2ac80:	b01bd7fa 	srai	r13,r22,31
   2ac84:	18c00104 	addi	r3,r3,4
   2ac88:	d8c02215 	stw	r3,136(sp)
   2ac8c:	6805883a 	mov	r2,r13
   2ac90:	003dc406 	br	2a3a4 <_gp+0xfffee530>
   2ac94:	d9002017 	ldw	r4,128(sp)
   2ac98:	d9402117 	ldw	r5,132(sp)
   2ac9c:	d9801a04 	addi	r6,sp,104
   2aca0:	da402b15 	stw	r9,172(sp)
   2aca4:	db402a15 	stw	r13,168(sp)
   2aca8:	0029aa80 	call	29aa8 <__sprint_r.part.0>
   2acac:	da402b17 	ldw	r9,172(sp)
   2acb0:	db402a17 	ldw	r13,168(sp)
   2acb4:	103eeb1e 	bne	r2,zero,2a864 <_gp+0xfffee9f0>
   2acb8:	d9401b17 	ldw	r5,108(sp)
   2acbc:	d8801c17 	ldw	r2,112(sp)
   2acc0:	d811883a 	mov	r8,sp
   2acc4:	29000044 	addi	r4,r5,1
   2acc8:	003e8b06 	br	2a6f8 <_gp+0xfffee884>
   2accc:	9023883a 	mov	r17,r18
   2acd0:	003d5a06 	br	2a23c <_gp+0xfffee3c8>
   2acd4:	4827883a 	mov	r19,r9
   2acd8:	003e3506 	br	2a5b0 <_gp+0xfffee73c>
   2acdc:	d8c02217 	ldw	r3,136(sp)
   2ace0:	001b883a 	mov	r13,zero
   2ace4:	0005883a 	mov	r2,zero
   2ace8:	1d800017 	ldw	r22,0(r3)
   2acec:	18c00104 	addi	r3,r3,4
   2acf0:	d8c02215 	stw	r3,136(sp)
   2acf4:	b009883a 	mov	r4,r22
   2acf8:	003c8e06 	br	29f34 <_gp+0xfffee0c0>
   2acfc:	1d800017 	ldw	r22,0(r3)
   2ad00:	d9002217 	ldw	r4,136(sp)
   2ad04:	b01bd7fa 	srai	r13,r22,31
   2ad08:	21000104 	addi	r4,r4,4
   2ad0c:	d9002215 	stw	r4,136(sp)
   2ad10:	6805883a 	mov	r2,r13
   2ad14:	003da306 	br	2a3a4 <_gp+0xfffee530>
   2ad18:	d9002217 	ldw	r4,136(sp)
   2ad1c:	001b883a 	mov	r13,zero
   2ad20:	00800044 	movi	r2,1
   2ad24:	25800017 	ldw	r22,0(r4)
   2ad28:	21000104 	addi	r4,r4,4
   2ad2c:	d9002215 	stw	r4,136(sp)
   2ad30:	b009883a 	mov	r4,r22
   2ad34:	003c7f06 	br	29f34 <_gp+0xfffee0c0>
   2ad38:	00c000f4 	movhi	r3,3
   2ad3c:	18c6b904 	addi	r3,r3,6884
   2ad40:	d8c02415 	stw	r3,144(sp)
   2ad44:	003cff06 	br	2a144 <_gp+0xfffee2d0>
   2ad48:	d8801c17 	ldw	r2,112(sp)
   2ad4c:	dd402117 	ldw	r21,132(sp)
   2ad50:	103ec526 	beq	r2,zero,2a868 <_gp+0xfffee9f4>
   2ad54:	d9002017 	ldw	r4,128(sp)
   2ad58:	a80b883a 	mov	r5,r21
   2ad5c:	d9801a04 	addi	r6,sp,104
   2ad60:	0029aa80 	call	29aa8 <__sprint_r.part.0>
   2ad64:	003ec006 	br	2a868 <_gp+0xfffee9f4>
   2ad68:	80800044 	addi	r2,r16,1
   2ad6c:	ad400814 	ori	r21,r21,32
   2ad70:	80c00047 	ldb	r3,1(r16)
   2ad74:	003bef06 	br	29d34 <_gp+0xfffedec0>
   2ad78:	04a5c83a 	sub	r18,zero,r18
   2ad7c:	8005883a 	mov	r2,r16
   2ad80:	d8c02215 	stw	r3,136(sp)
   2ad84:	003d5306 	br	2a2d4 <_gp+0xfffee460>
   2ad88:	da002a15 	stw	r8,168(sp)
   2ad8c:	0022ff80 	call	22ff8 <strlen>
   2ad90:	1027883a 	mov	r19,r2
   2ad94:	db801d83 	ldbu	r14,118(sp)
   2ad98:	dd802215 	stw	r22,136(sp)
   2ad9c:	0013883a 	mov	r9,zero
   2ada0:	da002a17 	ldw	r8,168(sp)
   2ada4:	003c7f06 	br	29fa4 <_gp+0xfffee130>
   2ada8:	d9002017 	ldw	r4,128(sp)
   2adac:	d9402117 	ldw	r5,132(sp)
   2adb0:	d9801a04 	addi	r6,sp,104
   2adb4:	da402b15 	stw	r9,172(sp)
   2adb8:	0029aa80 	call	29aa8 <__sprint_r.part.0>
   2adbc:	da402b17 	ldw	r9,172(sp)
   2adc0:	103ea81e 	bne	r2,zero,2a864 <_gp+0xfffee9f0>
   2adc4:	d9401b17 	ldw	r5,108(sp)
   2adc8:	d8801c17 	ldw	r2,112(sp)
   2adcc:	d811883a 	mov	r8,sp
   2add0:	29000044 	addi	r4,r5,1
   2add4:	003cc006 	br	2a0d8 <_gp+0xfffee264>
   2add8:	d9401b17 	ldw	r5,108(sp)
   2addc:	010000f4 	movhi	r4,3
   2ade0:	2106bd04 	addi	r4,r4,6900
   2ade4:	d9002415 	stw	r4,144(sp)
   2ade8:	29400044 	addi	r5,r5,1
   2adec:	003c9f06 	br	2a06c <_gp+0xfffee1f8>
   2adf0:	00800184 	movi	r2,6
   2adf4:	1240012e 	bgeu	r2,r9,2adfc <___vfiprintf_internal_r+0x1240>
   2adf8:	1013883a 	mov	r9,r2
   2adfc:	4827883a 	mov	r19,r9
   2ae00:	4823883a 	mov	r17,r9
   2ae04:	48001116 	blt	r9,zero,2ae4c <___vfiprintf_internal_r+0x1290>
   2ae08:	050000f4 	movhi	r20,3
   2ae0c:	dd802215 	stw	r22,136(sp)
   2ae10:	a5065d04 	addi	r20,r20,6516
   2ae14:	003db106 	br	2a4dc <_gp+0xfffee668>
   2ae18:	d9401b17 	ldw	r5,108(sp)
   2ae1c:	010000f4 	movhi	r4,3
   2ae20:	2106bd04 	addi	r4,r4,6900
   2ae24:	d9002415 	stw	r4,144(sp)
   2ae28:	29400044 	addi	r5,r5,1
   2ae2c:	003cf906 	br	2a214 <_gp+0xfffee3a0>
   2ae30:	4827883a 	mov	r19,r9
   2ae34:	db801d83 	ldbu	r14,118(sp)
   2ae38:	dd802215 	stw	r22,136(sp)
   2ae3c:	0013883a 	mov	r9,zero
   2ae40:	003c5806 	br	29fa4 <_gp+0xfffee130>
   2ae44:	200d883a 	mov	r6,r4
   2ae48:	003ec706 	br	2a968 <_gp+0xfffeeaf4>
   2ae4c:	0023883a 	mov	r17,zero
   2ae50:	003fed06 	br	2ae08 <_gp+0xfffeef94>
   2ae54:	d9002217 	ldw	r4,136(sp)
   2ae58:	22400017 	ldw	r9,0(r4)
   2ae5c:	20c00104 	addi	r3,r4,4
   2ae60:	d8c02215 	stw	r3,136(sp)
   2ae64:	483fc20e 	bge	r9,zero,2ad70 <_gp+0xfffeeefc>
   2ae68:	027fffc4 	movi	r9,-1
   2ae6c:	80c00047 	ldb	r3,1(r16)
   2ae70:	003bb006 	br	29d34 <_gp+0xfffedec0>
   2ae74:	8c80010e 	bge	r17,r18,2ae7c <___vfiprintf_internal_r+0x12c0>
   2ae78:	9023883a 	mov	r17,r18
   2ae7c:	d8802317 	ldw	r2,140(sp)
   2ae80:	1445883a 	add	r2,r2,r17
   2ae84:	d8802315 	stw	r2,140(sp)
   2ae88:	003cef06 	br	2a248 <_gp+0xfffee3d4>

0002ae8c <__vfiprintf_internal>:
   2ae8c:	2007883a 	mov	r3,r4
   2ae90:	010000f4 	movhi	r4,3
   2ae94:	210fa304 	addi	r4,r4,16012
   2ae98:	21000017 	ldw	r4,0(r4)
   2ae9c:	2805883a 	mov	r2,r5
   2aea0:	300f883a 	mov	r7,r6
   2aea4:	180b883a 	mov	r5,r3
   2aea8:	100d883a 	mov	r6,r2
   2aeac:	0029bbc1 	jmpi	29bbc <___vfiprintf_internal_r>

0002aeb0 <__sbprintf>:
   2aeb0:	2880030b 	ldhu	r2,12(r5)
   2aeb4:	2ac01917 	ldw	r11,100(r5)
   2aeb8:	2a80038b 	ldhu	r10,14(r5)
   2aebc:	2a400717 	ldw	r9,28(r5)
   2aec0:	2a000917 	ldw	r8,36(r5)
   2aec4:	defee204 	addi	sp,sp,-1144
   2aec8:	00c10004 	movi	r3,1024
   2aecc:	dc011a15 	stw	r16,1128(sp)
   2aed0:	10bfff4c 	andi	r2,r2,65533
   2aed4:	2821883a 	mov	r16,r5
   2aed8:	d8cb883a 	add	r5,sp,r3
   2aedc:	dc811c15 	stw	r18,1136(sp)
   2aee0:	dc411b15 	stw	r17,1132(sp)
   2aee4:	dfc11d15 	stw	ra,1140(sp)
   2aee8:	2025883a 	mov	r18,r4
   2aeec:	d881030d 	sth	r2,1036(sp)
   2aef0:	dac11915 	stw	r11,1124(sp)
   2aef4:	da81038d 	sth	r10,1038(sp)
   2aef8:	da410715 	stw	r9,1052(sp)
   2aefc:	da010915 	stw	r8,1060(sp)
   2af00:	dec10015 	stw	sp,1024(sp)
   2af04:	dec10415 	stw	sp,1040(sp)
   2af08:	d8c10215 	stw	r3,1032(sp)
   2af0c:	d8c10515 	stw	r3,1044(sp)
   2af10:	d8010615 	stw	zero,1048(sp)
   2af14:	0029bbc0 	call	29bbc <___vfiprintf_internal_r>
   2af18:	1023883a 	mov	r17,r2
   2af1c:	10000416 	blt	r2,zero,2af30 <__sbprintf+0x80>
   2af20:	9009883a 	mov	r4,r18
   2af24:	d9410004 	addi	r5,sp,1024
   2af28:	0026d440 	call	26d44 <_fflush_r>
   2af2c:	10000d1e 	bne	r2,zero,2af64 <__sbprintf+0xb4>
   2af30:	d8c1030b 	ldhu	r3,1036(sp)
   2af34:	18c0100c 	andi	r3,r3,64
   2af38:	18000326 	beq	r3,zero,2af48 <__sbprintf+0x98>
   2af3c:	8080030b 	ldhu	r2,12(r16)
   2af40:	10801014 	ori	r2,r2,64
   2af44:	8080030d 	sth	r2,12(r16)
   2af48:	8805883a 	mov	r2,r17
   2af4c:	dfc11d17 	ldw	ra,1140(sp)
   2af50:	dc811c17 	ldw	r18,1136(sp)
   2af54:	dc411b17 	ldw	r17,1132(sp)
   2af58:	dc011a17 	ldw	r16,1128(sp)
   2af5c:	dec11e04 	addi	sp,sp,1144
   2af60:	f800283a 	ret
   2af64:	047fffc4 	movi	r17,-1
   2af68:	003ff106 	br	2af30 <_gp+0xfffef0bc>

0002af6c <__swbuf_r>:
   2af6c:	defffc04 	addi	sp,sp,-16
   2af70:	dc800215 	stw	r18,8(sp)
   2af74:	dc400115 	stw	r17,4(sp)
   2af78:	dc000015 	stw	r16,0(sp)
   2af7c:	dfc00315 	stw	ra,12(sp)
   2af80:	2025883a 	mov	r18,r4
   2af84:	2823883a 	mov	r17,r5
   2af88:	3021883a 	mov	r16,r6
   2af8c:	20000226 	beq	r4,zero,2af98 <__swbuf_r+0x2c>
   2af90:	20800e17 	ldw	r2,56(r4)
   2af94:	10004126 	beq	r2,zero,2b09c <__swbuf_r+0x130>
   2af98:	80c00617 	ldw	r3,24(r16)
   2af9c:	8180030b 	ldhu	r6,12(r16)
   2afa0:	80c00215 	stw	r3,8(r16)
   2afa4:	30c0020c 	andi	r3,r6,8
   2afa8:	18003526 	beq	r3,zero,2b080 <__swbuf_r+0x114>
   2afac:	80c00417 	ldw	r3,16(r16)
   2afb0:	18003326 	beq	r3,zero,2b080 <__swbuf_r+0x114>
   2afb4:	3088000c 	andi	r2,r6,8192
   2afb8:	8c403fcc 	andi	r17,r17,255
   2afbc:	10001726 	beq	r2,zero,2b01c <__swbuf_r+0xb0>
   2afc0:	80800017 	ldw	r2,0(r16)
   2afc4:	81000517 	ldw	r4,20(r16)
   2afc8:	10c7c83a 	sub	r3,r2,r3
   2afcc:	19001d0e 	bge	r3,r4,2b044 <__swbuf_r+0xd8>
   2afd0:	18c00044 	addi	r3,r3,1
   2afd4:	81400217 	ldw	r5,8(r16)
   2afd8:	11000044 	addi	r4,r2,1
   2afdc:	81000015 	stw	r4,0(r16)
   2afe0:	297fffc4 	addi	r5,r5,-1
   2afe4:	81400215 	stw	r5,8(r16)
   2afe8:	14400005 	stb	r17,0(r2)
   2afec:	80800517 	ldw	r2,20(r16)
   2aff0:	10c01d26 	beq	r2,r3,2b068 <__swbuf_r+0xfc>
   2aff4:	8080030b 	ldhu	r2,12(r16)
   2aff8:	1080004c 	andi	r2,r2,1
   2affc:	1000181e 	bne	r2,zero,2b060 <__swbuf_r+0xf4>
   2b000:	8805883a 	mov	r2,r17
   2b004:	dfc00317 	ldw	ra,12(sp)
   2b008:	dc800217 	ldw	r18,8(sp)
   2b00c:	dc400117 	ldw	r17,4(sp)
   2b010:	dc000017 	ldw	r16,0(sp)
   2b014:	dec00404 	addi	sp,sp,16
   2b018:	f800283a 	ret
   2b01c:	81001917 	ldw	r4,100(r16)
   2b020:	00b7ffc4 	movi	r2,-8193
   2b024:	31880014 	ori	r6,r6,8192
   2b028:	2084703a 	and	r2,r4,r2
   2b02c:	80801915 	stw	r2,100(r16)
   2b030:	80800017 	ldw	r2,0(r16)
   2b034:	81000517 	ldw	r4,20(r16)
   2b038:	8180030d 	sth	r6,12(r16)
   2b03c:	10c7c83a 	sub	r3,r2,r3
   2b040:	193fe316 	blt	r3,r4,2afd0 <_gp+0xfffef15c>
   2b044:	9009883a 	mov	r4,r18
   2b048:	800b883a 	mov	r5,r16
   2b04c:	0026d440 	call	26d44 <_fflush_r>
   2b050:	1000091e 	bne	r2,zero,2b078 <__swbuf_r+0x10c>
   2b054:	80800017 	ldw	r2,0(r16)
   2b058:	00c00044 	movi	r3,1
   2b05c:	003fdd06 	br	2afd4 <_gp+0xfffef160>
   2b060:	00800284 	movi	r2,10
   2b064:	88bfe61e 	bne	r17,r2,2b000 <_gp+0xfffef18c>
   2b068:	9009883a 	mov	r4,r18
   2b06c:	800b883a 	mov	r5,r16
   2b070:	0026d440 	call	26d44 <_fflush_r>
   2b074:	103fe226 	beq	r2,zero,2b000 <_gp+0xfffef18c>
   2b078:	00bfffc4 	movi	r2,-1
   2b07c:	003fe106 	br	2b004 <_gp+0xfffef190>
   2b080:	9009883a 	mov	r4,r18
   2b084:	800b883a 	mov	r5,r16
   2b088:	00250c00 	call	250c0 <__swsetup_r>
   2b08c:	103ffa1e 	bne	r2,zero,2b078 <_gp+0xfffef204>
   2b090:	8180030b 	ldhu	r6,12(r16)
   2b094:	80c00417 	ldw	r3,16(r16)
   2b098:	003fc606 	br	2afb4 <_gp+0xfffef140>
   2b09c:	00271200 	call	27120 <__sinit>
   2b0a0:	003fbd06 	br	2af98 <_gp+0xfffef124>

0002b0a4 <__swbuf>:
   2b0a4:	00c000f4 	movhi	r3,3
   2b0a8:	18cfa304 	addi	r3,r3,16012
   2b0ac:	2005883a 	mov	r2,r4
   2b0b0:	19000017 	ldw	r4,0(r3)
   2b0b4:	280d883a 	mov	r6,r5
   2b0b8:	100b883a 	mov	r5,r2
   2b0bc:	002af6c1 	jmpi	2af6c <__swbuf_r>

0002b0c0 <_write_r>:
   2b0c0:	defffd04 	addi	sp,sp,-12
   2b0c4:	dc000015 	stw	r16,0(sp)
   2b0c8:	040000f4 	movhi	r16,3
   2b0cc:	dc400115 	stw	r17,4(sp)
   2b0d0:	84185704 	addi	r16,r16,24924
   2b0d4:	2023883a 	mov	r17,r4
   2b0d8:	2809883a 	mov	r4,r5
   2b0dc:	300b883a 	mov	r5,r6
   2b0e0:	380d883a 	mov	r6,r7
   2b0e4:	dfc00215 	stw	ra,8(sp)
   2b0e8:	80000015 	stw	zero,0(r16)
   2b0ec:	002f42c0 	call	2f42c <write>
   2b0f0:	00ffffc4 	movi	r3,-1
   2b0f4:	10c00526 	beq	r2,r3,2b10c <_write_r+0x4c>
   2b0f8:	dfc00217 	ldw	ra,8(sp)
   2b0fc:	dc400117 	ldw	r17,4(sp)
   2b100:	dc000017 	ldw	r16,0(sp)
   2b104:	dec00304 	addi	sp,sp,12
   2b108:	f800283a 	ret
   2b10c:	80c00017 	ldw	r3,0(r16)
   2b110:	183ff926 	beq	r3,zero,2b0f8 <_gp+0xfffef284>
   2b114:	88c00015 	stw	r3,0(r17)
   2b118:	003ff706 	br	2b0f8 <_gp+0xfffef284>

0002b11c <_close_r>:
   2b11c:	defffd04 	addi	sp,sp,-12
   2b120:	dc000015 	stw	r16,0(sp)
   2b124:	040000f4 	movhi	r16,3
   2b128:	dc400115 	stw	r17,4(sp)
   2b12c:	84185704 	addi	r16,r16,24924
   2b130:	2023883a 	mov	r17,r4
   2b134:	2809883a 	mov	r4,r5
   2b138:	dfc00215 	stw	ra,8(sp)
   2b13c:	80000015 	stw	zero,0(r16)
   2b140:	002ea040 	call	2ea04 <close>
   2b144:	00ffffc4 	movi	r3,-1
   2b148:	10c00526 	beq	r2,r3,2b160 <_close_r+0x44>
   2b14c:	dfc00217 	ldw	ra,8(sp)
   2b150:	dc400117 	ldw	r17,4(sp)
   2b154:	dc000017 	ldw	r16,0(sp)
   2b158:	dec00304 	addi	sp,sp,12
   2b15c:	f800283a 	ret
   2b160:	80c00017 	ldw	r3,0(r16)
   2b164:	183ff926 	beq	r3,zero,2b14c <_gp+0xfffef2d8>
   2b168:	88c00015 	stw	r3,0(r17)
   2b16c:	003ff706 	br	2b14c <_gp+0xfffef2d8>

0002b170 <_calloc_r>:
   2b170:	298b383a 	mul	r5,r5,r6
   2b174:	defffe04 	addi	sp,sp,-8
   2b178:	dc000015 	stw	r16,0(sp)
   2b17c:	dfc00115 	stw	ra,4(sp)
   2b180:	00225940 	call	22594 <_malloc_r>
   2b184:	1021883a 	mov	r16,r2
   2b188:	10002826 	beq	r2,zero,2b22c <_calloc_r+0xbc>
   2b18c:	11bfff17 	ldw	r6,-4(r2)
   2b190:	00bfff04 	movi	r2,-4
   2b194:	00c00904 	movi	r3,36
   2b198:	308c703a 	and	r6,r6,r2
   2b19c:	308d883a 	add	r6,r6,r2
   2b1a0:	19801436 	bltu	r3,r6,2b1f4 <_calloc_r+0x84>
   2b1a4:	008004c4 	movi	r2,19
   2b1a8:	11800936 	bltu	r2,r6,2b1d0 <_calloc_r+0x60>
   2b1ac:	8005883a 	mov	r2,r16
   2b1b0:	10000015 	stw	zero,0(r2)
   2b1b4:	10000115 	stw	zero,4(r2)
   2b1b8:	10000215 	stw	zero,8(r2)
   2b1bc:	8005883a 	mov	r2,r16
   2b1c0:	dfc00117 	ldw	ra,4(sp)
   2b1c4:	dc000017 	ldw	r16,0(sp)
   2b1c8:	dec00204 	addi	sp,sp,8
   2b1cc:	f800283a 	ret
   2b1d0:	80000015 	stw	zero,0(r16)
   2b1d4:	80000115 	stw	zero,4(r16)
   2b1d8:	008006c4 	movi	r2,27
   2b1dc:	11800d2e 	bgeu	r2,r6,2b214 <_calloc_r+0xa4>
   2b1e0:	80000215 	stw	zero,8(r16)
   2b1e4:	80000315 	stw	zero,12(r16)
   2b1e8:	30c00c26 	beq	r6,r3,2b21c <_calloc_r+0xac>
   2b1ec:	80800404 	addi	r2,r16,16
   2b1f0:	003fef06 	br	2b1b0 <_gp+0xfffef33c>
   2b1f4:	8009883a 	mov	r4,r16
   2b1f8:	000b883a 	mov	r5,zero
   2b1fc:	0022d3c0 	call	22d3c <memset>
   2b200:	8005883a 	mov	r2,r16
   2b204:	dfc00117 	ldw	ra,4(sp)
   2b208:	dc000017 	ldw	r16,0(sp)
   2b20c:	dec00204 	addi	sp,sp,8
   2b210:	f800283a 	ret
   2b214:	80800204 	addi	r2,r16,8
   2b218:	003fe506 	br	2b1b0 <_gp+0xfffef33c>
   2b21c:	80000415 	stw	zero,16(r16)
   2b220:	80800604 	addi	r2,r16,24
   2b224:	80000515 	stw	zero,20(r16)
   2b228:	003fe106 	br	2b1b0 <_gp+0xfffef33c>
   2b22c:	0005883a 	mov	r2,zero
   2b230:	003fe306 	br	2b1c0 <_gp+0xfffef34c>

0002b234 <_fclose_r>:
   2b234:	28003926 	beq	r5,zero,2b31c <_fclose_r+0xe8>
   2b238:	defffc04 	addi	sp,sp,-16
   2b23c:	dc400115 	stw	r17,4(sp)
   2b240:	dc000015 	stw	r16,0(sp)
   2b244:	dfc00315 	stw	ra,12(sp)
   2b248:	dc800215 	stw	r18,8(sp)
   2b24c:	2023883a 	mov	r17,r4
   2b250:	2821883a 	mov	r16,r5
   2b254:	20000226 	beq	r4,zero,2b260 <_fclose_r+0x2c>
   2b258:	20800e17 	ldw	r2,56(r4)
   2b25c:	10002726 	beq	r2,zero,2b2fc <_fclose_r+0xc8>
   2b260:	8080030f 	ldh	r2,12(r16)
   2b264:	1000071e 	bne	r2,zero,2b284 <_fclose_r+0x50>
   2b268:	0005883a 	mov	r2,zero
   2b26c:	dfc00317 	ldw	ra,12(sp)
   2b270:	dc800217 	ldw	r18,8(sp)
   2b274:	dc400117 	ldw	r17,4(sp)
   2b278:	dc000017 	ldw	r16,0(sp)
   2b27c:	dec00404 	addi	sp,sp,16
   2b280:	f800283a 	ret
   2b284:	8809883a 	mov	r4,r17
   2b288:	800b883a 	mov	r5,r16
   2b28c:	0026b3c0 	call	26b3c <__sflush_r>
   2b290:	1025883a 	mov	r18,r2
   2b294:	80800b17 	ldw	r2,44(r16)
   2b298:	10000426 	beq	r2,zero,2b2ac <_fclose_r+0x78>
   2b29c:	81400717 	ldw	r5,28(r16)
   2b2a0:	8809883a 	mov	r4,r17
   2b2a4:	103ee83a 	callr	r2
   2b2a8:	10001616 	blt	r2,zero,2b304 <_fclose_r+0xd0>
   2b2ac:	8080030b 	ldhu	r2,12(r16)
   2b2b0:	1080200c 	andi	r2,r2,128
   2b2b4:	1000151e 	bne	r2,zero,2b30c <_fclose_r+0xd8>
   2b2b8:	81400c17 	ldw	r5,48(r16)
   2b2bc:	28000526 	beq	r5,zero,2b2d4 <_fclose_r+0xa0>
   2b2c0:	80801004 	addi	r2,r16,64
   2b2c4:	28800226 	beq	r5,r2,2b2d0 <_fclose_r+0x9c>
   2b2c8:	8809883a 	mov	r4,r17
   2b2cc:	00272940 	call	27294 <_free_r>
   2b2d0:	80000c15 	stw	zero,48(r16)
   2b2d4:	81401117 	ldw	r5,68(r16)
   2b2d8:	28000326 	beq	r5,zero,2b2e8 <_fclose_r+0xb4>
   2b2dc:	8809883a 	mov	r4,r17
   2b2e0:	00272940 	call	27294 <_free_r>
   2b2e4:	80001115 	stw	zero,68(r16)
   2b2e8:	00271300 	call	27130 <__sfp_lock_acquire>
   2b2ec:	8000030d 	sth	zero,12(r16)
   2b2f0:	00271340 	call	27134 <__sfp_lock_release>
   2b2f4:	9005883a 	mov	r2,r18
   2b2f8:	003fdc06 	br	2b26c <_gp+0xfffef3f8>
   2b2fc:	00271200 	call	27120 <__sinit>
   2b300:	003fd706 	br	2b260 <_gp+0xfffef3ec>
   2b304:	04bfffc4 	movi	r18,-1
   2b308:	003fe806 	br	2b2ac <_gp+0xfffef438>
   2b30c:	81400417 	ldw	r5,16(r16)
   2b310:	8809883a 	mov	r4,r17
   2b314:	00272940 	call	27294 <_free_r>
   2b318:	003fe706 	br	2b2b8 <_gp+0xfffef444>
   2b31c:	0005883a 	mov	r2,zero
   2b320:	f800283a 	ret

0002b324 <fclose>:
   2b324:	008000f4 	movhi	r2,3
   2b328:	108fa304 	addi	r2,r2,16012
   2b32c:	200b883a 	mov	r5,r4
   2b330:	11000017 	ldw	r4,0(r2)
   2b334:	002b2341 	jmpi	2b234 <_fclose_r>

0002b338 <_fputwc_r>:
   2b338:	3080030b 	ldhu	r2,12(r6)
   2b33c:	defff804 	addi	sp,sp,-32
   2b340:	dcc00415 	stw	r19,16(sp)
   2b344:	dc800315 	stw	r18,12(sp)
   2b348:	dc000115 	stw	r16,4(sp)
   2b34c:	dfc00715 	stw	ra,28(sp)
   2b350:	dd400615 	stw	r21,24(sp)
   2b354:	dd000515 	stw	r20,20(sp)
   2b358:	dc400215 	stw	r17,8(sp)
   2b35c:	10c8000c 	andi	r3,r2,8192
   2b360:	3021883a 	mov	r16,r6
   2b364:	2027883a 	mov	r19,r4
   2b368:	2825883a 	mov	r18,r5
   2b36c:	1800051e 	bne	r3,zero,2b384 <_fputwc_r+0x4c>
   2b370:	30c01917 	ldw	r3,100(r6)
   2b374:	10880014 	ori	r2,r2,8192
   2b378:	3080030d 	sth	r2,12(r6)
   2b37c:	18880014 	ori	r2,r3,8192
   2b380:	30801915 	stw	r2,100(r6)
   2b384:	0027c540 	call	27c54 <__locale_mb_cur_max>
   2b388:	00c00044 	movi	r3,1
   2b38c:	10c03e26 	beq	r2,r3,2b488 <_fputwc_r+0x150>
   2b390:	9809883a 	mov	r4,r19
   2b394:	d80b883a 	mov	r5,sp
   2b398:	900d883a 	mov	r6,r18
   2b39c:	81c01704 	addi	r7,r16,92
   2b3a0:	002b67c0 	call	2b67c <_wcrtomb_r>
   2b3a4:	1029883a 	mov	r20,r2
   2b3a8:	00bfffc4 	movi	r2,-1
   2b3ac:	a0802026 	beq	r20,r2,2b430 <_fputwc_r+0xf8>
   2b3b0:	d9400003 	ldbu	r5,0(sp)
   2b3b4:	a0001c26 	beq	r20,zero,2b428 <_fputwc_r+0xf0>
   2b3b8:	0023883a 	mov	r17,zero
   2b3bc:	05400284 	movi	r21,10
   2b3c0:	00000906 	br	2b3e8 <_fputwc_r+0xb0>
   2b3c4:	80800017 	ldw	r2,0(r16)
   2b3c8:	11400005 	stb	r5,0(r2)
   2b3cc:	80c00017 	ldw	r3,0(r16)
   2b3d0:	18c00044 	addi	r3,r3,1
   2b3d4:	80c00015 	stw	r3,0(r16)
   2b3d8:	8c400044 	addi	r17,r17,1
   2b3dc:	dc45883a 	add	r2,sp,r17
   2b3e0:	8d00112e 	bgeu	r17,r20,2b428 <_fputwc_r+0xf0>
   2b3e4:	11400003 	ldbu	r5,0(r2)
   2b3e8:	80c00217 	ldw	r3,8(r16)
   2b3ec:	18ffffc4 	addi	r3,r3,-1
   2b3f0:	80c00215 	stw	r3,8(r16)
   2b3f4:	183ff30e 	bge	r3,zero,2b3c4 <_gp+0xfffef550>
   2b3f8:	80800617 	ldw	r2,24(r16)
   2b3fc:	18801916 	blt	r3,r2,2b464 <_fputwc_r+0x12c>
   2b400:	80800017 	ldw	r2,0(r16)
   2b404:	11400005 	stb	r5,0(r2)
   2b408:	80800017 	ldw	r2,0(r16)
   2b40c:	10c00003 	ldbu	r3,0(r2)
   2b410:	10800044 	addi	r2,r2,1
   2b414:	1d402326 	beq	r3,r21,2b4a4 <_fputwc_r+0x16c>
   2b418:	80800015 	stw	r2,0(r16)
   2b41c:	8c400044 	addi	r17,r17,1
   2b420:	dc45883a 	add	r2,sp,r17
   2b424:	8d3fef36 	bltu	r17,r20,2b3e4 <_gp+0xfffef570>
   2b428:	9005883a 	mov	r2,r18
   2b42c:	00000406 	br	2b440 <_fputwc_r+0x108>
   2b430:	80c0030b 	ldhu	r3,12(r16)
   2b434:	a005883a 	mov	r2,r20
   2b438:	18c01014 	ori	r3,r3,64
   2b43c:	80c0030d 	sth	r3,12(r16)
   2b440:	dfc00717 	ldw	ra,28(sp)
   2b444:	dd400617 	ldw	r21,24(sp)
   2b448:	dd000517 	ldw	r20,20(sp)
   2b44c:	dcc00417 	ldw	r19,16(sp)
   2b450:	dc800317 	ldw	r18,12(sp)
   2b454:	dc400217 	ldw	r17,8(sp)
   2b458:	dc000117 	ldw	r16,4(sp)
   2b45c:	dec00804 	addi	sp,sp,32
   2b460:	f800283a 	ret
   2b464:	9809883a 	mov	r4,r19
   2b468:	29403fcc 	andi	r5,r5,255
   2b46c:	800d883a 	mov	r6,r16
   2b470:	002af6c0 	call	2af6c <__swbuf_r>
   2b474:	10bfffe0 	cmpeqi	r2,r2,-1
   2b478:	10803fcc 	andi	r2,r2,255
   2b47c:	103fd626 	beq	r2,zero,2b3d8 <_gp+0xfffef564>
   2b480:	00bfffc4 	movi	r2,-1
   2b484:	003fee06 	br	2b440 <_gp+0xfffef5cc>
   2b488:	90ffffc4 	addi	r3,r18,-1
   2b48c:	01003f84 	movi	r4,254
   2b490:	20ffbf36 	bltu	r4,r3,2b390 <_gp+0xfffef51c>
   2b494:	900b883a 	mov	r5,r18
   2b498:	dc800005 	stb	r18,0(sp)
   2b49c:	1029883a 	mov	r20,r2
   2b4a0:	003fc506 	br	2b3b8 <_gp+0xfffef544>
   2b4a4:	9809883a 	mov	r4,r19
   2b4a8:	a80b883a 	mov	r5,r21
   2b4ac:	800d883a 	mov	r6,r16
   2b4b0:	002af6c0 	call	2af6c <__swbuf_r>
   2b4b4:	10bfffe0 	cmpeqi	r2,r2,-1
   2b4b8:	003fef06 	br	2b478 <_gp+0xfffef604>

0002b4bc <fputwc>:
   2b4bc:	008000f4 	movhi	r2,3
   2b4c0:	defffc04 	addi	sp,sp,-16
   2b4c4:	108fa304 	addi	r2,r2,16012
   2b4c8:	dc000115 	stw	r16,4(sp)
   2b4cc:	14000017 	ldw	r16,0(r2)
   2b4d0:	dc400215 	stw	r17,8(sp)
   2b4d4:	dfc00315 	stw	ra,12(sp)
   2b4d8:	2023883a 	mov	r17,r4
   2b4dc:	280d883a 	mov	r6,r5
   2b4e0:	80000626 	beq	r16,zero,2b4fc <fputwc+0x40>
   2b4e4:	80800e17 	ldw	r2,56(r16)
   2b4e8:	1000041e 	bne	r2,zero,2b4fc <fputwc+0x40>
   2b4ec:	8009883a 	mov	r4,r16
   2b4f0:	d9400015 	stw	r5,0(sp)
   2b4f4:	00271200 	call	27120 <__sinit>
   2b4f8:	d9800017 	ldw	r6,0(sp)
   2b4fc:	8009883a 	mov	r4,r16
   2b500:	880b883a 	mov	r5,r17
   2b504:	dfc00317 	ldw	ra,12(sp)
   2b508:	dc400217 	ldw	r17,8(sp)
   2b50c:	dc000117 	ldw	r16,4(sp)
   2b510:	dec00404 	addi	sp,sp,16
   2b514:	002b3381 	jmpi	2b338 <_fputwc_r>

0002b518 <_fstat_r>:
   2b518:	defffd04 	addi	sp,sp,-12
   2b51c:	dc000015 	stw	r16,0(sp)
   2b520:	040000f4 	movhi	r16,3
   2b524:	dc400115 	stw	r17,4(sp)
   2b528:	84185704 	addi	r16,r16,24924
   2b52c:	2023883a 	mov	r17,r4
   2b530:	2809883a 	mov	r4,r5
   2b534:	300b883a 	mov	r5,r6
   2b538:	dfc00215 	stw	ra,8(sp)
   2b53c:	80000015 	stw	zero,0(r16)
   2b540:	002eb500 	call	2eb50 <fstat>
   2b544:	00ffffc4 	movi	r3,-1
   2b548:	10c00526 	beq	r2,r3,2b560 <_fstat_r+0x48>
   2b54c:	dfc00217 	ldw	ra,8(sp)
   2b550:	dc400117 	ldw	r17,4(sp)
   2b554:	dc000017 	ldw	r16,0(sp)
   2b558:	dec00304 	addi	sp,sp,12
   2b55c:	f800283a 	ret
   2b560:	80c00017 	ldw	r3,0(r16)
   2b564:	183ff926 	beq	r3,zero,2b54c <_gp+0xfffef6d8>
   2b568:	88c00015 	stw	r3,0(r17)
   2b56c:	003ff706 	br	2b54c <_gp+0xfffef6d8>

0002b570 <_isatty_r>:
   2b570:	defffd04 	addi	sp,sp,-12
   2b574:	dc000015 	stw	r16,0(sp)
   2b578:	040000f4 	movhi	r16,3
   2b57c:	dc400115 	stw	r17,4(sp)
   2b580:	84185704 	addi	r16,r16,24924
   2b584:	2023883a 	mov	r17,r4
   2b588:	2809883a 	mov	r4,r5
   2b58c:	dfc00215 	stw	ra,8(sp)
   2b590:	80000015 	stw	zero,0(r16)
   2b594:	002ec500 	call	2ec50 <isatty>
   2b598:	00ffffc4 	movi	r3,-1
   2b59c:	10c00526 	beq	r2,r3,2b5b4 <_isatty_r+0x44>
   2b5a0:	dfc00217 	ldw	ra,8(sp)
   2b5a4:	dc400117 	ldw	r17,4(sp)
   2b5a8:	dc000017 	ldw	r16,0(sp)
   2b5ac:	dec00304 	addi	sp,sp,12
   2b5b0:	f800283a 	ret
   2b5b4:	80c00017 	ldw	r3,0(r16)
   2b5b8:	183ff926 	beq	r3,zero,2b5a0 <_gp+0xfffef72c>
   2b5bc:	88c00015 	stw	r3,0(r17)
   2b5c0:	003ff706 	br	2b5a0 <_gp+0xfffef72c>

0002b5c4 <_lseek_r>:
   2b5c4:	defffd04 	addi	sp,sp,-12
   2b5c8:	dc000015 	stw	r16,0(sp)
   2b5cc:	040000f4 	movhi	r16,3
   2b5d0:	dc400115 	stw	r17,4(sp)
   2b5d4:	84185704 	addi	r16,r16,24924
   2b5d8:	2023883a 	mov	r17,r4
   2b5dc:	2809883a 	mov	r4,r5
   2b5e0:	300b883a 	mov	r5,r6
   2b5e4:	380d883a 	mov	r6,r7
   2b5e8:	dfc00215 	stw	ra,8(sp)
   2b5ec:	80000015 	stw	zero,0(r16)
   2b5f0:	002ee280 	call	2ee28 <lseek>
   2b5f4:	00ffffc4 	movi	r3,-1
   2b5f8:	10c00526 	beq	r2,r3,2b610 <_lseek_r+0x4c>
   2b5fc:	dfc00217 	ldw	ra,8(sp)
   2b600:	dc400117 	ldw	r17,4(sp)
   2b604:	dc000017 	ldw	r16,0(sp)
   2b608:	dec00304 	addi	sp,sp,12
   2b60c:	f800283a 	ret
   2b610:	80c00017 	ldw	r3,0(r16)
   2b614:	183ff926 	beq	r3,zero,2b5fc <_gp+0xfffef788>
   2b618:	88c00015 	stw	r3,0(r17)
   2b61c:	003ff706 	br	2b5fc <_gp+0xfffef788>

0002b620 <_read_r>:
   2b620:	defffd04 	addi	sp,sp,-12
   2b624:	dc000015 	stw	r16,0(sp)
   2b628:	040000f4 	movhi	r16,3
   2b62c:	dc400115 	stw	r17,4(sp)
   2b630:	84185704 	addi	r16,r16,24924
   2b634:	2023883a 	mov	r17,r4
   2b638:	2809883a 	mov	r4,r5
   2b63c:	300b883a 	mov	r5,r6
   2b640:	380d883a 	mov	r6,r7
   2b644:	dfc00215 	stw	ra,8(sp)
   2b648:	80000015 	stw	zero,0(r16)
   2b64c:	002f0040 	call	2f004 <read>
   2b650:	00ffffc4 	movi	r3,-1
   2b654:	10c00526 	beq	r2,r3,2b66c <_read_r+0x4c>
   2b658:	dfc00217 	ldw	ra,8(sp)
   2b65c:	dc400117 	ldw	r17,4(sp)
   2b660:	dc000017 	ldw	r16,0(sp)
   2b664:	dec00304 	addi	sp,sp,12
   2b668:	f800283a 	ret
   2b66c:	80c00017 	ldw	r3,0(r16)
   2b670:	183ff926 	beq	r3,zero,2b658 <_gp+0xfffef7e4>
   2b674:	88c00015 	stw	r3,0(r17)
   2b678:	003ff706 	br	2b658 <_gp+0xfffef7e4>

0002b67c <_wcrtomb_r>:
   2b67c:	defff604 	addi	sp,sp,-40
   2b680:	008000f4 	movhi	r2,3
   2b684:	dc800815 	stw	r18,32(sp)
   2b688:	dc400715 	stw	r17,28(sp)
   2b68c:	dc000615 	stw	r16,24(sp)
   2b690:	108fa504 	addi	r2,r2,16020
   2b694:	dfc00915 	stw	ra,36(sp)
   2b698:	2021883a 	mov	r16,r4
   2b69c:	3823883a 	mov	r17,r7
   2b6a0:	14800017 	ldw	r18,0(r2)
   2b6a4:	28001426 	beq	r5,zero,2b6f8 <_wcrtomb_r+0x7c>
   2b6a8:	d9400415 	stw	r5,16(sp)
   2b6ac:	d9800515 	stw	r6,20(sp)
   2b6b0:	0027c480 	call	27c48 <__locale_charset>
   2b6b4:	d9400417 	ldw	r5,16(sp)
   2b6b8:	d9800517 	ldw	r6,20(sp)
   2b6bc:	8009883a 	mov	r4,r16
   2b6c0:	dc400015 	stw	r17,0(sp)
   2b6c4:	100f883a 	mov	r7,r2
   2b6c8:	903ee83a 	callr	r18
   2b6cc:	00ffffc4 	movi	r3,-1
   2b6d0:	10c0031e 	bne	r2,r3,2b6e0 <_wcrtomb_r+0x64>
   2b6d4:	88000015 	stw	zero,0(r17)
   2b6d8:	00c02284 	movi	r3,138
   2b6dc:	80c00015 	stw	r3,0(r16)
   2b6e0:	dfc00917 	ldw	ra,36(sp)
   2b6e4:	dc800817 	ldw	r18,32(sp)
   2b6e8:	dc400717 	ldw	r17,28(sp)
   2b6ec:	dc000617 	ldw	r16,24(sp)
   2b6f0:	dec00a04 	addi	sp,sp,40
   2b6f4:	f800283a 	ret
   2b6f8:	0027c480 	call	27c48 <__locale_charset>
   2b6fc:	8009883a 	mov	r4,r16
   2b700:	dc400015 	stw	r17,0(sp)
   2b704:	d9400104 	addi	r5,sp,4
   2b708:	000d883a 	mov	r6,zero
   2b70c:	100f883a 	mov	r7,r2
   2b710:	903ee83a 	callr	r18
   2b714:	003fed06 	br	2b6cc <_gp+0xfffef858>

0002b718 <wcrtomb>:
   2b718:	defff604 	addi	sp,sp,-40
   2b71c:	008000f4 	movhi	r2,3
   2b720:	dc800615 	stw	r18,24(sp)
   2b724:	dc400515 	stw	r17,20(sp)
   2b728:	dc000415 	stw	r16,16(sp)
   2b72c:	108fa304 	addi	r2,r2,16012
   2b730:	dfc00915 	stw	ra,36(sp)
   2b734:	dd000815 	stw	r20,32(sp)
   2b738:	dcc00715 	stw	r19,28(sp)
   2b73c:	2021883a 	mov	r16,r4
   2b740:	3025883a 	mov	r18,r6
   2b744:	14400017 	ldw	r17,0(r2)
   2b748:	20001826 	beq	r4,zero,2b7ac <wcrtomb+0x94>
   2b74c:	008000f4 	movhi	r2,3
   2b750:	108fa504 	addi	r2,r2,16020
   2b754:	15000017 	ldw	r20,0(r2)
   2b758:	2827883a 	mov	r19,r5
   2b75c:	0027c480 	call	27c48 <__locale_charset>
   2b760:	8809883a 	mov	r4,r17
   2b764:	dc800015 	stw	r18,0(sp)
   2b768:	800b883a 	mov	r5,r16
   2b76c:	980d883a 	mov	r6,r19
   2b770:	100f883a 	mov	r7,r2
   2b774:	a03ee83a 	callr	r20
   2b778:	00ffffc4 	movi	r3,-1
   2b77c:	10c0031e 	bne	r2,r3,2b78c <wcrtomb+0x74>
   2b780:	90000015 	stw	zero,0(r18)
   2b784:	00c02284 	movi	r3,138
   2b788:	88c00015 	stw	r3,0(r17)
   2b78c:	dfc00917 	ldw	ra,36(sp)
   2b790:	dd000817 	ldw	r20,32(sp)
   2b794:	dcc00717 	ldw	r19,28(sp)
   2b798:	dc800617 	ldw	r18,24(sp)
   2b79c:	dc400517 	ldw	r17,20(sp)
   2b7a0:	dc000417 	ldw	r16,16(sp)
   2b7a4:	dec00a04 	addi	sp,sp,40
   2b7a8:	f800283a 	ret
   2b7ac:	008000f4 	movhi	r2,3
   2b7b0:	108fa504 	addi	r2,r2,16020
   2b7b4:	14000017 	ldw	r16,0(r2)
   2b7b8:	0027c480 	call	27c48 <__locale_charset>
   2b7bc:	8809883a 	mov	r4,r17
   2b7c0:	dc800015 	stw	r18,0(sp)
   2b7c4:	d9400104 	addi	r5,sp,4
   2b7c8:	000d883a 	mov	r6,zero
   2b7cc:	100f883a 	mov	r7,r2
   2b7d0:	803ee83a 	callr	r16
   2b7d4:	003fe806 	br	2b778 <_gp+0xfffef904>

0002b7d8 <__ascii_wctomb>:
   2b7d8:	28000526 	beq	r5,zero,2b7f0 <__ascii_wctomb+0x18>
   2b7dc:	00803fc4 	movi	r2,255
   2b7e0:	11800536 	bltu	r2,r6,2b7f8 <__ascii_wctomb+0x20>
   2b7e4:	29800005 	stb	r6,0(r5)
   2b7e8:	00800044 	movi	r2,1
   2b7ec:	f800283a 	ret
   2b7f0:	0005883a 	mov	r2,zero
   2b7f4:	f800283a 	ret
   2b7f8:	00802284 	movi	r2,138
   2b7fc:	20800015 	stw	r2,0(r4)
   2b800:	00bfffc4 	movi	r2,-1
   2b804:	f800283a 	ret

0002b808 <_wctomb_r>:
   2b808:	008000f4 	movhi	r2,3
   2b80c:	defff904 	addi	sp,sp,-28
   2b810:	108fa504 	addi	r2,r2,16020
   2b814:	dfc00615 	stw	ra,24(sp)
   2b818:	dc400515 	stw	r17,20(sp)
   2b81c:	dc000415 	stw	r16,16(sp)
   2b820:	3823883a 	mov	r17,r7
   2b824:	14000017 	ldw	r16,0(r2)
   2b828:	d9000115 	stw	r4,4(sp)
   2b82c:	d9400215 	stw	r5,8(sp)
   2b830:	d9800315 	stw	r6,12(sp)
   2b834:	0027c480 	call	27c48 <__locale_charset>
   2b838:	d9000117 	ldw	r4,4(sp)
   2b83c:	d9400217 	ldw	r5,8(sp)
   2b840:	d9800317 	ldw	r6,12(sp)
   2b844:	dc400015 	stw	r17,0(sp)
   2b848:	100f883a 	mov	r7,r2
   2b84c:	803ee83a 	callr	r16
   2b850:	dfc00617 	ldw	ra,24(sp)
   2b854:	dc400517 	ldw	r17,20(sp)
   2b858:	dc000417 	ldw	r16,16(sp)
   2b85c:	dec00704 	addi	sp,sp,28
   2b860:	f800283a 	ret

0002b864 <__udivdi3>:
   2b864:	defff504 	addi	sp,sp,-44
   2b868:	dcc00415 	stw	r19,16(sp)
   2b86c:	dc000115 	stw	r16,4(sp)
   2b870:	dfc00a15 	stw	ra,40(sp)
   2b874:	df000915 	stw	fp,36(sp)
   2b878:	ddc00815 	stw	r23,32(sp)
   2b87c:	dd800715 	stw	r22,28(sp)
   2b880:	dd400615 	stw	r21,24(sp)
   2b884:	dd000515 	stw	r20,20(sp)
   2b888:	dc800315 	stw	r18,12(sp)
   2b88c:	dc400215 	stw	r17,8(sp)
   2b890:	2027883a 	mov	r19,r4
   2b894:	2821883a 	mov	r16,r5
   2b898:	3800421e 	bne	r7,zero,2b9a4 <__udivdi3+0x140>
   2b89c:	3025883a 	mov	r18,r6
   2b8a0:	2023883a 	mov	r17,r4
   2b8a4:	2980542e 	bgeu	r5,r6,2b9f8 <__udivdi3+0x194>
   2b8a8:	00bfffd4 	movui	r2,65535
   2b8ac:	282d883a 	mov	r22,r5
   2b8b0:	1180a836 	bltu	r2,r6,2bb54 <__udivdi3+0x2f0>
   2b8b4:	00803fc4 	movi	r2,255
   2b8b8:	1181422e 	bgeu	r2,r6,2bdc4 <__udivdi3+0x560>
   2b8bc:	00800204 	movi	r2,8
   2b8c0:	1007883a 	mov	r3,r2
   2b8c4:	3084d83a 	srl	r2,r6,r2
   2b8c8:	010000f4 	movhi	r4,3
   2b8cc:	2106c104 	addi	r4,r4,6916
   2b8d0:	2085883a 	add	r2,r4,r2
   2b8d4:	10800003 	ldbu	r2,0(r2)
   2b8d8:	10c7883a 	add	r3,r2,r3
   2b8dc:	00800804 	movi	r2,32
   2b8e0:	10c5c83a 	sub	r2,r2,r3
   2b8e4:	10000526 	beq	r2,zero,2b8fc <__udivdi3+0x98>
   2b8e8:	80a0983a 	sll	r16,r16,r2
   2b8ec:	98c6d83a 	srl	r3,r19,r3
   2b8f0:	30a4983a 	sll	r18,r6,r2
   2b8f4:	98a2983a 	sll	r17,r19,r2
   2b8f8:	80ecb03a 	or	r22,r16,r3
   2b8fc:	902ad43a 	srli	r21,r18,16
   2b900:	b009883a 	mov	r4,r22
   2b904:	953fffcc 	andi	r20,r18,65535
   2b908:	a80b883a 	mov	r5,r21
   2b90c:	00225640 	call	22564 <__umodsi3>
   2b910:	b009883a 	mov	r4,r22
   2b914:	a80b883a 	mov	r5,r21
   2b918:	1027883a 	mov	r19,r2
   2b91c:	002255c0 	call	2255c <__udivsi3>
   2b920:	1021883a 	mov	r16,r2
   2b924:	8806d43a 	srli	r3,r17,16
   2b928:	9804943a 	slli	r2,r19,16
   2b92c:	8527383a 	mul	r19,r16,r20
   2b930:	10c4b03a 	or	r2,r2,r3
   2b934:	14c0052e 	bgeu	r2,r19,2b94c <__udivdi3+0xe8>
   2b938:	1485883a 	add	r2,r2,r18
   2b93c:	80ffffc4 	addi	r3,r16,-1
   2b940:	14800136 	bltu	r2,r18,2b948 <__udivdi3+0xe4>
   2b944:	14c13436 	bltu	r2,r19,2be18 <__udivdi3+0x5b4>
   2b948:	1821883a 	mov	r16,r3
   2b94c:	14e7c83a 	sub	r19,r2,r19
   2b950:	9809883a 	mov	r4,r19
   2b954:	a80b883a 	mov	r5,r21
   2b958:	00225640 	call	22564 <__umodsi3>
   2b95c:	102d883a 	mov	r22,r2
   2b960:	9809883a 	mov	r4,r19
   2b964:	a80b883a 	mov	r5,r21
   2b968:	002255c0 	call	2255c <__udivsi3>
   2b96c:	b02c943a 	slli	r22,r22,16
   2b970:	1529383a 	mul	r20,r2,r20
   2b974:	8c7fffcc 	andi	r17,r17,65535
   2b978:	b462b03a 	or	r17,r22,r17
   2b97c:	8d00052e 	bgeu	r17,r20,2b994 <__udivdi3+0x130>
   2b980:	8ca3883a 	add	r17,r17,r18
   2b984:	10ffffc4 	addi	r3,r2,-1
   2b988:	8c80f636 	bltu	r17,r18,2bd64 <__udivdi3+0x500>
   2b98c:	8d00f52e 	bgeu	r17,r20,2bd64 <__udivdi3+0x500>
   2b990:	10bfff84 	addi	r2,r2,-2
   2b994:	8020943a 	slli	r16,r16,16
   2b998:	0007883a 	mov	r3,zero
   2b99c:	1404b03a 	or	r2,r2,r16
   2b9a0:	00005b06 	br	2bb10 <__udivdi3+0x2ac>
   2b9a4:	29c05836 	bltu	r5,r7,2bb08 <__udivdi3+0x2a4>
   2b9a8:	00bfffd4 	movui	r2,65535
   2b9ac:	11c0642e 	bgeu	r2,r7,2bb40 <__udivdi3+0x2dc>
   2b9b0:	00804034 	movhi	r2,256
   2b9b4:	10bfffc4 	addi	r2,r2,-1
   2b9b8:	11c0f32e 	bgeu	r2,r7,2bd88 <__udivdi3+0x524>
   2b9bc:	00c00604 	movi	r3,24
   2b9c0:	180b883a 	mov	r5,r3
   2b9c4:	38c6d83a 	srl	r3,r7,r3
   2b9c8:	008000f4 	movhi	r2,3
   2b9cc:	1086c104 	addi	r2,r2,6916
   2b9d0:	10c7883a 	add	r3,r2,r3
   2b9d4:	18c00003 	ldbu	r3,0(r3)
   2b9d8:	01000804 	movi	r4,32
   2b9dc:	1947883a 	add	r3,r3,r5
   2b9e0:	20e5c83a 	sub	r18,r4,r3
   2b9e4:	9000661e 	bne	r18,zero,2bb80 <__udivdi3+0x31c>
   2b9e8:	3c00f936 	bltu	r7,r16,2bdd0 <__udivdi3+0x56c>
   2b9ec:	9985403a 	cmpgeu	r2,r19,r6
   2b9f0:	0007883a 	mov	r3,zero
   2b9f4:	00004606 	br	2bb10 <__udivdi3+0x2ac>
   2b9f8:	3000041e 	bne	r6,zero,2ba0c <__udivdi3+0x1a8>
   2b9fc:	01000044 	movi	r4,1
   2ba00:	000b883a 	mov	r5,zero
   2ba04:	002255c0 	call	2255c <__udivsi3>
   2ba08:	1025883a 	mov	r18,r2
   2ba0c:	00bfffd4 	movui	r2,65535
   2ba10:	1480562e 	bgeu	r2,r18,2bb6c <__udivdi3+0x308>
   2ba14:	00804034 	movhi	r2,256
   2ba18:	10bfffc4 	addi	r2,r2,-1
   2ba1c:	1480e32e 	bgeu	r2,r18,2bdac <__udivdi3+0x548>
   2ba20:	00800604 	movi	r2,24
   2ba24:	1007883a 	mov	r3,r2
   2ba28:	9084d83a 	srl	r2,r18,r2
   2ba2c:	010000f4 	movhi	r4,3
   2ba30:	2106c104 	addi	r4,r4,6916
   2ba34:	2085883a 	add	r2,r4,r2
   2ba38:	10800003 	ldbu	r2,0(r2)
   2ba3c:	10c5883a 	add	r2,r2,r3
   2ba40:	00c00804 	movi	r3,32
   2ba44:	1887c83a 	sub	r3,r3,r2
   2ba48:	1800911e 	bne	r3,zero,2bc90 <__udivdi3+0x42c>
   2ba4c:	9028d43a 	srli	r20,r18,16
   2ba50:	84a1c83a 	sub	r16,r16,r18
   2ba54:	957fffcc 	andi	r21,r18,65535
   2ba58:	00c00044 	movi	r3,1
   2ba5c:	8009883a 	mov	r4,r16
   2ba60:	a00b883a 	mov	r5,r20
   2ba64:	d8c00015 	stw	r3,0(sp)
   2ba68:	00225640 	call	22564 <__umodsi3>
   2ba6c:	8009883a 	mov	r4,r16
   2ba70:	a00b883a 	mov	r5,r20
   2ba74:	1027883a 	mov	r19,r2
   2ba78:	002255c0 	call	2255c <__udivsi3>
   2ba7c:	1021883a 	mov	r16,r2
   2ba80:	880cd43a 	srli	r6,r17,16
   2ba84:	9804943a 	slli	r2,r19,16
   2ba88:	8567383a 	mul	r19,r16,r21
   2ba8c:	d8c00017 	ldw	r3,0(sp)
   2ba90:	1188b03a 	or	r4,r2,r6
   2ba94:	24c0052e 	bgeu	r4,r19,2baac <__udivdi3+0x248>
   2ba98:	2489883a 	add	r4,r4,r18
   2ba9c:	80bfffc4 	addi	r2,r16,-1
   2baa0:	24800136 	bltu	r4,r18,2baa8 <__udivdi3+0x244>
   2baa4:	24c0d936 	bltu	r4,r19,2be0c <__udivdi3+0x5a8>
   2baa8:	1021883a 	mov	r16,r2
   2baac:	24e7c83a 	sub	r19,r4,r19
   2bab0:	9809883a 	mov	r4,r19
   2bab4:	a00b883a 	mov	r5,r20
   2bab8:	d8c00015 	stw	r3,0(sp)
   2babc:	00225640 	call	22564 <__umodsi3>
   2bac0:	102d883a 	mov	r22,r2
   2bac4:	9809883a 	mov	r4,r19
   2bac8:	a00b883a 	mov	r5,r20
   2bacc:	002255c0 	call	2255c <__udivsi3>
   2bad0:	b02c943a 	slli	r22,r22,16
   2bad4:	156b383a 	mul	r21,r2,r21
   2bad8:	8c7fffcc 	andi	r17,r17,65535
   2badc:	b462b03a 	or	r17,r22,r17
   2bae0:	d8c00017 	ldw	r3,0(sp)
   2bae4:	8d40052e 	bgeu	r17,r21,2bafc <__udivdi3+0x298>
   2bae8:	8ca3883a 	add	r17,r17,r18
   2baec:	113fffc4 	addi	r4,r2,-1
   2baf0:	8c809a36 	bltu	r17,r18,2bd5c <__udivdi3+0x4f8>
   2baf4:	8d40992e 	bgeu	r17,r21,2bd5c <__udivdi3+0x4f8>
   2baf8:	10bfff84 	addi	r2,r2,-2
   2bafc:	8020943a 	slli	r16,r16,16
   2bb00:	1404b03a 	or	r2,r2,r16
   2bb04:	00000206 	br	2bb10 <__udivdi3+0x2ac>
   2bb08:	0007883a 	mov	r3,zero
   2bb0c:	0005883a 	mov	r2,zero
   2bb10:	dfc00a17 	ldw	ra,40(sp)
   2bb14:	df000917 	ldw	fp,36(sp)
   2bb18:	ddc00817 	ldw	r23,32(sp)
   2bb1c:	dd800717 	ldw	r22,28(sp)
   2bb20:	dd400617 	ldw	r21,24(sp)
   2bb24:	dd000517 	ldw	r20,20(sp)
   2bb28:	dcc00417 	ldw	r19,16(sp)
   2bb2c:	dc800317 	ldw	r18,12(sp)
   2bb30:	dc400217 	ldw	r17,8(sp)
   2bb34:	dc000117 	ldw	r16,4(sp)
   2bb38:	dec00b04 	addi	sp,sp,44
   2bb3c:	f800283a 	ret
   2bb40:	00803fc4 	movi	r2,255
   2bb44:	11c0932e 	bgeu	r2,r7,2bd94 <__udivdi3+0x530>
   2bb48:	00c00204 	movi	r3,8
   2bb4c:	180b883a 	mov	r5,r3
   2bb50:	003f9c06 	br	2b9c4 <_gp+0xfffefb50>
   2bb54:	00804034 	movhi	r2,256
   2bb58:	10bfffc4 	addi	r2,r2,-1
   2bb5c:	1180902e 	bgeu	r2,r6,2bda0 <__udivdi3+0x53c>
   2bb60:	00800604 	movi	r2,24
   2bb64:	1007883a 	mov	r3,r2
   2bb68:	003f5606 	br	2b8c4 <_gp+0xfffefa50>
   2bb6c:	00803fc4 	movi	r2,255
   2bb70:	1480912e 	bgeu	r2,r18,2bdb8 <__udivdi3+0x554>
   2bb74:	00800204 	movi	r2,8
   2bb78:	1007883a 	mov	r3,r2
   2bb7c:	003faa06 	br	2ba28 <_gp+0xfffefbb4>
   2bb80:	30eed83a 	srl	r23,r6,r3
   2bb84:	3c8e983a 	sll	r7,r7,r18
   2bb88:	80f8d83a 	srl	fp,r16,r3
   2bb8c:	98c6d83a 	srl	r3,r19,r3
   2bb90:	3deeb03a 	or	r23,r7,r23
   2bb94:	b828d43a 	srli	r20,r23,16
   2bb98:	84a0983a 	sll	r16,r16,r18
   2bb9c:	e009883a 	mov	r4,fp
   2bba0:	a00b883a 	mov	r5,r20
   2bba4:	80e2b03a 	or	r17,r16,r3
   2bba8:	34aa983a 	sll	r21,r6,r18
   2bbac:	00225640 	call	22564 <__umodsi3>
   2bbb0:	e009883a 	mov	r4,fp
   2bbb4:	a00b883a 	mov	r5,r20
   2bbb8:	102d883a 	mov	r22,r2
   2bbbc:	002255c0 	call	2255c <__udivsi3>
   2bbc0:	1021883a 	mov	r16,r2
   2bbc4:	bf3fffcc 	andi	fp,r23,65535
   2bbc8:	b004943a 	slli	r2,r22,16
   2bbcc:	8808d43a 	srli	r4,r17,16
   2bbd0:	872d383a 	mul	r22,r16,fp
   2bbd4:	1104b03a 	or	r2,r2,r4
   2bbd8:	1580042e 	bgeu	r2,r22,2bbec <__udivdi3+0x388>
   2bbdc:	15c5883a 	add	r2,r2,r23
   2bbe0:	80ffffc4 	addi	r3,r16,-1
   2bbe4:	15c0812e 	bgeu	r2,r23,2bdec <__udivdi3+0x588>
   2bbe8:	1821883a 	mov	r16,r3
   2bbec:	15adc83a 	sub	r22,r2,r22
   2bbf0:	b009883a 	mov	r4,r22
   2bbf4:	a00b883a 	mov	r5,r20
   2bbf8:	00225640 	call	22564 <__umodsi3>
   2bbfc:	a00b883a 	mov	r5,r20
   2bc00:	b009883a 	mov	r4,r22
   2bc04:	d8800015 	stw	r2,0(sp)
   2bc08:	002255c0 	call	2255c <__udivsi3>
   2bc0c:	d8c00017 	ldw	r3,0(sp)
   2bc10:	170b383a 	mul	r5,r2,fp
   2bc14:	8c7fffcc 	andi	r17,r17,65535
   2bc18:	1806943a 	slli	r3,r3,16
   2bc1c:	1c46b03a 	or	r3,r3,r17
   2bc20:	1940042e 	bgeu	r3,r5,2bc34 <__udivdi3+0x3d0>
   2bc24:	1dc7883a 	add	r3,r3,r23
   2bc28:	113fffc4 	addi	r4,r2,-1
   2bc2c:	1dc06b2e 	bgeu	r3,r23,2bddc <__udivdi3+0x578>
   2bc30:	2005883a 	mov	r2,r4
   2bc34:	8020943a 	slli	r16,r16,16
   2bc38:	a9ffffcc 	andi	r7,r21,65535
   2bc3c:	a82ad43a 	srli	r21,r21,16
   2bc40:	1404b03a 	or	r2,r2,r16
   2bc44:	113fffcc 	andi	r4,r2,65535
   2bc48:	100cd43a 	srli	r6,r2,16
   2bc4c:	21d3383a 	mul	r9,r4,r7
   2bc50:	2549383a 	mul	r4,r4,r21
   2bc54:	31cf383a 	mul	r7,r6,r7
   2bc58:	4810d43a 	srli	r8,r9,16
   2bc5c:	1947c83a 	sub	r3,r3,r5
   2bc60:	3909883a 	add	r4,r7,r4
   2bc64:	2209883a 	add	r4,r4,r8
   2bc68:	354d383a 	mul	r6,r6,r21
   2bc6c:	21c0022e 	bgeu	r4,r7,2bc78 <__udivdi3+0x414>
   2bc70:	01400074 	movhi	r5,1
   2bc74:	314d883a 	add	r6,r6,r5
   2bc78:	202ad43a 	srli	r21,r4,16
   2bc7c:	354d883a 	add	r6,r6,r21
   2bc80:	19803f36 	bltu	r3,r6,2bd80 <__udivdi3+0x51c>
   2bc84:	19803926 	beq	r3,r6,2bd6c <__udivdi3+0x508>
   2bc88:	0007883a 	mov	r3,zero
   2bc8c:	003fa006 	br	2bb10 <_gp+0xfffefc9c>
   2bc90:	90e4983a 	sll	r18,r18,r3
   2bc94:	80aad83a 	srl	r21,r16,r2
   2bc98:	80e0983a 	sll	r16,r16,r3
   2bc9c:	9028d43a 	srli	r20,r18,16
   2bca0:	9884d83a 	srl	r2,r19,r2
   2bca4:	a809883a 	mov	r4,r21
   2bca8:	a00b883a 	mov	r5,r20
   2bcac:	80acb03a 	or	r22,r16,r2
   2bcb0:	98e2983a 	sll	r17,r19,r3
   2bcb4:	00225640 	call	22564 <__umodsi3>
   2bcb8:	a809883a 	mov	r4,r21
   2bcbc:	a00b883a 	mov	r5,r20
   2bcc0:	1021883a 	mov	r16,r2
   2bcc4:	002255c0 	call	2255c <__udivsi3>
   2bcc8:	957fffcc 	andi	r21,r18,65535
   2bccc:	8020943a 	slli	r16,r16,16
   2bcd0:	b00ad43a 	srli	r5,r22,16
   2bcd4:	1567383a 	mul	r19,r2,r21
   2bcd8:	102f883a 	mov	r23,r2
   2bcdc:	8148b03a 	or	r4,r16,r5
   2bce0:	24c0062e 	bgeu	r4,r19,2bcfc <__udivdi3+0x498>
   2bce4:	2489883a 	add	r4,r4,r18
   2bce8:	10bfffc4 	addi	r2,r2,-1
   2bcec:	24804536 	bltu	r4,r18,2be04 <__udivdi3+0x5a0>
   2bcf0:	24c0442e 	bgeu	r4,r19,2be04 <__udivdi3+0x5a0>
   2bcf4:	bdffff84 	addi	r23,r23,-2
   2bcf8:	2489883a 	add	r4,r4,r18
   2bcfc:	24e7c83a 	sub	r19,r4,r19
   2bd00:	9809883a 	mov	r4,r19
   2bd04:	a00b883a 	mov	r5,r20
   2bd08:	00225640 	call	22564 <__umodsi3>
   2bd0c:	1021883a 	mov	r16,r2
   2bd10:	9809883a 	mov	r4,r19
   2bd14:	a00b883a 	mov	r5,r20
   2bd18:	002255c0 	call	2255c <__udivsi3>
   2bd1c:	8020943a 	slli	r16,r16,16
   2bd20:	1007883a 	mov	r3,r2
   2bd24:	1545383a 	mul	r2,r2,r21
   2bd28:	b13fffcc 	andi	r4,r22,65535
   2bd2c:	8108b03a 	or	r4,r16,r4
   2bd30:	2080062e 	bgeu	r4,r2,2bd4c <__udivdi3+0x4e8>
   2bd34:	2489883a 	add	r4,r4,r18
   2bd38:	197fffc4 	addi	r5,r3,-1
   2bd3c:	24802f36 	bltu	r4,r18,2bdfc <__udivdi3+0x598>
   2bd40:	20802e2e 	bgeu	r4,r2,2bdfc <__udivdi3+0x598>
   2bd44:	18ffff84 	addi	r3,r3,-2
   2bd48:	2489883a 	add	r4,r4,r18
   2bd4c:	b82e943a 	slli	r23,r23,16
   2bd50:	20a1c83a 	sub	r16,r4,r2
   2bd54:	1dc6b03a 	or	r3,r3,r23
   2bd58:	003f4006 	br	2ba5c <_gp+0xfffefbe8>
   2bd5c:	2005883a 	mov	r2,r4
   2bd60:	003f6606 	br	2bafc <_gp+0xfffefc88>
   2bd64:	1805883a 	mov	r2,r3
   2bd68:	003f0a06 	br	2b994 <_gp+0xfffefb20>
   2bd6c:	2006943a 	slli	r3,r4,16
   2bd70:	9c88983a 	sll	r4,r19,r18
   2bd74:	4a7fffcc 	andi	r9,r9,65535
   2bd78:	1a47883a 	add	r3,r3,r9
   2bd7c:	20ffc22e 	bgeu	r4,r3,2bc88 <_gp+0xfffefe14>
   2bd80:	10bfffc4 	addi	r2,r2,-1
   2bd84:	003fc006 	br	2bc88 <_gp+0xfffefe14>
   2bd88:	00c00404 	movi	r3,16
   2bd8c:	180b883a 	mov	r5,r3
   2bd90:	003f0c06 	br	2b9c4 <_gp+0xfffefb50>
   2bd94:	0007883a 	mov	r3,zero
   2bd98:	000b883a 	mov	r5,zero
   2bd9c:	003f0906 	br	2b9c4 <_gp+0xfffefb50>
   2bda0:	00800404 	movi	r2,16
   2bda4:	1007883a 	mov	r3,r2
   2bda8:	003ec606 	br	2b8c4 <_gp+0xfffefa50>
   2bdac:	00800404 	movi	r2,16
   2bdb0:	1007883a 	mov	r3,r2
   2bdb4:	003f1c06 	br	2ba28 <_gp+0xfffefbb4>
   2bdb8:	0005883a 	mov	r2,zero
   2bdbc:	0007883a 	mov	r3,zero
   2bdc0:	003f1906 	br	2ba28 <_gp+0xfffefbb4>
   2bdc4:	0005883a 	mov	r2,zero
   2bdc8:	0007883a 	mov	r3,zero
   2bdcc:	003ebd06 	br	2b8c4 <_gp+0xfffefa50>
   2bdd0:	0007883a 	mov	r3,zero
   2bdd4:	00800044 	movi	r2,1
   2bdd8:	003f4d06 	br	2bb10 <_gp+0xfffefc9c>
   2bddc:	197f942e 	bgeu	r3,r5,2bc30 <_gp+0xfffefdbc>
   2bde0:	10bfff84 	addi	r2,r2,-2
   2bde4:	1dc7883a 	add	r3,r3,r23
   2bde8:	003f9206 	br	2bc34 <_gp+0xfffefdc0>
   2bdec:	15bf7e2e 	bgeu	r2,r22,2bbe8 <_gp+0xfffefd74>
   2bdf0:	843fff84 	addi	r16,r16,-2
   2bdf4:	15c5883a 	add	r2,r2,r23
   2bdf8:	003f7c06 	br	2bbec <_gp+0xfffefd78>
   2bdfc:	2807883a 	mov	r3,r5
   2be00:	003fd206 	br	2bd4c <_gp+0xfffefed8>
   2be04:	102f883a 	mov	r23,r2
   2be08:	003fbc06 	br	2bcfc <_gp+0xfffefe88>
   2be0c:	843fff84 	addi	r16,r16,-2
   2be10:	2489883a 	add	r4,r4,r18
   2be14:	003f2506 	br	2baac <_gp+0xfffefc38>
   2be18:	843fff84 	addi	r16,r16,-2
   2be1c:	1485883a 	add	r2,r2,r18
   2be20:	003eca06 	br	2b94c <_gp+0xfffefad8>

0002be24 <__umoddi3>:
   2be24:	defff404 	addi	sp,sp,-48
   2be28:	ddc00915 	stw	r23,36(sp)
   2be2c:	dc400315 	stw	r17,12(sp)
   2be30:	dc000215 	stw	r16,8(sp)
   2be34:	dfc00b15 	stw	ra,44(sp)
   2be38:	df000a15 	stw	fp,40(sp)
   2be3c:	dd800815 	stw	r22,32(sp)
   2be40:	dd400715 	stw	r21,28(sp)
   2be44:	dd000615 	stw	r20,24(sp)
   2be48:	dcc00515 	stw	r19,20(sp)
   2be4c:	dc800415 	stw	r18,16(sp)
   2be50:	2021883a 	mov	r16,r4
   2be54:	2823883a 	mov	r17,r5
   2be58:	282f883a 	mov	r23,r5
   2be5c:	3800381e 	bne	r7,zero,2bf40 <__umoddi3+0x11c>
   2be60:	3027883a 	mov	r19,r6
   2be64:	2029883a 	mov	r20,r4
   2be68:	29804e2e 	bgeu	r5,r6,2bfa4 <__umoddi3+0x180>
   2be6c:	00bfffd4 	movui	r2,65535
   2be70:	11809c36 	bltu	r2,r6,2c0e4 <__umoddi3+0x2c0>
   2be74:	00803fc4 	movi	r2,255
   2be78:	11813b2e 	bgeu	r2,r6,2c368 <__umoddi3+0x544>
   2be7c:	01400204 	movi	r5,8
   2be80:	2805883a 	mov	r2,r5
   2be84:	314ad83a 	srl	r5,r6,r5
   2be88:	00c000f4 	movhi	r3,3
   2be8c:	18c6c104 	addi	r3,r3,6916
   2be90:	194b883a 	add	r5,r3,r5
   2be94:	29000003 	ldbu	r4,0(r5)
   2be98:	2089883a 	add	r4,r4,r2
   2be9c:	00800804 	movi	r2,32
   2bea0:	1105c83a 	sub	r2,r2,r4
   2bea4:	1000ec26 	beq	r2,zero,2c258 <__umoddi3+0x434>
   2bea8:	88a2983a 	sll	r17,r17,r2
   2beac:	8108d83a 	srl	r4,r16,r4
   2beb0:	30a6983a 	sll	r19,r6,r2
   2beb4:	80a8983a 	sll	r20,r16,r2
   2beb8:	1025883a 	mov	r18,r2
   2bebc:	892eb03a 	or	r23,r17,r4
   2bec0:	982cd43a 	srli	r22,r19,16
   2bec4:	b809883a 	mov	r4,r23
   2bec8:	9d7fffcc 	andi	r21,r19,65535
   2becc:	b00b883a 	mov	r5,r22
   2bed0:	00225640 	call	22564 <__umodsi3>
   2bed4:	b809883a 	mov	r4,r23
   2bed8:	b00b883a 	mov	r5,r22
   2bedc:	1021883a 	mov	r16,r2
   2bee0:	002255c0 	call	2255c <__udivsi3>
   2bee4:	8020943a 	slli	r16,r16,16
   2bee8:	a00cd43a 	srli	r6,r20,16
   2beec:	1545383a 	mul	r2,r2,r21
   2bef0:	8188b03a 	or	r4,r16,r6
   2bef4:	2080042e 	bgeu	r4,r2,2bf08 <__umoddi3+0xe4>
   2bef8:	24c9883a 	add	r4,r4,r19
   2befc:	24c00236 	bltu	r4,r19,2bf08 <__umoddi3+0xe4>
   2bf00:	2080012e 	bgeu	r4,r2,2bf08 <__umoddi3+0xe4>
   2bf04:	24c9883a 	add	r4,r4,r19
   2bf08:	20a3c83a 	sub	r17,r4,r2
   2bf0c:	8809883a 	mov	r4,r17
   2bf10:	b00b883a 	mov	r5,r22
   2bf14:	00225640 	call	22564 <__umodsi3>
   2bf18:	8809883a 	mov	r4,r17
   2bf1c:	b00b883a 	mov	r5,r22
   2bf20:	1021883a 	mov	r16,r2
   2bf24:	002255c0 	call	2255c <__udivsi3>
   2bf28:	8006943a 	slli	r3,r16,16
   2bf2c:	1545383a 	mul	r2,r2,r21
   2bf30:	a13fffcc 	andi	r4,r20,65535
   2bf34:	1906b03a 	or	r3,r3,r4
   2bf38:	1880532e 	bgeu	r3,r2,2c088 <__umoddi3+0x264>
   2bf3c:	00004e06 	br	2c078 <__umoddi3+0x254>
   2bf40:	29c05536 	bltu	r5,r7,2c098 <__umoddi3+0x274>
   2bf44:	00bfffd4 	movui	r2,65535
   2bf48:	11c0612e 	bgeu	r2,r7,2c0d0 <__umoddi3+0x2ac>
   2bf4c:	00804034 	movhi	r2,256
   2bf50:	10bfffc4 	addi	r2,r2,-1
   2bf54:	11c0f82e 	bgeu	r2,r7,2c338 <__umoddi3+0x514>
   2bf58:	01400604 	movi	r5,24
   2bf5c:	282b883a 	mov	r21,r5
   2bf60:	394ad83a 	srl	r5,r7,r5
   2bf64:	00c000f4 	movhi	r3,3
   2bf68:	18c6c104 	addi	r3,r3,6916
   2bf6c:	194b883a 	add	r5,r3,r5
   2bf70:	28800003 	ldbu	r2,0(r5)
   2bf74:	00c00804 	movi	r3,32
   2bf78:	156b883a 	add	r21,r2,r21
   2bf7c:	1d69c83a 	sub	r20,r3,r21
   2bf80:	a000631e 	bne	r20,zero,2c110 <__umoddi3+0x2ec>
   2bf84:	3c400136 	bltu	r7,r17,2bf8c <__umoddi3+0x168>
   2bf88:	81810436 	bltu	r16,r6,2c39c <__umoddi3+0x578>
   2bf8c:	8185c83a 	sub	r2,r16,r6
   2bf90:	89e3c83a 	sub	r17,r17,r7
   2bf94:	8087803a 	cmpltu	r3,r16,r2
   2bf98:	88efc83a 	sub	r23,r17,r3
   2bf9c:	b807883a 	mov	r3,r23
   2bfa0:	00003f06 	br	2c0a0 <__umoddi3+0x27c>
   2bfa4:	3000041e 	bne	r6,zero,2bfb8 <__umoddi3+0x194>
   2bfa8:	01000044 	movi	r4,1
   2bfac:	000b883a 	mov	r5,zero
   2bfb0:	002255c0 	call	2255c <__udivsi3>
   2bfb4:	1027883a 	mov	r19,r2
   2bfb8:	00bfffd4 	movui	r2,65535
   2bfbc:	14c04f2e 	bgeu	r2,r19,2c0fc <__umoddi3+0x2d8>
   2bfc0:	00804034 	movhi	r2,256
   2bfc4:	10bfffc4 	addi	r2,r2,-1
   2bfc8:	14c0e42e 	bgeu	r2,r19,2c35c <__umoddi3+0x538>
   2bfcc:	00800604 	movi	r2,24
   2bfd0:	1007883a 	mov	r3,r2
   2bfd4:	9884d83a 	srl	r2,r19,r2
   2bfd8:	010000f4 	movhi	r4,3
   2bfdc:	2106c104 	addi	r4,r4,6916
   2bfe0:	2085883a 	add	r2,r4,r2
   2bfe4:	11000003 	ldbu	r4,0(r2)
   2bfe8:	00800804 	movi	r2,32
   2bfec:	20c7883a 	add	r3,r4,r3
   2bff0:	10c5c83a 	sub	r2,r2,r3
   2bff4:	10009a1e 	bne	r2,zero,2c260 <__umoddi3+0x43c>
   2bff8:	982cd43a 	srli	r22,r19,16
   2bffc:	8ce3c83a 	sub	r17,r17,r19
   2c000:	9c3fffcc 	andi	r16,r19,65535
   2c004:	0025883a 	mov	r18,zero
   2c008:	8809883a 	mov	r4,r17
   2c00c:	b00b883a 	mov	r5,r22
   2c010:	00225640 	call	22564 <__umodsi3>
   2c014:	8809883a 	mov	r4,r17
   2c018:	b00b883a 	mov	r5,r22
   2c01c:	102b883a 	mov	r21,r2
   2c020:	002255c0 	call	2255c <__udivsi3>
   2c024:	a806943a 	slli	r3,r21,16
   2c028:	a008d43a 	srli	r4,r20,16
   2c02c:	1405383a 	mul	r2,r2,r16
   2c030:	190cb03a 	or	r6,r3,r4
   2c034:	3080032e 	bgeu	r6,r2,2c044 <__umoddi3+0x220>
   2c038:	34cd883a 	add	r6,r6,r19
   2c03c:	34c00136 	bltu	r6,r19,2c044 <__umoddi3+0x220>
   2c040:	3080d436 	bltu	r6,r2,2c394 <__umoddi3+0x570>
   2c044:	30abc83a 	sub	r21,r6,r2
   2c048:	a809883a 	mov	r4,r21
   2c04c:	b00b883a 	mov	r5,r22
   2c050:	00225640 	call	22564 <__umodsi3>
   2c054:	1023883a 	mov	r17,r2
   2c058:	a809883a 	mov	r4,r21
   2c05c:	b00b883a 	mov	r5,r22
   2c060:	002255c0 	call	2255c <__udivsi3>
   2c064:	8822943a 	slli	r17,r17,16
   2c068:	1405383a 	mul	r2,r2,r16
   2c06c:	a13fffcc 	andi	r4,r20,65535
   2c070:	8906b03a 	or	r3,r17,r4
   2c074:	1880042e 	bgeu	r3,r2,2c088 <__umoddi3+0x264>
   2c078:	1cc7883a 	add	r3,r3,r19
   2c07c:	1cc00236 	bltu	r3,r19,2c088 <__umoddi3+0x264>
   2c080:	1880012e 	bgeu	r3,r2,2c088 <__umoddi3+0x264>
   2c084:	1cc7883a 	add	r3,r3,r19
   2c088:	1887c83a 	sub	r3,r3,r2
   2c08c:	1c84d83a 	srl	r2,r3,r18
   2c090:	0007883a 	mov	r3,zero
   2c094:	00000206 	br	2c0a0 <__umoddi3+0x27c>
   2c098:	2005883a 	mov	r2,r4
   2c09c:	2807883a 	mov	r3,r5
   2c0a0:	dfc00b17 	ldw	ra,44(sp)
   2c0a4:	df000a17 	ldw	fp,40(sp)
   2c0a8:	ddc00917 	ldw	r23,36(sp)
   2c0ac:	dd800817 	ldw	r22,32(sp)
   2c0b0:	dd400717 	ldw	r21,28(sp)
   2c0b4:	dd000617 	ldw	r20,24(sp)
   2c0b8:	dcc00517 	ldw	r19,20(sp)
   2c0bc:	dc800417 	ldw	r18,16(sp)
   2c0c0:	dc400317 	ldw	r17,12(sp)
   2c0c4:	dc000217 	ldw	r16,8(sp)
   2c0c8:	dec00c04 	addi	sp,sp,48
   2c0cc:	f800283a 	ret
   2c0d0:	00803fc4 	movi	r2,255
   2c0d4:	11c0952e 	bgeu	r2,r7,2c32c <__umoddi3+0x508>
   2c0d8:	01400204 	movi	r5,8
   2c0dc:	282b883a 	mov	r21,r5
   2c0e0:	003f9f06 	br	2bf60 <_gp+0xffff00ec>
   2c0e4:	00804034 	movhi	r2,256
   2c0e8:	10bfffc4 	addi	r2,r2,-1
   2c0ec:	1180952e 	bgeu	r2,r6,2c344 <__umoddi3+0x520>
   2c0f0:	01400604 	movi	r5,24
   2c0f4:	2805883a 	mov	r2,r5
   2c0f8:	003f6206 	br	2be84 <_gp+0xffff0010>
   2c0fc:	00803fc4 	movi	r2,255
   2c100:	14c0932e 	bgeu	r2,r19,2c350 <__umoddi3+0x52c>
   2c104:	00800204 	movi	r2,8
   2c108:	1007883a 	mov	r3,r2
   2c10c:	003fb106 	br	2bfd4 <_gp+0xffff0160>
   2c110:	3548d83a 	srl	r4,r6,r21
   2c114:	3d0e983a 	sll	r7,r7,r20
   2c118:	8d10983a 	sll	r8,r17,r20
   2c11c:	8d6cd83a 	srl	r22,r17,r21
   2c120:	3922b03a 	or	r17,r7,r4
   2c124:	882ed43a 	srli	r23,r17,16
   2c128:	8564d83a 	srl	r18,r16,r21
   2c12c:	b009883a 	mov	r4,r22
   2c130:	b80b883a 	mov	r5,r23
   2c134:	44a4b03a 	or	r18,r8,r18
   2c138:	3526983a 	sll	r19,r6,r20
   2c13c:	00225640 	call	22564 <__umodsi3>
   2c140:	b009883a 	mov	r4,r22
   2c144:	b80b883a 	mov	r5,r23
   2c148:	1039883a 	mov	fp,r2
   2c14c:	002255c0 	call	2255c <__udivsi3>
   2c150:	102d883a 	mov	r22,r2
   2c154:	8a3fffcc 	andi	r8,r17,65535
   2c158:	e004943a 	slli	r2,fp,16
   2c15c:	900cd43a 	srli	r6,r18,16
   2c160:	b239383a 	mul	fp,r22,r8
   2c164:	8520983a 	sll	r16,r16,r20
   2c168:	118ab03a 	or	r5,r2,r6
   2c16c:	2f00042e 	bgeu	r5,fp,2c180 <__umoddi3+0x35c>
   2c170:	2c4b883a 	add	r5,r5,r17
   2c174:	b0bfffc4 	addi	r2,r22,-1
   2c178:	2c40822e 	bgeu	r5,r17,2c384 <__umoddi3+0x560>
   2c17c:	102d883a 	mov	r22,r2
   2c180:	2f39c83a 	sub	fp,r5,fp
   2c184:	e009883a 	mov	r4,fp
   2c188:	b80b883a 	mov	r5,r23
   2c18c:	da000115 	stw	r8,4(sp)
   2c190:	00225640 	call	22564 <__umodsi3>
   2c194:	e009883a 	mov	r4,fp
   2c198:	b80b883a 	mov	r5,r23
   2c19c:	d8800015 	stw	r2,0(sp)
   2c1a0:	002255c0 	call	2255c <__udivsi3>
   2c1a4:	d9800017 	ldw	r6,0(sp)
   2c1a8:	da000117 	ldw	r8,4(sp)
   2c1ac:	94bfffcc 	andi	r18,r18,65535
   2c1b0:	300c943a 	slli	r6,r6,16
   2c1b4:	1209383a 	mul	r4,r2,r8
   2c1b8:	3490b03a 	or	r8,r6,r18
   2c1bc:	4100042e 	bgeu	r8,r4,2c1d0 <__umoddi3+0x3ac>
   2c1c0:	4451883a 	add	r8,r8,r17
   2c1c4:	10ffffc4 	addi	r3,r2,-1
   2c1c8:	44406a2e 	bgeu	r8,r17,2c374 <__umoddi3+0x550>
   2c1cc:	1805883a 	mov	r2,r3
   2c1d0:	b012943a 	slli	r9,r22,16
   2c1d4:	9abfffcc 	andi	r10,r19,65535
   2c1d8:	980ed43a 	srli	r7,r19,16
   2c1dc:	124ab03a 	or	r5,r2,r9
   2c1e0:	2a7fffcc 	andi	r9,r5,65535
   2c1e4:	280ad43a 	srli	r5,r5,16
   2c1e8:	4a8d383a 	mul	r6,r9,r10
   2c1ec:	49d3383a 	mul	r9,r9,r7
   2c1f0:	2a95383a 	mul	r10,r5,r10
   2c1f4:	3004d43a 	srli	r2,r6,16
   2c1f8:	4111c83a 	sub	r8,r8,r4
   2c1fc:	5253883a 	add	r9,r10,r9
   2c200:	4893883a 	add	r9,r9,r2
   2c204:	29cb383a 	mul	r5,r5,r7
   2c208:	4a80022e 	bgeu	r9,r10,2c214 <__umoddi3+0x3f0>
   2c20c:	00800074 	movhi	r2,1
   2c210:	288b883a 	add	r5,r5,r2
   2c214:	4808d43a 	srli	r4,r9,16
   2c218:	4812943a 	slli	r9,r9,16
   2c21c:	31bfffcc 	andi	r6,r6,65535
   2c220:	290b883a 	add	r5,r5,r4
   2c224:	498d883a 	add	r6,r9,r6
   2c228:	41403a36 	bltu	r8,r5,2c314 <__umoddi3+0x4f0>
   2c22c:	41405d26 	beq	r8,r5,2c3a4 <__umoddi3+0x580>
   2c230:	4149c83a 	sub	r4,r8,r5
   2c234:	300f883a 	mov	r7,r6
   2c238:	81cfc83a 	sub	r7,r16,r7
   2c23c:	81c7803a 	cmpltu	r3,r16,r7
   2c240:	20c7c83a 	sub	r3,r4,r3
   2c244:	1d44983a 	sll	r2,r3,r21
   2c248:	3d0ed83a 	srl	r7,r7,r20
   2c24c:	1d06d83a 	srl	r3,r3,r20
   2c250:	11c4b03a 	or	r2,r2,r7
   2c254:	003f9206 	br	2c0a0 <_gp+0xffff022c>
   2c258:	0025883a 	mov	r18,zero
   2c25c:	003f1806 	br	2bec0 <_gp+0xffff004c>
   2c260:	98a6983a 	sll	r19,r19,r2
   2c264:	88e8d83a 	srl	r20,r17,r3
   2c268:	80c6d83a 	srl	r3,r16,r3
   2c26c:	982cd43a 	srli	r22,r19,16
   2c270:	88a2983a 	sll	r17,r17,r2
   2c274:	a009883a 	mov	r4,r20
   2c278:	b00b883a 	mov	r5,r22
   2c27c:	88eab03a 	or	r21,r17,r3
   2c280:	1025883a 	mov	r18,r2
   2c284:	00225640 	call	22564 <__umodsi3>
   2c288:	a009883a 	mov	r4,r20
   2c28c:	b00b883a 	mov	r5,r22
   2c290:	1023883a 	mov	r17,r2
   2c294:	002255c0 	call	2255c <__udivsi3>
   2c298:	9f3fffcc 	andi	fp,r19,65535
   2c29c:	8822943a 	slli	r17,r17,16
   2c2a0:	a80ad43a 	srli	r5,r21,16
   2c2a4:	1705383a 	mul	r2,r2,fp
   2c2a8:	84a8983a 	sll	r20,r16,r18
   2c2ac:	8948b03a 	or	r4,r17,r5
   2c2b0:	2080042e 	bgeu	r4,r2,2c2c4 <__umoddi3+0x4a0>
   2c2b4:	24c9883a 	add	r4,r4,r19
   2c2b8:	24c00236 	bltu	r4,r19,2c2c4 <__umoddi3+0x4a0>
   2c2bc:	2080012e 	bgeu	r4,r2,2c2c4 <__umoddi3+0x4a0>
   2c2c0:	24c9883a 	add	r4,r4,r19
   2c2c4:	20afc83a 	sub	r23,r4,r2
   2c2c8:	b809883a 	mov	r4,r23
   2c2cc:	b00b883a 	mov	r5,r22
   2c2d0:	00225640 	call	22564 <__umodsi3>
   2c2d4:	1023883a 	mov	r17,r2
   2c2d8:	b809883a 	mov	r4,r23
   2c2dc:	b00b883a 	mov	r5,r22
   2c2e0:	002255c0 	call	2255c <__udivsi3>
   2c2e4:	8822943a 	slli	r17,r17,16
   2c2e8:	1705383a 	mul	r2,r2,fp
   2c2ec:	a93fffcc 	andi	r4,r21,65535
   2c2f0:	8908b03a 	or	r4,r17,r4
   2c2f4:	2080042e 	bgeu	r4,r2,2c308 <__umoddi3+0x4e4>
   2c2f8:	24c9883a 	add	r4,r4,r19
   2c2fc:	24c00236 	bltu	r4,r19,2c308 <__umoddi3+0x4e4>
   2c300:	2080012e 	bgeu	r4,r2,2c308 <__umoddi3+0x4e4>
   2c304:	24c9883a 	add	r4,r4,r19
   2c308:	20a3c83a 	sub	r17,r4,r2
   2c30c:	e021883a 	mov	r16,fp
   2c310:	003f3d06 	br	2c008 <_gp+0xffff0194>
   2c314:	34cfc83a 	sub	r7,r6,r19
   2c318:	2c4bc83a 	sub	r5,r5,r17
   2c31c:	31cd803a 	cmpltu	r6,r6,r7
   2c320:	298dc83a 	sub	r6,r5,r6
   2c324:	4189c83a 	sub	r4,r8,r6
   2c328:	003fc306 	br	2c238 <_gp+0xffff03c4>
   2c32c:	000b883a 	mov	r5,zero
   2c330:	002b883a 	mov	r21,zero
   2c334:	003f0a06 	br	2bf60 <_gp+0xffff00ec>
   2c338:	01400404 	movi	r5,16
   2c33c:	282b883a 	mov	r21,r5
   2c340:	003f0706 	br	2bf60 <_gp+0xffff00ec>
   2c344:	01400404 	movi	r5,16
   2c348:	2805883a 	mov	r2,r5
   2c34c:	003ecd06 	br	2be84 <_gp+0xffff0010>
   2c350:	0005883a 	mov	r2,zero
   2c354:	0007883a 	mov	r3,zero
   2c358:	003f1e06 	br	2bfd4 <_gp+0xffff0160>
   2c35c:	00800404 	movi	r2,16
   2c360:	1007883a 	mov	r3,r2
   2c364:	003f1b06 	br	2bfd4 <_gp+0xffff0160>
   2c368:	000b883a 	mov	r5,zero
   2c36c:	0005883a 	mov	r2,zero
   2c370:	003ec406 	br	2be84 <_gp+0xffff0010>
   2c374:	413f952e 	bgeu	r8,r4,2c1cc <_gp+0xffff0358>
   2c378:	10bfff84 	addi	r2,r2,-2
   2c37c:	4451883a 	add	r8,r8,r17
   2c380:	003f9306 	br	2c1d0 <_gp+0xffff035c>
   2c384:	2f3f7d2e 	bgeu	r5,fp,2c17c <_gp+0xffff0308>
   2c388:	b5bfff84 	addi	r22,r22,-2
   2c38c:	2c4b883a 	add	r5,r5,r17
   2c390:	003f7b06 	br	2c180 <_gp+0xffff030c>
   2c394:	34cd883a 	add	r6,r6,r19
   2c398:	003f2a06 	br	2c044 <_gp+0xffff01d0>
   2c39c:	8005883a 	mov	r2,r16
   2c3a0:	003efe06 	br	2bf9c <_gp+0xffff0128>
   2c3a4:	81bfdb36 	bltu	r16,r6,2c314 <_gp+0xffff04a0>
   2c3a8:	300f883a 	mov	r7,r6
   2c3ac:	0009883a 	mov	r4,zero
   2c3b0:	003fa106 	br	2c238 <_gp+0xffff03c4>

0002c3b4 <__adddf3>:
   2c3b4:	02000434 	movhi	r8,16
   2c3b8:	423fffc4 	addi	r8,r8,-1
   2c3bc:	defffb04 	addi	sp,sp,-20
   2c3c0:	2a12703a 	and	r9,r5,r8
   2c3c4:	2806d7fa 	srli	r3,r5,31
   2c3c8:	3a10703a 	and	r8,r7,r8
   2c3cc:	3804d53a 	srli	r2,r7,20
   2c3d0:	3014d77a 	srli	r10,r6,29
   2c3d4:	dc000015 	stw	r16,0(sp)
   2c3d8:	481290fa 	slli	r9,r9,3
   2c3dc:	2820d53a 	srli	r16,r5,20
   2c3e0:	401090fa 	slli	r8,r8,3
   2c3e4:	200ad77a 	srli	r5,r4,29
   2c3e8:	380ed7fa 	srli	r7,r7,31
   2c3ec:	dc800215 	stw	r18,8(sp)
   2c3f0:	dc400115 	stw	r17,4(sp)
   2c3f4:	dfc00415 	stw	ra,16(sp)
   2c3f8:	dcc00315 	stw	r19,12(sp)
   2c3fc:	1c803fcc 	andi	r18,r3,255
   2c400:	8401ffcc 	andi	r16,r16,2047
   2c404:	494ab03a 	or	r5,r9,r5
   2c408:	202290fa 	slli	r17,r4,3
   2c40c:	1081ffcc 	andi	r2,r2,2047
   2c410:	4290b03a 	or	r8,r8,r10
   2c414:	300c90fa 	slli	r6,r6,3
   2c418:	91c07026 	beq	r18,r7,2c5dc <__adddf3+0x228>
   2c41c:	8087c83a 	sub	r3,r16,r2
   2c420:	00c0b30e 	bge	zero,r3,2c6f0 <__adddf3+0x33c>
   2c424:	10002a1e 	bne	r2,zero,2c4d0 <__adddf3+0x11c>
   2c428:	4184b03a 	or	r2,r8,r6
   2c42c:	1000991e 	bne	r2,zero,2c694 <__adddf3+0x2e0>
   2c430:	888001cc 	andi	r2,r17,7
   2c434:	10005b26 	beq	r2,zero,2c5a4 <__adddf3+0x1f0>
   2c438:	88c003cc 	andi	r3,r17,15
   2c43c:	00800104 	movi	r2,4
   2c440:	18805826 	beq	r3,r2,2c5a4 <__adddf3+0x1f0>
   2c444:	89800104 	addi	r6,r17,4
   2c448:	3463803a 	cmpltu	r17,r6,r17
   2c44c:	2c4b883a 	add	r5,r5,r17
   2c450:	2880202c 	andhi	r2,r5,128
   2c454:	9007883a 	mov	r3,r18
   2c458:	3023883a 	mov	r17,r6
   2c45c:	10005426 	beq	r2,zero,2c5b0 <__adddf3+0x1fc>
   2c460:	84000044 	addi	r16,r16,1
   2c464:	0081ffc4 	movi	r2,2047
   2c468:	8080c126 	beq	r16,r2,2c770 <__adddf3+0x3bc>
   2c46c:	013fe034 	movhi	r4,65408
   2c470:	213fffc4 	addi	r4,r4,-1
   2c474:	290a703a 	and	r5,r5,r4
   2c478:	2804977a 	slli	r2,r5,29
   2c47c:	280a927a 	slli	r5,r5,9
   2c480:	8822d0fa 	srli	r17,r17,3
   2c484:	8401ffcc 	andi	r16,r16,2047
   2c488:	2808d33a 	srli	r4,r5,12
   2c48c:	1444b03a 	or	r2,r2,r17
   2c490:	8401ffcc 	andi	r16,r16,2047
   2c494:	800a953a 	slli	r5,r16,20
   2c498:	18c03fcc 	andi	r3,r3,255
   2c49c:	04000434 	movhi	r16,16
   2c4a0:	180697fa 	slli	r3,r3,31
   2c4a4:	843fffc4 	addi	r16,r16,-1
   2c4a8:	2420703a 	and	r16,r4,r16
   2c4ac:	8160b03a 	or	r16,r16,r5
   2c4b0:	80c6b03a 	or	r3,r16,r3
   2c4b4:	dfc00417 	ldw	ra,16(sp)
   2c4b8:	dcc00317 	ldw	r19,12(sp)
   2c4bc:	dc800217 	ldw	r18,8(sp)
   2c4c0:	dc400117 	ldw	r17,4(sp)
   2c4c4:	dc000017 	ldw	r16,0(sp)
   2c4c8:	dec00504 	addi	sp,sp,20
   2c4cc:	f800283a 	ret
   2c4d0:	0081ffc4 	movi	r2,2047
   2c4d4:	80bfd626 	beq	r16,r2,2c430 <_gp+0xffff05bc>
   2c4d8:	42002034 	orhi	r8,r8,128
   2c4dc:	00800e04 	movi	r2,56
   2c4e0:	10c0a616 	blt	r2,r3,2c77c <__adddf3+0x3c8>
   2c4e4:	008007c4 	movi	r2,31
   2c4e8:	10c0c916 	blt	r2,r3,2c810 <__adddf3+0x45c>
   2c4ec:	00800804 	movi	r2,32
   2c4f0:	10c5c83a 	sub	r2,r2,r3
   2c4f4:	408e983a 	sll	r7,r8,r2
   2c4f8:	30c8d83a 	srl	r4,r6,r3
   2c4fc:	3084983a 	sll	r2,r6,r2
   2c500:	40c6d83a 	srl	r3,r8,r3
   2c504:	390cb03a 	or	r6,r7,r4
   2c508:	1004c03a 	cmpne	r2,r2,zero
   2c50c:	308cb03a 	or	r6,r6,r2
   2c510:	898dc83a 	sub	r6,r17,r6
   2c514:	89a3803a 	cmpltu	r17,r17,r6
   2c518:	28cbc83a 	sub	r5,r5,r3
   2c51c:	2c4bc83a 	sub	r5,r5,r17
   2c520:	3023883a 	mov	r17,r6
   2c524:	2880202c 	andhi	r2,r5,128
   2c528:	10006d26 	beq	r2,zero,2c6e0 <__adddf3+0x32c>
   2c52c:	04c02034 	movhi	r19,128
   2c530:	9cffffc4 	addi	r19,r19,-1
   2c534:	2ce6703a 	and	r19,r5,r19
   2c538:	98007e26 	beq	r19,zero,2c734 <__adddf3+0x380>
   2c53c:	9809883a 	mov	r4,r19
   2c540:	002e9500 	call	2e950 <__clzsi2>
   2c544:	10fffe04 	addi	r3,r2,-8
   2c548:	010007c4 	movi	r4,31
   2c54c:	20c07f16 	blt	r4,r3,2c74c <__adddf3+0x398>
   2c550:	01400a04 	movi	r5,40
   2c554:	2885c83a 	sub	r2,r5,r2
   2c558:	888ad83a 	srl	r5,r17,r2
   2c55c:	98e6983a 	sll	r19,r19,r3
   2c560:	88e2983a 	sll	r17,r17,r3
   2c564:	2ce6b03a 	or	r19,r5,r19
   2c568:	1c007c16 	blt	r3,r16,2c75c <__adddf3+0x3a8>
   2c56c:	1c21c83a 	sub	r16,r3,r16
   2c570:	81400044 	addi	r5,r16,1
   2c574:	00c007c4 	movi	r3,31
   2c578:	19409816 	blt	r3,r5,2c7dc <__adddf3+0x428>
   2c57c:	1c21c83a 	sub	r16,r3,r16
   2c580:	8c08983a 	sll	r4,r17,r16
   2c584:	8946d83a 	srl	r3,r17,r5
   2c588:	9c20983a 	sll	r16,r19,r16
   2c58c:	2008c03a 	cmpne	r4,r4,zero
   2c590:	994ad83a 	srl	r5,r19,r5
   2c594:	1c06b03a 	or	r3,r3,r16
   2c598:	1922b03a 	or	r17,r3,r4
   2c59c:	0021883a 	mov	r16,zero
   2c5a0:	003fa306 	br	2c430 <_gp+0xffff05bc>
   2c5a4:	2880202c 	andhi	r2,r5,128
   2c5a8:	9007883a 	mov	r3,r18
   2c5ac:	103fac1e 	bne	r2,zero,2c460 <_gp+0xffff05ec>
   2c5b0:	2804977a 	slli	r2,r5,29
   2c5b4:	8822d0fa 	srli	r17,r17,3
   2c5b8:	0101ffc4 	movi	r4,2047
   2c5bc:	280ad0fa 	srli	r5,r5,3
   2c5c0:	1444b03a 	or	r2,r2,r17
   2c5c4:	81002c26 	beq	r16,r4,2c678 <__adddf3+0x2c4>
   2c5c8:	8120703a 	and	r16,r16,r4
   2c5cc:	01000434 	movhi	r4,16
   2c5d0:	213fffc4 	addi	r4,r4,-1
   2c5d4:	2908703a 	and	r4,r5,r4
   2c5d8:	003fad06 	br	2c490 <_gp+0xffff061c>
   2c5dc:	8089c83a 	sub	r4,r16,r2
   2c5e0:	01006a0e 	bge	zero,r4,2c78c <__adddf3+0x3d8>
   2c5e4:	10003326 	beq	r2,zero,2c6b4 <__adddf3+0x300>
   2c5e8:	0081ffc4 	movi	r2,2047
   2c5ec:	80bf9026 	beq	r16,r2,2c430 <_gp+0xffff05bc>
   2c5f0:	42002034 	orhi	r8,r8,128
   2c5f4:	00800e04 	movi	r2,56
   2c5f8:	1100b116 	blt	r2,r4,2c8c0 <__adddf3+0x50c>
   2c5fc:	008007c4 	movi	r2,31
   2c600:	1100e216 	blt	r2,r4,2c98c <__adddf3+0x5d8>
   2c604:	00800804 	movi	r2,32
   2c608:	1105c83a 	sub	r2,r2,r4
   2c60c:	4092983a 	sll	r9,r8,r2
   2c610:	310ed83a 	srl	r7,r6,r4
   2c614:	3084983a 	sll	r2,r6,r2
   2c618:	4110d83a 	srl	r8,r8,r4
   2c61c:	49ccb03a 	or	r6,r9,r7
   2c620:	1004c03a 	cmpne	r2,r2,zero
   2c624:	308cb03a 	or	r6,r6,r2
   2c628:	344d883a 	add	r6,r6,r17
   2c62c:	3463803a 	cmpltu	r17,r6,r17
   2c630:	414b883a 	add	r5,r8,r5
   2c634:	2c4b883a 	add	r5,r5,r17
   2c638:	3023883a 	mov	r17,r6
   2c63c:	2880202c 	andhi	r2,r5,128
   2c640:	10002726 	beq	r2,zero,2c6e0 <__adddf3+0x32c>
   2c644:	84000044 	addi	r16,r16,1
   2c648:	0081ffc4 	movi	r2,2047
   2c64c:	8080ae26 	beq	r16,r2,2c908 <__adddf3+0x554>
   2c650:	00bfe034 	movhi	r2,65408
   2c654:	10bfffc4 	addi	r2,r2,-1
   2c658:	288a703a 	and	r5,r5,r2
   2c65c:	880cd07a 	srli	r6,r17,1
   2c660:	280897fa 	slli	r4,r5,31
   2c664:	88c0004c 	andi	r3,r17,1
   2c668:	30e2b03a 	or	r17,r6,r3
   2c66c:	280ad07a 	srli	r5,r5,1
   2c670:	8922b03a 	or	r17,r17,r4
   2c674:	003f6e06 	br	2c430 <_gp+0xffff05bc>
   2c678:	1148b03a 	or	r4,r2,r5
   2c67c:	20003c26 	beq	r4,zero,2c770 <__adddf3+0x3bc>
   2c680:	29000234 	orhi	r4,r5,8
   2c684:	01400434 	movhi	r5,16
   2c688:	297fffc4 	addi	r5,r5,-1
   2c68c:	2148703a 	and	r4,r4,r5
   2c690:	003f7f06 	br	2c490 <_gp+0xffff061c>
   2c694:	18ffffc4 	addi	r3,r3,-1
   2c698:	18004d1e 	bne	r3,zero,2c7d0 <__adddf3+0x41c>
   2c69c:	898dc83a 	sub	r6,r17,r6
   2c6a0:	89a3803a 	cmpltu	r17,r17,r6
   2c6a4:	2a0bc83a 	sub	r5,r5,r8
   2c6a8:	2c4bc83a 	sub	r5,r5,r17
   2c6ac:	3023883a 	mov	r17,r6
   2c6b0:	003f9c06 	br	2c524 <_gp+0xffff06b0>
   2c6b4:	4184b03a 	or	r2,r8,r6
   2c6b8:	103f5d26 	beq	r2,zero,2c430 <_gp+0xffff05bc>
   2c6bc:	213fffc4 	addi	r4,r4,-1
   2c6c0:	203fd926 	beq	r4,zero,2c628 <_gp+0xffff07b4>
   2c6c4:	0081ffc4 	movi	r2,2047
   2c6c8:	80bfca1e 	bne	r16,r2,2c5f4 <_gp+0xffff0780>
   2c6cc:	003f5806 	br	2c430 <_gp+0xffff05bc>
   2c6d0:	10c8b03a 	or	r4,r2,r3
   2c6d4:	20008b26 	beq	r4,zero,2c904 <__adddf3+0x550>
   2c6d8:	100b883a 	mov	r5,r2
   2c6dc:	1823883a 	mov	r17,r3
   2c6e0:	888001cc 	andi	r2,r17,7
   2c6e4:	103f541e 	bne	r2,zero,2c438 <_gp+0xffff05c4>
   2c6e8:	9007883a 	mov	r3,r18
   2c6ec:	003fb006 	br	2c5b0 <_gp+0xffff073c>
   2c6f0:	1800531e 	bne	r3,zero,2c840 <__adddf3+0x48c>
   2c6f4:	80800044 	addi	r2,r16,1
   2c6f8:	1081ffcc 	andi	r2,r2,2047
   2c6fc:	00c00044 	movi	r3,1
   2c700:	1880990e 	bge	r3,r2,2c968 <__adddf3+0x5b4>
   2c704:	8985c83a 	sub	r2,r17,r6
   2c708:	8887803a 	cmpltu	r3,r17,r2
   2c70c:	2a27c83a 	sub	r19,r5,r8
   2c710:	98e7c83a 	sub	r19,r19,r3
   2c714:	98c0202c 	andhi	r3,r19,128
   2c718:	18006226 	beq	r3,zero,2c8a4 <__adddf3+0x4f0>
   2c71c:	3463c83a 	sub	r17,r6,r17
   2c720:	4151c83a 	sub	r8,r8,r5
   2c724:	344d803a 	cmpltu	r6,r6,r17
   2c728:	41a7c83a 	sub	r19,r8,r6
   2c72c:	3825883a 	mov	r18,r7
   2c730:	983f821e 	bne	r19,zero,2c53c <_gp+0xffff06c8>
   2c734:	8809883a 	mov	r4,r17
   2c738:	002e9500 	call	2e950 <__clzsi2>
   2c73c:	10800804 	addi	r2,r2,32
   2c740:	10fffe04 	addi	r3,r2,-8
   2c744:	010007c4 	movi	r4,31
   2c748:	20ff810e 	bge	r4,r3,2c550 <_gp+0xffff06dc>
   2c74c:	14fff604 	addi	r19,r2,-40
   2c750:	8ce6983a 	sll	r19,r17,r19
   2c754:	0023883a 	mov	r17,zero
   2c758:	1c3f840e 	bge	r3,r16,2c56c <_gp+0xffff06f8>
   2c75c:	017fe034 	movhi	r5,65408
   2c760:	297fffc4 	addi	r5,r5,-1
   2c764:	80e1c83a 	sub	r16,r16,r3
   2c768:	994a703a 	and	r5,r19,r5
   2c76c:	003f3006 	br	2c430 <_gp+0xffff05bc>
   2c770:	0009883a 	mov	r4,zero
   2c774:	0005883a 	mov	r2,zero
   2c778:	003f4506 	br	2c490 <_gp+0xffff061c>
   2c77c:	418cb03a 	or	r6,r8,r6
   2c780:	300cc03a 	cmpne	r6,r6,zero
   2c784:	0007883a 	mov	r3,zero
   2c788:	003f6106 	br	2c510 <_gp+0xffff069c>
   2c78c:	2000921e 	bne	r4,zero,2c9d8 <__adddf3+0x624>
   2c790:	80800044 	addi	r2,r16,1
   2c794:	11c1ffcc 	andi	r7,r2,2047
   2c798:	01000044 	movi	r4,1
   2c79c:	21c0610e 	bge	r4,r7,2c924 <__adddf3+0x570>
   2c7a0:	0101ffc4 	movi	r4,2047
   2c7a4:	1100a326 	beq	r2,r4,2ca34 <__adddf3+0x680>
   2c7a8:	344d883a 	add	r6,r6,r17
   2c7ac:	3463803a 	cmpltu	r17,r6,r17
   2c7b0:	414b883a 	add	r5,r8,r5
   2c7b4:	2c4b883a 	add	r5,r5,r17
   2c7b8:	282297fa 	slli	r17,r5,31
   2c7bc:	300cd07a 	srli	r6,r6,1
   2c7c0:	280ad07a 	srli	r5,r5,1
   2c7c4:	1021883a 	mov	r16,r2
   2c7c8:	89a2b03a 	or	r17,r17,r6
   2c7cc:	003f1806 	br	2c430 <_gp+0xffff05bc>
   2c7d0:	0081ffc4 	movi	r2,2047
   2c7d4:	80bf411e 	bne	r16,r2,2c4dc <_gp+0xffff0668>
   2c7d8:	003f1506 	br	2c430 <_gp+0xffff05bc>
   2c7dc:	80bff844 	addi	r2,r16,-31
   2c7e0:	00c00804 	movi	r3,32
   2c7e4:	9884d83a 	srl	r2,r19,r2
   2c7e8:	28c04a26 	beq	r5,r3,2c914 <__adddf3+0x560>
   2c7ec:	00c00fc4 	movi	r3,63
   2c7f0:	1c21c83a 	sub	r16,r3,r16
   2c7f4:	9c26983a 	sll	r19,r19,r16
   2c7f8:	9c62b03a 	or	r17,r19,r17
   2c7fc:	8822c03a 	cmpne	r17,r17,zero
   2c800:	88a2b03a 	or	r17,r17,r2
   2c804:	000b883a 	mov	r5,zero
   2c808:	0021883a 	mov	r16,zero
   2c80c:	003fb406 	br	2c6e0 <_gp+0xffff086c>
   2c810:	18bff804 	addi	r2,r3,-32
   2c814:	01000804 	movi	r4,32
   2c818:	4084d83a 	srl	r2,r8,r2
   2c81c:	19003f26 	beq	r3,r4,2c91c <__adddf3+0x568>
   2c820:	01001004 	movi	r4,64
   2c824:	20c7c83a 	sub	r3,r4,r3
   2c828:	40d0983a 	sll	r8,r8,r3
   2c82c:	418cb03a 	or	r6,r8,r6
   2c830:	300cc03a 	cmpne	r6,r6,zero
   2c834:	308cb03a 	or	r6,r6,r2
   2c838:	0007883a 	mov	r3,zero
   2c83c:	003f3406 	br	2c510 <_gp+0xffff069c>
   2c840:	80002326 	beq	r16,zero,2c8d0 <__adddf3+0x51c>
   2c844:	0101ffc4 	movi	r4,2047
   2c848:	11005e26 	beq	r2,r4,2c9c4 <__adddf3+0x610>
   2c84c:	00c7c83a 	sub	r3,zero,r3
   2c850:	29402034 	orhi	r5,r5,128
   2c854:	01000e04 	movi	r4,56
   2c858:	20c07216 	blt	r4,r3,2ca24 <__adddf3+0x670>
   2c85c:	010007c4 	movi	r4,31
   2c860:	20c0ce16 	blt	r4,r3,2cb9c <__adddf3+0x7e8>
   2c864:	01000804 	movi	r4,32
   2c868:	20c9c83a 	sub	r4,r4,r3
   2c86c:	2914983a 	sll	r10,r5,r4
   2c870:	88d2d83a 	srl	r9,r17,r3
   2c874:	8908983a 	sll	r4,r17,r4
   2c878:	28c6d83a 	srl	r3,r5,r3
   2c87c:	5262b03a 	or	r17,r10,r9
   2c880:	2008c03a 	cmpne	r4,r4,zero
   2c884:	8922b03a 	or	r17,r17,r4
   2c888:	3463c83a 	sub	r17,r6,r17
   2c88c:	40c7c83a 	sub	r3,r8,r3
   2c890:	344d803a 	cmpltu	r6,r6,r17
   2c894:	198bc83a 	sub	r5,r3,r6
   2c898:	1021883a 	mov	r16,r2
   2c89c:	3825883a 	mov	r18,r7
   2c8a0:	003f2006 	br	2c524 <_gp+0xffff06b0>
   2c8a4:	9886b03a 	or	r3,r19,r2
   2c8a8:	1800141e 	bne	r3,zero,2c8fc <__adddf3+0x548>
   2c8ac:	0007883a 	mov	r3,zero
   2c8b0:	000b883a 	mov	r5,zero
   2c8b4:	0023883a 	mov	r17,zero
   2c8b8:	0021883a 	mov	r16,zero
   2c8bc:	003f3c06 	br	2c5b0 <_gp+0xffff073c>
   2c8c0:	418cb03a 	or	r6,r8,r6
   2c8c4:	300cc03a 	cmpne	r6,r6,zero
   2c8c8:	0011883a 	mov	r8,zero
   2c8cc:	003f5606 	br	2c628 <_gp+0xffff07b4>
   2c8d0:	2c48b03a 	or	r4,r5,r17
   2c8d4:	20003b26 	beq	r4,zero,2c9c4 <__adddf3+0x610>
   2c8d8:	00c6303a 	nor	r3,zero,r3
   2c8dc:	1800371e 	bne	r3,zero,2c9bc <__adddf3+0x608>
   2c8e0:	3463c83a 	sub	r17,r6,r17
   2c8e4:	414bc83a 	sub	r5,r8,r5
   2c8e8:	344d803a 	cmpltu	r6,r6,r17
   2c8ec:	298bc83a 	sub	r5,r5,r6
   2c8f0:	1021883a 	mov	r16,r2
   2c8f4:	3825883a 	mov	r18,r7
   2c8f8:	003f0a06 	br	2c524 <_gp+0xffff06b0>
   2c8fc:	1023883a 	mov	r17,r2
   2c900:	003f0d06 	br	2c538 <_gp+0xffff06c4>
   2c904:	0007883a 	mov	r3,zero
   2c908:	000b883a 	mov	r5,zero
   2c90c:	0023883a 	mov	r17,zero
   2c910:	003f2706 	br	2c5b0 <_gp+0xffff073c>
   2c914:	0027883a 	mov	r19,zero
   2c918:	003fb706 	br	2c7f8 <_gp+0xffff0984>
   2c91c:	0011883a 	mov	r8,zero
   2c920:	003fc206 	br	2c82c <_gp+0xffff09b8>
   2c924:	2c44b03a 	or	r2,r5,r17
   2c928:	8000871e 	bne	r16,zero,2cb48 <__adddf3+0x794>
   2c92c:	1000b126 	beq	r2,zero,2cbf4 <__adddf3+0x840>
   2c930:	4184b03a 	or	r2,r8,r6
   2c934:	103ebe26 	beq	r2,zero,2c430 <_gp+0xffff05bc>
   2c938:	3445883a 	add	r2,r6,r17
   2c93c:	1463803a 	cmpltu	r17,r2,r17
   2c940:	414b883a 	add	r5,r8,r5
   2c944:	2c4b883a 	add	r5,r5,r17
   2c948:	28c0202c 	andhi	r3,r5,128
   2c94c:	1023883a 	mov	r17,r2
   2c950:	183f6326 	beq	r3,zero,2c6e0 <_gp+0xffff086c>
   2c954:	00bfe034 	movhi	r2,65408
   2c958:	10bfffc4 	addi	r2,r2,-1
   2c95c:	2021883a 	mov	r16,r4
   2c960:	288a703a 	and	r5,r5,r2
   2c964:	003eb206 	br	2c430 <_gp+0xffff05bc>
   2c968:	2c44b03a 	or	r2,r5,r17
   2c96c:	8000251e 	bne	r16,zero,2ca04 <__adddf3+0x650>
   2c970:	10004b1e 	bne	r2,zero,2caa0 <__adddf3+0x6ec>
   2c974:	4184b03a 	or	r2,r8,r6
   2c978:	103fe226 	beq	r2,zero,2c904 <_gp+0xffff0a90>
   2c97c:	400b883a 	mov	r5,r8
   2c980:	3023883a 	mov	r17,r6
   2c984:	3825883a 	mov	r18,r7
   2c988:	003ea906 	br	2c430 <_gp+0xffff05bc>
   2c98c:	20bff804 	addi	r2,r4,-32
   2c990:	01c00804 	movi	r7,32
   2c994:	4084d83a 	srl	r2,r8,r2
   2c998:	21c07e26 	beq	r4,r7,2cb94 <__adddf3+0x7e0>
   2c99c:	01c01004 	movi	r7,64
   2c9a0:	3909c83a 	sub	r4,r7,r4
   2c9a4:	4110983a 	sll	r8,r8,r4
   2c9a8:	418cb03a 	or	r6,r8,r6
   2c9ac:	300cc03a 	cmpne	r6,r6,zero
   2c9b0:	308cb03a 	or	r6,r6,r2
   2c9b4:	0011883a 	mov	r8,zero
   2c9b8:	003f1b06 	br	2c628 <_gp+0xffff07b4>
   2c9bc:	0101ffc4 	movi	r4,2047
   2c9c0:	113fa41e 	bne	r2,r4,2c854 <_gp+0xffff09e0>
   2c9c4:	400b883a 	mov	r5,r8
   2c9c8:	3023883a 	mov	r17,r6
   2c9cc:	1021883a 	mov	r16,r2
   2c9d0:	3825883a 	mov	r18,r7
   2c9d4:	003e9606 	br	2c430 <_gp+0xffff05bc>
   2c9d8:	80001a1e 	bne	r16,zero,2ca44 <__adddf3+0x690>
   2c9dc:	2c4eb03a 	or	r7,r5,r17
   2c9e0:	38005526 	beq	r7,zero,2cb38 <__adddf3+0x784>
   2c9e4:	0108303a 	nor	r4,zero,r4
   2c9e8:	2000511e 	bne	r4,zero,2cb30 <__adddf3+0x77c>
   2c9ec:	89a3883a 	add	r17,r17,r6
   2c9f0:	414b883a 	add	r5,r8,r5
   2c9f4:	898d803a 	cmpltu	r6,r17,r6
   2c9f8:	298b883a 	add	r5,r5,r6
   2c9fc:	1021883a 	mov	r16,r2
   2ca00:	003f0e06 	br	2c63c <_gp+0xffff07c8>
   2ca04:	1000341e 	bne	r2,zero,2cad8 <__adddf3+0x724>
   2ca08:	4184b03a 	or	r2,r8,r6
   2ca0c:	10006f26 	beq	r2,zero,2cbcc <__adddf3+0x818>
   2ca10:	400b883a 	mov	r5,r8
   2ca14:	3023883a 	mov	r17,r6
   2ca18:	3825883a 	mov	r18,r7
   2ca1c:	0401ffc4 	movi	r16,2047
   2ca20:	003e8306 	br	2c430 <_gp+0xffff05bc>
   2ca24:	2c62b03a 	or	r17,r5,r17
   2ca28:	8822c03a 	cmpne	r17,r17,zero
   2ca2c:	0007883a 	mov	r3,zero
   2ca30:	003f9506 	br	2c888 <_gp+0xffff0a14>
   2ca34:	1021883a 	mov	r16,r2
   2ca38:	000b883a 	mov	r5,zero
   2ca3c:	0023883a 	mov	r17,zero
   2ca40:	003edb06 	br	2c5b0 <_gp+0xffff073c>
   2ca44:	01c1ffc4 	movi	r7,2047
   2ca48:	11c03b26 	beq	r2,r7,2cb38 <__adddf3+0x784>
   2ca4c:	0109c83a 	sub	r4,zero,r4
   2ca50:	29402034 	orhi	r5,r5,128
   2ca54:	01c00e04 	movi	r7,56
   2ca58:	39006216 	blt	r7,r4,2cbe4 <__adddf3+0x830>
   2ca5c:	01c007c4 	movi	r7,31
   2ca60:	39006b16 	blt	r7,r4,2cc10 <__adddf3+0x85c>
   2ca64:	01c00804 	movi	r7,32
   2ca68:	390fc83a 	sub	r7,r7,r4
   2ca6c:	29d4983a 	sll	r10,r5,r7
   2ca70:	8912d83a 	srl	r9,r17,r4
   2ca74:	89ce983a 	sll	r7,r17,r7
   2ca78:	2908d83a 	srl	r4,r5,r4
   2ca7c:	5262b03a 	or	r17,r10,r9
   2ca80:	380ac03a 	cmpne	r5,r7,zero
   2ca84:	8962b03a 	or	r17,r17,r5
   2ca88:	89a3883a 	add	r17,r17,r6
   2ca8c:	2211883a 	add	r8,r4,r8
   2ca90:	898d803a 	cmpltu	r6,r17,r6
   2ca94:	418b883a 	add	r5,r8,r6
   2ca98:	1021883a 	mov	r16,r2
   2ca9c:	003ee706 	br	2c63c <_gp+0xffff07c8>
   2caa0:	4184b03a 	or	r2,r8,r6
   2caa4:	103e6226 	beq	r2,zero,2c430 <_gp+0xffff05bc>
   2caa8:	8987c83a 	sub	r3,r17,r6
   2caac:	88c9803a 	cmpltu	r4,r17,r3
   2cab0:	2a05c83a 	sub	r2,r5,r8
   2cab4:	1105c83a 	sub	r2,r2,r4
   2cab8:	1100202c 	andhi	r4,r2,128
   2cabc:	203f0426 	beq	r4,zero,2c6d0 <_gp+0xffff085c>
   2cac0:	3463c83a 	sub	r17,r6,r17
   2cac4:	414bc83a 	sub	r5,r8,r5
   2cac8:	344d803a 	cmpltu	r6,r6,r17
   2cacc:	298bc83a 	sub	r5,r5,r6
   2cad0:	3825883a 	mov	r18,r7
   2cad4:	003e5606 	br	2c430 <_gp+0xffff05bc>
   2cad8:	4184b03a 	or	r2,r8,r6
   2cadc:	10002b26 	beq	r2,zero,2cb8c <__adddf3+0x7d8>
   2cae0:	2804d0fa 	srli	r2,r5,3
   2cae4:	8822d0fa 	srli	r17,r17,3
   2cae8:	280a977a 	slli	r5,r5,29
   2caec:	10c0022c 	andhi	r3,r2,8
   2caf0:	2c62b03a 	or	r17,r5,r17
   2caf4:	18000826 	beq	r3,zero,2cb18 <__adddf3+0x764>
   2caf8:	4008d0fa 	srli	r4,r8,3
   2cafc:	20c0022c 	andhi	r3,r4,8
   2cb00:	1800051e 	bne	r3,zero,2cb18 <__adddf3+0x764>
   2cb04:	300cd0fa 	srli	r6,r6,3
   2cb08:	4010977a 	slli	r8,r8,29
   2cb0c:	2005883a 	mov	r2,r4
   2cb10:	3825883a 	mov	r18,r7
   2cb14:	41a2b03a 	or	r17,r8,r6
   2cb18:	880ad77a 	srli	r5,r17,29
   2cb1c:	100490fa 	slli	r2,r2,3
   2cb20:	882290fa 	slli	r17,r17,3
   2cb24:	0401ffc4 	movi	r16,2047
   2cb28:	288ab03a 	or	r5,r5,r2
   2cb2c:	003e4006 	br	2c430 <_gp+0xffff05bc>
   2cb30:	01c1ffc4 	movi	r7,2047
   2cb34:	11ffc71e 	bne	r2,r7,2ca54 <_gp+0xffff0be0>
   2cb38:	400b883a 	mov	r5,r8
   2cb3c:	3023883a 	mov	r17,r6
   2cb40:	1021883a 	mov	r16,r2
   2cb44:	003e3a06 	br	2c430 <_gp+0xffff05bc>
   2cb48:	10002d26 	beq	r2,zero,2cc00 <__adddf3+0x84c>
   2cb4c:	4184b03a 	or	r2,r8,r6
   2cb50:	10000e26 	beq	r2,zero,2cb8c <__adddf3+0x7d8>
   2cb54:	2804d0fa 	srli	r2,r5,3
   2cb58:	8822d0fa 	srli	r17,r17,3
   2cb5c:	280a977a 	slli	r5,r5,29
   2cb60:	10c0022c 	andhi	r3,r2,8
   2cb64:	2c62b03a 	or	r17,r5,r17
   2cb68:	183feb26 	beq	r3,zero,2cb18 <_gp+0xffff0ca4>
   2cb6c:	4008d0fa 	srli	r4,r8,3
   2cb70:	20c0022c 	andhi	r3,r4,8
   2cb74:	183fe81e 	bne	r3,zero,2cb18 <_gp+0xffff0ca4>
   2cb78:	300cd0fa 	srli	r6,r6,3
   2cb7c:	4010977a 	slli	r8,r8,29
   2cb80:	2005883a 	mov	r2,r4
   2cb84:	41a2b03a 	or	r17,r8,r6
   2cb88:	003fe306 	br	2cb18 <_gp+0xffff0ca4>
   2cb8c:	0401ffc4 	movi	r16,2047
   2cb90:	003e2706 	br	2c430 <_gp+0xffff05bc>
   2cb94:	0011883a 	mov	r8,zero
   2cb98:	003f8306 	br	2c9a8 <_gp+0xffff0b34>
   2cb9c:	193ff804 	addi	r4,r3,-32
   2cba0:	02400804 	movi	r9,32
   2cba4:	2908d83a 	srl	r4,r5,r4
   2cba8:	1a402526 	beq	r3,r9,2cc40 <__adddf3+0x88c>
   2cbac:	02401004 	movi	r9,64
   2cbb0:	48c7c83a 	sub	r3,r9,r3
   2cbb4:	28ca983a 	sll	r5,r5,r3
   2cbb8:	2c62b03a 	or	r17,r5,r17
   2cbbc:	8822c03a 	cmpne	r17,r17,zero
   2cbc0:	8922b03a 	or	r17,r17,r4
   2cbc4:	0007883a 	mov	r3,zero
   2cbc8:	003f2f06 	br	2c888 <_gp+0xffff0a14>
   2cbcc:	01402034 	movhi	r5,128
   2cbd0:	0007883a 	mov	r3,zero
   2cbd4:	297fffc4 	addi	r5,r5,-1
   2cbd8:	047ffe04 	movi	r17,-8
   2cbdc:	0401ffc4 	movi	r16,2047
   2cbe0:	003e7306 	br	2c5b0 <_gp+0xffff073c>
   2cbe4:	2c62b03a 	or	r17,r5,r17
   2cbe8:	8822c03a 	cmpne	r17,r17,zero
   2cbec:	0009883a 	mov	r4,zero
   2cbf0:	003fa506 	br	2ca88 <_gp+0xffff0c14>
   2cbf4:	400b883a 	mov	r5,r8
   2cbf8:	3023883a 	mov	r17,r6
   2cbfc:	003e0c06 	br	2c430 <_gp+0xffff05bc>
   2cc00:	400b883a 	mov	r5,r8
   2cc04:	3023883a 	mov	r17,r6
   2cc08:	0401ffc4 	movi	r16,2047
   2cc0c:	003e0806 	br	2c430 <_gp+0xffff05bc>
   2cc10:	21fff804 	addi	r7,r4,-32
   2cc14:	02400804 	movi	r9,32
   2cc18:	29ced83a 	srl	r7,r5,r7
   2cc1c:	22400a26 	beq	r4,r9,2cc48 <__adddf3+0x894>
   2cc20:	02401004 	movi	r9,64
   2cc24:	4909c83a 	sub	r4,r9,r4
   2cc28:	290a983a 	sll	r5,r5,r4
   2cc2c:	2c62b03a 	or	r17,r5,r17
   2cc30:	8822c03a 	cmpne	r17,r17,zero
   2cc34:	89e2b03a 	or	r17,r17,r7
   2cc38:	0009883a 	mov	r4,zero
   2cc3c:	003f9206 	br	2ca88 <_gp+0xffff0c14>
   2cc40:	000b883a 	mov	r5,zero
   2cc44:	003fdc06 	br	2cbb8 <_gp+0xffff0d44>
   2cc48:	000b883a 	mov	r5,zero
   2cc4c:	003ff706 	br	2cc2c <_gp+0xffff0db8>

0002cc50 <__divdf3>:
   2cc50:	defff204 	addi	sp,sp,-56
   2cc54:	dd000815 	stw	r20,32(sp)
   2cc58:	2828d53a 	srli	r20,r5,20
   2cc5c:	dd800a15 	stw	r22,40(sp)
   2cc60:	282cd7fa 	srli	r22,r5,31
   2cc64:	dc000415 	stw	r16,16(sp)
   2cc68:	04000434 	movhi	r16,16
   2cc6c:	df000c15 	stw	fp,48(sp)
   2cc70:	dcc00715 	stw	r19,28(sp)
   2cc74:	dc800615 	stw	r18,24(sp)
   2cc78:	dc400515 	stw	r17,20(sp)
   2cc7c:	843fffc4 	addi	r16,r16,-1
   2cc80:	dfc00d15 	stw	ra,52(sp)
   2cc84:	ddc00b15 	stw	r23,44(sp)
   2cc88:	dd400915 	stw	r21,36(sp)
   2cc8c:	a501ffcc 	andi	r20,r20,2047
   2cc90:	2025883a 	mov	r18,r4
   2cc94:	2027883a 	mov	r19,r4
   2cc98:	2c22703a 	and	r17,r5,r16
   2cc9c:	b7003fcc 	andi	fp,r22,255
   2cca0:	a0005e26 	beq	r20,zero,2ce1c <__divdf3+0x1cc>
   2cca4:	0081ffc4 	movi	r2,2047
   2cca8:	a0803526 	beq	r20,r2,2cd80 <__divdf3+0x130>
   2ccac:	8c000434 	orhi	r16,r17,16
   2ccb0:	2004d77a 	srli	r2,r4,29
   2ccb4:	802090fa 	slli	r16,r16,3
   2ccb8:	202690fa 	slli	r19,r4,3
   2ccbc:	a53f0044 	addi	r20,r20,-1023
   2ccc0:	80a2b03a 	or	r17,r16,r2
   2ccc4:	0025883a 	mov	r18,zero
   2ccc8:	0011883a 	mov	r8,zero
   2cccc:	380ad53a 	srli	r5,r7,20
   2ccd0:	382ed7fa 	srli	r23,r7,31
   2ccd4:	04000434 	movhi	r16,16
   2ccd8:	843fffc4 	addi	r16,r16,-1
   2ccdc:	2941ffcc 	andi	r5,r5,2047
   2cce0:	302b883a 	mov	r21,r6
   2cce4:	3c20703a 	and	r16,r7,r16
   2cce8:	ba403fcc 	andi	r9,r23,255
   2ccec:	28006726 	beq	r5,zero,2ce8c <__divdf3+0x23c>
   2ccf0:	0081ffc4 	movi	r2,2047
   2ccf4:	28805f26 	beq	r5,r2,2ce74 <__divdf3+0x224>
   2ccf8:	84000434 	orhi	r16,r16,16
   2ccfc:	3004d77a 	srli	r2,r6,29
   2cd00:	802090fa 	slli	r16,r16,3
   2cd04:	302a90fa 	slli	r21,r6,3
   2cd08:	297f0044 	addi	r5,r5,-1023
   2cd0c:	80a0b03a 	or	r16,r16,r2
   2cd10:	000f883a 	mov	r7,zero
   2cd14:	3c86b03a 	or	r3,r7,r18
   2cd18:	180690ba 	slli	r3,r3,2
   2cd1c:	008000f4 	movhi	r2,3
   2cd20:	10b35004 	addi	r2,r2,-12992
   2cd24:	1887883a 	add	r3,r3,r2
   2cd28:	18c00017 	ldw	r3,0(r3)
   2cd2c:	b5c8f03a 	xor	r4,r22,r23
   2cd30:	200d883a 	mov	r6,r4
   2cd34:	24803fcc 	andi	r18,r4,255
   2cd38:	a169c83a 	sub	r20,r20,r5
   2cd3c:	1800683a 	jmp	r3
   2cd40:	0002cf88 	cmpgei	zero,zero,2878
   2cd44:	0002cdb8 	rdprs	zero,zero,2870
   2cd48:	0002cf4c 	andi	zero,zero,2877
   2cd4c:	0002cd9c 	xori	zero,zero,2870
   2cd50:	0002cf4c 	andi	zero,zero,2877
   2cd54:	0002cf20 	cmpeqi	zero,zero,2876
   2cd58:	0002cf4c 	andi	zero,zero,2877
   2cd5c:	0002cd9c 	xori	zero,zero,2870
   2cd60:	0002cdb8 	rdprs	zero,zero,2870
   2cd64:	0002cdb8 	rdprs	zero,zero,2870
   2cd68:	0002cf20 	cmpeqi	zero,zero,2876
   2cd6c:	0002cd9c 	xori	zero,zero,2870
   2cd70:	0002cdac 	andhi	zero,zero,2870
   2cd74:	0002cdac 	andhi	zero,zero,2870
   2cd78:	0002cdac 	andhi	zero,zero,2870
   2cd7c:	0002cf5c 	xori	zero,zero,2877
   2cd80:	8904b03a 	or	r2,r17,r4
   2cd84:	1000631e 	bne	r2,zero,2cf14 <__divdf3+0x2c4>
   2cd88:	04800204 	movi	r18,8
   2cd8c:	0023883a 	mov	r17,zero
   2cd90:	0027883a 	mov	r19,zero
   2cd94:	02000084 	movi	r8,2
   2cd98:	003fcc06 	br	2cccc <_gp+0xffff0e58>
   2cd9c:	8023883a 	mov	r17,r16
   2cda0:	a827883a 	mov	r19,r21
   2cda4:	4839883a 	mov	fp,r9
   2cda8:	3811883a 	mov	r8,r7
   2cdac:	00800084 	movi	r2,2
   2cdb0:	40812a1e 	bne	r8,r2,2d25c <__divdf3+0x60c>
   2cdb4:	e025883a 	mov	r18,fp
   2cdb8:	9180004c 	andi	r6,r18,1
   2cdbc:	0101ffc4 	movi	r4,2047
   2cdc0:	000b883a 	mov	r5,zero
   2cdc4:	0027883a 	mov	r19,zero
   2cdc8:	2008953a 	slli	r4,r4,20
   2cdcc:	30c03fcc 	andi	r3,r6,255
   2cdd0:	04000434 	movhi	r16,16
   2cdd4:	180697fa 	slli	r3,r3,31
   2cdd8:	843fffc4 	addi	r16,r16,-1
   2cddc:	2c20703a 	and	r16,r5,r16
   2cde0:	8120b03a 	or	r16,r16,r4
   2cde4:	80c6b03a 	or	r3,r16,r3
   2cde8:	9805883a 	mov	r2,r19
   2cdec:	dfc00d17 	ldw	ra,52(sp)
   2cdf0:	df000c17 	ldw	fp,48(sp)
   2cdf4:	ddc00b17 	ldw	r23,44(sp)
   2cdf8:	dd800a17 	ldw	r22,40(sp)
   2cdfc:	dd400917 	ldw	r21,36(sp)
   2ce00:	dd000817 	ldw	r20,32(sp)
   2ce04:	dcc00717 	ldw	r19,28(sp)
   2ce08:	dc800617 	ldw	r18,24(sp)
   2ce0c:	dc400517 	ldw	r17,20(sp)
   2ce10:	dc000417 	ldw	r16,16(sp)
   2ce14:	dec00e04 	addi	sp,sp,56
   2ce18:	f800283a 	ret
   2ce1c:	8904b03a 	or	r2,r17,r4
   2ce20:	10003726 	beq	r2,zero,2cf00 <__divdf3+0x2b0>
   2ce24:	88011c26 	beq	r17,zero,2d298 <__divdf3+0x648>
   2ce28:	8809883a 	mov	r4,r17
   2ce2c:	d9800315 	stw	r6,12(sp)
   2ce30:	d9c00115 	stw	r7,4(sp)
   2ce34:	002e9500 	call	2e950 <__clzsi2>
   2ce38:	d9800317 	ldw	r6,12(sp)
   2ce3c:	d9c00117 	ldw	r7,4(sp)
   2ce40:	1007883a 	mov	r3,r2
   2ce44:	01000a04 	movi	r4,40
   2ce48:	1cfffe04 	addi	r19,r3,-8
   2ce4c:	20c9c83a 	sub	r4,r4,r3
   2ce50:	8cca983a 	sll	r5,r17,r19
   2ce54:	9108d83a 	srl	r4,r18,r4
   2ce58:	94e6983a 	sll	r19,r18,r19
   2ce5c:	2162b03a 	or	r17,r4,r5
   2ce60:	053f0344 	movi	r20,-1011
   2ce64:	a0e9c83a 	sub	r20,r20,r3
   2ce68:	0025883a 	mov	r18,zero
   2ce6c:	0011883a 	mov	r8,zero
   2ce70:	003f9606 	br	2cccc <_gp+0xffff0e58>
   2ce74:	8184b03a 	or	r2,r16,r6
   2ce78:	10001f1e 	bne	r2,zero,2cef8 <__divdf3+0x2a8>
   2ce7c:	0021883a 	mov	r16,zero
   2ce80:	002b883a 	mov	r21,zero
   2ce84:	01c00084 	movi	r7,2
   2ce88:	003fa206 	br	2cd14 <_gp+0xffff0ea0>
   2ce8c:	8184b03a 	or	r2,r16,r6
   2ce90:	10001526 	beq	r2,zero,2cee8 <__divdf3+0x298>
   2ce94:	80010c26 	beq	r16,zero,2d2c8 <__divdf3+0x678>
   2ce98:	8009883a 	mov	r4,r16
   2ce9c:	d9800315 	stw	r6,12(sp)
   2cea0:	da000215 	stw	r8,8(sp)
   2cea4:	da400015 	stw	r9,0(sp)
   2cea8:	002e9500 	call	2e950 <__clzsi2>
   2ceac:	d9800317 	ldw	r6,12(sp)
   2ceb0:	da000217 	ldw	r8,8(sp)
   2ceb4:	da400017 	ldw	r9,0(sp)
   2ceb8:	1007883a 	mov	r3,r2
   2cebc:	01000a04 	movi	r4,40
   2cec0:	1d7ffe04 	addi	r21,r3,-8
   2cec4:	20c9c83a 	sub	r4,r4,r3
   2cec8:	8560983a 	sll	r16,r16,r21
   2cecc:	3108d83a 	srl	r4,r6,r4
   2ced0:	356a983a 	sll	r21,r6,r21
   2ced4:	2420b03a 	or	r16,r4,r16
   2ced8:	017f0344 	movi	r5,-1011
   2cedc:	28cbc83a 	sub	r5,r5,r3
   2cee0:	000f883a 	mov	r7,zero
   2cee4:	003f8b06 	br	2cd14 <_gp+0xffff0ea0>
   2cee8:	0021883a 	mov	r16,zero
   2ceec:	002b883a 	mov	r21,zero
   2cef0:	01c00044 	movi	r7,1
   2cef4:	003f8706 	br	2cd14 <_gp+0xffff0ea0>
   2cef8:	01c000c4 	movi	r7,3
   2cefc:	003f8506 	br	2cd14 <_gp+0xffff0ea0>
   2cf00:	04800104 	movi	r18,4
   2cf04:	0023883a 	mov	r17,zero
   2cf08:	0027883a 	mov	r19,zero
   2cf0c:	02000044 	movi	r8,1
   2cf10:	003f6e06 	br	2cccc <_gp+0xffff0e58>
   2cf14:	04800304 	movi	r18,12
   2cf18:	020000c4 	movi	r8,3
   2cf1c:	003f6b06 	br	2cccc <_gp+0xffff0e58>
   2cf20:	01400434 	movhi	r5,16
   2cf24:	000d883a 	mov	r6,zero
   2cf28:	297fffc4 	addi	r5,r5,-1
   2cf2c:	04ffffc4 	movi	r19,-1
   2cf30:	0101ffc4 	movi	r4,2047
   2cf34:	003fa406 	br	2cdc8 <_gp+0xffff0f54>
   2cf38:	043f0084 	movi	r16,-1022
   2cf3c:	8521c83a 	sub	r16,r16,r20
   2cf40:	00800e04 	movi	r2,56
   2cf44:	1401200e 	bge	r2,r16,2d3c8 <__divdf3+0x778>
   2cf48:	9180004c 	andi	r6,r18,1
   2cf4c:	0009883a 	mov	r4,zero
   2cf50:	000b883a 	mov	r5,zero
   2cf54:	0027883a 	mov	r19,zero
   2cf58:	003f9b06 	br	2cdc8 <_gp+0xffff0f54>
   2cf5c:	8880022c 	andhi	r2,r17,8
   2cf60:	1000c726 	beq	r2,zero,2d280 <__divdf3+0x630>
   2cf64:	8080022c 	andhi	r2,r16,8
   2cf68:	1000c51e 	bne	r2,zero,2d280 <__divdf3+0x630>
   2cf6c:	00800434 	movhi	r2,16
   2cf70:	81400234 	orhi	r5,r16,8
   2cf74:	10bfffc4 	addi	r2,r2,-1
   2cf78:	b80d883a 	mov	r6,r23
   2cf7c:	288a703a 	and	r5,r5,r2
   2cf80:	a827883a 	mov	r19,r21
   2cf84:	003fea06 	br	2cf30 <_gp+0xffff10bc>
   2cf88:	8440ea36 	bltu	r16,r17,2d334 <__divdf3+0x6e4>
   2cf8c:	8c00e826 	beq	r17,r16,2d330 <__divdf3+0x6e0>
   2cf90:	a53fffc4 	addi	r20,r20,-1
   2cf94:	882d883a 	mov	r22,r17
   2cf98:	000d883a 	mov	r6,zero
   2cf9c:	a804d63a 	srli	r2,r21,24
   2cfa0:	8020923a 	slli	r16,r16,8
   2cfa4:	b009883a 	mov	r4,r22
   2cfa8:	d9800315 	stw	r6,12(sp)
   2cfac:	1420b03a 	or	r16,r2,r16
   2cfb0:	802ed43a 	srli	r23,r16,16
   2cfb4:	873fffcc 	andi	fp,r16,65535
   2cfb8:	a82a923a 	slli	r21,r21,8
   2cfbc:	b80b883a 	mov	r5,r23
   2cfc0:	002255c0 	call	2255c <__udivsi3>
   2cfc4:	b009883a 	mov	r4,r22
   2cfc8:	b80b883a 	mov	r5,r23
   2cfcc:	1023883a 	mov	r17,r2
   2cfd0:	00225640 	call	22564 <__umodsi3>
   2cfd4:	1004943a 	slli	r2,r2,16
   2cfd8:	9808d43a 	srli	r4,r19,16
   2cfdc:	8f2d383a 	mul	r22,r17,fp
   2cfe0:	d9800317 	ldw	r6,12(sp)
   2cfe4:	1106b03a 	or	r3,r2,r4
   2cfe8:	1d80062e 	bgeu	r3,r22,2d004 <__divdf3+0x3b4>
   2cfec:	1c07883a 	add	r3,r3,r16
   2cff0:	88bfffc4 	addi	r2,r17,-1
   2cff4:	1c00dc36 	bltu	r3,r16,2d368 <__divdf3+0x718>
   2cff8:	1d80db2e 	bgeu	r3,r22,2d368 <__divdf3+0x718>
   2cffc:	8c7fff84 	addi	r17,r17,-2
   2d000:	1c07883a 	add	r3,r3,r16
   2d004:	1dadc83a 	sub	r22,r3,r22
   2d008:	b009883a 	mov	r4,r22
   2d00c:	b80b883a 	mov	r5,r23
   2d010:	d9800315 	stw	r6,12(sp)
   2d014:	002255c0 	call	2255c <__udivsi3>
   2d018:	b009883a 	mov	r4,r22
   2d01c:	b80b883a 	mov	r5,r23
   2d020:	d8800015 	stw	r2,0(sp)
   2d024:	00225640 	call	22564 <__umodsi3>
   2d028:	da400017 	ldw	r9,0(sp)
   2d02c:	1004943a 	slli	r2,r2,16
   2d030:	9cffffcc 	andi	r19,r19,65535
   2d034:	4f07383a 	mul	r3,r9,fp
   2d038:	14c8b03a 	or	r4,r2,r19
   2d03c:	d9800317 	ldw	r6,12(sp)
   2d040:	20c0062e 	bgeu	r4,r3,2d05c <__divdf3+0x40c>
   2d044:	2409883a 	add	r4,r4,r16
   2d048:	48bfffc4 	addi	r2,r9,-1
   2d04c:	2400c436 	bltu	r4,r16,2d360 <__divdf3+0x710>
   2d050:	20c0c32e 	bgeu	r4,r3,2d360 <__divdf3+0x710>
   2d054:	4a7fff84 	addi	r9,r9,-2
   2d058:	2409883a 	add	r4,r4,r16
   2d05c:	8822943a 	slli	r17,r17,16
   2d060:	a80ed43a 	srli	r7,r21,16
   2d064:	aa3fffcc 	andi	r8,r21,65535
   2d068:	4c62b03a 	or	r17,r9,r17
   2d06c:	8816d43a 	srli	r11,r17,16
   2d070:	897fffcc 	andi	r5,r17,65535
   2d074:	2a15383a 	mul	r10,r5,r8
   2d078:	5a19383a 	mul	r12,r11,r8
   2d07c:	29cb383a 	mul	r5,r5,r7
   2d080:	5012d43a 	srli	r9,r10,16
   2d084:	20c5c83a 	sub	r2,r4,r3
   2d088:	614b883a 	add	r5,r12,r5
   2d08c:	2a4b883a 	add	r5,r5,r9
   2d090:	59c7383a 	mul	r3,r11,r7
   2d094:	2b00022e 	bgeu	r5,r12,2d0a0 <__divdf3+0x450>
   2d098:	01000074 	movhi	r4,1
   2d09c:	1907883a 	add	r3,r3,r4
   2d0a0:	2808d43a 	srli	r4,r5,16
   2d0a4:	280a943a 	slli	r5,r5,16
   2d0a8:	54ffffcc 	andi	r19,r10,65535
   2d0ac:	1907883a 	add	r3,r3,r4
   2d0b0:	2ccb883a 	add	r5,r5,r19
   2d0b4:	10c09336 	bltu	r2,r3,2d304 <__divdf3+0x6b4>
   2d0b8:	10c0ad26 	beq	r2,r3,2d370 <__divdf3+0x720>
   2d0bc:	10c7c83a 	sub	r3,r2,r3
   2d0c0:	3167c83a 	sub	r19,r6,r5
   2d0c4:	34ed803a 	cmpltu	r22,r6,r19
   2d0c8:	1dadc83a 	sub	r22,r3,r22
   2d0cc:	b400b226 	beq	r22,r16,2d398 <__divdf3+0x748>
   2d0d0:	b009883a 	mov	r4,r22
   2d0d4:	b80b883a 	mov	r5,r23
   2d0d8:	d9c00115 	stw	r7,4(sp)
   2d0dc:	da000215 	stw	r8,8(sp)
   2d0e0:	002255c0 	call	2255c <__udivsi3>
   2d0e4:	b009883a 	mov	r4,r22
   2d0e8:	b80b883a 	mov	r5,r23
   2d0ec:	d8800315 	stw	r2,12(sp)
   2d0f0:	00225640 	call	22564 <__umodsi3>
   2d0f4:	d9800317 	ldw	r6,12(sp)
   2d0f8:	1004943a 	slli	r2,r2,16
   2d0fc:	9808d43a 	srli	r4,r19,16
   2d100:	372d383a 	mul	r22,r6,fp
   2d104:	d9c00117 	ldw	r7,4(sp)
   2d108:	1106b03a 	or	r3,r2,r4
   2d10c:	da000217 	ldw	r8,8(sp)
   2d110:	1d80062e 	bgeu	r3,r22,2d12c <__divdf3+0x4dc>
   2d114:	1c07883a 	add	r3,r3,r16
   2d118:	30bfffc4 	addi	r2,r6,-1
   2d11c:	1c00a036 	bltu	r3,r16,2d3a0 <__divdf3+0x750>
   2d120:	1d809f2e 	bgeu	r3,r22,2d3a0 <__divdf3+0x750>
   2d124:	31bfff84 	addi	r6,r6,-2
   2d128:	1c07883a 	add	r3,r3,r16
   2d12c:	1dadc83a 	sub	r22,r3,r22
   2d130:	b009883a 	mov	r4,r22
   2d134:	b80b883a 	mov	r5,r23
   2d138:	d9800315 	stw	r6,12(sp)
   2d13c:	d9c00115 	stw	r7,4(sp)
   2d140:	da000215 	stw	r8,8(sp)
   2d144:	002255c0 	call	2255c <__udivsi3>
   2d148:	b009883a 	mov	r4,r22
   2d14c:	b80b883a 	mov	r5,r23
   2d150:	d8800015 	stw	r2,0(sp)
   2d154:	00225640 	call	22564 <__umodsi3>
   2d158:	da400017 	ldw	r9,0(sp)
   2d15c:	1004943a 	slli	r2,r2,16
   2d160:	993fffcc 	andi	r4,r19,65535
   2d164:	4f39383a 	mul	fp,r9,fp
   2d168:	1106b03a 	or	r3,r2,r4
   2d16c:	d9800317 	ldw	r6,12(sp)
   2d170:	d9c00117 	ldw	r7,4(sp)
   2d174:	da000217 	ldw	r8,8(sp)
   2d178:	1f00062e 	bgeu	r3,fp,2d194 <__divdf3+0x544>
   2d17c:	1c07883a 	add	r3,r3,r16
   2d180:	48bfffc4 	addi	r2,r9,-1
   2d184:	1c008836 	bltu	r3,r16,2d3a8 <__divdf3+0x758>
   2d188:	1f00872e 	bgeu	r3,fp,2d3a8 <__divdf3+0x758>
   2d18c:	4a7fff84 	addi	r9,r9,-2
   2d190:	1c07883a 	add	r3,r3,r16
   2d194:	3008943a 	slli	r4,r6,16
   2d198:	1f07c83a 	sub	r3,r3,fp
   2d19c:	4926b03a 	or	r19,r9,r4
   2d1a0:	993fffcc 	andi	r4,r19,65535
   2d1a4:	980cd43a 	srli	r6,r19,16
   2d1a8:	220b383a 	mul	r5,r4,r8
   2d1ac:	21c5383a 	mul	r2,r4,r7
   2d1b0:	3211383a 	mul	r8,r6,r8
   2d1b4:	2808d43a 	srli	r4,r5,16
   2d1b8:	31cf383a 	mul	r7,r6,r7
   2d1bc:	4085883a 	add	r2,r8,r2
   2d1c0:	1105883a 	add	r2,r2,r4
   2d1c4:	1200022e 	bgeu	r2,r8,2d1d0 <__divdf3+0x580>
   2d1c8:	01000074 	movhi	r4,1
   2d1cc:	390f883a 	add	r7,r7,r4
   2d1d0:	1008d43a 	srli	r4,r2,16
   2d1d4:	1004943a 	slli	r2,r2,16
   2d1d8:	297fffcc 	andi	r5,r5,65535
   2d1dc:	390f883a 	add	r7,r7,r4
   2d1e0:	1145883a 	add	r2,r2,r5
   2d1e4:	19c06536 	bltu	r3,r7,2d37c <__divdf3+0x72c>
   2d1e8:	19c09f26 	beq	r3,r7,2d468 <__divdf3+0x818>
   2d1ec:	9cc00054 	ori	r19,r19,1
   2d1f0:	a100ffc4 	addi	r4,r20,1023
   2d1f4:	013f500e 	bge	zero,r4,2cf38 <_gp+0xffff10c4>
   2d1f8:	988001cc 	andi	r2,r19,7
   2d1fc:	10000726 	beq	r2,zero,2d21c <__divdf3+0x5cc>
   2d200:	98c003cc 	andi	r3,r19,15
   2d204:	00800104 	movi	r2,4
   2d208:	18800426 	beq	r3,r2,2d21c <__divdf3+0x5cc>
   2d20c:	9885883a 	add	r2,r19,r2
   2d210:	14e1803a 	cmpltu	r16,r2,r19
   2d214:	8c23883a 	add	r17,r17,r16
   2d218:	1027883a 	mov	r19,r2
   2d21c:	8880402c 	andhi	r2,r17,256
   2d220:	10000426 	beq	r2,zero,2d234 <__divdf3+0x5e4>
   2d224:	00bfc034 	movhi	r2,65280
   2d228:	10bfffc4 	addi	r2,r2,-1
   2d22c:	a1010004 	addi	r4,r20,1024
   2d230:	88a2703a 	and	r17,r17,r2
   2d234:	0081ff84 	movi	r2,2046
   2d238:	113edf16 	blt	r2,r4,2cdb8 <_gp+0xffff0f44>
   2d23c:	9826d0fa 	srli	r19,r19,3
   2d240:	8804977a 	slli	r2,r17,29
   2d244:	8820927a 	slli	r16,r17,9
   2d248:	2101ffcc 	andi	r4,r4,2047
   2d24c:	14e6b03a 	or	r19,r2,r19
   2d250:	800ad33a 	srli	r5,r16,12
   2d254:	9180004c 	andi	r6,r18,1
   2d258:	003edb06 	br	2cdc8 <_gp+0xffff0f54>
   2d25c:	008000c4 	movi	r2,3
   2d260:	4080a826 	beq	r8,r2,2d504 <__divdf3+0x8b4>
   2d264:	00800044 	movi	r2,1
   2d268:	4080551e 	bne	r8,r2,2d3c0 <__divdf3+0x770>
   2d26c:	e00d883a 	mov	r6,fp
   2d270:	0009883a 	mov	r4,zero
   2d274:	000b883a 	mov	r5,zero
   2d278:	0027883a 	mov	r19,zero
   2d27c:	003ed206 	br	2cdc8 <_gp+0xffff0f54>
   2d280:	00800434 	movhi	r2,16
   2d284:	89400234 	orhi	r5,r17,8
   2d288:	10bfffc4 	addi	r2,r2,-1
   2d28c:	b00d883a 	mov	r6,r22
   2d290:	288a703a 	and	r5,r5,r2
   2d294:	003f2606 	br	2cf30 <_gp+0xffff10bc>
   2d298:	d9800315 	stw	r6,12(sp)
   2d29c:	d9c00115 	stw	r7,4(sp)
   2d2a0:	002e9500 	call	2e950 <__clzsi2>
   2d2a4:	10c00804 	addi	r3,r2,32
   2d2a8:	010009c4 	movi	r4,39
   2d2ac:	d9800317 	ldw	r6,12(sp)
   2d2b0:	d9c00117 	ldw	r7,4(sp)
   2d2b4:	20fee30e 	bge	r4,r3,2ce44 <_gp+0xffff0fd0>
   2d2b8:	117ffe04 	addi	r5,r2,-8
   2d2bc:	9162983a 	sll	r17,r18,r5
   2d2c0:	0027883a 	mov	r19,zero
   2d2c4:	003ee606 	br	2ce60 <_gp+0xffff0fec>
   2d2c8:	3009883a 	mov	r4,r6
   2d2cc:	d9800315 	stw	r6,12(sp)
   2d2d0:	da000215 	stw	r8,8(sp)
   2d2d4:	da400015 	stw	r9,0(sp)
   2d2d8:	002e9500 	call	2e950 <__clzsi2>
   2d2dc:	10c00804 	addi	r3,r2,32
   2d2e0:	010009c4 	movi	r4,39
   2d2e4:	d9800317 	ldw	r6,12(sp)
   2d2e8:	da000217 	ldw	r8,8(sp)
   2d2ec:	da400017 	ldw	r9,0(sp)
   2d2f0:	20fef20e 	bge	r4,r3,2cebc <_gp+0xffff1048>
   2d2f4:	10bffe04 	addi	r2,r2,-8
   2d2f8:	a8a0983a 	sll	r16,r21,r2
   2d2fc:	002b883a 	mov	r21,zero
   2d300:	003ef506 	br	2ced8 <_gp+0xffff1064>
   2d304:	354d883a 	add	r6,r6,r21
   2d308:	3549803a 	cmpltu	r4,r6,r21
   2d30c:	2409883a 	add	r4,r4,r16
   2d310:	2089883a 	add	r4,r4,r2
   2d314:	88bfffc4 	addi	r2,r17,-1
   2d318:	81000c2e 	bgeu	r16,r4,2d34c <__divdf3+0x6fc>
   2d31c:	20c04436 	bltu	r4,r3,2d430 <__divdf3+0x7e0>
   2d320:	19006f26 	beq	r3,r4,2d4e0 <__divdf3+0x890>
   2d324:	20c7c83a 	sub	r3,r4,r3
   2d328:	1023883a 	mov	r17,r2
   2d32c:	003f6406 	br	2d0c0 <_gp+0xffff124c>
   2d330:	9d7f1736 	bltu	r19,r21,2cf90 <_gp+0xffff111c>
   2d334:	9806d07a 	srli	r3,r19,1
   2d338:	880497fa 	slli	r2,r17,31
   2d33c:	980c97fa 	slli	r6,r19,31
   2d340:	882cd07a 	srli	r22,r17,1
   2d344:	18a6b03a 	or	r19,r3,r2
   2d348:	003f1406 	br	2cf9c <_gp+0xffff1128>
   2d34c:	243ff51e 	bne	r4,r16,2d324 <_gp+0xffff14b0>
   2d350:	357ff22e 	bgeu	r6,r21,2d31c <_gp+0xffff14a8>
   2d354:	80c7c83a 	sub	r3,r16,r3
   2d358:	1023883a 	mov	r17,r2
   2d35c:	003f5806 	br	2d0c0 <_gp+0xffff124c>
   2d360:	1013883a 	mov	r9,r2
   2d364:	003f3d06 	br	2d05c <_gp+0xffff11e8>
   2d368:	1023883a 	mov	r17,r2
   2d36c:	003f2506 	br	2d004 <_gp+0xffff1190>
   2d370:	317fe436 	bltu	r6,r5,2d304 <_gp+0xffff1490>
   2d374:	0007883a 	mov	r3,zero
   2d378:	003f5106 	br	2d0c0 <_gp+0xffff124c>
   2d37c:	1c07883a 	add	r3,r3,r16
   2d380:	993fffc4 	addi	r4,r19,-1
   2d384:	1c000a2e 	bgeu	r3,r16,2d3b0 <__divdf3+0x760>
   2d388:	2027883a 	mov	r19,r4
   2d38c:	19ff971e 	bne	r3,r7,2d1ec <_gp+0xffff1378>
   2d390:	a8bf961e 	bne	r21,r2,2d1ec <_gp+0xffff1378>
   2d394:	003f9606 	br	2d1f0 <_gp+0xffff137c>
   2d398:	04ffffc4 	movi	r19,-1
   2d39c:	003f9406 	br	2d1f0 <_gp+0xffff137c>
   2d3a0:	100d883a 	mov	r6,r2
   2d3a4:	003f6106 	br	2d12c <_gp+0xffff12b8>
   2d3a8:	1013883a 	mov	r9,r2
   2d3ac:	003f7906 	br	2d194 <_gp+0xffff1320>
   2d3b0:	19c02636 	bltu	r3,r7,2d44c <__divdf3+0x7fc>
   2d3b4:	38c04d26 	beq	r7,r3,2d4ec <__divdf3+0x89c>
   2d3b8:	2027883a 	mov	r19,r4
   2d3bc:	003f8b06 	br	2d1ec <_gp+0xffff1378>
   2d3c0:	e025883a 	mov	r18,fp
   2d3c4:	003f8a06 	br	2d1f0 <_gp+0xffff137c>
   2d3c8:	008007c4 	movi	r2,31
   2d3cc:	14002a16 	blt	r2,r16,2d478 <__divdf3+0x828>
   2d3d0:	a5010784 	addi	r20,r20,1054
   2d3d4:	8d04983a 	sll	r2,r17,r20
   2d3d8:	9c06d83a 	srl	r3,r19,r16
   2d3dc:	9d28983a 	sll	r20,r19,r20
   2d3e0:	8c20d83a 	srl	r16,r17,r16
   2d3e4:	1886b03a 	or	r3,r3,r2
   2d3e8:	a004c03a 	cmpne	r2,r20,zero
   2d3ec:	1884b03a 	or	r2,r3,r2
   2d3f0:	10c001cc 	andi	r3,r2,7
   2d3f4:	18000726 	beq	r3,zero,2d414 <__divdf3+0x7c4>
   2d3f8:	110003cc 	andi	r4,r2,15
   2d3fc:	00c00104 	movi	r3,4
   2d400:	20c00426 	beq	r4,r3,2d414 <__divdf3+0x7c4>
   2d404:	10c00104 	addi	r3,r2,4
   2d408:	1885803a 	cmpltu	r2,r3,r2
   2d40c:	80a1883a 	add	r16,r16,r2
   2d410:	1805883a 	mov	r2,r3
   2d414:	80c0202c 	andhi	r3,r16,128
   2d418:	18002d26 	beq	r3,zero,2d4d0 <__divdf3+0x880>
   2d41c:	9180004c 	andi	r6,r18,1
   2d420:	01000044 	movi	r4,1
   2d424:	000b883a 	mov	r5,zero
   2d428:	0027883a 	mov	r19,zero
   2d42c:	003e6606 	br	2cdc8 <_gp+0xffff0f54>
   2d430:	354d883a 	add	r6,r6,r21
   2d434:	356d803a 	cmpltu	r22,r6,r21
   2d438:	b42d883a 	add	r22,r22,r16
   2d43c:	b12d883a 	add	r22,r22,r4
   2d440:	8c7fff84 	addi	r17,r17,-2
   2d444:	b0c7c83a 	sub	r3,r22,r3
   2d448:	003f1d06 	br	2d0c0 <_gp+0xffff124c>
   2d44c:	ad4b883a 	add	r5,r21,r21
   2d450:	2d6b803a 	cmpltu	r21,r5,r21
   2d454:	ac2b883a 	add	r21,r21,r16
   2d458:	1d47883a 	add	r3,r3,r21
   2d45c:	993fff84 	addi	r4,r19,-2
   2d460:	282b883a 	mov	r21,r5
   2d464:	003fc806 	br	2d388 <_gp+0xffff1514>
   2d468:	103fc41e 	bne	r2,zero,2d37c <_gp+0xffff1508>
   2d46c:	002b883a 	mov	r21,zero
   2d470:	a8bf5e1e 	bne	r21,r2,2d1ec <_gp+0xffff1378>
   2d474:	003f5e06 	br	2d1f0 <_gp+0xffff137c>
   2d478:	00bef884 	movi	r2,-1054
   2d47c:	1505c83a 	sub	r2,r2,r20
   2d480:	00c00804 	movi	r3,32
   2d484:	8884d83a 	srl	r2,r17,r2
   2d488:	80c01c26 	beq	r16,r3,2d4fc <__divdf3+0x8ac>
   2d48c:	a0c10f84 	addi	r3,r20,1086
   2d490:	88c6983a 	sll	r3,r17,r3
   2d494:	1cc6b03a 	or	r3,r3,r19
   2d498:	1806c03a 	cmpne	r3,r3,zero
   2d49c:	1884b03a 	or	r2,r3,r2
   2d4a0:	140001cc 	andi	r16,r2,7
   2d4a4:	8000061e 	bne	r16,zero,2d4c0 <__divdf3+0x870>
   2d4a8:	000b883a 	mov	r5,zero
   2d4ac:	1004d0fa 	srli	r2,r2,3
   2d4b0:	9180004c 	andi	r6,r18,1
   2d4b4:	0009883a 	mov	r4,zero
   2d4b8:	1426b03a 	or	r19,r2,r16
   2d4bc:	003e4206 	br	2cdc8 <_gp+0xffff0f54>
   2d4c0:	110003cc 	andi	r4,r2,15
   2d4c4:	00c00104 	movi	r3,4
   2d4c8:	0021883a 	mov	r16,zero
   2d4cc:	20ffcd1e 	bne	r4,r3,2d404 <_gp+0xffff1590>
   2d4d0:	800a927a 	slli	r5,r16,9
   2d4d4:	8020977a 	slli	r16,r16,29
   2d4d8:	280ad33a 	srli	r5,r5,12
   2d4dc:	003ff306 	br	2d4ac <_gp+0xffff1638>
   2d4e0:	317fd336 	bltu	r6,r5,2d430 <_gp+0xffff15bc>
   2d4e4:	1023883a 	mov	r17,r2
   2d4e8:	003fa206 	br	2d374 <_gp+0xffff1500>
   2d4ec:	a8bfd736 	bltu	r21,r2,2d44c <_gp+0xffff15d8>
   2d4f0:	2027883a 	mov	r19,r4
   2d4f4:	a8bf3d1e 	bne	r21,r2,2d1ec <_gp+0xffff1378>
   2d4f8:	003f3d06 	br	2d1f0 <_gp+0xffff137c>
   2d4fc:	0007883a 	mov	r3,zero
   2d500:	003fe406 	br	2d494 <_gp+0xffff1620>
   2d504:	00800434 	movhi	r2,16
   2d508:	89400234 	orhi	r5,r17,8
   2d50c:	10bfffc4 	addi	r2,r2,-1
   2d510:	e00d883a 	mov	r6,fp
   2d514:	288a703a 	and	r5,r5,r2
   2d518:	003e8506 	br	2cf30 <_gp+0xffff10bc>

0002d51c <__eqdf2>:
   2d51c:	2804d53a 	srli	r2,r5,20
   2d520:	3806d53a 	srli	r3,r7,20
   2d524:	02000434 	movhi	r8,16
   2d528:	423fffc4 	addi	r8,r8,-1
   2d52c:	1081ffcc 	andi	r2,r2,2047
   2d530:	0241ffc4 	movi	r9,2047
   2d534:	2a14703a 	and	r10,r5,r8
   2d538:	18c1ffcc 	andi	r3,r3,2047
   2d53c:	3a10703a 	and	r8,r7,r8
   2d540:	280ad7fa 	srli	r5,r5,31
   2d544:	380ed7fa 	srli	r7,r7,31
   2d548:	12400f26 	beq	r2,r9,2d588 <__eqdf2+0x6c>
   2d54c:	0241ffc4 	movi	r9,2047
   2d550:	1a400326 	beq	r3,r9,2d560 <__eqdf2+0x44>
   2d554:	10c00526 	beq	r2,r3,2d56c <__eqdf2+0x50>
   2d558:	00800044 	movi	r2,1
   2d55c:	f800283a 	ret
   2d560:	4192b03a 	or	r9,r8,r6
   2d564:	483ffc1e 	bne	r9,zero,2d558 <_gp+0xffff16e4>
   2d568:	10fffb1e 	bne	r2,r3,2d558 <_gp+0xffff16e4>
   2d56c:	523ffa1e 	bne	r10,r8,2d558 <_gp+0xffff16e4>
   2d570:	21bff91e 	bne	r4,r6,2d558 <_gp+0xffff16e4>
   2d574:	29c00826 	beq	r5,r7,2d598 <__eqdf2+0x7c>
   2d578:	103ff71e 	bne	r2,zero,2d558 <_gp+0xffff16e4>
   2d57c:	5104b03a 	or	r2,r10,r4
   2d580:	1004c03a 	cmpne	r2,r2,zero
   2d584:	f800283a 	ret
   2d588:	5112b03a 	or	r9,r10,r4
   2d58c:	483fef26 	beq	r9,zero,2d54c <_gp+0xffff16d8>
   2d590:	00800044 	movi	r2,1
   2d594:	f800283a 	ret
   2d598:	0005883a 	mov	r2,zero
   2d59c:	f800283a 	ret

0002d5a0 <__gedf2>:
   2d5a0:	2804d53a 	srli	r2,r5,20
   2d5a4:	3806d53a 	srli	r3,r7,20
   2d5a8:	02000434 	movhi	r8,16
   2d5ac:	423fffc4 	addi	r8,r8,-1
   2d5b0:	0241ffc4 	movi	r9,2047
   2d5b4:	1081ffcc 	andi	r2,r2,2047
   2d5b8:	2a14703a 	and	r10,r5,r8
   2d5bc:	1a46703a 	and	r3,r3,r9
   2d5c0:	3a10703a 	and	r8,r7,r8
   2d5c4:	280ad7fa 	srli	r5,r5,31
   2d5c8:	380ed7fa 	srli	r7,r7,31
   2d5cc:	12400b26 	beq	r2,r9,2d5fc <__gedf2+0x5c>
   2d5d0:	1a401626 	beq	r3,r9,2d62c <__gedf2+0x8c>
   2d5d4:	10000c1e 	bne	r2,zero,2d608 <__gedf2+0x68>
   2d5d8:	5112b03a 	or	r9,r10,r4
   2d5dc:	4813003a 	cmpeq	r9,r9,zero
   2d5e0:	4817883a 	mov	r11,r9
   2d5e4:	18000c1e 	bne	r3,zero,2d618 <__gedf2+0x78>
   2d5e8:	4198b03a 	or	r12,r8,r6
   2d5ec:	60000a1e 	bne	r12,zero,2d618 <__gedf2+0x78>
   2d5f0:	48001326 	beq	r9,zero,2d640 <__gedf2+0xa0>
   2d5f4:	0005883a 	mov	r2,zero
   2d5f8:	f800283a 	ret
   2d5fc:	5112b03a 	or	r9,r10,r4
   2d600:	4800191e 	bne	r9,zero,2d668 <__gedf2+0xc8>
   2d604:	18800926 	beq	r3,r2,2d62c <__gedf2+0x8c>
   2d608:	18000b1e 	bne	r3,zero,2d638 <__gedf2+0x98>
   2d60c:	4192b03a 	or	r9,r8,r6
   2d610:	0017883a 	mov	r11,zero
   2d614:	48000a26 	beq	r9,zero,2d640 <__gedf2+0xa0>
   2d618:	39c03fcc 	andi	r7,r7,255
   2d61c:	58000726 	beq	r11,zero,2d63c <__gedf2+0x9c>
   2d620:	3800081e 	bne	r7,zero,2d644 <__gedf2+0xa4>
   2d624:	00bfffc4 	movi	r2,-1
   2d628:	f800283a 	ret
   2d62c:	4192b03a 	or	r9,r8,r6
   2d630:	48000d1e 	bne	r9,zero,2d668 <__gedf2+0xc8>
   2d634:	103fe826 	beq	r2,zero,2d5d8 <_gp+0xffff1764>
   2d638:	39c03fcc 	andi	r7,r7,255
   2d63c:	29c00326 	beq	r5,r7,2d64c <__gedf2+0xac>
   2d640:	283ff81e 	bne	r5,zero,2d624 <_gp+0xffff17b0>
   2d644:	00800044 	movi	r2,1
   2d648:	f800283a 	ret
   2d64c:	18bffc16 	blt	r3,r2,2d640 <_gp+0xffff17cc>
   2d650:	10c00316 	blt	r2,r3,2d660 <__gedf2+0xc0>
   2d654:	42bffa36 	bltu	r8,r10,2d640 <_gp+0xffff17cc>
   2d658:	52000526 	beq	r10,r8,2d670 <__gedf2+0xd0>
   2d65c:	523fe52e 	bgeu	r10,r8,2d5f4 <_gp+0xffff1780>
   2d660:	283ff026 	beq	r5,zero,2d624 <_gp+0xffff17b0>
   2d664:	003ff706 	br	2d644 <_gp+0xffff17d0>
   2d668:	00bfff84 	movi	r2,-2
   2d66c:	f800283a 	ret
   2d670:	313ff336 	bltu	r6,r4,2d640 <_gp+0xffff17cc>
   2d674:	21bfdf2e 	bgeu	r4,r6,2d5f4 <_gp+0xffff1780>
   2d678:	283fea26 	beq	r5,zero,2d624 <_gp+0xffff17b0>
   2d67c:	003ff106 	br	2d644 <_gp+0xffff17d0>

0002d680 <__ledf2>:
   2d680:	2804d53a 	srli	r2,r5,20
   2d684:	3810d53a 	srli	r8,r7,20
   2d688:	00c00434 	movhi	r3,16
   2d68c:	18ffffc4 	addi	r3,r3,-1
   2d690:	0241ffc4 	movi	r9,2047
   2d694:	1081ffcc 	andi	r2,r2,2047
   2d698:	28d4703a 	and	r10,r5,r3
   2d69c:	4250703a 	and	r8,r8,r9
   2d6a0:	38c6703a 	and	r3,r7,r3
   2d6a4:	280ad7fa 	srli	r5,r5,31
   2d6a8:	380ed7fa 	srli	r7,r7,31
   2d6ac:	12400b26 	beq	r2,r9,2d6dc <__ledf2+0x5c>
   2d6b0:	42401926 	beq	r8,r9,2d718 <__ledf2+0x98>
   2d6b4:	10000c1e 	bne	r2,zero,2d6e8 <__ledf2+0x68>
   2d6b8:	5112b03a 	or	r9,r10,r4
   2d6bc:	4813003a 	cmpeq	r9,r9,zero
   2d6c0:	4817883a 	mov	r11,r9
   2d6c4:	40000f26 	beq	r8,zero,2d704 <__ledf2+0x84>
   2d6c8:	39c03fcc 	andi	r7,r7,255
   2d6cc:	58001826 	beq	r11,zero,2d730 <__ledf2+0xb0>
   2d6d0:	38000a1e 	bne	r7,zero,2d6fc <__ledf2+0x7c>
   2d6d4:	00bfffc4 	movi	r2,-1
   2d6d8:	f800283a 	ret
   2d6dc:	5112b03a 	or	r9,r10,r4
   2d6e0:	48000f1e 	bne	r9,zero,2d720 <__ledf2+0xa0>
   2d6e4:	40800c26 	beq	r8,r2,2d718 <__ledf2+0x98>
   2d6e8:	4000101e 	bne	r8,zero,2d72c <__ledf2+0xac>
   2d6ec:	1992b03a 	or	r9,r3,r6
   2d6f0:	0017883a 	mov	r11,zero
   2d6f4:	483ff41e 	bne	r9,zero,2d6c8 <_gp+0xffff1854>
   2d6f8:	283ff61e 	bne	r5,zero,2d6d4 <_gp+0xffff1860>
   2d6fc:	00800044 	movi	r2,1
   2d700:	f800283a 	ret
   2d704:	1998b03a 	or	r12,r3,r6
   2d708:	603fef1e 	bne	r12,zero,2d6c8 <_gp+0xffff1854>
   2d70c:	483ffa26 	beq	r9,zero,2d6f8 <_gp+0xffff1884>
   2d710:	0005883a 	mov	r2,zero
   2d714:	f800283a 	ret
   2d718:	1992b03a 	or	r9,r3,r6
   2d71c:	48000226 	beq	r9,zero,2d728 <__ledf2+0xa8>
   2d720:	00800084 	movi	r2,2
   2d724:	f800283a 	ret
   2d728:	103fe326 	beq	r2,zero,2d6b8 <_gp+0xffff1844>
   2d72c:	39c03fcc 	andi	r7,r7,255
   2d730:	29fff11e 	bne	r5,r7,2d6f8 <_gp+0xffff1884>
   2d734:	40bff016 	blt	r8,r2,2d6f8 <_gp+0xffff1884>
   2d738:	12000316 	blt	r2,r8,2d748 <__ledf2+0xc8>
   2d73c:	1abfee36 	bltu	r3,r10,2d6f8 <_gp+0xffff1884>
   2d740:	50c00326 	beq	r10,r3,2d750 <__ledf2+0xd0>
   2d744:	50fff22e 	bgeu	r10,r3,2d710 <_gp+0xffff189c>
   2d748:	283fe226 	beq	r5,zero,2d6d4 <_gp+0xffff1860>
   2d74c:	003feb06 	br	2d6fc <_gp+0xffff1888>
   2d750:	313fe936 	bltu	r6,r4,2d6f8 <_gp+0xffff1884>
   2d754:	21bfee2e 	bgeu	r4,r6,2d710 <_gp+0xffff189c>
   2d758:	283fde26 	beq	r5,zero,2d6d4 <_gp+0xffff1860>
   2d75c:	003fe706 	br	2d6fc <_gp+0xffff1888>

0002d760 <__muldf3>:
   2d760:	defff204 	addi	sp,sp,-56
   2d764:	2804d53a 	srli	r2,r5,20
   2d768:	dd800a15 	stw	r22,40(sp)
   2d76c:	282cd7fa 	srli	r22,r5,31
   2d770:	dc000415 	stw	r16,16(sp)
   2d774:	04000434 	movhi	r16,16
   2d778:	df000c15 	stw	fp,48(sp)
   2d77c:	dd000815 	stw	r20,32(sp)
   2d780:	dcc00715 	stw	r19,28(sp)
   2d784:	dc800615 	stw	r18,24(sp)
   2d788:	dc400515 	stw	r17,20(sp)
   2d78c:	843fffc4 	addi	r16,r16,-1
   2d790:	dfc00d15 	stw	ra,52(sp)
   2d794:	ddc00b15 	stw	r23,44(sp)
   2d798:	dd400915 	stw	r21,36(sp)
   2d79c:	1501ffcc 	andi	r20,r2,2047
   2d7a0:	2023883a 	mov	r17,r4
   2d7a4:	2025883a 	mov	r18,r4
   2d7a8:	2c20703a 	and	r16,r5,r16
   2d7ac:	b027883a 	mov	r19,r22
   2d7b0:	b7003fcc 	andi	fp,r22,255
   2d7b4:	a0005926 	beq	r20,zero,2d91c <__muldf3+0x1bc>
   2d7b8:	0081ffc4 	movi	r2,2047
   2d7bc:	a0803426 	beq	r20,r2,2d890 <__muldf3+0x130>
   2d7c0:	84000434 	orhi	r16,r16,16
   2d7c4:	2004d77a 	srli	r2,r4,29
   2d7c8:	802090fa 	slli	r16,r16,3
   2d7cc:	202490fa 	slli	r18,r4,3
   2d7d0:	a53f0044 	addi	r20,r20,-1023
   2d7d4:	80a0b03a 	or	r16,r16,r2
   2d7d8:	002b883a 	mov	r21,zero
   2d7dc:	0015883a 	mov	r10,zero
   2d7e0:	3812d53a 	srli	r9,r7,20
   2d7e4:	3806d7fa 	srli	r3,r7,31
   2d7e8:	02000434 	movhi	r8,16
   2d7ec:	423fffc4 	addi	r8,r8,-1
   2d7f0:	4941ffcc 	andi	r5,r9,2047
   2d7f4:	302f883a 	mov	r23,r6
   2d7f8:	3a22703a 	and	r17,r7,r8
   2d7fc:	1ac03fcc 	andi	r11,r3,255
   2d800:	28006226 	beq	r5,zero,2d98c <__muldf3+0x22c>
   2d804:	0081ffc4 	movi	r2,2047
   2d808:	28805a26 	beq	r5,r2,2d974 <__muldf3+0x214>
   2d80c:	8a000434 	orhi	r8,r17,16
   2d810:	3004d77a 	srli	r2,r6,29
   2d814:	401090fa 	slli	r8,r8,3
   2d818:	302e90fa 	slli	r23,r6,3
   2d81c:	297f0044 	addi	r5,r5,-1023
   2d820:	40a2b03a 	or	r17,r8,r2
   2d824:	0013883a 	mov	r9,zero
   2d828:	4d4cb03a 	or	r6,r9,r21
   2d82c:	300c90ba 	slli	r6,r6,2
   2d830:	020000f4 	movhi	r8,3
   2d834:	42361404 	addi	r8,r8,-10160
   2d838:	320d883a 	add	r6,r6,r8
   2d83c:	31800017 	ldw	r6,0(r6)
   2d840:	a14b883a 	add	r5,r20,r5
   2d844:	1dacf03a 	xor	r22,r3,r22
   2d848:	2b000044 	addi	r12,r5,1
   2d84c:	3000683a 	jmp	r6
   2d850:	0002da8c 	andi	zero,zero,2922
   2d854:	0002da78 	rdprs	zero,zero,2921
   2d858:	0002da78 	rdprs	zero,zero,2921
   2d85c:	0002da64 	muli	zero,zero,2921
   2d860:	0002d8ac 	andhi	zero,zero,2914
   2d864:	0002d8ac 	andhi	zero,zero,2914
   2d868:	0002da4c 	andi	zero,zero,2921
   2d86c:	0002da64 	muli	zero,zero,2921
   2d870:	0002d8ac 	andhi	zero,zero,2914
   2d874:	0002da4c 	andi	zero,zero,2921
   2d878:	0002d8ac 	andhi	zero,zero,2914
   2d87c:	0002da64 	muli	zero,zero,2921
   2d880:	0002d8b0 	cmpltui	zero,zero,2914
   2d884:	0002d8b0 	cmpltui	zero,zero,2914
   2d888:	0002d8b0 	cmpltui	zero,zero,2914
   2d88c:	0002dc88 	cmpgei	zero,zero,2930
   2d890:	8104b03a 	or	r2,r16,r4
   2d894:	10006a1e 	bne	r2,zero,2da40 <__muldf3+0x2e0>
   2d898:	05400204 	movi	r21,8
   2d89c:	0021883a 	mov	r16,zero
   2d8a0:	0025883a 	mov	r18,zero
   2d8a4:	02800084 	movi	r10,2
   2d8a8:	003fcd06 	br	2d7e0 <_gp+0xffff196c>
   2d8ac:	b039883a 	mov	fp,r22
   2d8b0:	00800084 	movi	r2,2
   2d8b4:	50804e1e 	bne	r10,r2,2d9f0 <__muldf3+0x290>
   2d8b8:	e4c0004c 	andi	r19,fp,1
   2d8bc:	0101ffc4 	movi	r4,2047
   2d8c0:	0021883a 	mov	r16,zero
   2d8c4:	0025883a 	mov	r18,zero
   2d8c8:	2008953a 	slli	r4,r4,20
   2d8cc:	98c03fcc 	andi	r3,r19,255
   2d8d0:	01400434 	movhi	r5,16
   2d8d4:	297fffc4 	addi	r5,r5,-1
   2d8d8:	180697fa 	slli	r3,r3,31
   2d8dc:	8160703a 	and	r16,r16,r5
   2d8e0:	8120b03a 	or	r16,r16,r4
   2d8e4:	80c6b03a 	or	r3,r16,r3
   2d8e8:	9005883a 	mov	r2,r18
   2d8ec:	dfc00d17 	ldw	ra,52(sp)
   2d8f0:	df000c17 	ldw	fp,48(sp)
   2d8f4:	ddc00b17 	ldw	r23,44(sp)
   2d8f8:	dd800a17 	ldw	r22,40(sp)
   2d8fc:	dd400917 	ldw	r21,36(sp)
   2d900:	dd000817 	ldw	r20,32(sp)
   2d904:	dcc00717 	ldw	r19,28(sp)
   2d908:	dc800617 	ldw	r18,24(sp)
   2d90c:	dc400517 	ldw	r17,20(sp)
   2d910:	dc000417 	ldw	r16,16(sp)
   2d914:	dec00e04 	addi	sp,sp,56
   2d918:	f800283a 	ret
   2d91c:	8104b03a 	or	r2,r16,r4
   2d920:	10004226 	beq	r2,zero,2da2c <__muldf3+0x2cc>
   2d924:	8000f926 	beq	r16,zero,2dd0c <__muldf3+0x5ac>
   2d928:	8009883a 	mov	r4,r16
   2d92c:	d9800315 	stw	r6,12(sp)
   2d930:	d9c00015 	stw	r7,0(sp)
   2d934:	002e9500 	call	2e950 <__clzsi2>
   2d938:	d9800317 	ldw	r6,12(sp)
   2d93c:	d9c00017 	ldw	r7,0(sp)
   2d940:	1007883a 	mov	r3,r2
   2d944:	01000a04 	movi	r4,40
   2d948:	18bffe04 	addi	r2,r3,-8
   2d94c:	20c9c83a 	sub	r4,r4,r3
   2d950:	80a0983a 	sll	r16,r16,r2
   2d954:	8908d83a 	srl	r4,r17,r4
   2d958:	88a4983a 	sll	r18,r17,r2
   2d95c:	2420b03a 	or	r16,r4,r16
   2d960:	017f0344 	movi	r5,-1011
   2d964:	28e9c83a 	sub	r20,r5,r3
   2d968:	002b883a 	mov	r21,zero
   2d96c:	0015883a 	mov	r10,zero
   2d970:	003f9b06 	br	2d7e0 <_gp+0xffff196c>
   2d974:	8984b03a 	or	r2,r17,r6
   2d978:	10002a1e 	bne	r2,zero,2da24 <__muldf3+0x2c4>
   2d97c:	0023883a 	mov	r17,zero
   2d980:	002f883a 	mov	r23,zero
   2d984:	02400084 	movi	r9,2
   2d988:	003fa706 	br	2d828 <_gp+0xffff19b4>
   2d98c:	8984b03a 	or	r2,r17,r6
   2d990:	10002026 	beq	r2,zero,2da14 <__muldf3+0x2b4>
   2d994:	8800cc26 	beq	r17,zero,2dcc8 <__muldf3+0x568>
   2d998:	8809883a 	mov	r4,r17
   2d99c:	d8c00215 	stw	r3,8(sp)
   2d9a0:	d9800315 	stw	r6,12(sp)
   2d9a4:	da800015 	stw	r10,0(sp)
   2d9a8:	dac00115 	stw	r11,4(sp)
   2d9ac:	002e9500 	call	2e950 <__clzsi2>
   2d9b0:	d8c00217 	ldw	r3,8(sp)
   2d9b4:	d9800317 	ldw	r6,12(sp)
   2d9b8:	da800017 	ldw	r10,0(sp)
   2d9bc:	dac00117 	ldw	r11,4(sp)
   2d9c0:	1009883a 	mov	r4,r2
   2d9c4:	01400a04 	movi	r5,40
   2d9c8:	25fffe04 	addi	r23,r4,-8
   2d9cc:	290bc83a 	sub	r5,r5,r4
   2d9d0:	8dd0983a 	sll	r8,r17,r23
   2d9d4:	314ad83a 	srl	r5,r6,r5
   2d9d8:	35ee983a 	sll	r23,r6,r23
   2d9dc:	2a22b03a 	or	r17,r5,r8
   2d9e0:	017f0344 	movi	r5,-1011
   2d9e4:	290bc83a 	sub	r5,r5,r4
   2d9e8:	0013883a 	mov	r9,zero
   2d9ec:	003f8e06 	br	2d828 <_gp+0xffff19b4>
   2d9f0:	008000c4 	movi	r2,3
   2d9f4:	50811d26 	beq	r10,r2,2de6c <__muldf3+0x70c>
   2d9f8:	00800044 	movi	r2,1
   2d9fc:	5080e01e 	bne	r10,r2,2dd80 <__muldf3+0x620>
   2da00:	e0a6703a 	and	r19,fp,r2
   2da04:	0009883a 	mov	r4,zero
   2da08:	0021883a 	mov	r16,zero
   2da0c:	0025883a 	mov	r18,zero
   2da10:	003fad06 	br	2d8c8 <_gp+0xffff1a54>
   2da14:	0023883a 	mov	r17,zero
   2da18:	002f883a 	mov	r23,zero
   2da1c:	02400044 	movi	r9,1
   2da20:	003f8106 	br	2d828 <_gp+0xffff19b4>
   2da24:	024000c4 	movi	r9,3
   2da28:	003f7f06 	br	2d828 <_gp+0xffff19b4>
   2da2c:	05400104 	movi	r21,4
   2da30:	0021883a 	mov	r16,zero
   2da34:	0025883a 	mov	r18,zero
   2da38:	02800044 	movi	r10,1
   2da3c:	003f6806 	br	2d7e0 <_gp+0xffff196c>
   2da40:	05400304 	movi	r21,12
   2da44:	028000c4 	movi	r10,3
   2da48:	003f6506 	br	2d7e0 <_gp+0xffff196c>
   2da4c:	04000434 	movhi	r16,16
   2da50:	0027883a 	mov	r19,zero
   2da54:	843fffc4 	addi	r16,r16,-1
   2da58:	04bfffc4 	movi	r18,-1
   2da5c:	0101ffc4 	movi	r4,2047
   2da60:	003f9906 	br	2d8c8 <_gp+0xffff1a54>
   2da64:	8821883a 	mov	r16,r17
   2da68:	b825883a 	mov	r18,r23
   2da6c:	5839883a 	mov	fp,r11
   2da70:	4815883a 	mov	r10,r9
   2da74:	003f8e06 	br	2d8b0 <_gp+0xffff1a3c>
   2da78:	8821883a 	mov	r16,r17
   2da7c:	b825883a 	mov	r18,r23
   2da80:	b039883a 	mov	fp,r22
   2da84:	4815883a 	mov	r10,r9
   2da88:	003f8906 	br	2d8b0 <_gp+0xffff1a3c>
   2da8c:	b80cd43a 	srli	r6,r23,16
   2da90:	9006d43a 	srli	r3,r18,16
   2da94:	90bfffcc 	andi	r2,r18,65535
   2da98:	bdffffcc 	andi	r23,r23,65535
   2da9c:	b891383a 	mul	r8,r23,r2
   2daa0:	b8c9383a 	mul	r4,r23,r3
   2daa4:	309b383a 	mul	r13,r6,r2
   2daa8:	400ed43a 	srli	r7,r8,16
   2daac:	30df383a 	mul	r15,r6,r3
   2dab0:	235b883a 	add	r13,r4,r13
   2dab4:	69db883a 	add	r13,r13,r7
   2dab8:	6900022e 	bgeu	r13,r4,2dac4 <__muldf3+0x364>
   2dabc:	01000074 	movhi	r4,1
   2dac0:	791f883a 	add	r15,r15,r4
   2dac4:	8828d43a 	srli	r20,r17,16
   2dac8:	8c7fffcc 	andi	r17,r17,65535
   2dacc:	888f383a 	mul	r7,r17,r2
   2dad0:	88d3383a 	mul	r9,r17,r3
   2dad4:	a0a5383a 	mul	r18,r20,r2
   2dad8:	3816d43a 	srli	r11,r7,16
   2dadc:	6814943a 	slli	r10,r13,16
   2dae0:	4ca5883a 	add	r18,r9,r18
   2dae4:	423fffcc 	andi	r8,r8,65535
   2dae8:	92e5883a 	add	r18,r18,r11
   2daec:	6808d43a 	srli	r4,r13,16
   2daf0:	5215883a 	add	r10,r10,r8
   2daf4:	a0c7383a 	mul	r3,r20,r3
   2daf8:	9240022e 	bgeu	r18,r9,2db04 <__muldf3+0x3a4>
   2dafc:	00800074 	movhi	r2,1
   2db00:	1887883a 	add	r3,r3,r2
   2db04:	802ad43a 	srli	r21,r16,16
   2db08:	80bfffcc 	andi	r2,r16,65535
   2db0c:	b893383a 	mul	r9,r23,r2
   2db10:	3091383a 	mul	r8,r6,r2
   2db14:	bd6f383a 	mul	r23,r23,r21
   2db18:	9026943a 	slli	r19,r18,16
   2db1c:	481ad43a 	srli	r13,r9,16
   2db20:	9024d43a 	srli	r18,r18,16
   2db24:	39ffffcc 	andi	r7,r7,65535
   2db28:	ba11883a 	add	r8,r23,r8
   2db2c:	99e7883a 	add	r19,r19,r7
   2db30:	4351883a 	add	r8,r8,r13
   2db34:	1c97883a 	add	r11,r3,r18
   2db38:	354d383a 	mul	r6,r6,r21
   2db3c:	9925883a 	add	r18,r19,r4
   2db40:	45c0022e 	bgeu	r8,r23,2db4c <__muldf3+0x3ec>
   2db44:	00c00074 	movhi	r3,1
   2db48:	30cd883a 	add	r6,r6,r3
   2db4c:	8889383a 	mul	r4,r17,r2
   2db50:	8d63383a 	mul	r17,r17,r21
   2db54:	a085383a 	mul	r2,r20,r2
   2db58:	200ed43a 	srli	r7,r4,16
   2db5c:	401cd43a 	srli	r14,r8,16
   2db60:	401a943a 	slli	r13,r8,16
   2db64:	8885883a 	add	r2,r17,r2
   2db68:	4a3fffcc 	andi	r8,r9,65535
   2db6c:	11c5883a 	add	r2,r2,r7
   2db70:	339d883a 	add	r14,r6,r14
   2db74:	6a11883a 	add	r8,r13,r8
   2db78:	a561383a 	mul	r16,r20,r21
   2db7c:	1440022e 	bgeu	r2,r17,2db88 <__muldf3+0x428>
   2db80:	00c00074 	movhi	r3,1
   2db84:	80e1883a 	add	r16,r16,r3
   2db88:	1006943a 	slli	r3,r2,16
   2db8c:	213fffcc 	andi	r4,r4,65535
   2db90:	93db883a 	add	r13,r18,r15
   2db94:	1909883a 	add	r4,r3,r4
   2db98:	22c7883a 	add	r3,r4,r11
   2db9c:	6cd3803a 	cmpltu	r9,r13,r19
   2dba0:	6a09883a 	add	r4,r13,r8
   2dba4:	1a5b883a 	add	r13,r3,r9
   2dba8:	2211803a 	cmpltu	r8,r4,r8
   2dbac:	734d883a 	add	r6,r14,r13
   2dbb0:	100ed43a 	srli	r7,r2,16
   2dbb4:	6a53803a 	cmpltu	r9,r13,r9
   2dbb8:	3205883a 	add	r2,r6,r8
   2dbbc:	1ac7803a 	cmpltu	r3,r3,r11
   2dbc0:	1211803a 	cmpltu	r8,r2,r8
   2dbc4:	48c6b03a 	or	r3,r9,r3
   2dbc8:	338d803a 	cmpltu	r6,r6,r14
   2dbcc:	19c7883a 	add	r3,r3,r7
   2dbd0:	418cb03a 	or	r6,r8,r6
   2dbd4:	1987883a 	add	r3,r3,r6
   2dbd8:	2024927a 	slli	r18,r4,9
   2dbdc:	1c07883a 	add	r3,r3,r16
   2dbe0:	1806927a 	slli	r3,r3,9
   2dbe4:	1020d5fa 	srli	r16,r2,23
   2dbe8:	2008d5fa 	srli	r4,r4,23
   2dbec:	9294b03a 	or	r10,r18,r10
   2dbf0:	1004927a 	slli	r2,r2,9
   2dbf4:	5024c03a 	cmpne	r18,r10,zero
   2dbf8:	1c20b03a 	or	r16,r3,r16
   2dbfc:	9108b03a 	or	r4,r18,r4
   2dc00:	80c0402c 	andhi	r3,r16,256
   2dc04:	20a4b03a 	or	r18,r4,r2
   2dc08:	18000726 	beq	r3,zero,2dc28 <__muldf3+0x4c8>
   2dc0c:	9006d07a 	srli	r3,r18,1
   2dc10:	800897fa 	slli	r4,r16,31
   2dc14:	9080004c 	andi	r2,r18,1
   2dc18:	8020d07a 	srli	r16,r16,1
   2dc1c:	10c4b03a 	or	r2,r2,r3
   2dc20:	1124b03a 	or	r18,r2,r4
   2dc24:	600b883a 	mov	r5,r12
   2dc28:	2900ffc4 	addi	r4,r5,1023
   2dc2c:	01004b0e 	bge	zero,r4,2dd5c <__muldf3+0x5fc>
   2dc30:	908001cc 	andi	r2,r18,7
   2dc34:	10000726 	beq	r2,zero,2dc54 <__muldf3+0x4f4>
   2dc38:	90c003cc 	andi	r3,r18,15
   2dc3c:	00800104 	movi	r2,4
   2dc40:	18800426 	beq	r3,r2,2dc54 <__muldf3+0x4f4>
   2dc44:	9087883a 	add	r3,r18,r2
   2dc48:	1c85803a 	cmpltu	r2,r3,r18
   2dc4c:	80a1883a 	add	r16,r16,r2
   2dc50:	1825883a 	mov	r18,r3
   2dc54:	8080402c 	andhi	r2,r16,256
   2dc58:	10000426 	beq	r2,zero,2dc6c <__muldf3+0x50c>
   2dc5c:	00bfc034 	movhi	r2,65280
   2dc60:	10bfffc4 	addi	r2,r2,-1
   2dc64:	29010004 	addi	r4,r5,1024
   2dc68:	80a0703a 	and	r16,r16,r2
   2dc6c:	0081ff84 	movi	r2,2046
   2dc70:	1100320e 	bge	r2,r4,2dd3c <__muldf3+0x5dc>
   2dc74:	b4c0004c 	andi	r19,r22,1
   2dc78:	0101ffc4 	movi	r4,2047
   2dc7c:	0021883a 	mov	r16,zero
   2dc80:	0025883a 	mov	r18,zero
   2dc84:	003f1006 	br	2d8c8 <_gp+0xffff1a54>
   2dc88:	8080022c 	andhi	r2,r16,8
   2dc8c:	10000926 	beq	r2,zero,2dcb4 <__muldf3+0x554>
   2dc90:	8880022c 	andhi	r2,r17,8
   2dc94:	1000071e 	bne	r2,zero,2dcb4 <__muldf3+0x554>
   2dc98:	00800434 	movhi	r2,16
   2dc9c:	8c000234 	orhi	r16,r17,8
   2dca0:	10bfffc4 	addi	r2,r2,-1
   2dca4:	1827883a 	mov	r19,r3
   2dca8:	80a0703a 	and	r16,r16,r2
   2dcac:	b825883a 	mov	r18,r23
   2dcb0:	003f6a06 	br	2da5c <_gp+0xffff1be8>
   2dcb4:	00800434 	movhi	r2,16
   2dcb8:	84000234 	orhi	r16,r16,8
   2dcbc:	10bfffc4 	addi	r2,r2,-1
   2dcc0:	80a0703a 	and	r16,r16,r2
   2dcc4:	003f6506 	br	2da5c <_gp+0xffff1be8>
   2dcc8:	3009883a 	mov	r4,r6
   2dccc:	d8c00215 	stw	r3,8(sp)
   2dcd0:	d9800315 	stw	r6,12(sp)
   2dcd4:	da800015 	stw	r10,0(sp)
   2dcd8:	dac00115 	stw	r11,4(sp)
   2dcdc:	002e9500 	call	2e950 <__clzsi2>
   2dce0:	11000804 	addi	r4,r2,32
   2dce4:	014009c4 	movi	r5,39
   2dce8:	d8c00217 	ldw	r3,8(sp)
   2dcec:	d9800317 	ldw	r6,12(sp)
   2dcf0:	da800017 	ldw	r10,0(sp)
   2dcf4:	dac00117 	ldw	r11,4(sp)
   2dcf8:	293f320e 	bge	r5,r4,2d9c4 <_gp+0xffff1b50>
   2dcfc:	10bffe04 	addi	r2,r2,-8
   2dd00:	b8a2983a 	sll	r17,r23,r2
   2dd04:	002f883a 	mov	r23,zero
   2dd08:	003f3506 	br	2d9e0 <_gp+0xffff1b6c>
   2dd0c:	d9800315 	stw	r6,12(sp)
   2dd10:	d9c00015 	stw	r7,0(sp)
   2dd14:	002e9500 	call	2e950 <__clzsi2>
   2dd18:	10c00804 	addi	r3,r2,32
   2dd1c:	010009c4 	movi	r4,39
   2dd20:	d9800317 	ldw	r6,12(sp)
   2dd24:	d9c00017 	ldw	r7,0(sp)
   2dd28:	20ff060e 	bge	r4,r3,2d944 <_gp+0xffff1ad0>
   2dd2c:	10bffe04 	addi	r2,r2,-8
   2dd30:	88a0983a 	sll	r16,r17,r2
   2dd34:	0025883a 	mov	r18,zero
   2dd38:	003f0906 	br	2d960 <_gp+0xffff1aec>
   2dd3c:	9004d0fa 	srli	r2,r18,3
   2dd40:	8024977a 	slli	r18,r16,29
   2dd44:	8020927a 	slli	r16,r16,9
   2dd48:	2101ffcc 	andi	r4,r4,2047
   2dd4c:	90a4b03a 	or	r18,r18,r2
   2dd50:	8020d33a 	srli	r16,r16,12
   2dd54:	b4c0004c 	andi	r19,r22,1
   2dd58:	003edb06 	br	2d8c8 <_gp+0xffff1a54>
   2dd5c:	00ff0084 	movi	r3,-1022
   2dd60:	1947c83a 	sub	r3,r3,r5
   2dd64:	00800e04 	movi	r2,56
   2dd68:	10c0080e 	bge	r2,r3,2dd8c <__muldf3+0x62c>
   2dd6c:	b4c0004c 	andi	r19,r22,1
   2dd70:	0009883a 	mov	r4,zero
   2dd74:	0021883a 	mov	r16,zero
   2dd78:	0025883a 	mov	r18,zero
   2dd7c:	003ed206 	br	2d8c8 <_gp+0xffff1a54>
   2dd80:	600b883a 	mov	r5,r12
   2dd84:	e02d883a 	mov	r22,fp
   2dd88:	003fa706 	br	2dc28 <_gp+0xffff1db4>
   2dd8c:	008007c4 	movi	r2,31
   2dd90:	10c01816 	blt	r2,r3,2ddf4 <__muldf3+0x694>
   2dd94:	29410784 	addi	r5,r5,1054
   2dd98:	8144983a 	sll	r2,r16,r5
   2dd9c:	90c8d83a 	srl	r4,r18,r3
   2dda0:	914a983a 	sll	r5,r18,r5
   2dda4:	80c6d83a 	srl	r3,r16,r3
   2dda8:	2088b03a 	or	r4,r4,r2
   2ddac:	2804c03a 	cmpne	r2,r5,zero
   2ddb0:	2084b03a 	or	r2,r4,r2
   2ddb4:	110001cc 	andi	r4,r2,7
   2ddb8:	20000726 	beq	r4,zero,2ddd8 <__muldf3+0x678>
   2ddbc:	114003cc 	andi	r5,r2,15
   2ddc0:	01000104 	movi	r4,4
   2ddc4:	29000426 	beq	r5,r4,2ddd8 <__muldf3+0x678>
   2ddc8:	11000104 	addi	r4,r2,4
   2ddcc:	2085803a 	cmpltu	r2,r4,r2
   2ddd0:	1887883a 	add	r3,r3,r2
   2ddd4:	2005883a 	mov	r2,r4
   2ddd8:	1900202c 	andhi	r4,r3,128
   2dddc:	20001826 	beq	r4,zero,2de40 <__muldf3+0x6e0>
   2dde0:	b4c0004c 	andi	r19,r22,1
   2dde4:	01000044 	movi	r4,1
   2dde8:	0021883a 	mov	r16,zero
   2ddec:	0025883a 	mov	r18,zero
   2ddf0:	003eb506 	br	2d8c8 <_gp+0xffff1a54>
   2ddf4:	00bef884 	movi	r2,-1054
   2ddf8:	1145c83a 	sub	r2,r2,r5
   2ddfc:	8088d83a 	srl	r4,r16,r2
   2de00:	00800804 	movi	r2,32
   2de04:	18801726 	beq	r3,r2,2de64 <__muldf3+0x704>
   2de08:	28810f84 	addi	r2,r5,1086
   2de0c:	8084983a 	sll	r2,r16,r2
   2de10:	1484b03a 	or	r2,r2,r18
   2de14:	1004c03a 	cmpne	r2,r2,zero
   2de18:	1104b03a 	or	r2,r2,r4
   2de1c:	10c001cc 	andi	r3,r2,7
   2de20:	18000b1e 	bne	r3,zero,2de50 <__muldf3+0x6f0>
   2de24:	0021883a 	mov	r16,zero
   2de28:	1004d0fa 	srli	r2,r2,3
   2de2c:	b4c0004c 	andi	r19,r22,1
   2de30:	0009883a 	mov	r4,zero
   2de34:	10e4b03a 	or	r18,r2,r3
   2de38:	003ea306 	br	2d8c8 <_gp+0xffff1a54>
   2de3c:	0007883a 	mov	r3,zero
   2de40:	1820927a 	slli	r16,r3,9
   2de44:	1806977a 	slli	r3,r3,29
   2de48:	8020d33a 	srli	r16,r16,12
   2de4c:	003ff606 	br	2de28 <_gp+0xffff1fb4>
   2de50:	110003cc 	andi	r4,r2,15
   2de54:	00c00104 	movi	r3,4
   2de58:	20fff826 	beq	r4,r3,2de3c <_gp+0xffff1fc8>
   2de5c:	0007883a 	mov	r3,zero
   2de60:	003fd906 	br	2ddc8 <_gp+0xffff1f54>
   2de64:	0005883a 	mov	r2,zero
   2de68:	003fe906 	br	2de10 <_gp+0xffff1f9c>
   2de6c:	00800434 	movhi	r2,16
   2de70:	84000234 	orhi	r16,r16,8
   2de74:	10bfffc4 	addi	r2,r2,-1
   2de78:	e4c0004c 	andi	r19,fp,1
   2de7c:	80a0703a 	and	r16,r16,r2
   2de80:	003ef606 	br	2da5c <_gp+0xffff1be8>

0002de84 <__subdf3>:
   2de84:	00c00434 	movhi	r3,16
   2de88:	18ffffc4 	addi	r3,r3,-1
   2de8c:	defffb04 	addi	sp,sp,-20
   2de90:	28d2703a 	and	r9,r5,r3
   2de94:	3814d53a 	srli	r10,r7,20
   2de98:	38c6703a 	and	r3,r7,r3
   2de9c:	3004d77a 	srli	r2,r6,29
   2dea0:	dc800215 	stw	r18,8(sp)
   2dea4:	dc000015 	stw	r16,0(sp)
   2dea8:	2824d7fa 	srli	r18,r5,31
   2deac:	2820d53a 	srli	r16,r5,20
   2deb0:	481290fa 	slli	r9,r9,3
   2deb4:	200ad77a 	srli	r5,r4,29
   2deb8:	180690fa 	slli	r3,r3,3
   2debc:	dc400115 	stw	r17,4(sp)
   2dec0:	dfc00415 	stw	ra,16(sp)
   2dec4:	202290fa 	slli	r17,r4,3
   2dec8:	dcc00315 	stw	r19,12(sp)
   2decc:	5281ffcc 	andi	r10,r10,2047
   2ded0:	0101ffc4 	movi	r4,2047
   2ded4:	9011883a 	mov	r8,r18
   2ded8:	8401ffcc 	andi	r16,r16,2047
   2dedc:	94803fcc 	andi	r18,r18,255
   2dee0:	494ab03a 	or	r5,r9,r5
   2dee4:	380ed7fa 	srli	r7,r7,31
   2dee8:	1886b03a 	or	r3,r3,r2
   2deec:	300c90fa 	slli	r6,r6,3
   2def0:	51009026 	beq	r10,r4,2e134 <__subdf3+0x2b0>
   2def4:	39c0005c 	xori	r7,r7,1
   2def8:	8285c83a 	sub	r2,r16,r10
   2defc:	91c06f26 	beq	r18,r7,2e0bc <__subdf3+0x238>
   2df00:	0080b10e 	bge	zero,r2,2e1c8 <__subdf3+0x344>
   2df04:	50002a1e 	bne	r10,zero,2dfb0 <__subdf3+0x12c>
   2df08:	1988b03a 	or	r4,r3,r6
   2df0c:	2000941e 	bne	r4,zero,2e160 <__subdf3+0x2dc>
   2df10:	888001cc 	andi	r2,r17,7
   2df14:	10005b26 	beq	r2,zero,2e084 <__subdf3+0x200>
   2df18:	88c003cc 	andi	r3,r17,15
   2df1c:	00800104 	movi	r2,4
   2df20:	18805826 	beq	r3,r2,2e084 <__subdf3+0x200>
   2df24:	88c00104 	addi	r3,r17,4
   2df28:	1c63803a 	cmpltu	r17,r3,r17
   2df2c:	2c4b883a 	add	r5,r5,r17
   2df30:	2880202c 	andhi	r2,r5,128
   2df34:	9200004c 	andi	r8,r18,1
   2df38:	1823883a 	mov	r17,r3
   2df3c:	10005426 	beq	r2,zero,2e090 <__subdf3+0x20c>
   2df40:	84000044 	addi	r16,r16,1
   2df44:	0081ffc4 	movi	r2,2047
   2df48:	8080bf26 	beq	r16,r2,2e248 <__subdf3+0x3c4>
   2df4c:	013fe034 	movhi	r4,65408
   2df50:	213fffc4 	addi	r4,r4,-1
   2df54:	290a703a 	and	r5,r5,r4
   2df58:	2804977a 	slli	r2,r5,29
   2df5c:	280a927a 	slli	r5,r5,9
   2df60:	8822d0fa 	srli	r17,r17,3
   2df64:	8401ffcc 	andi	r16,r16,2047
   2df68:	2808d33a 	srli	r4,r5,12
   2df6c:	1444b03a 	or	r2,r2,r17
   2df70:	8401ffcc 	andi	r16,r16,2047
   2df74:	800a953a 	slli	r5,r16,20
   2df78:	40c03fcc 	andi	r3,r8,255
   2df7c:	04000434 	movhi	r16,16
   2df80:	180697fa 	slli	r3,r3,31
   2df84:	843fffc4 	addi	r16,r16,-1
   2df88:	2420703a 	and	r16,r4,r16
   2df8c:	8160b03a 	or	r16,r16,r5
   2df90:	80c6b03a 	or	r3,r16,r3
   2df94:	dfc00417 	ldw	ra,16(sp)
   2df98:	dcc00317 	ldw	r19,12(sp)
   2df9c:	dc800217 	ldw	r18,8(sp)
   2dfa0:	dc400117 	ldw	r17,4(sp)
   2dfa4:	dc000017 	ldw	r16,0(sp)
   2dfa8:	dec00504 	addi	sp,sp,20
   2dfac:	f800283a 	ret
   2dfb0:	0101ffc4 	movi	r4,2047
   2dfb4:	813fd626 	beq	r16,r4,2df10 <_gp+0xffff209c>
   2dfb8:	18c02034 	orhi	r3,r3,128
   2dfbc:	01000e04 	movi	r4,56
   2dfc0:	2080a416 	blt	r4,r2,2e254 <__subdf3+0x3d0>
   2dfc4:	010007c4 	movi	r4,31
   2dfc8:	2080c716 	blt	r4,r2,2e2e8 <__subdf3+0x464>
   2dfcc:	01000804 	movi	r4,32
   2dfd0:	2089c83a 	sub	r4,r4,r2
   2dfd4:	1910983a 	sll	r8,r3,r4
   2dfd8:	308ed83a 	srl	r7,r6,r2
   2dfdc:	3108983a 	sll	r4,r6,r4
   2dfe0:	1884d83a 	srl	r2,r3,r2
   2dfe4:	41ccb03a 	or	r6,r8,r7
   2dfe8:	2008c03a 	cmpne	r4,r4,zero
   2dfec:	310cb03a 	or	r6,r6,r4
   2dff0:	898dc83a 	sub	r6,r17,r6
   2dff4:	89a3803a 	cmpltu	r17,r17,r6
   2dff8:	288bc83a 	sub	r5,r5,r2
   2dffc:	2c4bc83a 	sub	r5,r5,r17
   2e000:	3023883a 	mov	r17,r6
   2e004:	2880202c 	andhi	r2,r5,128
   2e008:	10006b26 	beq	r2,zero,2e1b8 <__subdf3+0x334>
   2e00c:	04c02034 	movhi	r19,128
   2e010:	9cffffc4 	addi	r19,r19,-1
   2e014:	2ce6703a 	and	r19,r5,r19
   2e018:	98007c26 	beq	r19,zero,2e20c <__subdf3+0x388>
   2e01c:	9809883a 	mov	r4,r19
   2e020:	002e9500 	call	2e950 <__clzsi2>
   2e024:	10fffe04 	addi	r3,r2,-8
   2e028:	010007c4 	movi	r4,31
   2e02c:	20c07d16 	blt	r4,r3,2e224 <__subdf3+0x3a0>
   2e030:	01400a04 	movi	r5,40
   2e034:	2885c83a 	sub	r2,r5,r2
   2e038:	888ad83a 	srl	r5,r17,r2
   2e03c:	98e6983a 	sll	r19,r19,r3
   2e040:	88e2983a 	sll	r17,r17,r3
   2e044:	2ce6b03a 	or	r19,r5,r19
   2e048:	1c007a16 	blt	r3,r16,2e234 <__subdf3+0x3b0>
   2e04c:	1c21c83a 	sub	r16,r3,r16
   2e050:	81400044 	addi	r5,r16,1
   2e054:	00c007c4 	movi	r3,31
   2e058:	19409616 	blt	r3,r5,2e2b4 <__subdf3+0x430>
   2e05c:	1c21c83a 	sub	r16,r3,r16
   2e060:	8c08983a 	sll	r4,r17,r16
   2e064:	8946d83a 	srl	r3,r17,r5
   2e068:	9c20983a 	sll	r16,r19,r16
   2e06c:	2008c03a 	cmpne	r4,r4,zero
   2e070:	994ad83a 	srl	r5,r19,r5
   2e074:	1c06b03a 	or	r3,r3,r16
   2e078:	1922b03a 	or	r17,r3,r4
   2e07c:	0021883a 	mov	r16,zero
   2e080:	003fa306 	br	2df10 <_gp+0xffff209c>
   2e084:	2880202c 	andhi	r2,r5,128
   2e088:	9200004c 	andi	r8,r18,1
   2e08c:	103fac1e 	bne	r2,zero,2df40 <_gp+0xffff20cc>
   2e090:	2804977a 	slli	r2,r5,29
   2e094:	8822d0fa 	srli	r17,r17,3
   2e098:	00c1ffc4 	movi	r3,2047
   2e09c:	280ad0fa 	srli	r5,r5,3
   2e0a0:	1444b03a 	or	r2,r2,r17
   2e0a4:	80c02726 	beq	r16,r3,2e144 <__subdf3+0x2c0>
   2e0a8:	01000434 	movhi	r4,16
   2e0ac:	213fffc4 	addi	r4,r4,-1
   2e0b0:	80e0703a 	and	r16,r16,r3
   2e0b4:	2908703a 	and	r4,r5,r4
   2e0b8:	003fad06 	br	2df70 <_gp+0xffff20fc>
   2e0bc:	0080690e 	bge	zero,r2,2e264 <__subdf3+0x3e0>
   2e0c0:	50002f26 	beq	r10,zero,2e180 <__subdf3+0x2fc>
   2e0c4:	0101ffc4 	movi	r4,2047
   2e0c8:	813f9126 	beq	r16,r4,2df10 <_gp+0xffff209c>
   2e0cc:	18c02034 	orhi	r3,r3,128
   2e0d0:	01000e04 	movi	r4,56
   2e0d4:	2080b00e 	bge	r4,r2,2e398 <__subdf3+0x514>
   2e0d8:	198cb03a 	or	r6,r3,r6
   2e0dc:	300ec03a 	cmpne	r7,r6,zero
   2e0e0:	0005883a 	mov	r2,zero
   2e0e4:	3c4f883a 	add	r7,r7,r17
   2e0e8:	3c63803a 	cmpltu	r17,r7,r17
   2e0ec:	114b883a 	add	r5,r2,r5
   2e0f0:	2c4b883a 	add	r5,r5,r17
   2e0f4:	3823883a 	mov	r17,r7
   2e0f8:	2880202c 	andhi	r2,r5,128
   2e0fc:	10002e26 	beq	r2,zero,2e1b8 <__subdf3+0x334>
   2e100:	84000044 	addi	r16,r16,1
   2e104:	0081ffc4 	movi	r2,2047
   2e108:	8080de26 	beq	r16,r2,2e484 <__subdf3+0x600>
   2e10c:	00bfe034 	movhi	r2,65408
   2e110:	10bfffc4 	addi	r2,r2,-1
   2e114:	288a703a 	and	r5,r5,r2
   2e118:	880cd07a 	srli	r6,r17,1
   2e11c:	280897fa 	slli	r4,r5,31
   2e120:	88c0004c 	andi	r3,r17,1
   2e124:	30e2b03a 	or	r17,r6,r3
   2e128:	280ad07a 	srli	r5,r5,1
   2e12c:	8922b03a 	or	r17,r17,r4
   2e130:	003f7706 	br	2df10 <_gp+0xffff209c>
   2e134:	1984b03a 	or	r2,r3,r6
   2e138:	103f6e26 	beq	r2,zero,2def4 <_gp+0xffff2080>
   2e13c:	39c03fcc 	andi	r7,r7,255
   2e140:	003f6d06 	br	2def8 <_gp+0xffff2084>
   2e144:	1146b03a 	or	r3,r2,r5
   2e148:	18003f26 	beq	r3,zero,2e248 <__subdf3+0x3c4>
   2e14c:	00c00434 	movhi	r3,16
   2e150:	29000234 	orhi	r4,r5,8
   2e154:	18ffffc4 	addi	r3,r3,-1
   2e158:	20c8703a 	and	r4,r4,r3
   2e15c:	003f8406 	br	2df70 <_gp+0xffff20fc>
   2e160:	10bfffc4 	addi	r2,r2,-1
   2e164:	1000501e 	bne	r2,zero,2e2a8 <__subdf3+0x424>
   2e168:	898fc83a 	sub	r7,r17,r6
   2e16c:	89e3803a 	cmpltu	r17,r17,r7
   2e170:	28cbc83a 	sub	r5,r5,r3
   2e174:	2c4bc83a 	sub	r5,r5,r17
   2e178:	3823883a 	mov	r17,r7
   2e17c:	003fa106 	br	2e004 <_gp+0xffff2190>
   2e180:	1988b03a 	or	r4,r3,r6
   2e184:	203f6226 	beq	r4,zero,2df10 <_gp+0xffff209c>
   2e188:	10bfffc4 	addi	r2,r2,-1
   2e18c:	10009b1e 	bne	r2,zero,2e3fc <__subdf3+0x578>
   2e190:	344d883a 	add	r6,r6,r17
   2e194:	3463803a 	cmpltu	r17,r6,r17
   2e198:	194b883a 	add	r5,r3,r5
   2e19c:	2c4b883a 	add	r5,r5,r17
   2e1a0:	3023883a 	mov	r17,r6
   2e1a4:	003fd406 	br	2e0f8 <_gp+0xffff2284>
   2e1a8:	1106b03a 	or	r3,r2,r4
   2e1ac:	1800b426 	beq	r3,zero,2e480 <__subdf3+0x5fc>
   2e1b0:	100b883a 	mov	r5,r2
   2e1b4:	2023883a 	mov	r17,r4
   2e1b8:	888001cc 	andi	r2,r17,7
   2e1bc:	103f561e 	bne	r2,zero,2df18 <_gp+0xffff20a4>
   2e1c0:	9200004c 	andi	r8,r18,1
   2e1c4:	003fb206 	br	2e090 <_gp+0xffff221c>
   2e1c8:	1000531e 	bne	r2,zero,2e318 <__subdf3+0x494>
   2e1cc:	80800044 	addi	r2,r16,1
   2e1d0:	1081ffcc 	andi	r2,r2,2047
   2e1d4:	01000044 	movi	r4,1
   2e1d8:	2080a00e 	bge	r4,r2,2e45c <__subdf3+0x5d8>
   2e1dc:	8985c83a 	sub	r2,r17,r6
   2e1e0:	8889803a 	cmpltu	r4,r17,r2
   2e1e4:	28e7c83a 	sub	r19,r5,r3
   2e1e8:	9927c83a 	sub	r19,r19,r4
   2e1ec:	9900202c 	andhi	r4,r19,128
   2e1f0:	20006226 	beq	r4,zero,2e37c <__subdf3+0x4f8>
   2e1f4:	3463c83a 	sub	r17,r6,r17
   2e1f8:	194bc83a 	sub	r5,r3,r5
   2e1fc:	344d803a 	cmpltu	r6,r6,r17
   2e200:	29a7c83a 	sub	r19,r5,r6
   2e204:	3825883a 	mov	r18,r7
   2e208:	983f841e 	bne	r19,zero,2e01c <_gp+0xffff21a8>
   2e20c:	8809883a 	mov	r4,r17
   2e210:	002e9500 	call	2e950 <__clzsi2>
   2e214:	10800804 	addi	r2,r2,32
   2e218:	10fffe04 	addi	r3,r2,-8
   2e21c:	010007c4 	movi	r4,31
   2e220:	20ff830e 	bge	r4,r3,2e030 <_gp+0xffff21bc>
   2e224:	14fff604 	addi	r19,r2,-40
   2e228:	8ce6983a 	sll	r19,r17,r19
   2e22c:	0023883a 	mov	r17,zero
   2e230:	1c3f860e 	bge	r3,r16,2e04c <_gp+0xffff21d8>
   2e234:	017fe034 	movhi	r5,65408
   2e238:	297fffc4 	addi	r5,r5,-1
   2e23c:	80e1c83a 	sub	r16,r16,r3
   2e240:	994a703a 	and	r5,r19,r5
   2e244:	003f3206 	br	2df10 <_gp+0xffff209c>
   2e248:	0009883a 	mov	r4,zero
   2e24c:	0005883a 	mov	r2,zero
   2e250:	003f4706 	br	2df70 <_gp+0xffff20fc>
   2e254:	198cb03a 	or	r6,r3,r6
   2e258:	300cc03a 	cmpne	r6,r6,zero
   2e25c:	0005883a 	mov	r2,zero
   2e260:	003f6306 	br	2dff0 <_gp+0xffff217c>
   2e264:	10009d1e 	bne	r2,zero,2e4dc <__subdf3+0x658>
   2e268:	81c00044 	addi	r7,r16,1
   2e26c:	3881ffcc 	andi	r2,r7,2047
   2e270:	02400044 	movi	r9,1
   2e274:	4880680e 	bge	r9,r2,2e418 <__subdf3+0x594>
   2e278:	0081ffc4 	movi	r2,2047
   2e27c:	3880ae26 	beq	r7,r2,2e538 <__subdf3+0x6b4>
   2e280:	344d883a 	add	r6,r6,r17
   2e284:	3463803a 	cmpltu	r17,r6,r17
   2e288:	194b883a 	add	r5,r3,r5
   2e28c:	2c4b883a 	add	r5,r5,r17
   2e290:	282297fa 	slli	r17,r5,31
   2e294:	300cd07a 	srli	r6,r6,1
   2e298:	280ad07a 	srli	r5,r5,1
   2e29c:	3821883a 	mov	r16,r7
   2e2a0:	89a2b03a 	or	r17,r17,r6
   2e2a4:	003f1a06 	br	2df10 <_gp+0xffff209c>
   2e2a8:	0101ffc4 	movi	r4,2047
   2e2ac:	813f431e 	bne	r16,r4,2dfbc <_gp+0xffff2148>
   2e2b0:	003f1706 	br	2df10 <_gp+0xffff209c>
   2e2b4:	80bff844 	addi	r2,r16,-31
   2e2b8:	00c00804 	movi	r3,32
   2e2bc:	9884d83a 	srl	r2,r19,r2
   2e2c0:	28c05126 	beq	r5,r3,2e408 <__subdf3+0x584>
   2e2c4:	00c00fc4 	movi	r3,63
   2e2c8:	1c21c83a 	sub	r16,r3,r16
   2e2cc:	9c26983a 	sll	r19,r19,r16
   2e2d0:	9c62b03a 	or	r17,r19,r17
   2e2d4:	8822c03a 	cmpne	r17,r17,zero
   2e2d8:	88a2b03a 	or	r17,r17,r2
   2e2dc:	000b883a 	mov	r5,zero
   2e2e0:	0021883a 	mov	r16,zero
   2e2e4:	003fb406 	br	2e1b8 <_gp+0xffff2344>
   2e2e8:	113ff804 	addi	r4,r2,-32
   2e2ec:	01c00804 	movi	r7,32
   2e2f0:	1908d83a 	srl	r4,r3,r4
   2e2f4:	11c04626 	beq	r2,r7,2e410 <__subdf3+0x58c>
   2e2f8:	01c01004 	movi	r7,64
   2e2fc:	3885c83a 	sub	r2,r7,r2
   2e300:	1884983a 	sll	r2,r3,r2
   2e304:	118cb03a 	or	r6,r2,r6
   2e308:	300cc03a 	cmpne	r6,r6,zero
   2e30c:	310cb03a 	or	r6,r6,r4
   2e310:	0005883a 	mov	r2,zero
   2e314:	003f3606 	br	2dff0 <_gp+0xffff217c>
   2e318:	80002b26 	beq	r16,zero,2e3c8 <__subdf3+0x544>
   2e31c:	0101ffc4 	movi	r4,2047
   2e320:	51006926 	beq	r10,r4,2e4c8 <__subdf3+0x644>
   2e324:	0085c83a 	sub	r2,zero,r2
   2e328:	29402034 	orhi	r5,r5,128
   2e32c:	01000e04 	movi	r4,56
   2e330:	20807d16 	blt	r4,r2,2e528 <__subdf3+0x6a4>
   2e334:	010007c4 	movi	r4,31
   2e338:	2080d916 	blt	r4,r2,2e6a0 <__subdf3+0x81c>
   2e33c:	01000804 	movi	r4,32
   2e340:	2089c83a 	sub	r4,r4,r2
   2e344:	2912983a 	sll	r9,r5,r4
   2e348:	8890d83a 	srl	r8,r17,r2
   2e34c:	8908983a 	sll	r4,r17,r4
   2e350:	2884d83a 	srl	r2,r5,r2
   2e354:	4a22b03a 	or	r17,r9,r8
   2e358:	2008c03a 	cmpne	r4,r4,zero
   2e35c:	8922b03a 	or	r17,r17,r4
   2e360:	3463c83a 	sub	r17,r6,r17
   2e364:	1885c83a 	sub	r2,r3,r2
   2e368:	344d803a 	cmpltu	r6,r6,r17
   2e36c:	118bc83a 	sub	r5,r2,r6
   2e370:	5021883a 	mov	r16,r10
   2e374:	3825883a 	mov	r18,r7
   2e378:	003f2206 	br	2e004 <_gp+0xffff2190>
   2e37c:	9886b03a 	or	r3,r19,r2
   2e380:	18001c1e 	bne	r3,zero,2e3f4 <__subdf3+0x570>
   2e384:	0011883a 	mov	r8,zero
   2e388:	000b883a 	mov	r5,zero
   2e38c:	0023883a 	mov	r17,zero
   2e390:	0021883a 	mov	r16,zero
   2e394:	003f3e06 	br	2e090 <_gp+0xffff221c>
   2e398:	010007c4 	movi	r4,31
   2e39c:	20803c16 	blt	r4,r2,2e490 <__subdf3+0x60c>
   2e3a0:	01000804 	movi	r4,32
   2e3a4:	2089c83a 	sub	r4,r4,r2
   2e3a8:	1912983a 	sll	r9,r3,r4
   2e3ac:	308ed83a 	srl	r7,r6,r2
   2e3b0:	3108983a 	sll	r4,r6,r4
   2e3b4:	1884d83a 	srl	r2,r3,r2
   2e3b8:	49ceb03a 	or	r7,r9,r7
   2e3bc:	2008c03a 	cmpne	r4,r4,zero
   2e3c0:	390eb03a 	or	r7,r7,r4
   2e3c4:	003f4706 	br	2e0e4 <_gp+0xffff2270>
   2e3c8:	2c48b03a 	or	r4,r5,r17
   2e3cc:	20003e26 	beq	r4,zero,2e4c8 <__subdf3+0x644>
   2e3d0:	0084303a 	nor	r2,zero,r2
   2e3d4:	10003a1e 	bne	r2,zero,2e4c0 <__subdf3+0x63c>
   2e3d8:	3463c83a 	sub	r17,r6,r17
   2e3dc:	194bc83a 	sub	r5,r3,r5
   2e3e0:	344d803a 	cmpltu	r6,r6,r17
   2e3e4:	298bc83a 	sub	r5,r5,r6
   2e3e8:	5021883a 	mov	r16,r10
   2e3ec:	3825883a 	mov	r18,r7
   2e3f0:	003f0406 	br	2e004 <_gp+0xffff2190>
   2e3f4:	1023883a 	mov	r17,r2
   2e3f8:	003f0706 	br	2e018 <_gp+0xffff21a4>
   2e3fc:	0101ffc4 	movi	r4,2047
   2e400:	813f331e 	bne	r16,r4,2e0d0 <_gp+0xffff225c>
   2e404:	003ec206 	br	2df10 <_gp+0xffff209c>
   2e408:	0027883a 	mov	r19,zero
   2e40c:	003fb006 	br	2e2d0 <_gp+0xffff245c>
   2e410:	0005883a 	mov	r2,zero
   2e414:	003fbb06 	br	2e304 <_gp+0xffff2490>
   2e418:	2c44b03a 	or	r2,r5,r17
   2e41c:	80008b1e 	bne	r16,zero,2e64c <__subdf3+0x7c8>
   2e420:	1000b526 	beq	r2,zero,2e6f8 <__subdf3+0x874>
   2e424:	1984b03a 	or	r2,r3,r6
   2e428:	103eb926 	beq	r2,zero,2df10 <_gp+0xffff209c>
   2e42c:	3449883a 	add	r4,r6,r17
   2e430:	2463803a 	cmpltu	r17,r4,r17
   2e434:	194b883a 	add	r5,r3,r5
   2e438:	2c4b883a 	add	r5,r5,r17
   2e43c:	2880202c 	andhi	r2,r5,128
   2e440:	2023883a 	mov	r17,r4
   2e444:	103f5c26 	beq	r2,zero,2e1b8 <_gp+0xffff2344>
   2e448:	00bfe034 	movhi	r2,65408
   2e44c:	10bfffc4 	addi	r2,r2,-1
   2e450:	4821883a 	mov	r16,r9
   2e454:	288a703a 	and	r5,r5,r2
   2e458:	003ead06 	br	2df10 <_gp+0xffff209c>
   2e45c:	2c44b03a 	or	r2,r5,r17
   2e460:	8000291e 	bne	r16,zero,2e508 <__subdf3+0x684>
   2e464:	10004f1e 	bne	r2,zero,2e5a4 <__subdf3+0x720>
   2e468:	1984b03a 	or	r2,r3,r6
   2e46c:	10000426 	beq	r2,zero,2e480 <__subdf3+0x5fc>
   2e470:	180b883a 	mov	r5,r3
   2e474:	3023883a 	mov	r17,r6
   2e478:	3825883a 	mov	r18,r7
   2e47c:	003ea406 	br	2df10 <_gp+0xffff209c>
   2e480:	0011883a 	mov	r8,zero
   2e484:	000b883a 	mov	r5,zero
   2e488:	0023883a 	mov	r17,zero
   2e48c:	003f0006 	br	2e090 <_gp+0xffff221c>
   2e490:	11fff804 	addi	r7,r2,-32
   2e494:	19c8d83a 	srl	r4,r3,r7
   2e498:	01c00804 	movi	r7,32
   2e49c:	11c07e26 	beq	r2,r7,2e698 <__subdf3+0x814>
   2e4a0:	01c01004 	movi	r7,64
   2e4a4:	3885c83a 	sub	r2,r7,r2
   2e4a8:	1884983a 	sll	r2,r3,r2
   2e4ac:	118cb03a 	or	r6,r2,r6
   2e4b0:	300ec03a 	cmpne	r7,r6,zero
   2e4b4:	390eb03a 	or	r7,r7,r4
   2e4b8:	0005883a 	mov	r2,zero
   2e4bc:	003f0906 	br	2e0e4 <_gp+0xffff2270>
   2e4c0:	0101ffc4 	movi	r4,2047
   2e4c4:	513f991e 	bne	r10,r4,2e32c <_gp+0xffff24b8>
   2e4c8:	180b883a 	mov	r5,r3
   2e4cc:	3023883a 	mov	r17,r6
   2e4d0:	5021883a 	mov	r16,r10
   2e4d4:	3825883a 	mov	r18,r7
   2e4d8:	003e8d06 	br	2df10 <_gp+0xffff209c>
   2e4dc:	80001a1e 	bne	r16,zero,2e548 <__subdf3+0x6c4>
   2e4e0:	2c48b03a 	or	r4,r5,r17
   2e4e4:	20005526 	beq	r4,zero,2e63c <__subdf3+0x7b8>
   2e4e8:	0084303a 	nor	r2,zero,r2
   2e4ec:	1000511e 	bne	r2,zero,2e634 <__subdf3+0x7b0>
   2e4f0:	89a3883a 	add	r17,r17,r6
   2e4f4:	194b883a 	add	r5,r3,r5
   2e4f8:	898d803a 	cmpltu	r6,r17,r6
   2e4fc:	298b883a 	add	r5,r5,r6
   2e500:	5021883a 	mov	r16,r10
   2e504:	003efc06 	br	2e0f8 <_gp+0xffff2284>
   2e508:	1000341e 	bne	r2,zero,2e5dc <__subdf3+0x758>
   2e50c:	1984b03a 	or	r2,r3,r6
   2e510:	10006f26 	beq	r2,zero,2e6d0 <__subdf3+0x84c>
   2e514:	180b883a 	mov	r5,r3
   2e518:	3023883a 	mov	r17,r6
   2e51c:	3825883a 	mov	r18,r7
   2e520:	0401ffc4 	movi	r16,2047
   2e524:	003e7a06 	br	2df10 <_gp+0xffff209c>
   2e528:	2c62b03a 	or	r17,r5,r17
   2e52c:	8822c03a 	cmpne	r17,r17,zero
   2e530:	0005883a 	mov	r2,zero
   2e534:	003f8a06 	br	2e360 <_gp+0xffff24ec>
   2e538:	3821883a 	mov	r16,r7
   2e53c:	000b883a 	mov	r5,zero
   2e540:	0023883a 	mov	r17,zero
   2e544:	003ed206 	br	2e090 <_gp+0xffff221c>
   2e548:	0101ffc4 	movi	r4,2047
   2e54c:	51003b26 	beq	r10,r4,2e63c <__subdf3+0x7b8>
   2e550:	0085c83a 	sub	r2,zero,r2
   2e554:	29402034 	orhi	r5,r5,128
   2e558:	01000e04 	movi	r4,56
   2e55c:	20806216 	blt	r4,r2,2e6e8 <__subdf3+0x864>
   2e560:	010007c4 	movi	r4,31
   2e564:	20806b16 	blt	r4,r2,2e714 <__subdf3+0x890>
   2e568:	01000804 	movi	r4,32
   2e56c:	2089c83a 	sub	r4,r4,r2
   2e570:	2912983a 	sll	r9,r5,r4
   2e574:	888ed83a 	srl	r7,r17,r2
   2e578:	8908983a 	sll	r4,r17,r4
   2e57c:	2884d83a 	srl	r2,r5,r2
   2e580:	49e2b03a 	or	r17,r9,r7
   2e584:	2008c03a 	cmpne	r4,r4,zero
   2e588:	8922b03a 	or	r17,r17,r4
   2e58c:	89a3883a 	add	r17,r17,r6
   2e590:	10c5883a 	add	r2,r2,r3
   2e594:	898d803a 	cmpltu	r6,r17,r6
   2e598:	118b883a 	add	r5,r2,r6
   2e59c:	5021883a 	mov	r16,r10
   2e5a0:	003ed506 	br	2e0f8 <_gp+0xffff2284>
   2e5a4:	1984b03a 	or	r2,r3,r6
   2e5a8:	103e5926 	beq	r2,zero,2df10 <_gp+0xffff209c>
   2e5ac:	8989c83a 	sub	r4,r17,r6
   2e5b0:	8911803a 	cmpltu	r8,r17,r4
   2e5b4:	28c5c83a 	sub	r2,r5,r3
   2e5b8:	1205c83a 	sub	r2,r2,r8
   2e5bc:	1200202c 	andhi	r8,r2,128
   2e5c0:	403ef926 	beq	r8,zero,2e1a8 <_gp+0xffff2334>
   2e5c4:	3463c83a 	sub	r17,r6,r17
   2e5c8:	194bc83a 	sub	r5,r3,r5
   2e5cc:	344d803a 	cmpltu	r6,r6,r17
   2e5d0:	298bc83a 	sub	r5,r5,r6
   2e5d4:	3825883a 	mov	r18,r7
   2e5d8:	003e4d06 	br	2df10 <_gp+0xffff209c>
   2e5dc:	1984b03a 	or	r2,r3,r6
   2e5e0:	10002b26 	beq	r2,zero,2e690 <__subdf3+0x80c>
   2e5e4:	2808d0fa 	srli	r4,r5,3
   2e5e8:	8822d0fa 	srli	r17,r17,3
   2e5ec:	280a977a 	slli	r5,r5,29
   2e5f0:	2080022c 	andhi	r2,r4,8
   2e5f4:	2c62b03a 	or	r17,r5,r17
   2e5f8:	10000826 	beq	r2,zero,2e61c <__subdf3+0x798>
   2e5fc:	1810d0fa 	srli	r8,r3,3
   2e600:	4080022c 	andhi	r2,r8,8
   2e604:	1000051e 	bne	r2,zero,2e61c <__subdf3+0x798>
   2e608:	300cd0fa 	srli	r6,r6,3
   2e60c:	1804977a 	slli	r2,r3,29
   2e610:	4009883a 	mov	r4,r8
   2e614:	3825883a 	mov	r18,r7
   2e618:	11a2b03a 	or	r17,r2,r6
   2e61c:	880ad77a 	srli	r5,r17,29
   2e620:	200890fa 	slli	r4,r4,3
   2e624:	882290fa 	slli	r17,r17,3
   2e628:	0401ffc4 	movi	r16,2047
   2e62c:	290ab03a 	or	r5,r5,r4
   2e630:	003e3706 	br	2df10 <_gp+0xffff209c>
   2e634:	0101ffc4 	movi	r4,2047
   2e638:	513fc71e 	bne	r10,r4,2e558 <_gp+0xffff26e4>
   2e63c:	180b883a 	mov	r5,r3
   2e640:	3023883a 	mov	r17,r6
   2e644:	5021883a 	mov	r16,r10
   2e648:	003e3106 	br	2df10 <_gp+0xffff209c>
   2e64c:	10002d26 	beq	r2,zero,2e704 <__subdf3+0x880>
   2e650:	1984b03a 	or	r2,r3,r6
   2e654:	10000e26 	beq	r2,zero,2e690 <__subdf3+0x80c>
   2e658:	2808d0fa 	srli	r4,r5,3
   2e65c:	8822d0fa 	srli	r17,r17,3
   2e660:	280a977a 	slli	r5,r5,29
   2e664:	2080022c 	andhi	r2,r4,8
   2e668:	2c62b03a 	or	r17,r5,r17
   2e66c:	103feb26 	beq	r2,zero,2e61c <_gp+0xffff27a8>
   2e670:	180ed0fa 	srli	r7,r3,3
   2e674:	3880022c 	andhi	r2,r7,8
   2e678:	103fe81e 	bne	r2,zero,2e61c <_gp+0xffff27a8>
   2e67c:	300cd0fa 	srli	r6,r6,3
   2e680:	1804977a 	slli	r2,r3,29
   2e684:	3809883a 	mov	r4,r7
   2e688:	11a2b03a 	or	r17,r2,r6
   2e68c:	003fe306 	br	2e61c <_gp+0xffff27a8>
   2e690:	0401ffc4 	movi	r16,2047
   2e694:	003e1e06 	br	2df10 <_gp+0xffff209c>
   2e698:	0005883a 	mov	r2,zero
   2e69c:	003f8306 	br	2e4ac <_gp+0xffff2638>
   2e6a0:	113ff804 	addi	r4,r2,-32
   2e6a4:	02000804 	movi	r8,32
   2e6a8:	2908d83a 	srl	r4,r5,r4
   2e6ac:	12002526 	beq	r2,r8,2e744 <__subdf3+0x8c0>
   2e6b0:	02001004 	movi	r8,64
   2e6b4:	4085c83a 	sub	r2,r8,r2
   2e6b8:	288a983a 	sll	r5,r5,r2
   2e6bc:	2c62b03a 	or	r17,r5,r17
   2e6c0:	8822c03a 	cmpne	r17,r17,zero
   2e6c4:	8922b03a 	or	r17,r17,r4
   2e6c8:	0005883a 	mov	r2,zero
   2e6cc:	003f2406 	br	2e360 <_gp+0xffff24ec>
   2e6d0:	01402034 	movhi	r5,128
   2e6d4:	0011883a 	mov	r8,zero
   2e6d8:	297fffc4 	addi	r5,r5,-1
   2e6dc:	047ffe04 	movi	r17,-8
   2e6e0:	0401ffc4 	movi	r16,2047
   2e6e4:	003e6a06 	br	2e090 <_gp+0xffff221c>
   2e6e8:	2c62b03a 	or	r17,r5,r17
   2e6ec:	8822c03a 	cmpne	r17,r17,zero
   2e6f0:	0005883a 	mov	r2,zero
   2e6f4:	003fa506 	br	2e58c <_gp+0xffff2718>
   2e6f8:	180b883a 	mov	r5,r3
   2e6fc:	3023883a 	mov	r17,r6
   2e700:	003e0306 	br	2df10 <_gp+0xffff209c>
   2e704:	180b883a 	mov	r5,r3
   2e708:	3023883a 	mov	r17,r6
   2e70c:	0401ffc4 	movi	r16,2047
   2e710:	003dff06 	br	2df10 <_gp+0xffff209c>
   2e714:	113ff804 	addi	r4,r2,-32
   2e718:	01c00804 	movi	r7,32
   2e71c:	2908d83a 	srl	r4,r5,r4
   2e720:	11c00a26 	beq	r2,r7,2e74c <__subdf3+0x8c8>
   2e724:	01c01004 	movi	r7,64
   2e728:	3885c83a 	sub	r2,r7,r2
   2e72c:	288a983a 	sll	r5,r5,r2
   2e730:	2c62b03a 	or	r17,r5,r17
   2e734:	8822c03a 	cmpne	r17,r17,zero
   2e738:	8922b03a 	or	r17,r17,r4
   2e73c:	0005883a 	mov	r2,zero
   2e740:	003f9206 	br	2e58c <_gp+0xffff2718>
   2e744:	000b883a 	mov	r5,zero
   2e748:	003fdc06 	br	2e6bc <_gp+0xffff2848>
   2e74c:	000b883a 	mov	r5,zero
   2e750:	003ff706 	br	2e730 <_gp+0xffff28bc>

0002e754 <__fixdfsi>:
   2e754:	2806d53a 	srli	r3,r5,20
   2e758:	00800434 	movhi	r2,16
   2e75c:	10bfffc4 	addi	r2,r2,-1
   2e760:	18c1ffcc 	andi	r3,r3,2047
   2e764:	0180ff84 	movi	r6,1022
   2e768:	2884703a 	and	r2,r5,r2
   2e76c:	280ad7fa 	srli	r5,r5,31
   2e770:	30c0130e 	bge	r6,r3,2e7c0 <__fixdfsi+0x6c>
   2e774:	01810744 	movi	r6,1053
   2e778:	30c00d16 	blt	r6,r3,2e7b0 <__fixdfsi+0x5c>
   2e77c:	01810cc4 	movi	r6,1075
   2e780:	30cdc83a 	sub	r6,r6,r3
   2e784:	01c007c4 	movi	r7,31
   2e788:	10800434 	orhi	r2,r2,16
   2e78c:	39800e0e 	bge	r7,r6,2e7c8 <__fixdfsi+0x74>
   2e790:	010104c4 	movi	r4,1043
   2e794:	20c7c83a 	sub	r3,r4,r3
   2e798:	10c6d83a 	srl	r3,r2,r3
   2e79c:	29403fcc 	andi	r5,r5,255
   2e7a0:	0145c83a 	sub	r2,zero,r5
   2e7a4:	1884f03a 	xor	r2,r3,r2
   2e7a8:	1145883a 	add	r2,r2,r5
   2e7ac:	f800283a 	ret
   2e7b0:	00a00034 	movhi	r2,32768
   2e7b4:	10bfffc4 	addi	r2,r2,-1
   2e7b8:	2885883a 	add	r2,r5,r2
   2e7bc:	f800283a 	ret
   2e7c0:	0005883a 	mov	r2,zero
   2e7c4:	f800283a 	ret
   2e7c8:	18fefb44 	addi	r3,r3,-1043
   2e7cc:	2188d83a 	srl	r4,r4,r6
   2e7d0:	10c6983a 	sll	r3,r2,r3
   2e7d4:	20c6b03a 	or	r3,r4,r3
   2e7d8:	003ff006 	br	2e79c <_gp+0xffff2928>

0002e7dc <__floatsidf>:
   2e7dc:	defffd04 	addi	sp,sp,-12
   2e7e0:	dc400115 	stw	r17,4(sp)
   2e7e4:	dfc00215 	stw	ra,8(sp)
   2e7e8:	dc000015 	stw	r16,0(sp)
   2e7ec:	2023883a 	mov	r17,r4
   2e7f0:	20001426 	beq	r4,zero,2e844 <__floatsidf+0x68>
   2e7f4:	2020d7fa 	srli	r16,r4,31
   2e7f8:	80000126 	beq	r16,zero,2e800 <__floatsidf+0x24>
   2e7fc:	0123c83a 	sub	r17,zero,r4
   2e800:	8809883a 	mov	r4,r17
   2e804:	002e9500 	call	2e950 <__clzsi2>
   2e808:	01410784 	movi	r5,1054
   2e80c:	00c00284 	movi	r3,10
   2e810:	288bc83a 	sub	r5,r5,r2
   2e814:	18801c16 	blt	r3,r2,2e888 <__floatsidf+0xac>
   2e818:	00c002c4 	movi	r3,11
   2e81c:	1887c83a 	sub	r3,r3,r2
   2e820:	88c8d83a 	srl	r4,r17,r3
   2e824:	00c00434 	movhi	r3,16
   2e828:	18ffffc4 	addi	r3,r3,-1
   2e82c:	10800544 	addi	r2,r2,21
   2e830:	20c8703a 	and	r4,r4,r3
   2e834:	8884983a 	sll	r2,r17,r2
   2e838:	28c1ffcc 	andi	r3,r5,2047
   2e83c:	800d883a 	mov	r6,r16
   2e840:	00000406 	br	2e854 <__floatsidf+0x78>
   2e844:	000d883a 	mov	r6,zero
   2e848:	0007883a 	mov	r3,zero
   2e84c:	0009883a 	mov	r4,zero
   2e850:	0005883a 	mov	r2,zero
   2e854:	180a953a 	slli	r5,r3,20
   2e858:	31803fcc 	andi	r6,r6,255
   2e85c:	00c00434 	movhi	r3,16
   2e860:	300c97fa 	slli	r6,r6,31
   2e864:	18ffffc4 	addi	r3,r3,-1
   2e868:	20c6703a 	and	r3,r4,r3
   2e86c:	1946b03a 	or	r3,r3,r5
   2e870:	1986b03a 	or	r3,r3,r6
   2e874:	dfc00217 	ldw	ra,8(sp)
   2e878:	dc400117 	ldw	r17,4(sp)
   2e87c:	dc000017 	ldw	r16,0(sp)
   2e880:	dec00304 	addi	sp,sp,12
   2e884:	f800283a 	ret
   2e888:	10fffd44 	addi	r3,r2,-11
   2e88c:	88c8983a 	sll	r4,r17,r3
   2e890:	00800434 	movhi	r2,16
   2e894:	10bfffc4 	addi	r2,r2,-1
   2e898:	2088703a 	and	r4,r4,r2
   2e89c:	28c1ffcc 	andi	r3,r5,2047
   2e8a0:	800d883a 	mov	r6,r16
   2e8a4:	0005883a 	mov	r2,zero
   2e8a8:	003fea06 	br	2e854 <_gp+0xffff29e0>

0002e8ac <__floatunsidf>:
   2e8ac:	defffe04 	addi	sp,sp,-8
   2e8b0:	dc000015 	stw	r16,0(sp)
   2e8b4:	dfc00115 	stw	ra,4(sp)
   2e8b8:	2021883a 	mov	r16,r4
   2e8bc:	20001026 	beq	r4,zero,2e900 <__floatunsidf+0x54>
   2e8c0:	002e9500 	call	2e950 <__clzsi2>
   2e8c4:	01410784 	movi	r5,1054
   2e8c8:	100d883a 	mov	r6,r2
   2e8cc:	288bc83a 	sub	r5,r5,r2
   2e8d0:	00800284 	movi	r2,10
   2e8d4:	11801616 	blt	r2,r6,2e930 <__floatunsidf+0x84>
   2e8d8:	008002c4 	movi	r2,11
   2e8dc:	1185c83a 	sub	r2,r2,r6
   2e8e0:	8084d83a 	srl	r2,r16,r2
   2e8e4:	00c00434 	movhi	r3,16
   2e8e8:	31c00544 	addi	r7,r6,21
   2e8ec:	18ffffc4 	addi	r3,r3,-1
   2e8f0:	81e0983a 	sll	r16,r16,r7
   2e8f4:	10cc703a 	and	r6,r2,r3
   2e8f8:	2941ffcc 	andi	r5,r5,2047
   2e8fc:	00000206 	br	2e908 <__floatunsidf+0x5c>
   2e900:	000b883a 	mov	r5,zero
   2e904:	000d883a 	mov	r6,zero
   2e908:	280a953a 	slli	r5,r5,20
   2e90c:	00c00434 	movhi	r3,16
   2e910:	18ffffc4 	addi	r3,r3,-1
   2e914:	30c6703a 	and	r3,r6,r3
   2e918:	8005883a 	mov	r2,r16
   2e91c:	1946b03a 	or	r3,r3,r5
   2e920:	dfc00117 	ldw	ra,4(sp)
   2e924:	dc000017 	ldw	r16,0(sp)
   2e928:	dec00204 	addi	sp,sp,8
   2e92c:	f800283a 	ret
   2e930:	31bffd44 	addi	r6,r6,-11
   2e934:	818c983a 	sll	r6,r16,r6
   2e938:	00800434 	movhi	r2,16
   2e93c:	10bfffc4 	addi	r2,r2,-1
   2e940:	2941ffcc 	andi	r5,r5,2047
   2e944:	0021883a 	mov	r16,zero
   2e948:	308c703a 	and	r6,r6,r2
   2e94c:	003fee06 	br	2e908 <_gp+0xffff2a94>

0002e950 <__clzsi2>:
   2e950:	00bfffd4 	movui	r2,65535
   2e954:	11000b36 	bltu	r2,r4,2e984 <__clzsi2+0x34>
   2e958:	00803fc4 	movi	r2,255
   2e95c:	1100122e 	bgeu	r2,r4,2e9a8 <__clzsi2+0x58>
   2e960:	00c00204 	movi	r3,8
   2e964:	01400604 	movi	r5,24
   2e968:	20c8d83a 	srl	r4,r4,r3
   2e96c:	008000f4 	movhi	r2,3
   2e970:	1086c104 	addi	r2,r2,6916
   2e974:	1109883a 	add	r4,r2,r4
   2e978:	20800003 	ldbu	r2,0(r4)
   2e97c:	2885c83a 	sub	r2,r5,r2
   2e980:	f800283a 	ret
   2e984:	00804034 	movhi	r2,256
   2e988:	10bfffc4 	addi	r2,r2,-1
   2e98c:	11000336 	bltu	r2,r4,2e99c <__clzsi2+0x4c>
   2e990:	00c00404 	movi	r3,16
   2e994:	180b883a 	mov	r5,r3
   2e998:	003ff306 	br	2e968 <_gp+0xffff2af4>
   2e99c:	00c00604 	movi	r3,24
   2e9a0:	01400204 	movi	r5,8
   2e9a4:	003ff006 	br	2e968 <_gp+0xffff2af4>
   2e9a8:	0007883a 	mov	r3,zero
   2e9ac:	01400804 	movi	r5,32
   2e9b0:	003fed06 	br	2e968 <_gp+0xffff2af4>

0002e9b4 <alt_get_errno>:
#undef errno

extern int errno;

static ALT_INLINE int* alt_get_errno(void)
{
   2e9b4:	defffe04 	addi	sp,sp,-8
   2e9b8:	dfc00115 	stw	ra,4(sp)
   2e9bc:	df000015 	stw	fp,0(sp)
   2e9c0:	d839883a 	mov	fp,sp
  return ((alt_errno) ? alt_errno() : &errno);
   2e9c4:	008000f4 	movhi	r2,3
   2e9c8:	108fab04 	addi	r2,r2,16044
   2e9cc:	10800017 	ldw	r2,0(r2)
   2e9d0:	10000526 	beq	r2,zero,2e9e8 <alt_get_errno+0x34>
   2e9d4:	008000f4 	movhi	r2,3
   2e9d8:	108fab04 	addi	r2,r2,16044
   2e9dc:	10800017 	ldw	r2,0(r2)
   2e9e0:	103ee83a 	callr	r2
   2e9e4:	00000206 	br	2e9f0 <alt_get_errno+0x3c>
   2e9e8:	008000f4 	movhi	r2,3
   2e9ec:	10985704 	addi	r2,r2,24924
}
   2e9f0:	e037883a 	mov	sp,fp
   2e9f4:	dfc00117 	ldw	ra,4(sp)
   2e9f8:	df000017 	ldw	fp,0(sp)
   2e9fc:	dec00204 	addi	sp,sp,8
   2ea00:	f800283a 	ret

0002ea04 <close>:
 *
 * ALT_CLOSE is mapped onto the close() system call in alt_syscall.h
 */
 
int ALT_CLOSE (int fildes)
{
   2ea04:	defffb04 	addi	sp,sp,-20
   2ea08:	dfc00415 	stw	ra,16(sp)
   2ea0c:	df000315 	stw	fp,12(sp)
   2ea10:	df000304 	addi	fp,sp,12
   2ea14:	e13fff15 	stw	r4,-4(fp)
   * A common error case is that when the file descriptor was created, the call
   * to open() failed resulting in a negative file descriptor. This is trapped
   * below so that we don't try and process an invalid file descriptor.
   */

  fd = (fildes < 0) ? NULL : &alt_fd_list[fildes];
   2ea18:	e0bfff17 	ldw	r2,-4(fp)
   2ea1c:	10000616 	blt	r2,zero,2ea38 <close+0x34>
   2ea20:	e0bfff17 	ldw	r2,-4(fp)
   2ea24:	10c00324 	muli	r3,r2,12
   2ea28:	008000f4 	movhi	r2,3
   2ea2c:	108b2504 	addi	r2,r2,11412
   2ea30:	1885883a 	add	r2,r3,r2
   2ea34:	00000106 	br	2ea3c <close+0x38>
   2ea38:	0005883a 	mov	r2,zero
   2ea3c:	e0bffd15 	stw	r2,-12(fp)

  if (fd)
   2ea40:	e0bffd17 	ldw	r2,-12(fp)
   2ea44:	10001926 	beq	r2,zero,2eaac <close+0xa8>
    /*
     * If the associated file system/device has a close function, call it so 
     * that any necessary cleanup code can run.
     */

    rval = (fd->dev->close) ? fd->dev->close(fd) : 0;
   2ea48:	e0bffd17 	ldw	r2,-12(fp)
   2ea4c:	10800017 	ldw	r2,0(r2)
   2ea50:	10800417 	ldw	r2,16(r2)
   2ea54:	10000626 	beq	r2,zero,2ea70 <close+0x6c>
   2ea58:	e0bffd17 	ldw	r2,-12(fp)
   2ea5c:	10800017 	ldw	r2,0(r2)
   2ea60:	10800417 	ldw	r2,16(r2)
   2ea64:	e13ffd17 	ldw	r4,-12(fp)
   2ea68:	103ee83a 	callr	r2
   2ea6c:	00000106 	br	2ea74 <close+0x70>
   2ea70:	0005883a 	mov	r2,zero
   2ea74:	e0bffe15 	stw	r2,-8(fp)

    /* Free the file descriptor structure and return. */

    alt_release_fd (fildes);
   2ea78:	e13fff17 	ldw	r4,-4(fp)
   2ea7c:	002f1000 	call	2f100 <alt_release_fd>
    if (rval < 0)
   2ea80:	e0bffe17 	ldw	r2,-8(fp)
   2ea84:	1000070e 	bge	r2,zero,2eaa4 <close+0xa0>
    {
      ALT_ERRNO = -rval;
   2ea88:	002e9b40 	call	2e9b4 <alt_get_errno>
   2ea8c:	1007883a 	mov	r3,r2
   2ea90:	e0bffe17 	ldw	r2,-8(fp)
   2ea94:	0085c83a 	sub	r2,zero,r2
   2ea98:	18800015 	stw	r2,0(r3)
      return -1;
   2ea9c:	00bfffc4 	movi	r2,-1
   2eaa0:	00000706 	br	2eac0 <close+0xbc>
    }
    return 0;
   2eaa4:	0005883a 	mov	r2,zero
   2eaa8:	00000506 	br	2eac0 <close+0xbc>
  }
  else
  {
    ALT_ERRNO = EBADFD;
   2eaac:	002e9b40 	call	2e9b4 <alt_get_errno>
   2eab0:	1007883a 	mov	r3,r2
   2eab4:	00801444 	movi	r2,81
   2eab8:	18800015 	stw	r2,0(r3)
    return -1;
   2eabc:	00bfffc4 	movi	r2,-1
  }
}
   2eac0:	e037883a 	mov	sp,fp
   2eac4:	dfc00117 	ldw	ra,4(sp)
   2eac8:	df000017 	ldw	fp,0(sp)
   2eacc:	dec00204 	addi	sp,sp,8
   2ead0:	f800283a 	ret

0002ead4 <alt_dev_null_write>:
 * by the alt_dev_null device. It simple discards all data passed to it, and
 * indicates that the data has been successfully transmitted.
 */

static int alt_dev_null_write (alt_fd* fd, const char* ptr, int len)
{
   2ead4:	defffc04 	addi	sp,sp,-16
   2ead8:	df000315 	stw	fp,12(sp)
   2eadc:	df000304 	addi	fp,sp,12
   2eae0:	e13ffd15 	stw	r4,-12(fp)
   2eae4:	e17ffe15 	stw	r5,-8(fp)
   2eae8:	e1bfff15 	stw	r6,-4(fp)
  return len;
   2eaec:	e0bfff17 	ldw	r2,-4(fp)
}
   2eaf0:	e037883a 	mov	sp,fp
   2eaf4:	df000017 	ldw	fp,0(sp)
   2eaf8:	dec00104 	addi	sp,sp,4
   2eafc:	f800283a 	ret

0002eb00 <alt_get_errno>:
#undef errno

extern int errno;

static ALT_INLINE int* alt_get_errno(void)
{
   2eb00:	defffe04 	addi	sp,sp,-8
   2eb04:	dfc00115 	stw	ra,4(sp)
   2eb08:	df000015 	stw	fp,0(sp)
   2eb0c:	d839883a 	mov	fp,sp
  return ((alt_errno) ? alt_errno() : &errno);
   2eb10:	008000f4 	movhi	r2,3
   2eb14:	108fab04 	addi	r2,r2,16044
   2eb18:	10800017 	ldw	r2,0(r2)
   2eb1c:	10000526 	beq	r2,zero,2eb34 <alt_get_errno+0x34>
   2eb20:	008000f4 	movhi	r2,3
   2eb24:	108fab04 	addi	r2,r2,16044
   2eb28:	10800017 	ldw	r2,0(r2)
   2eb2c:	103ee83a 	callr	r2
   2eb30:	00000206 	br	2eb3c <alt_get_errno+0x3c>
   2eb34:	008000f4 	movhi	r2,3
   2eb38:	10985704 	addi	r2,r2,24924
}
   2eb3c:	e037883a 	mov	sp,fp
   2eb40:	dfc00117 	ldw	ra,4(sp)
   2eb44:	df000017 	ldw	fp,0(sp)
   2eb48:	dec00204 	addi	sp,sp,8
   2eb4c:	f800283a 	ret

0002eb50 <fstat>:
}

#else /* !ALT_USE_DIRECT_DRIVERS */

int ALT_FSTAT (int file, struct stat *st)
{
   2eb50:	defffb04 	addi	sp,sp,-20
   2eb54:	dfc00415 	stw	ra,16(sp)
   2eb58:	df000315 	stw	fp,12(sp)
   2eb5c:	df000304 	addi	fp,sp,12
   2eb60:	e13ffe15 	stw	r4,-8(fp)
   2eb64:	e17fff15 	stw	r5,-4(fp)
   * A common error case is that when the file descriptor was created, the call
   * to open() failed resulting in a negative file descriptor. This is trapped
   * below so that we don't try and process an invalid file descriptor.
   */

  fd = (file < 0) ? NULL : &alt_fd_list[file];
   2eb68:	e0bffe17 	ldw	r2,-8(fp)
   2eb6c:	10000616 	blt	r2,zero,2eb88 <fstat+0x38>
   2eb70:	e0bffe17 	ldw	r2,-8(fp)
   2eb74:	10c00324 	muli	r3,r2,12
   2eb78:	008000f4 	movhi	r2,3
   2eb7c:	108b2504 	addi	r2,r2,11412
   2eb80:	1885883a 	add	r2,r3,r2
   2eb84:	00000106 	br	2eb8c <fstat+0x3c>
   2eb88:	0005883a 	mov	r2,zero
   2eb8c:	e0bffd15 	stw	r2,-12(fp)
  
  if (fd)
   2eb90:	e0bffd17 	ldw	r2,-12(fp)
   2eb94:	10001026 	beq	r2,zero,2ebd8 <fstat+0x88>
  {
    /* Call the drivers fstat() function to fill out the "st" structure. */

    if (fd->dev->fstat)
   2eb98:	e0bffd17 	ldw	r2,-12(fp)
   2eb9c:	10800017 	ldw	r2,0(r2)
   2eba0:	10800817 	ldw	r2,32(r2)
   2eba4:	10000726 	beq	r2,zero,2ebc4 <fstat+0x74>
    {
      return fd->dev->fstat(fd, st);
   2eba8:	e0bffd17 	ldw	r2,-12(fp)
   2ebac:	10800017 	ldw	r2,0(r2)
   2ebb0:	10800817 	ldw	r2,32(r2)
   2ebb4:	e13ffd17 	ldw	r4,-12(fp)
   2ebb8:	e17fff17 	ldw	r5,-4(fp)
   2ebbc:	103ee83a 	callr	r2
   2ebc0:	00000a06 	br	2ebec <fstat+0x9c>
     * device.
     */
 
    else
    {
      st->st_mode = _IFCHR;
   2ebc4:	e0bfff17 	ldw	r2,-4(fp)
   2ebc8:	00c80004 	movi	r3,8192
   2ebcc:	10c00115 	stw	r3,4(r2)
      return 0;
   2ebd0:	0005883a 	mov	r2,zero
   2ebd4:	00000506 	br	2ebec <fstat+0x9c>
    }
  }
  else
  {
    ALT_ERRNO = EBADFD;
   2ebd8:	002eb000 	call	2eb00 <alt_get_errno>
   2ebdc:	1007883a 	mov	r3,r2
   2ebe0:	00801444 	movi	r2,81
   2ebe4:	18800015 	stw	r2,0(r3)
    return -1;
   2ebe8:	00bfffc4 	movi	r2,-1
  }
}
   2ebec:	e037883a 	mov	sp,fp
   2ebf0:	dfc00117 	ldw	ra,4(sp)
   2ebf4:	df000017 	ldw	fp,0(sp)
   2ebf8:	dec00204 	addi	sp,sp,8
   2ebfc:	f800283a 	ret

0002ec00 <alt_get_errno>:
#undef errno

extern int errno;

static ALT_INLINE int* alt_get_errno(void)
{
   2ec00:	defffe04 	addi	sp,sp,-8
   2ec04:	dfc00115 	stw	ra,4(sp)
   2ec08:	df000015 	stw	fp,0(sp)
   2ec0c:	d839883a 	mov	fp,sp
  return ((alt_errno) ? alt_errno() : &errno);
   2ec10:	008000f4 	movhi	r2,3
   2ec14:	108fab04 	addi	r2,r2,16044
   2ec18:	10800017 	ldw	r2,0(r2)
   2ec1c:	10000526 	beq	r2,zero,2ec34 <alt_get_errno+0x34>
   2ec20:	008000f4 	movhi	r2,3
   2ec24:	108fab04 	addi	r2,r2,16044
   2ec28:	10800017 	ldw	r2,0(r2)
   2ec2c:	103ee83a 	callr	r2
   2ec30:	00000206 	br	2ec3c <alt_get_errno+0x3c>
   2ec34:	008000f4 	movhi	r2,3
   2ec38:	10985704 	addi	r2,r2,24924
}
   2ec3c:	e037883a 	mov	sp,fp
   2ec40:	dfc00117 	ldw	ra,4(sp)
   2ec44:	df000017 	ldw	fp,0(sp)
   2ec48:	dec00204 	addi	sp,sp,8
   2ec4c:	f800283a 	ret

0002ec50 <isatty>:
 *
 * ALT_ISATTY is mapped onto the isatty() system call in alt_syscall.h
 */
 
int ALT_ISATTY (int file)
{
   2ec50:	deffed04 	addi	sp,sp,-76
   2ec54:	dfc01215 	stw	ra,72(sp)
   2ec58:	df001115 	stw	fp,68(sp)
   2ec5c:	df001104 	addi	fp,sp,68
   2ec60:	e13fff15 	stw	r4,-4(fp)
   * A common error case is that when the file descriptor was created, the call
   * to open() failed resulting in a negative file descriptor. This is trapped
   * below so that we don't try and process an invalid file descriptor.
   */

  fd = (file < 0) ? NULL : &alt_fd_list[file];
   2ec64:	e0bfff17 	ldw	r2,-4(fp)
   2ec68:	10000616 	blt	r2,zero,2ec84 <isatty+0x34>
   2ec6c:	e0bfff17 	ldw	r2,-4(fp)
   2ec70:	10c00324 	muli	r3,r2,12
   2ec74:	008000f4 	movhi	r2,3
   2ec78:	108b2504 	addi	r2,r2,11412
   2ec7c:	1885883a 	add	r2,r3,r2
   2ec80:	00000106 	br	2ec88 <isatty+0x38>
   2ec84:	0005883a 	mov	r2,zero
   2ec88:	e0bfef15 	stw	r2,-68(fp)
  
  if (fd)
   2ec8c:	e0bfef17 	ldw	r2,-68(fp)
   2ec90:	10000e26 	beq	r2,zero,2eccc <isatty+0x7c>
    /*
     * If a device driver does not provide an fstat() function, then it is 
     * treated as a terminal device by default.
     */

    if (!fd->dev->fstat)
   2ec94:	e0bfef17 	ldw	r2,-68(fp)
   2ec98:	10800017 	ldw	r2,0(r2)
   2ec9c:	10800817 	ldw	r2,32(r2)
   2eca0:	1000021e 	bne	r2,zero,2ecac <isatty+0x5c>
    {
      return 1;
   2eca4:	00800044 	movi	r2,1
   2eca8:	00000d06 	br	2ece0 <isatty+0x90>
     * this is called so that the device can identify itself.
     */ 

    else
    {
      fstat (file, &stat);
   2ecac:	e0bff004 	addi	r2,fp,-64
   2ecb0:	e13fff17 	ldw	r4,-4(fp)
   2ecb4:	100b883a 	mov	r5,r2
   2ecb8:	002eb500 	call	2eb50 <fstat>
      return (stat.st_mode == _IFCHR) ? 1 : 0;
   2ecbc:	e0bff117 	ldw	r2,-60(fp)
   2ecc0:	10880020 	cmpeqi	r2,r2,8192
   2ecc4:	10803fcc 	andi	r2,r2,255
   2ecc8:	00000506 	br	2ece0 <isatty+0x90>
    }
  }
  else
  {
    ALT_ERRNO = EBADFD;
   2eccc:	002ec000 	call	2ec00 <alt_get_errno>
   2ecd0:	1007883a 	mov	r3,r2
   2ecd4:	00801444 	movi	r2,81
   2ecd8:	18800015 	stw	r2,0(r3)
    return 0;
   2ecdc:	0005883a 	mov	r2,zero
  }
}
   2ece0:	e037883a 	mov	sp,fp
   2ece4:	dfc00117 	ldw	ra,4(sp)
   2ece8:	df000017 	ldw	fp,0(sp)
   2ecec:	dec00204 	addi	sp,sp,8
   2ecf0:	f800283a 	ret

0002ecf4 <alt_load_section>:
 */

static void ALT_INLINE alt_load_section (alt_u32* from, 
                                         alt_u32* to, 
                                         alt_u32* end)
{
   2ecf4:	defffc04 	addi	sp,sp,-16
   2ecf8:	df000315 	stw	fp,12(sp)
   2ecfc:	df000304 	addi	fp,sp,12
   2ed00:	e13ffd15 	stw	r4,-12(fp)
   2ed04:	e17ffe15 	stw	r5,-8(fp)
   2ed08:	e1bfff15 	stw	r6,-4(fp)
  if (to != from)
   2ed0c:	e0fffe17 	ldw	r3,-8(fp)
   2ed10:	e0bffd17 	ldw	r2,-12(fp)
   2ed14:	18800c26 	beq	r3,r2,2ed48 <alt_load_section+0x54>
  {
    while( to != end )
   2ed18:	00000806 	br	2ed3c <alt_load_section+0x48>
    {
      *to++ = *from++;
   2ed1c:	e0bffe17 	ldw	r2,-8(fp)
   2ed20:	10c00104 	addi	r3,r2,4
   2ed24:	e0fffe15 	stw	r3,-8(fp)
   2ed28:	e0fffd17 	ldw	r3,-12(fp)
   2ed2c:	19000104 	addi	r4,r3,4
   2ed30:	e13ffd15 	stw	r4,-12(fp)
   2ed34:	18c00017 	ldw	r3,0(r3)
   2ed38:	10c00015 	stw	r3,0(r2)
                                         alt_u32* to, 
                                         alt_u32* end)
{
  if (to != from)
  {
    while( to != end )
   2ed3c:	e0fffe17 	ldw	r3,-8(fp)
   2ed40:	e0bfff17 	ldw	r2,-4(fp)
   2ed44:	18bff51e 	bne	r3,r2,2ed1c <_gp+0xffff2ea8>
    {
      *to++ = *from++;
    }
  }
}
   2ed48:	e037883a 	mov	sp,fp
   2ed4c:	df000017 	ldw	fp,0(sp)
   2ed50:	dec00104 	addi	sp,sp,4
   2ed54:	f800283a 	ret

0002ed58 <alt_load>:
 * there is no bootloader, so this application is responsible for loading to
 * RAM any sections that are required.
 */  

void alt_load (void)
{
   2ed58:	defffe04 	addi	sp,sp,-8
   2ed5c:	dfc00115 	stw	ra,4(sp)
   2ed60:	df000015 	stw	fp,0(sp)
   2ed64:	d839883a 	mov	fp,sp
  /* 
   * Copy the .rwdata section. 
   */

  alt_load_section (&__flash_rwdata_start, 
   2ed68:	010000f4 	movhi	r4,3
   2ed6c:	210fb004 	addi	r4,r4,16064
   2ed70:	014000f4 	movhi	r5,3
   2ed74:	29470c04 	addi	r5,r5,7216
   2ed78:	018000f4 	movhi	r6,3
   2ed7c:	318fb004 	addi	r6,r6,16064
   2ed80:	002ecf40 	call	2ecf4 <alt_load_section>

  /*
   * Copy the exception handler.
   */

  alt_load_section (&__flash_exceptions_start, 
   2ed84:	010000b4 	movhi	r4,2
   2ed88:	21000804 	addi	r4,r4,32
   2ed8c:	014000b4 	movhi	r5,2
   2ed90:	29400804 	addi	r5,r5,32
   2ed94:	018000b4 	movhi	r6,2
   2ed98:	31809004 	addi	r6,r6,576
   2ed9c:	002ecf40 	call	2ecf4 <alt_load_section>

  /*
   * Copy the .rodata section.
   */

  alt_load_section (&__flash_rodata_start, 
   2eda0:	010000f4 	movhi	r4,3
   2eda4:	2104ec04 	addi	r4,r4,5040
   2eda8:	014000f4 	movhi	r5,3
   2edac:	2944ec04 	addi	r5,r5,5040
   2edb0:	018000f4 	movhi	r6,3
   2edb4:	31870c04 	addi	r6,r6,7216
   2edb8:	002ecf40 	call	2ecf4 <alt_load_section>
  
  /*
   * Now ensure that the caches are in synch.
   */
  
  alt_dcache_flush_all();
   2edbc:	00303d00 	call	303d0 <alt_dcache_flush_all>
  alt_icache_flush_all();
   2edc0:	00305c00 	call	305c0 <alt_icache_flush_all>
}
   2edc4:	e037883a 	mov	sp,fp
   2edc8:	dfc00117 	ldw	ra,4(sp)
   2edcc:	df000017 	ldw	fp,0(sp)
   2edd0:	dec00204 	addi	sp,sp,8
   2edd4:	f800283a 	ret

0002edd8 <alt_get_errno>:
#undef errno

extern int errno;

static ALT_INLINE int* alt_get_errno(void)
{
   2edd8:	defffe04 	addi	sp,sp,-8
   2eddc:	dfc00115 	stw	ra,4(sp)
   2ede0:	df000015 	stw	fp,0(sp)
   2ede4:	d839883a 	mov	fp,sp
  return ((alt_errno) ? alt_errno() : &errno);
   2ede8:	008000f4 	movhi	r2,3
   2edec:	108fab04 	addi	r2,r2,16044
   2edf0:	10800017 	ldw	r2,0(r2)
   2edf4:	10000526 	beq	r2,zero,2ee0c <alt_get_errno+0x34>
   2edf8:	008000f4 	movhi	r2,3
   2edfc:	108fab04 	addi	r2,r2,16044
   2ee00:	10800017 	ldw	r2,0(r2)
   2ee04:	103ee83a 	callr	r2
   2ee08:	00000206 	br	2ee14 <alt_get_errno+0x3c>
   2ee0c:	008000f4 	movhi	r2,3
   2ee10:	10985704 	addi	r2,r2,24924
}
   2ee14:	e037883a 	mov	sp,fp
   2ee18:	dfc00117 	ldw	ra,4(sp)
   2ee1c:	df000017 	ldw	fp,0(sp)
   2ee20:	dec00204 	addi	sp,sp,8
   2ee24:	f800283a 	ret

0002ee28 <lseek>:
 * ALT_LSEEK is mapped onto the lseek() system call in alt_syscall.h
 *
 */

off_t ALT_LSEEK (int file, off_t ptr, int dir)
{
   2ee28:	defff904 	addi	sp,sp,-28
   2ee2c:	dfc00615 	stw	ra,24(sp)
   2ee30:	df000515 	stw	fp,20(sp)
   2ee34:	df000504 	addi	fp,sp,20
   2ee38:	e13ffd15 	stw	r4,-12(fp)
   2ee3c:	e17ffe15 	stw	r5,-8(fp)
   2ee40:	e1bfff15 	stw	r6,-4(fp)
  alt_fd* fd;
  off_t   rc = 0; 
   2ee44:	e03ffb15 	stw	zero,-20(fp)
   * A common error case is that when the file descriptor was created, the call
   * to open() failed resulting in a negative file descriptor. This is trapped
   * below so that we don't try and process an invalid file descriptor.
   */

  fd = (file < 0) ? NULL : &alt_fd_list[file];
   2ee48:	e0bffd17 	ldw	r2,-12(fp)
   2ee4c:	10000616 	blt	r2,zero,2ee68 <lseek+0x40>
   2ee50:	e0bffd17 	ldw	r2,-12(fp)
   2ee54:	10c00324 	muli	r3,r2,12
   2ee58:	008000f4 	movhi	r2,3
   2ee5c:	108b2504 	addi	r2,r2,11412
   2ee60:	1885883a 	add	r2,r3,r2
   2ee64:	00000106 	br	2ee6c <lseek+0x44>
   2ee68:	0005883a 	mov	r2,zero
   2ee6c:	e0bffc15 	stw	r2,-16(fp)
  
  if (fd) 
   2ee70:	e0bffc17 	ldw	r2,-16(fp)
   2ee74:	10001026 	beq	r2,zero,2eeb8 <lseek+0x90>
    /*
     * If the device driver provides an implementation of the lseek() function,
     * then call that to process the request.
     */
 
    if (fd->dev->lseek)
   2ee78:	e0bffc17 	ldw	r2,-16(fp)
   2ee7c:	10800017 	ldw	r2,0(r2)
   2ee80:	10800717 	ldw	r2,28(r2)
   2ee84:	10000926 	beq	r2,zero,2eeac <lseek+0x84>
    {
      rc = fd->dev->lseek(fd, ptr, dir);
   2ee88:	e0bffc17 	ldw	r2,-16(fp)
   2ee8c:	10800017 	ldw	r2,0(r2)
   2ee90:	10800717 	ldw	r2,28(r2)
   2ee94:	e13ffc17 	ldw	r4,-16(fp)
   2ee98:	e17ffe17 	ldw	r5,-8(fp)
   2ee9c:	e1bfff17 	ldw	r6,-4(fp)
   2eea0:	103ee83a 	callr	r2
   2eea4:	e0bffb15 	stw	r2,-20(fp)
   2eea8:	00000506 	br	2eec0 <lseek+0x98>
     * Otherwise return an error.
     */

    else
    {
      rc = -ENOTSUP;
   2eeac:	00bfde84 	movi	r2,-134
   2eeb0:	e0bffb15 	stw	r2,-20(fp)
   2eeb4:	00000206 	br	2eec0 <lseek+0x98>
    }
  }
  else  
  {
    rc = -EBADFD;
   2eeb8:	00bfebc4 	movi	r2,-81
   2eebc:	e0bffb15 	stw	r2,-20(fp)
  }

  if (rc < 0)
   2eec0:	e0bffb17 	ldw	r2,-20(fp)
   2eec4:	1000070e 	bge	r2,zero,2eee4 <lseek+0xbc>
  {
    ALT_ERRNO = -rc;
   2eec8:	002edd80 	call	2edd8 <alt_get_errno>
   2eecc:	1007883a 	mov	r3,r2
   2eed0:	e0bffb17 	ldw	r2,-20(fp)
   2eed4:	0085c83a 	sub	r2,zero,r2
   2eed8:	18800015 	stw	r2,0(r3)
    rc = -1;
   2eedc:	00bfffc4 	movi	r2,-1
   2eee0:	e0bffb15 	stw	r2,-20(fp)
  }

  return rc;
   2eee4:	e0bffb17 	ldw	r2,-20(fp)
}
   2eee8:	e037883a 	mov	sp,fp
   2eeec:	dfc00117 	ldw	ra,4(sp)
   2eef0:	df000017 	ldw	fp,0(sp)
   2eef4:	dec00204 	addi	sp,sp,8
   2eef8:	f800283a 	ret

0002eefc <alt_main>:
 * devices/filesystems/components in the system; and call the entry point for
 * the users application, i.e. main().
 */

void alt_main (void)
{
   2eefc:	defffd04 	addi	sp,sp,-12
   2ef00:	dfc00215 	stw	ra,8(sp)
   2ef04:	df000115 	stw	fp,4(sp)
   2ef08:	df000104 	addi	fp,sp,4
#endif

  /* ALT LOG - please see HAL/sys/alt_log_printf.h for details */
  ALT_LOG_PRINT_BOOT("[alt_main.c] Entering alt_main, calling alt_irq_init.\r\n");
  /* Initialize the interrupt controller. */
  alt_irq_init (NULL);
   2ef0c:	0009883a 	mov	r4,zero
   2ef10:	002f55c0 	call	2f55c <alt_irq_init>

  /* Initialize the operating system */
  ALT_LOG_PRINT_BOOT("[alt_main.c] Done alt_irq_init, calling alt_os_init.\r\n");
  ALT_OS_INIT();
   2ef14:	0001883a 	nop
  ALT_LOG_PRINT_BOOT("[alt_main.c] Done OS Init, calling alt_sem_create.\r\n");
  ALT_SEM_CREATE (&alt_fd_list_lock, 1);

  /* Initialize the device drivers/software components. */
  ALT_LOG_PRINT_BOOT("[alt_main.c] Calling alt_sys_init.\r\n");
  alt_sys_init();
   2ef18:	002f5900 	call	2f590 <alt_sys_init>
   * devices be present (not equal to /dev/null) and if direct drivers
   * aren't being used.
   */

    ALT_LOG_PRINT_BOOT("[alt_main.c] Redirecting IO.\r\n");
    alt_io_redirect(ALT_STDOUT, ALT_STDIN, ALT_STDERR);
   2ef1c:	010000f4 	movhi	r4,3
   2ef20:	21070404 	addi	r4,r4,7184
   2ef24:	014000f4 	movhi	r5,3
   2ef28:	29470404 	addi	r5,r5,7184
   2ef2c:	018000f4 	movhi	r6,3
   2ef30:	31870404 	addi	r6,r6,7184
   2ef34:	00309800 	call	30980 <alt_io_redirect>
  /* 
   * Call the C++ constructors 
   */

  ALT_LOG_PRINT_BOOT("[alt_main.c] Calling C++ constructors.\r\n");
  _do_ctors ();
   2ef38:	00305080 	call	30508 <_do_ctors>
   * redefined as _exit()). This is in the interest of reducing code footprint,
   * in that the atexit() overhead is removed when it's not needed.
   */

  ALT_LOG_PRINT_BOOT("[alt_main.c] Calling atexit.\r\n");
  atexit (_do_dtors);
   2ef3c:	010000f4 	movhi	r4,3
   2ef40:	21015904 	addi	r4,r4,1380
   2ef44:	003100c0 	call	3100c <atexit>
  ALT_LOG_PRINT_BOOT("[alt_main.c] Calling main.\r\n");

#ifdef ALT_NO_EXIT
  main (alt_argc, alt_argv, alt_envp);
#else
  result = main (alt_argc, alt_argv, alt_envp);
   2ef48:	d128be17 	ldw	r4,-23816(gp)
   2ef4c:	d0e8bf17 	ldw	r3,-23812(gp)
   2ef50:	d0a8c017 	ldw	r2,-23808(gp)
   2ef54:	180b883a 	mov	r5,r3
   2ef58:	100d883a 	mov	r6,r2
   2ef5c:	00217240 	call	21724 <main>
   2ef60:	e0bfff15 	stw	r2,-4(fp)
  close(STDOUT_FILENO);
   2ef64:	01000044 	movi	r4,1
   2ef68:	002ea040 	call	2ea04 <close>
  exit (result);
   2ef6c:	e13fff17 	ldw	r4,-4(fp)
   2ef70:	00310200 	call	31020 <exit>

0002ef74 <__malloc_lock>:
 * configuration is single threaded, so there is nothing to do here. Note that 
 * this requires that malloc is never called by an interrupt service routine.
 */

void __malloc_lock ( struct _reent *_r )
{
   2ef74:	defffe04 	addi	sp,sp,-8
   2ef78:	df000115 	stw	fp,4(sp)
   2ef7c:	df000104 	addi	fp,sp,4
   2ef80:	e13fff15 	stw	r4,-4(fp)
}
   2ef84:	e037883a 	mov	sp,fp
   2ef88:	df000017 	ldw	fp,0(sp)
   2ef8c:	dec00104 	addi	sp,sp,4
   2ef90:	f800283a 	ret

0002ef94 <__malloc_unlock>:
/*
 *
 */

void __malloc_unlock ( struct _reent *_r )
{
   2ef94:	defffe04 	addi	sp,sp,-8
   2ef98:	df000115 	stw	fp,4(sp)
   2ef9c:	df000104 	addi	fp,sp,4
   2efa0:	e13fff15 	stw	r4,-4(fp)
}
   2efa4:	e037883a 	mov	sp,fp
   2efa8:	df000017 	ldw	fp,0(sp)
   2efac:	dec00104 	addi	sp,sp,4
   2efb0:	f800283a 	ret

0002efb4 <alt_get_errno>:
#undef errno

extern int errno;

static ALT_INLINE int* alt_get_errno(void)
{
   2efb4:	defffe04 	addi	sp,sp,-8
   2efb8:	dfc00115 	stw	ra,4(sp)
   2efbc:	df000015 	stw	fp,0(sp)
   2efc0:	d839883a 	mov	fp,sp
  return ((alt_errno) ? alt_errno() : &errno);
   2efc4:	008000f4 	movhi	r2,3
   2efc8:	108fab04 	addi	r2,r2,16044
   2efcc:	10800017 	ldw	r2,0(r2)
   2efd0:	10000526 	beq	r2,zero,2efe8 <alt_get_errno+0x34>
   2efd4:	008000f4 	movhi	r2,3
   2efd8:	108fab04 	addi	r2,r2,16044
   2efdc:	10800017 	ldw	r2,0(r2)
   2efe0:	103ee83a 	callr	r2
   2efe4:	00000206 	br	2eff0 <alt_get_errno+0x3c>
   2efe8:	008000f4 	movhi	r2,3
   2efec:	10985704 	addi	r2,r2,24924
}
   2eff0:	e037883a 	mov	sp,fp
   2eff4:	dfc00117 	ldw	ra,4(sp)
   2eff8:	df000017 	ldw	fp,0(sp)
   2effc:	dec00204 	addi	sp,sp,8
   2f000:	f800283a 	ret

0002f004 <read>:
}

#else /* !ALT_USE_DIRECT_DRIVERS */

int ALT_READ (int file, void *ptr, size_t len)
{
   2f004:	defff904 	addi	sp,sp,-28
   2f008:	dfc00615 	stw	ra,24(sp)
   2f00c:	df000515 	stw	fp,20(sp)
   2f010:	df000504 	addi	fp,sp,20
   2f014:	e13ffd15 	stw	r4,-12(fp)
   2f018:	e17ffe15 	stw	r5,-8(fp)
   2f01c:	e1bfff15 	stw	r6,-4(fp)
   * A common error case is that when the file descriptor was created, the call
   * to open() failed resulting in a negative file descriptor. This is trapped
   * below so that we don't try and process an invalid file descriptor.
   */

  fd = (file < 0) ? NULL : &alt_fd_list[file];
   2f020:	e0bffd17 	ldw	r2,-12(fp)
   2f024:	10000616 	blt	r2,zero,2f040 <read+0x3c>
   2f028:	e0bffd17 	ldw	r2,-12(fp)
   2f02c:	10c00324 	muli	r3,r2,12
   2f030:	008000f4 	movhi	r2,3
   2f034:	108b2504 	addi	r2,r2,11412
   2f038:	1885883a 	add	r2,r3,r2
   2f03c:	00000106 	br	2f044 <read+0x40>
   2f040:	0005883a 	mov	r2,zero
   2f044:	e0bffb15 	stw	r2,-20(fp)
  
  if (fd)
   2f048:	e0bffb17 	ldw	r2,-20(fp)
   2f04c:	10002226 	beq	r2,zero,2f0d8 <read+0xd4>
     * If the file has not been opened with read access, or if the driver does
     * not provide an implementation of read(), generate an error. Otherwise
     * call the drivers read() function to process the request.
     */

    if (((fd->fd_flags & O_ACCMODE) != O_WRONLY) && 
   2f050:	e0bffb17 	ldw	r2,-20(fp)
   2f054:	10800217 	ldw	r2,8(r2)
   2f058:	108000cc 	andi	r2,r2,3
   2f05c:	10800060 	cmpeqi	r2,r2,1
   2f060:	1000181e 	bne	r2,zero,2f0c4 <read+0xc0>
        (fd->dev->read))
   2f064:	e0bffb17 	ldw	r2,-20(fp)
   2f068:	10800017 	ldw	r2,0(r2)
   2f06c:	10800517 	ldw	r2,20(r2)
     * If the file has not been opened with read access, or if the driver does
     * not provide an implementation of read(), generate an error. Otherwise
     * call the drivers read() function to process the request.
     */

    if (((fd->fd_flags & O_ACCMODE) != O_WRONLY) && 
   2f070:	10001426 	beq	r2,zero,2f0c4 <read+0xc0>
        (fd->dev->read))
      {
        if ((rval = fd->dev->read(fd, ptr, len)) < 0)
   2f074:	e0bffb17 	ldw	r2,-20(fp)
   2f078:	10800017 	ldw	r2,0(r2)
   2f07c:	10800517 	ldw	r2,20(r2)
   2f080:	e0ffff17 	ldw	r3,-4(fp)
   2f084:	e13ffb17 	ldw	r4,-20(fp)
   2f088:	e17ffe17 	ldw	r5,-8(fp)
   2f08c:	180d883a 	mov	r6,r3
   2f090:	103ee83a 	callr	r2
   2f094:	e0bffc15 	stw	r2,-16(fp)
   2f098:	e0bffc17 	ldw	r2,-16(fp)
   2f09c:	1000070e 	bge	r2,zero,2f0bc <read+0xb8>
        {
          ALT_ERRNO = -rval;
   2f0a0:	002efb40 	call	2efb4 <alt_get_errno>
   2f0a4:	1007883a 	mov	r3,r2
   2f0a8:	e0bffc17 	ldw	r2,-16(fp)
   2f0ac:	0085c83a 	sub	r2,zero,r2
   2f0b0:	18800015 	stw	r2,0(r3)
          return -1;
   2f0b4:	00bfffc4 	movi	r2,-1
   2f0b8:	00000c06 	br	2f0ec <read+0xe8>
        }
        return rval;
   2f0bc:	e0bffc17 	ldw	r2,-16(fp)
   2f0c0:	00000a06 	br	2f0ec <read+0xe8>
      }
      else
      {
        ALT_ERRNO = EACCES;
   2f0c4:	002efb40 	call	2efb4 <alt_get_errno>
   2f0c8:	1007883a 	mov	r3,r2
   2f0cc:	00800344 	movi	r2,13
   2f0d0:	18800015 	stw	r2,0(r3)
   2f0d4:	00000406 	br	2f0e8 <read+0xe4>
      }
    }
  else
  {
    ALT_ERRNO = EBADFD;
   2f0d8:	002efb40 	call	2efb4 <alt_get_errno>
   2f0dc:	1007883a 	mov	r3,r2
   2f0e0:	00801444 	movi	r2,81
   2f0e4:	18800015 	stw	r2,0(r3)
  }
  return -1;
   2f0e8:	00bfffc4 	movi	r2,-1
}
   2f0ec:	e037883a 	mov	sp,fp
   2f0f0:	dfc00117 	ldw	ra,4(sp)
   2f0f4:	df000017 	ldw	fp,0(sp)
   2f0f8:	dec00204 	addi	sp,sp,8
   2f0fc:	f800283a 	ret

0002f100 <alt_release_fd>:
 * File descriptors correcponding to standard in, standard out and standard 
 * error cannont be released backed to the pool. They are always reserved.
 */

void alt_release_fd (int fd)
{
   2f100:	defffe04 	addi	sp,sp,-8
   2f104:	df000115 	stw	fp,4(sp)
   2f108:	df000104 	addi	fp,sp,4
   2f10c:	e13fff15 	stw	r4,-4(fp)
  if (fd > 2)
   2f110:	e0bfff17 	ldw	r2,-4(fp)
   2f114:	108000d0 	cmplti	r2,r2,3
   2f118:	10000d1e 	bne	r2,zero,2f150 <alt_release_fd+0x50>
  {
    alt_fd_list[fd].fd_flags = 0;
   2f11c:	008000f4 	movhi	r2,3
   2f120:	108b2504 	addi	r2,r2,11412
   2f124:	e0ffff17 	ldw	r3,-4(fp)
   2f128:	18c00324 	muli	r3,r3,12
   2f12c:	18c00204 	addi	r3,r3,8
   2f130:	10c5883a 	add	r2,r2,r3
   2f134:	10000015 	stw	zero,0(r2)
    alt_fd_list[fd].dev      = 0;
   2f138:	008000f4 	movhi	r2,3
   2f13c:	108b2504 	addi	r2,r2,11412
   2f140:	e0ffff17 	ldw	r3,-4(fp)
   2f144:	18c00324 	muli	r3,r3,12
   2f148:	10c5883a 	add	r2,r2,r3
   2f14c:	10000015 	stw	zero,0(r2)
  }
}
   2f150:	e037883a 	mov	sp,fp
   2f154:	df000017 	ldw	fp,0(sp)
   2f158:	dec00104 	addi	sp,sp,4
   2f15c:	f800283a 	ret

0002f160 <sbrk>:
#endif
 
caddr_t ALT_SBRK (int incr) __attribute__ ((no_instrument_function ));

caddr_t ALT_SBRK (int incr)
{ 
   2f160:	defff904 	addi	sp,sp,-28
   2f164:	df000615 	stw	fp,24(sp)
   2f168:	df000604 	addi	fp,sp,24
   2f16c:	e13fff15 	stw	r4,-4(fp)
static ALT_INLINE alt_irq_context ALT_ALWAYS_INLINE 
       alt_irq_disable_all (void)
{
  alt_irq_context context;

  NIOS2_READ_STATUS (context);
   2f170:	0005303a 	rdctl	r2,status
   2f174:	e0bffc15 	stw	r2,-16(fp)

  NIOS2_WRITE_STATUS (context & ~NIOS2_STATUS_PIE_MSK);
   2f178:	e0fffc17 	ldw	r3,-16(fp)
   2f17c:	00bfff84 	movi	r2,-2
   2f180:	1884703a 	and	r2,r3,r2
   2f184:	1001703a 	wrctl	status,r2
  
  return context;
   2f188:	e0bffc17 	ldw	r2,-16(fp)
  alt_irq_context context;
  char *prev_heap_end; 

  context = alt_irq_disable_all();
   2f18c:	e0bffa15 	stw	r2,-24(fp)

  /* Always return data aligned on a word boundary */
  heap_end = (char *)(((unsigned int)heap_end + 3) & ~3);
   2f190:	d0a00f17 	ldw	r2,-32708(gp)
   2f194:	10c000c4 	addi	r3,r2,3
   2f198:	00bfff04 	movi	r2,-4
   2f19c:	1884703a 	and	r2,r3,r2
   2f1a0:	d0a00f15 	stw	r2,-32708(gp)
  if (((heap_end + incr) - __alt_heap_start) > ALT_MAX_HEAP_BYTES) {
    alt_irq_enable_all(context);
    return (caddr_t)-1;
  }
#else
  if ((heap_end + incr) > __alt_heap_limit) {
   2f1a4:	d0e00f17 	ldw	r3,-32708(gp)
   2f1a8:	e0bfff17 	ldw	r2,-4(fp)
   2f1ac:	1887883a 	add	r3,r3,r2
   2f1b0:	00800134 	movhi	r2,4
   2f1b4:	10a1a804 	addi	r2,r2,-31072
   2f1b8:	10c0062e 	bgeu	r2,r3,2f1d4 <sbrk+0x74>
   2f1bc:	e0bffa17 	ldw	r2,-24(fp)
   2f1c0:	e0bffd15 	stw	r2,-12(fp)
  status &= ~NIOS2_STATUS_PIE_MSK;
  status |= (context & NIOS2_STATUS_PIE_MSK);
  
  NIOS2_WRITE_STATUS (status);
#else
  NIOS2_WRITE_STATUS (context);
   2f1c4:	e0bffd17 	ldw	r2,-12(fp)
   2f1c8:	1001703a 	wrctl	status,r2
    alt_irq_enable_all(context);
    return (caddr_t)-1;
   2f1cc:	00bfffc4 	movi	r2,-1
   2f1d0:	00000b06 	br	2f200 <sbrk+0xa0>
  }
#endif

  prev_heap_end = heap_end; 
   2f1d4:	d0a00f17 	ldw	r2,-32708(gp)
   2f1d8:	e0bffb15 	stw	r2,-20(fp)
  heap_end += incr; 
   2f1dc:	d0e00f17 	ldw	r3,-32708(gp)
   2f1e0:	e0bfff17 	ldw	r2,-4(fp)
   2f1e4:	1885883a 	add	r2,r3,r2
   2f1e8:	d0a00f15 	stw	r2,-32708(gp)
   2f1ec:	e0bffa17 	ldw	r2,-24(fp)
   2f1f0:	e0bffe15 	stw	r2,-8(fp)
   2f1f4:	e0bffe17 	ldw	r2,-8(fp)
   2f1f8:	1001703a 	wrctl	status,r2

#endif

  alt_irq_enable_all(context);

  return (caddr_t) prev_heap_end; 
   2f1fc:	e0bffb17 	ldw	r2,-20(fp)
} 
   2f200:	e037883a 	mov	sp,fp
   2f204:	df000017 	ldw	fp,0(sp)
   2f208:	dec00104 	addi	sp,sp,4
   2f20c:	f800283a 	ret

0002f210 <alt_alarm_stop>:
 * alarms. Alternatively an alarm can unregister itself by returning zero when 
 * the alarm executes.
 */

void alt_alarm_stop (alt_alarm* alarm)
{
   2f210:	defffa04 	addi	sp,sp,-24
   2f214:	df000515 	stw	fp,20(sp)
   2f218:	df000504 	addi	fp,sp,20
   2f21c:	e13fff15 	stw	r4,-4(fp)
static ALT_INLINE alt_irq_context ALT_ALWAYS_INLINE 
       alt_irq_disable_all (void)
{
  alt_irq_context context;

  NIOS2_READ_STATUS (context);
   2f220:	0005303a 	rdctl	r2,status
   2f224:	e0bffc15 	stw	r2,-16(fp)

  NIOS2_WRITE_STATUS (context & ~NIOS2_STATUS_PIE_MSK);
   2f228:	e0fffc17 	ldw	r3,-16(fp)
   2f22c:	00bfff84 	movi	r2,-2
   2f230:	1884703a 	and	r2,r3,r2
   2f234:	1001703a 	wrctl	status,r2
  
  return context;
   2f238:	e0bffc17 	ldw	r2,-16(fp)
  alt_irq_context irq_context;

  irq_context = alt_irq_disable_all();
   2f23c:	e0bffb15 	stw	r2,-20(fp)
  alt_llist_remove (&alarm->llist);
   2f240:	e0bfff17 	ldw	r2,-4(fp)
   2f244:	e0bffd15 	stw	r2,-12(fp)
 * input argument is the element to remove.
 */
     
static ALT_INLINE void ALT_ALWAYS_INLINE alt_llist_remove(alt_llist* entry)
{
  entry->next->previous = entry->previous;
   2f248:	e0bffd17 	ldw	r2,-12(fp)
   2f24c:	10800017 	ldw	r2,0(r2)
   2f250:	e0fffd17 	ldw	r3,-12(fp)
   2f254:	18c00117 	ldw	r3,4(r3)
   2f258:	10c00115 	stw	r3,4(r2)
  entry->previous->next = entry->next;
   2f25c:	e0bffd17 	ldw	r2,-12(fp)
   2f260:	10800117 	ldw	r2,4(r2)
   2f264:	e0fffd17 	ldw	r3,-12(fp)
   2f268:	18c00017 	ldw	r3,0(r3)
   2f26c:	10c00015 	stw	r3,0(r2)
  /* 
   * Set the entry to point to itself, so that any further calls to
   * alt_llist_remove() are harmless.
   */

  entry->previous = entry;
   2f270:	e0bffd17 	ldw	r2,-12(fp)
   2f274:	e0fffd17 	ldw	r3,-12(fp)
   2f278:	10c00115 	stw	r3,4(r2)
  entry->next     = entry;
   2f27c:	e0bffd17 	ldw	r2,-12(fp)
   2f280:	e0fffd17 	ldw	r3,-12(fp)
   2f284:	10c00015 	stw	r3,0(r2)
   2f288:	e0bffb17 	ldw	r2,-20(fp)
   2f28c:	e0bffe15 	stw	r2,-8(fp)
  status &= ~NIOS2_STATUS_PIE_MSK;
  status |= (context & NIOS2_STATUS_PIE_MSK);
  
  NIOS2_WRITE_STATUS (status);
#else
  NIOS2_WRITE_STATUS (context);
   2f290:	e0bffe17 	ldw	r2,-8(fp)
   2f294:	1001703a 	wrctl	status,r2
  alt_irq_enable_all (irq_context);
}
   2f298:	e037883a 	mov	sp,fp
   2f29c:	df000017 	ldw	fp,0(sp)
   2f2a0:	dec00104 	addi	sp,sp,4
   2f2a4:	f800283a 	ret

0002f2a8 <alt_tick>:
 * 
 * alt_tick() is expected to run at interrupt level.
 */

void alt_tick (void)
{
   2f2a8:	defffb04 	addi	sp,sp,-20
   2f2ac:	dfc00415 	stw	ra,16(sp)
   2f2b0:	df000315 	stw	fp,12(sp)
   2f2b4:	df000304 	addi	fp,sp,12
  alt_alarm* next;
  alt_alarm* alarm = (alt_alarm*) alt_alarm_list.next;
   2f2b8:	d0a01017 	ldw	r2,-32704(gp)
   2f2bc:	e0bffd15 	stw	r2,-12(fp)

  alt_u32    next_callback;

  /* update the tick counter */

  _alt_nticks++;
   2f2c0:	d0a8c217 	ldw	r2,-23800(gp)
   2f2c4:	10800044 	addi	r2,r2,1
   2f2c8:	d0a8c215 	stw	r2,-23800(gp)

  /* process the registered callbacks */

  while (alarm != (alt_alarm*) &alt_alarm_list)
   2f2cc:	00002e06 	br	2f388 <alt_tick+0xe0>
  {
    next = (alt_alarm*) alarm->llist.next;
   2f2d0:	e0bffd17 	ldw	r2,-12(fp)
   2f2d4:	10800017 	ldw	r2,0(r2)
   2f2d8:	e0bffe15 	stw	r2,-8(fp)
    /* 
     * Upon the tick-counter rolling over it is safe to clear the 
     * roll-over flag; once the flag is cleared this (or subsequnt)
     * tick events are enabled to generate an alarm event. 
     */
    if ((alarm->rollover) && (_alt_nticks == 0))
   2f2dc:	e0bffd17 	ldw	r2,-12(fp)
   2f2e0:	10800403 	ldbu	r2,16(r2)
   2f2e4:	10803fcc 	andi	r2,r2,255
   2f2e8:	10000426 	beq	r2,zero,2f2fc <alt_tick+0x54>
   2f2ec:	d0a8c217 	ldw	r2,-23800(gp)
   2f2f0:	1000021e 	bne	r2,zero,2f2fc <alt_tick+0x54>
    {
      alarm->rollover = 0;
   2f2f4:	e0bffd17 	ldw	r2,-12(fp)
   2f2f8:	10000405 	stb	zero,16(r2)
    }
    
    /* if the alarm period has expired, make the callback */    
    if ((alarm->time <= _alt_nticks) && (alarm->rollover == 0))
   2f2fc:	e0bffd17 	ldw	r2,-12(fp)
   2f300:	10800217 	ldw	r2,8(r2)
   2f304:	d0e8c217 	ldw	r3,-23800(gp)
   2f308:	18801d36 	bltu	r3,r2,2f380 <alt_tick+0xd8>
   2f30c:	e0bffd17 	ldw	r2,-12(fp)
   2f310:	10800403 	ldbu	r2,16(r2)
   2f314:	10803fcc 	andi	r2,r2,255
   2f318:	1000191e 	bne	r2,zero,2f380 <alt_tick+0xd8>
    {
      next_callback = alarm->callback (alarm->context);
   2f31c:	e0bffd17 	ldw	r2,-12(fp)
   2f320:	10800317 	ldw	r2,12(r2)
   2f324:	e0fffd17 	ldw	r3,-12(fp)
   2f328:	18c00517 	ldw	r3,20(r3)
   2f32c:	1809883a 	mov	r4,r3
   2f330:	103ee83a 	callr	r2
   2f334:	e0bfff15 	stw	r2,-4(fp)

      /* deactivate the alarm if the return value is zero */

      if (next_callback == 0)
   2f338:	e0bfff17 	ldw	r2,-4(fp)
   2f33c:	1000031e 	bne	r2,zero,2f34c <alt_tick+0xa4>
      {
        alt_alarm_stop (alarm);
   2f340:	e13ffd17 	ldw	r4,-12(fp)
   2f344:	002f2100 	call	2f210 <alt_alarm_stop>
   2f348:	00000d06 	br	2f380 <alt_tick+0xd8>
      }
      else
      {
        alarm->time += next_callback;
   2f34c:	e0bffd17 	ldw	r2,-12(fp)
   2f350:	10c00217 	ldw	r3,8(r2)
   2f354:	e0bfff17 	ldw	r2,-4(fp)
   2f358:	1887883a 	add	r3,r3,r2
   2f35c:	e0bffd17 	ldw	r2,-12(fp)
   2f360:	10c00215 	stw	r3,8(r2)
        /* 
         * If the desired alarm time causes a roll-over, set the rollover
         * flag. This will prevent the subsequent tick event from causing
         * an alarm too early.
         */
        if(alarm->time < _alt_nticks)
   2f364:	e0bffd17 	ldw	r2,-12(fp)
   2f368:	10c00217 	ldw	r3,8(r2)
   2f36c:	d0a8c217 	ldw	r2,-23800(gp)
   2f370:	1880032e 	bgeu	r3,r2,2f380 <alt_tick+0xd8>
        {
          alarm->rollover = 1;
   2f374:	e0bffd17 	ldw	r2,-12(fp)
   2f378:	00c00044 	movi	r3,1
   2f37c:	10c00405 	stb	r3,16(r2)
        }
      }
    }
    alarm = next;
   2f380:	e0bffe17 	ldw	r2,-8(fp)
   2f384:	e0bffd15 	stw	r2,-12(fp)

  _alt_nticks++;

  /* process the registered callbacks */

  while (alarm != (alt_alarm*) &alt_alarm_list)
   2f388:	e0fffd17 	ldw	r3,-12(fp)
   2f38c:	d0a01004 	addi	r2,gp,-32704
   2f390:	18bfcf1e 	bne	r3,r2,2f2d0 <_gp+0xffff345c>

  /* 
   * Update the operating system specific timer facilities.
   */

  ALT_OS_TIME_TICK();
   2f394:	0001883a 	nop
}
   2f398:	e037883a 	mov	sp,fp
   2f39c:	dfc00117 	ldw	ra,4(sp)
   2f3a0:	df000017 	ldw	fp,0(sp)
   2f3a4:	dec00204 	addi	sp,sp,8
   2f3a8:	f800283a 	ret

0002f3ac <usleep>:
#if defined (__GNUC__) && __GNUC__ >= 4
int ALT_USLEEP (useconds_t us)
#else
unsigned int ALT_USLEEP (unsigned int us)
#endif
{
   2f3ac:	defffd04 	addi	sp,sp,-12
   2f3b0:	dfc00215 	stw	ra,8(sp)
   2f3b4:	df000115 	stw	fp,4(sp)
   2f3b8:	df000104 	addi	fp,sp,4
   2f3bc:	e13fff15 	stw	r4,-4(fp)
  return alt_busy_sleep(us);
   2f3c0:	e13fff17 	ldw	r4,-4(fp)
   2f3c4:	00302780 	call	30278 <alt_busy_sleep>
}
   2f3c8:	e037883a 	mov	sp,fp
   2f3cc:	dfc00117 	ldw	ra,4(sp)
   2f3d0:	df000017 	ldw	fp,0(sp)
   2f3d4:	dec00204 	addi	sp,sp,8
   2f3d8:	f800283a 	ret

0002f3dc <alt_get_errno>:
#undef errno

extern int errno;

static ALT_INLINE int* alt_get_errno(void)
{
   2f3dc:	defffe04 	addi	sp,sp,-8
   2f3e0:	dfc00115 	stw	ra,4(sp)
   2f3e4:	df000015 	stw	fp,0(sp)
   2f3e8:	d839883a 	mov	fp,sp
  return ((alt_errno) ? alt_errno() : &errno);
   2f3ec:	008000f4 	movhi	r2,3
   2f3f0:	108fab04 	addi	r2,r2,16044
   2f3f4:	10800017 	ldw	r2,0(r2)
   2f3f8:	10000526 	beq	r2,zero,2f410 <alt_get_errno+0x34>
   2f3fc:	008000f4 	movhi	r2,3
   2f400:	108fab04 	addi	r2,r2,16044
   2f404:	10800017 	ldw	r2,0(r2)
   2f408:	103ee83a 	callr	r2
   2f40c:	00000206 	br	2f418 <alt_get_errno+0x3c>
   2f410:	008000f4 	movhi	r2,3
   2f414:	10985704 	addi	r2,r2,24924
}
   2f418:	e037883a 	mov	sp,fp
   2f41c:	dfc00117 	ldw	ra,4(sp)
   2f420:	df000017 	ldw	fp,0(sp)
   2f424:	dec00204 	addi	sp,sp,8
   2f428:	f800283a 	ret

0002f42c <write>:
}

#else /* !ALT_USE_DIRECT_DRIVERS */

int ALT_WRITE (int file, const void *ptr, size_t len)
{
   2f42c:	defff904 	addi	sp,sp,-28
   2f430:	dfc00615 	stw	ra,24(sp)
   2f434:	df000515 	stw	fp,20(sp)
   2f438:	df000504 	addi	fp,sp,20
   2f43c:	e13ffd15 	stw	r4,-12(fp)
   2f440:	e17ffe15 	stw	r5,-8(fp)
   2f444:	e1bfff15 	stw	r6,-4(fp)
   * A common error case is that when the file descriptor was created, the call
   * to open() failed resulting in a negative file descriptor. This is trapped
   * below so that we don't try and process an invalid file descriptor.
   */

  fd = (file < 0) ? NULL : &alt_fd_list[file];
   2f448:	e0bffd17 	ldw	r2,-12(fp)
   2f44c:	10000616 	blt	r2,zero,2f468 <write+0x3c>
   2f450:	e0bffd17 	ldw	r2,-12(fp)
   2f454:	10c00324 	muli	r3,r2,12
   2f458:	008000f4 	movhi	r2,3
   2f45c:	108b2504 	addi	r2,r2,11412
   2f460:	1885883a 	add	r2,r3,r2
   2f464:	00000106 	br	2f46c <write+0x40>
   2f468:	0005883a 	mov	r2,zero
   2f46c:	e0bffb15 	stw	r2,-20(fp)
  
  if (fd)
   2f470:	e0bffb17 	ldw	r2,-20(fp)
   2f474:	10002126 	beq	r2,zero,2f4fc <write+0xd0>
     * If the file has not been opened with write access, or if the driver does
     * not provide an implementation of write(), generate an error. Otherwise
     * call the drivers write() function to process the request.
     */

    if (((fd->fd_flags & O_ACCMODE) != O_RDONLY) && fd->dev->write)
   2f478:	e0bffb17 	ldw	r2,-20(fp)
   2f47c:	10800217 	ldw	r2,8(r2)
   2f480:	108000cc 	andi	r2,r2,3
   2f484:	10001826 	beq	r2,zero,2f4e8 <write+0xbc>
   2f488:	e0bffb17 	ldw	r2,-20(fp)
   2f48c:	10800017 	ldw	r2,0(r2)
   2f490:	10800617 	ldw	r2,24(r2)
   2f494:	10001426 	beq	r2,zero,2f4e8 <write+0xbc>
    {
      
      /* ALT_LOG - see altera_hal/HAL/inc/sys/alt_log_printf.h */
      ALT_LOG_WRITE_FUNCTION(ptr,len);

      if ((rval = fd->dev->write(fd, ptr, len)) < 0)
   2f498:	e0bffb17 	ldw	r2,-20(fp)
   2f49c:	10800017 	ldw	r2,0(r2)
   2f4a0:	10800617 	ldw	r2,24(r2)
   2f4a4:	e0ffff17 	ldw	r3,-4(fp)
   2f4a8:	e13ffb17 	ldw	r4,-20(fp)
   2f4ac:	e17ffe17 	ldw	r5,-8(fp)
   2f4b0:	180d883a 	mov	r6,r3
   2f4b4:	103ee83a 	callr	r2
   2f4b8:	e0bffc15 	stw	r2,-16(fp)
   2f4bc:	e0bffc17 	ldw	r2,-16(fp)
   2f4c0:	1000070e 	bge	r2,zero,2f4e0 <write+0xb4>
      {
        ALT_ERRNO = -rval;
   2f4c4:	002f3dc0 	call	2f3dc <alt_get_errno>
   2f4c8:	1007883a 	mov	r3,r2
   2f4cc:	e0bffc17 	ldw	r2,-16(fp)
   2f4d0:	0085c83a 	sub	r2,zero,r2
   2f4d4:	18800015 	stw	r2,0(r3)
        return -1;
   2f4d8:	00bfffc4 	movi	r2,-1
   2f4dc:	00000c06 	br	2f510 <write+0xe4>
      }
      return rval;
   2f4e0:	e0bffc17 	ldw	r2,-16(fp)
   2f4e4:	00000a06 	br	2f510 <write+0xe4>
    }
    else
    {
      ALT_ERRNO = EACCES;
   2f4e8:	002f3dc0 	call	2f3dc <alt_get_errno>
   2f4ec:	1007883a 	mov	r3,r2
   2f4f0:	00800344 	movi	r2,13
   2f4f4:	18800015 	stw	r2,0(r3)
   2f4f8:	00000406 	br	2f50c <write+0xe0>
    }
  }
  else  
  {
    ALT_ERRNO = EBADFD;
   2f4fc:	002f3dc0 	call	2f3dc <alt_get_errno>
   2f500:	1007883a 	mov	r3,r2
   2f504:	00801444 	movi	r2,81
   2f508:	18800015 	stw	r2,0(r3)
  }
  return -1;
   2f50c:	00bfffc4 	movi	r2,-1
}
   2f510:	e037883a 	mov	sp,fp
   2f514:	dfc00117 	ldw	ra,4(sp)
   2f518:	df000017 	ldw	fp,0(sp)
   2f51c:	dec00204 	addi	sp,sp,8
   2f520:	f800283a 	ret

0002f524 <alt_dev_reg>:
 */

extern int alt_fs_reg  (alt_dev* dev); 

static ALT_INLINE int alt_dev_reg (alt_dev* dev)
{
   2f524:	defffd04 	addi	sp,sp,-12
   2f528:	dfc00215 	stw	ra,8(sp)
   2f52c:	df000115 	stw	fp,4(sp)
   2f530:	df000104 	addi	fp,sp,4
   2f534:	e13fff15 	stw	r4,-4(fp)
  extern alt_llist alt_dev_list;

  return alt_dev_llist_insert ((alt_dev_llist*) dev, &alt_dev_list);
   2f538:	e13fff17 	ldw	r4,-4(fp)
   2f53c:	014000f4 	movhi	r5,3
   2f540:	294fa804 	addi	r5,r5,16032
   2f544:	00304640 	call	30464 <alt_dev_llist_insert>
}
   2f548:	e037883a 	mov	sp,fp
   2f54c:	dfc00117 	ldw	ra,4(sp)
   2f550:	df000017 	ldw	fp,0(sp)
   2f554:	dec00204 	addi	sp,sp,8
   2f558:	f800283a 	ret

0002f55c <alt_irq_init>:
 * The "base" parameter is ignored and only
 * present for backwards-compatibility.
 */

void alt_irq_init ( const void* base )
{
   2f55c:	defffd04 	addi	sp,sp,-12
   2f560:	dfc00215 	stw	ra,8(sp)
   2f564:	df000115 	stw	fp,4(sp)
   2f568:	df000104 	addi	fp,sp,4
   2f56c:	e13fff15 	stw	r4,-4(fp)
    ALTERA_NIOS2_GEN2_IRQ_INIT ( NIOS2_GEN2, nios2_gen2);
   2f570:	0030c6c0 	call	30c6c <altera_nios2_gen2_irq_init>
 * alt_irq_cpu_enable_interrupts() enables the CPU to start taking interrupts.
 */
static ALT_INLINE void ALT_ALWAYS_INLINE 
       alt_irq_cpu_enable_interrupts (void)
{
    NIOS2_WRITE_STATUS(NIOS2_STATUS_PIE_MSK
   2f574:	00800044 	movi	r2,1
   2f578:	1001703a 	wrctl	status,r2
    alt_irq_cpu_enable_interrupts();
}
   2f57c:	e037883a 	mov	sp,fp
   2f580:	dfc00117 	ldw	ra,4(sp)
   2f584:	df000017 	ldw	fp,0(sp)
   2f588:	dec00204 	addi	sp,sp,8
   2f58c:	f800283a 	ret

0002f590 <alt_sys_init>:
 * Initialize the non-interrupt controller devices.
 * Called after alt_irq_init().
 */

void alt_sys_init( void )
{
   2f590:	defffe04 	addi	sp,sp,-8
   2f594:	dfc00115 	stw	ra,4(sp)
   2f598:	df000015 	stw	fp,0(sp)
   2f59c:	d839883a 	mov	fp,sp
    ALTERA_AVALON_TIMER_INIT ( TIMER, timer);
   2f5a0:	01000134 	movhi	r4,4
   2f5a4:	21041004 	addi	r4,r4,4160
   2f5a8:	000b883a 	mov	r5,zero
   2f5ac:	018000c4 	movi	r6,3
   2f5b0:	01c0fa04 	movi	r7,1000
   2f5b4:	00300b00 	call	300b0 <alt_avalon_timer_sc_init>
    ALTERA_AVALON_JTAG_UART_INIT ( JTAG_UART, jtag_uart);
   2f5b8:	010000f4 	movhi	r4,3
   2f5bc:	210b8f04 	addi	r4,r4,11836
   2f5c0:	000b883a 	mov	r5,zero
   2f5c4:	01800084 	movi	r6,2
   2f5c8:	002f7540 	call	2f754 <altera_avalon_jtag_uart_init>
   2f5cc:	010000f4 	movhi	r4,3
   2f5d0:	210b8504 	addi	r4,r4,11796
   2f5d4:	002f5240 	call	2f524 <alt_dev_reg>
    ALTERA_AVALON_SYSID_QSYS_INIT ( SYSID_QSYS, sysid_qsys);
   2f5d8:	0001883a 	nop
}
   2f5dc:	e037883a 	mov	sp,fp
   2f5e0:	dfc00117 	ldw	ra,4(sp)
   2f5e4:	df000017 	ldw	fp,0(sp)
   2f5e8:	dec00204 	addi	sp,sp,8
   2f5ec:	f800283a 	ret

0002f5f0 <altera_avalon_jtag_uart_read_fd>:
 *
 */

int 
altera_avalon_jtag_uart_read_fd(alt_fd* fd, char* buffer, int space)
{
   2f5f0:	defffa04 	addi	sp,sp,-24
   2f5f4:	dfc00515 	stw	ra,20(sp)
   2f5f8:	df000415 	stw	fp,16(sp)
   2f5fc:	df000404 	addi	fp,sp,16
   2f600:	e13ffd15 	stw	r4,-12(fp)
   2f604:	e17ffe15 	stw	r5,-8(fp)
   2f608:	e1bfff15 	stw	r6,-4(fp)
    altera_avalon_jtag_uart_dev* dev = (altera_avalon_jtag_uart_dev*) fd->dev; 
   2f60c:	e0bffd17 	ldw	r2,-12(fp)
   2f610:	10800017 	ldw	r2,0(r2)
   2f614:	e0bffc15 	stw	r2,-16(fp)

    return altera_avalon_jtag_uart_read(&dev->state, buffer, space,
   2f618:	e0bffc17 	ldw	r2,-16(fp)
   2f61c:	10c00a04 	addi	r3,r2,40
   2f620:	e0bffd17 	ldw	r2,-12(fp)
   2f624:	10800217 	ldw	r2,8(r2)
   2f628:	1809883a 	mov	r4,r3
   2f62c:	e17ffe17 	ldw	r5,-8(fp)
   2f630:	e1bfff17 	ldw	r6,-4(fp)
   2f634:	100f883a 	mov	r7,r2
   2f638:	002fc180 	call	2fc18 <altera_avalon_jtag_uart_read>
      fd->fd_flags);
}
   2f63c:	e037883a 	mov	sp,fp
   2f640:	dfc00117 	ldw	ra,4(sp)
   2f644:	df000017 	ldw	fp,0(sp)
   2f648:	dec00204 	addi	sp,sp,8
   2f64c:	f800283a 	ret

0002f650 <altera_avalon_jtag_uart_write_fd>:

int 
altera_avalon_jtag_uart_write_fd(alt_fd* fd, const char* buffer, int space)
{
   2f650:	defffa04 	addi	sp,sp,-24
   2f654:	dfc00515 	stw	ra,20(sp)
   2f658:	df000415 	stw	fp,16(sp)
   2f65c:	df000404 	addi	fp,sp,16
   2f660:	e13ffd15 	stw	r4,-12(fp)
   2f664:	e17ffe15 	stw	r5,-8(fp)
   2f668:	e1bfff15 	stw	r6,-4(fp)
    altera_avalon_jtag_uart_dev* dev = (altera_avalon_jtag_uart_dev*) fd->dev; 
   2f66c:	e0bffd17 	ldw	r2,-12(fp)
   2f670:	10800017 	ldw	r2,0(r2)
   2f674:	e0bffc15 	stw	r2,-16(fp)

    return altera_avalon_jtag_uart_write(&dev->state, buffer, space,
   2f678:	e0bffc17 	ldw	r2,-16(fp)
   2f67c:	10c00a04 	addi	r3,r2,40
   2f680:	e0bffd17 	ldw	r2,-12(fp)
   2f684:	10800217 	ldw	r2,8(r2)
   2f688:	1809883a 	mov	r4,r3
   2f68c:	e17ffe17 	ldw	r5,-8(fp)
   2f690:	e1bfff17 	ldw	r6,-4(fp)
   2f694:	100f883a 	mov	r7,r2
   2f698:	002fe240 	call	2fe24 <altera_avalon_jtag_uart_write>
      fd->fd_flags);
}
   2f69c:	e037883a 	mov	sp,fp
   2f6a0:	dfc00117 	ldw	ra,4(sp)
   2f6a4:	df000017 	ldw	fp,0(sp)
   2f6a8:	dec00204 	addi	sp,sp,8
   2f6ac:	f800283a 	ret

0002f6b0 <altera_avalon_jtag_uart_close_fd>:

#ifndef ALTERA_AVALON_JTAG_UART_SMALL

int 
altera_avalon_jtag_uart_close_fd(alt_fd* fd)
{
   2f6b0:	defffc04 	addi	sp,sp,-16
   2f6b4:	dfc00315 	stw	ra,12(sp)
   2f6b8:	df000215 	stw	fp,8(sp)
   2f6bc:	df000204 	addi	fp,sp,8
   2f6c0:	e13fff15 	stw	r4,-4(fp)
    altera_avalon_jtag_uart_dev* dev = (altera_avalon_jtag_uart_dev*) fd->dev; 
   2f6c4:	e0bfff17 	ldw	r2,-4(fp)
   2f6c8:	10800017 	ldw	r2,0(r2)
   2f6cc:	e0bffe15 	stw	r2,-8(fp)

    return altera_avalon_jtag_uart_close(&dev->state, fd->fd_flags);
   2f6d0:	e0bffe17 	ldw	r2,-8(fp)
   2f6d4:	10c00a04 	addi	r3,r2,40
   2f6d8:	e0bfff17 	ldw	r2,-4(fp)
   2f6dc:	10800217 	ldw	r2,8(r2)
   2f6e0:	1809883a 	mov	r4,r3
   2f6e4:	100b883a 	mov	r5,r2
   2f6e8:	002fac40 	call	2fac4 <altera_avalon_jtag_uart_close>
}
   2f6ec:	e037883a 	mov	sp,fp
   2f6f0:	dfc00117 	ldw	ra,4(sp)
   2f6f4:	df000017 	ldw	fp,0(sp)
   2f6f8:	dec00204 	addi	sp,sp,8
   2f6fc:	f800283a 	ret

0002f700 <altera_avalon_jtag_uart_ioctl_fd>:

int 
altera_avalon_jtag_uart_ioctl_fd(alt_fd* fd, int req, void* arg)
{
   2f700:	defffa04 	addi	sp,sp,-24
   2f704:	dfc00515 	stw	ra,20(sp)
   2f708:	df000415 	stw	fp,16(sp)
   2f70c:	df000404 	addi	fp,sp,16
   2f710:	e13ffd15 	stw	r4,-12(fp)
   2f714:	e17ffe15 	stw	r5,-8(fp)
   2f718:	e1bfff15 	stw	r6,-4(fp)
    altera_avalon_jtag_uart_dev* dev = (altera_avalon_jtag_uart_dev*) fd->dev;
   2f71c:	e0bffd17 	ldw	r2,-12(fp)
   2f720:	10800017 	ldw	r2,0(r2)
   2f724:	e0bffc15 	stw	r2,-16(fp)

    return altera_avalon_jtag_uart_ioctl(&dev->state, req, arg);
   2f728:	e0bffc17 	ldw	r2,-16(fp)
   2f72c:	10800a04 	addi	r2,r2,40
   2f730:	1009883a 	mov	r4,r2
   2f734:	e17ffe17 	ldw	r5,-8(fp)
   2f738:	e1bfff17 	ldw	r6,-4(fp)
   2f73c:	002fb2c0 	call	2fb2c <altera_avalon_jtag_uart_ioctl>
}
   2f740:	e037883a 	mov	sp,fp
   2f744:	dfc00117 	ldw	ra,4(sp)
   2f748:	df000017 	ldw	fp,0(sp)
   2f74c:	dec00204 	addi	sp,sp,8
   2f750:	f800283a 	ret

0002f754 <altera_avalon_jtag_uart_init>:
 * Return 1 on sucessful IRQ register and 0 on failure.
 */

void altera_avalon_jtag_uart_init(altera_avalon_jtag_uart_state* sp, 
                                  int irq_controller_id, int irq)
{
   2f754:	defffa04 	addi	sp,sp,-24
   2f758:	dfc00515 	stw	ra,20(sp)
   2f75c:	df000415 	stw	fp,16(sp)
   2f760:	df000404 	addi	fp,sp,16
   2f764:	e13ffd15 	stw	r4,-12(fp)
   2f768:	e17ffe15 	stw	r5,-8(fp)
   2f76c:	e1bfff15 	stw	r6,-4(fp)
  ALT_FLAG_CREATE(&sp->events, 0);
  ALT_SEM_CREATE(&sp->read_lock, 1);
  ALT_SEM_CREATE(&sp->write_lock, 1);

  /* enable read interrupts at the device */
  sp->irq_enable = ALTERA_AVALON_JTAG_UART_CONTROL_RE_MSK;
   2f770:	e0bffd17 	ldw	r2,-12(fp)
   2f774:	00c00044 	movi	r3,1
   2f778:	10c00815 	stw	r3,32(r2)

  IOWR_ALTERA_AVALON_JTAG_UART_CONTROL(sp->base, sp->irq_enable); 
   2f77c:	e0bffd17 	ldw	r2,-12(fp)
   2f780:	10800017 	ldw	r2,0(r2)
   2f784:	10800104 	addi	r2,r2,4
   2f788:	1007883a 	mov	r3,r2
   2f78c:	e0bffd17 	ldw	r2,-12(fp)
   2f790:	10800817 	ldw	r2,32(r2)
   2f794:	18800035 	stwio	r2,0(r3)
  
  /* register the interrupt handler */
#ifdef ALT_ENHANCED_INTERRUPT_API_PRESENT
  alt_ic_isr_register(irq_controller_id, irq, altera_avalon_jtag_uart_irq, 
   2f798:	e0fffe17 	ldw	r3,-8(fp)
   2f79c:	e0bfff17 	ldw	r2,-4(fp)
   2f7a0:	d8000015 	stw	zero,0(sp)
   2f7a4:	1809883a 	mov	r4,r3
   2f7a8:	100b883a 	mov	r5,r2
   2f7ac:	018000f4 	movhi	r6,3
   2f7b0:	31be0604 	addi	r6,r6,-2024
   2f7b4:	e1fffd17 	ldw	r7,-12(fp)
   2f7b8:	00305f00 	call	305f0 <alt_ic_isr_register>
#else
  alt_irq_register(irq, sp, altera_avalon_jtag_uart_irq);
#endif  

  /* Register an alarm to go off every second to check for presence of host */
  sp->host_inactive = 0;
   2f7bc:	e0bffd17 	ldw	r2,-12(fp)
   2f7c0:	10000915 	stw	zero,36(r2)

  if (alt_alarm_start(&sp->alarm, alt_ticks_per_second(), 
   2f7c4:	e0bffd17 	ldw	r2,-12(fp)
   2f7c8:	10c00204 	addi	r3,r2,8
 * Obtain the system clock rate in ticks/s. 
 */

static ALT_INLINE alt_u32 ALT_ALWAYS_INLINE alt_ticks_per_second (void)
{
  return _alt_tick_rate;
   2f7cc:	008000f4 	movhi	r2,3
   2f7d0:	10985e04 	addi	r2,r2,24952
   2f7d4:	10800017 	ldw	r2,0(r2)
   2f7d8:	1809883a 	mov	r4,r3
   2f7dc:	100b883a 	mov	r5,r2
   2f7e0:	018000f4 	movhi	r6,3
   2f7e4:	31be8704 	addi	r6,r6,-1508
   2f7e8:	e1fffd17 	ldw	r7,-12(fp)
   2f7ec:	00301380 	call	30138 <alt_alarm_start>
   2f7f0:	1000040e 	bge	r2,zero,2f804 <altera_avalon_jtag_uart_init+0xb0>
    &altera_avalon_jtag_uart_timeout, sp) < 0)
  {
    /* If we can't set the alarm then record "don't know if host present" 
     * and behave as though the host is present.
     */
    sp->timeout = INT_MAX;
   2f7f4:	e0fffd17 	ldw	r3,-12(fp)
   2f7f8:	00a00034 	movhi	r2,32768
   2f7fc:	10bfffc4 	addi	r2,r2,-1
   2f800:	18800115 	stw	r2,4(r3)
  }

  /* ALT_LOG - see altera_hal/HAL/inc/sys/alt_log_printf.h */ 
  ALT_LOG_JTAG_UART_ALARM_REGISTER(sp, sp->base);
}
   2f804:	e037883a 	mov	sp,fp
   2f808:	dfc00117 	ldw	ra,4(sp)
   2f80c:	df000017 	ldw	fp,0(sp)
   2f810:	dec00204 	addi	sp,sp,8
   2f814:	f800283a 	ret

0002f818 <altera_avalon_jtag_uart_irq>:
#ifdef ALT_ENHANCED_INTERRUPT_API_PRESENT
static void altera_avalon_jtag_uart_irq(void* context)
#else
static void altera_avalon_jtag_uart_irq(void* context, alt_u32 id)
#endif
{
   2f818:	defff804 	addi	sp,sp,-32
   2f81c:	df000715 	stw	fp,28(sp)
   2f820:	df000704 	addi	fp,sp,28
   2f824:	e13fff15 	stw	r4,-4(fp)
  altera_avalon_jtag_uart_state* sp = (altera_avalon_jtag_uart_state*) context;
   2f828:	e0bfff17 	ldw	r2,-4(fp)
   2f82c:	e0bffb15 	stw	r2,-20(fp)
  unsigned int base = sp->base;
   2f830:	e0bffb17 	ldw	r2,-20(fp)
   2f834:	10800017 	ldw	r2,0(r2)
   2f838:	e0bffc15 	stw	r2,-16(fp)
  /* ALT_LOG - see altera_hal/HAL/inc/sys/alt_log_printf.h */ 
  ALT_LOG_JTAG_UART_ISR_FUNCTION(base, sp);

  for ( ; ; )
  {
    unsigned int control = IORD_ALTERA_AVALON_JTAG_UART_CONTROL(base);
   2f83c:	e0bffc17 	ldw	r2,-16(fp)
   2f840:	10800104 	addi	r2,r2,4
   2f844:	10800037 	ldwio	r2,0(r2)
   2f848:	e0bffd15 	stw	r2,-12(fp)

    /* Return once nothing more to do */
    if ((control & (ALTERA_AVALON_JTAG_UART_CONTROL_RI_MSK | ALTERA_AVALON_JTAG_UART_CONTROL_WI_MSK)) == 0)
   2f84c:	e0bffd17 	ldw	r2,-12(fp)
   2f850:	1080c00c 	andi	r2,r2,768
   2f854:	1000011e 	bne	r2,zero,2f85c <altera_avalon_jtag_uart_irq+0x44>
      break;
   2f858:	00006c06 	br	2fa0c <altera_avalon_jtag_uart_irq+0x1f4>

    if (control & ALTERA_AVALON_JTAG_UART_CONTROL_RI_MSK)
   2f85c:	e0bffd17 	ldw	r2,-12(fp)
   2f860:	1080400c 	andi	r2,r2,256
   2f864:	10003426 	beq	r2,zero,2f938 <altera_avalon_jtag_uart_irq+0x120>
    {
      /* process a read irq.  Start by assuming that there is data in the
       * receive FIFO (otherwise why would we have been interrupted?)
       */
      unsigned int data = 1 << ALTERA_AVALON_JTAG_UART_DATA_RAVAIL_OFST;
   2f868:	00800074 	movhi	r2,1
   2f86c:	e0bff915 	stw	r2,-28(fp)
      for ( ; ; )
      {
        /* Check whether there is space in the buffer.  If not then we must not
         * read any characters from the buffer as they will be lost.
         */
        unsigned int next = (sp->rx_in + 1) % ALTERA_AVALON_JTAG_UART_BUF_LEN;
   2f870:	e0bffb17 	ldw	r2,-20(fp)
   2f874:	10800a17 	ldw	r2,40(r2)
   2f878:	10800044 	addi	r2,r2,1
   2f87c:	1081ffcc 	andi	r2,r2,2047
   2f880:	e0bffe15 	stw	r2,-8(fp)
        if (next == sp->rx_out)
   2f884:	e0bffb17 	ldw	r2,-20(fp)
   2f888:	10c00b17 	ldw	r3,44(r2)
   2f88c:	e0bffe17 	ldw	r2,-8(fp)
   2f890:	1880011e 	bne	r3,r2,2f898 <altera_avalon_jtag_uart_irq+0x80>
          break;
   2f894:	00001606 	br	2f8f0 <altera_avalon_jtag_uart_irq+0xd8>

        /* Try to remove a character from the FIFO and find out whether there
         * are any more characters remaining.
         */
        data = IORD_ALTERA_AVALON_JTAG_UART_DATA(base);
   2f898:	e0bffc17 	ldw	r2,-16(fp)
   2f89c:	10800037 	ldwio	r2,0(r2)
   2f8a0:	e0bff915 	stw	r2,-28(fp)
        
        if ((data & ALTERA_AVALON_JTAG_UART_DATA_RVALID_MSK) == 0)
   2f8a4:	e0bff917 	ldw	r2,-28(fp)
   2f8a8:	10a0000c 	andi	r2,r2,32768
   2f8ac:	1000011e 	bne	r2,zero,2f8b4 <altera_avalon_jtag_uart_irq+0x9c>
          break;
   2f8b0:	00000f06 	br	2f8f0 <altera_avalon_jtag_uart_irq+0xd8>

        sp->rx_buf[sp->rx_in] = (data & ALTERA_AVALON_JTAG_UART_DATA_DATA_MSK) >> ALTERA_AVALON_JTAG_UART_DATA_DATA_OFST;
   2f8b4:	e0bffb17 	ldw	r2,-20(fp)
   2f8b8:	10800a17 	ldw	r2,40(r2)
   2f8bc:	e0fff917 	ldw	r3,-28(fp)
   2f8c0:	1809883a 	mov	r4,r3
   2f8c4:	e0fffb17 	ldw	r3,-20(fp)
   2f8c8:	1885883a 	add	r2,r3,r2
   2f8cc:	10800e04 	addi	r2,r2,56
   2f8d0:	11000005 	stb	r4,0(r2)
        sp->rx_in = (sp->rx_in + 1) % ALTERA_AVALON_JTAG_UART_BUF_LEN;
   2f8d4:	e0bffb17 	ldw	r2,-20(fp)
   2f8d8:	10800a17 	ldw	r2,40(r2)
   2f8dc:	10800044 	addi	r2,r2,1
   2f8e0:	10c1ffcc 	andi	r3,r2,2047
   2f8e4:	e0bffb17 	ldw	r2,-20(fp)
   2f8e8:	10c00a15 	stw	r3,40(r2)

        /* Post an event to notify jtag_uart_read that a character has been read */
        ALT_FLAG_POST (sp->events, ALT_JTAG_UART_READ_RDY, OS_FLAG_SET);
      }
   2f8ec:	003fe006 	br	2f870 <_gp+0xffff39fc>

      if (data & ALTERA_AVALON_JTAG_UART_DATA_RAVAIL_MSK)
   2f8f0:	e0bff917 	ldw	r2,-28(fp)
   2f8f4:	10bfffec 	andhi	r2,r2,65535
   2f8f8:	10000f26 	beq	r2,zero,2f938 <altera_avalon_jtag_uart_irq+0x120>
      {
        /* If there is still data available here then the buffer is full 
         * so turn off receive interrupts until some space becomes available.
         */
        sp->irq_enable &= ~ALTERA_AVALON_JTAG_UART_CONTROL_RE_MSK;
   2f8fc:	e0bffb17 	ldw	r2,-20(fp)
   2f900:	10c00817 	ldw	r3,32(r2)
   2f904:	00bfff84 	movi	r2,-2
   2f908:	1886703a 	and	r3,r3,r2
   2f90c:	e0bffb17 	ldw	r2,-20(fp)
   2f910:	10c00815 	stw	r3,32(r2)
        IOWR_ALTERA_AVALON_JTAG_UART_CONTROL(base, sp->irq_enable);
   2f914:	e0bffc17 	ldw	r2,-16(fp)
   2f918:	10800104 	addi	r2,r2,4
   2f91c:	1007883a 	mov	r3,r2
   2f920:	e0bffb17 	ldw	r2,-20(fp)
   2f924:	10800817 	ldw	r2,32(r2)
   2f928:	18800035 	stwio	r2,0(r3)
        
        /* Dummy read to ensure IRQ is cleared prior to ISR completion */
        IORD_ALTERA_AVALON_JTAG_UART_CONTROL(base);
   2f92c:	e0bffc17 	ldw	r2,-16(fp)
   2f930:	10800104 	addi	r2,r2,4
   2f934:	10800037 	ldwio	r2,0(r2)
      }
    }

    if (control & ALTERA_AVALON_JTAG_UART_CONTROL_WI_MSK)
   2f938:	e0bffd17 	ldw	r2,-12(fp)
   2f93c:	1080800c 	andi	r2,r2,512
   2f940:	10003126 	beq	r2,zero,2fa08 <altera_avalon_jtag_uart_irq+0x1f0>
    {
      /* process a write irq */
      unsigned int space = (control & ALTERA_AVALON_JTAG_UART_CONTROL_WSPACE_MSK) >> ALTERA_AVALON_JTAG_UART_CONTROL_WSPACE_OFST;
   2f944:	e0bffd17 	ldw	r2,-12(fp)
   2f948:	1004d43a 	srli	r2,r2,16
   2f94c:	e0bffa15 	stw	r2,-24(fp)

      while (space > 0 && sp->tx_out != sp->tx_in)
   2f950:	00001406 	br	2f9a4 <altera_avalon_jtag_uart_irq+0x18c>
      {
        IOWR_ALTERA_AVALON_JTAG_UART_DATA(base, sp->tx_buf[sp->tx_out]);
   2f954:	e0bffc17 	ldw	r2,-16(fp)
   2f958:	e0fffb17 	ldw	r3,-20(fp)
   2f95c:	18c00d17 	ldw	r3,52(r3)
   2f960:	e13ffb17 	ldw	r4,-20(fp)
   2f964:	20c7883a 	add	r3,r4,r3
   2f968:	18c20e04 	addi	r3,r3,2104
   2f96c:	18c00003 	ldbu	r3,0(r3)
   2f970:	18c03fcc 	andi	r3,r3,255
   2f974:	18c0201c 	xori	r3,r3,128
   2f978:	18ffe004 	addi	r3,r3,-128
   2f97c:	10c00035 	stwio	r3,0(r2)

        sp->tx_out = (sp->tx_out + 1) % ALTERA_AVALON_JTAG_UART_BUF_LEN;
   2f980:	e0bffb17 	ldw	r2,-20(fp)
   2f984:	10800d17 	ldw	r2,52(r2)
   2f988:	10800044 	addi	r2,r2,1
   2f98c:	10c1ffcc 	andi	r3,r2,2047
   2f990:	e0bffb17 	ldw	r2,-20(fp)
   2f994:	10c00d15 	stw	r3,52(r2)

        /* Post an event to notify jtag_uart_write that a character has been written */
        ALT_FLAG_POST (sp->events, ALT_JTAG_UART_WRITE_RDY, OS_FLAG_SET);

        space--;
   2f998:	e0bffa17 	ldw	r2,-24(fp)
   2f99c:	10bfffc4 	addi	r2,r2,-1
   2f9a0:	e0bffa15 	stw	r2,-24(fp)
    if (control & ALTERA_AVALON_JTAG_UART_CONTROL_WI_MSK)
    {
      /* process a write irq */
      unsigned int space = (control & ALTERA_AVALON_JTAG_UART_CONTROL_WSPACE_MSK) >> ALTERA_AVALON_JTAG_UART_CONTROL_WSPACE_OFST;

      while (space > 0 && sp->tx_out != sp->tx_in)
   2f9a4:	e0bffa17 	ldw	r2,-24(fp)
   2f9a8:	10000526 	beq	r2,zero,2f9c0 <altera_avalon_jtag_uart_irq+0x1a8>
   2f9ac:	e0bffb17 	ldw	r2,-20(fp)
   2f9b0:	10c00d17 	ldw	r3,52(r2)
   2f9b4:	e0bffb17 	ldw	r2,-20(fp)
   2f9b8:	10800c17 	ldw	r2,48(r2)
   2f9bc:	18bfe51e 	bne	r3,r2,2f954 <_gp+0xffff3ae0>
        ALT_FLAG_POST (sp->events, ALT_JTAG_UART_WRITE_RDY, OS_FLAG_SET);

        space--;
      }

      if (space > 0)
   2f9c0:	e0bffa17 	ldw	r2,-24(fp)
   2f9c4:	10001026 	beq	r2,zero,2fa08 <altera_avalon_jtag_uart_irq+0x1f0>
      {
        /* If we don't have any more data available then turn off the TX interrupt */
        sp->irq_enable &= ~ALTERA_AVALON_JTAG_UART_CONTROL_WE_MSK;
   2f9c8:	e0bffb17 	ldw	r2,-20(fp)
   2f9cc:	10c00817 	ldw	r3,32(r2)
   2f9d0:	00bfff44 	movi	r2,-3
   2f9d4:	1886703a 	and	r3,r3,r2
   2f9d8:	e0bffb17 	ldw	r2,-20(fp)
   2f9dc:	10c00815 	stw	r3,32(r2)
        IOWR_ALTERA_AVALON_JTAG_UART_CONTROL(sp->base, sp->irq_enable);
   2f9e0:	e0bffb17 	ldw	r2,-20(fp)
   2f9e4:	10800017 	ldw	r2,0(r2)
   2f9e8:	10800104 	addi	r2,r2,4
   2f9ec:	1007883a 	mov	r3,r2
   2f9f0:	e0bffb17 	ldw	r2,-20(fp)
   2f9f4:	10800817 	ldw	r2,32(r2)
   2f9f8:	18800035 	stwio	r2,0(r3)
        
        /* Dummy read to ensure IRQ is cleared prior to ISR completion */
        IORD_ALTERA_AVALON_JTAG_UART_CONTROL(base);
   2f9fc:	e0bffc17 	ldw	r2,-16(fp)
   2fa00:	10800104 	addi	r2,r2,4
   2fa04:	10800037 	ldwio	r2,0(r2)
      }
    }
  }
   2fa08:	003f8c06 	br	2f83c <_gp+0xffff39c8>
}
   2fa0c:	e037883a 	mov	sp,fp
   2fa10:	df000017 	ldw	fp,0(sp)
   2fa14:	dec00104 	addi	sp,sp,4
   2fa18:	f800283a 	ret

0002fa1c <altera_avalon_jtag_uart_timeout>:
 * Timeout routine is called every second
 */

static alt_u32 
altera_avalon_jtag_uart_timeout(void* context) 
{
   2fa1c:	defff804 	addi	sp,sp,-32
   2fa20:	df000715 	stw	fp,28(sp)
   2fa24:	df000704 	addi	fp,sp,28
   2fa28:	e13ffb15 	stw	r4,-20(fp)
  altera_avalon_jtag_uart_state* sp = (altera_avalon_jtag_uart_state *) context;
   2fa2c:	e0bffb17 	ldw	r2,-20(fp)
   2fa30:	e0bff915 	stw	r2,-28(fp)

  unsigned int control = IORD_ALTERA_AVALON_JTAG_UART_CONTROL(sp->base);
   2fa34:	e0bff917 	ldw	r2,-28(fp)
   2fa38:	10800017 	ldw	r2,0(r2)
   2fa3c:	10800104 	addi	r2,r2,4
   2fa40:	10800037 	ldwio	r2,0(r2)
   2fa44:	e0bffa15 	stw	r2,-24(fp)

  if (control & ALTERA_AVALON_JTAG_UART_CONTROL_AC_MSK)
   2fa48:	e0bffa17 	ldw	r2,-24(fp)
   2fa4c:	1081000c 	andi	r2,r2,1024
   2fa50:	10000b26 	beq	r2,zero,2fa80 <altera_avalon_jtag_uart_timeout+0x64>
  {
    IOWR_ALTERA_AVALON_JTAG_UART_CONTROL(sp->base, sp->irq_enable | ALTERA_AVALON_JTAG_UART_CONTROL_AC_MSK);
   2fa54:	e0bff917 	ldw	r2,-28(fp)
   2fa58:	10800017 	ldw	r2,0(r2)
   2fa5c:	10800104 	addi	r2,r2,4
   2fa60:	1007883a 	mov	r3,r2
   2fa64:	e0bff917 	ldw	r2,-28(fp)
   2fa68:	10800817 	ldw	r2,32(r2)
   2fa6c:	10810014 	ori	r2,r2,1024
   2fa70:	18800035 	stwio	r2,0(r3)
    sp->host_inactive = 0;
   2fa74:	e0bff917 	ldw	r2,-28(fp)
   2fa78:	10000915 	stw	zero,36(r2)
   2fa7c:	00000a06 	br	2faa8 <altera_avalon_jtag_uart_timeout+0x8c>
  }
  else if (sp->host_inactive < INT_MAX - 2) {
   2fa80:	e0bff917 	ldw	r2,-28(fp)
   2fa84:	10c00917 	ldw	r3,36(r2)
   2fa88:	00a00034 	movhi	r2,32768
   2fa8c:	10bfff04 	addi	r2,r2,-4
   2fa90:	10c00536 	bltu	r2,r3,2faa8 <altera_avalon_jtag_uart_timeout+0x8c>
    sp->host_inactive++;
   2fa94:	e0bff917 	ldw	r2,-28(fp)
   2fa98:	10800917 	ldw	r2,36(r2)
   2fa9c:	10c00044 	addi	r3,r2,1
   2faa0:	e0bff917 	ldw	r2,-28(fp)
   2faa4:	10c00915 	stw	r3,36(r2)
   2faa8:	008000f4 	movhi	r2,3
   2faac:	10985e04 	addi	r2,r2,24952
   2fab0:	10800017 	ldw	r2,0(r2)
      ALT_FLAG_POST (sp->events, ALT_JTAG_UART_TIMEOUT, OS_FLAG_SET);
    }
  }

  return alt_ticks_per_second();
}
   2fab4:	e037883a 	mov	sp,fp
   2fab8:	df000017 	ldw	fp,0(sp)
   2fabc:	dec00104 	addi	sp,sp,4
   2fac0:	f800283a 	ret

0002fac4 <altera_avalon_jtag_uart_close>:
 * The close routine is not implemented for the small driver; instead it will
 * map to null. This is because the small driver simply waits while characters
 * are transmitted; there is no interrupt-serviced buffer to empty 
 */
int altera_avalon_jtag_uart_close(altera_avalon_jtag_uart_state* sp, int flags)
{
   2fac4:	defffd04 	addi	sp,sp,-12
   2fac8:	df000215 	stw	fp,8(sp)
   2facc:	df000204 	addi	fp,sp,8
   2fad0:	e13ffe15 	stw	r4,-8(fp)
   2fad4:	e17fff15 	stw	r5,-4(fp)
  /* 
   * Wait for all transmit data to be emptied by the JTAG UART ISR, or
   * for a host-inactivity timeout, in which case transmit data will be lost
   */
  while ( (sp->tx_out != sp->tx_in) && (sp->host_inactive < sp->timeout) ) {
   2fad8:	00000506 	br	2faf0 <altera_avalon_jtag_uart_close+0x2c>
    if (flags & O_NONBLOCK) {
   2fadc:	e0bfff17 	ldw	r2,-4(fp)
   2fae0:	1090000c 	andi	r2,r2,16384
   2fae4:	10000226 	beq	r2,zero,2faf0 <altera_avalon_jtag_uart_close+0x2c>
      return -EWOULDBLOCK; 
   2fae8:	00bffd44 	movi	r2,-11
   2faec:	00000b06 	br	2fb1c <altera_avalon_jtag_uart_close+0x58>
{
  /* 
   * Wait for all transmit data to be emptied by the JTAG UART ISR, or
   * for a host-inactivity timeout, in which case transmit data will be lost
   */
  while ( (sp->tx_out != sp->tx_in) && (sp->host_inactive < sp->timeout) ) {
   2faf0:	e0bffe17 	ldw	r2,-8(fp)
   2faf4:	10c00d17 	ldw	r3,52(r2)
   2faf8:	e0bffe17 	ldw	r2,-8(fp)
   2fafc:	10800c17 	ldw	r2,48(r2)
   2fb00:	18800526 	beq	r3,r2,2fb18 <altera_avalon_jtag_uart_close+0x54>
   2fb04:	e0bffe17 	ldw	r2,-8(fp)
   2fb08:	10c00917 	ldw	r3,36(r2)
   2fb0c:	e0bffe17 	ldw	r2,-8(fp)
   2fb10:	10800117 	ldw	r2,4(r2)
   2fb14:	18bff136 	bltu	r3,r2,2fadc <_gp+0xffff3c68>
    if (flags & O_NONBLOCK) {
      return -EWOULDBLOCK; 
    }
  }

  return 0;
   2fb18:	0005883a 	mov	r2,zero
}
   2fb1c:	e037883a 	mov	sp,fp
   2fb20:	df000017 	ldw	fp,0(sp)
   2fb24:	dec00104 	addi	sp,sp,4
   2fb28:	f800283a 	ret

0002fb2c <altera_avalon_jtag_uart_ioctl>:
/* ----------------------------------------------------------- */

int 
altera_avalon_jtag_uart_ioctl(altera_avalon_jtag_uart_state* sp, int req,
  void* arg)
{
   2fb2c:	defffa04 	addi	sp,sp,-24
   2fb30:	df000515 	stw	fp,20(sp)
   2fb34:	df000504 	addi	fp,sp,20
   2fb38:	e13ffd15 	stw	r4,-12(fp)
   2fb3c:	e17ffe15 	stw	r5,-8(fp)
   2fb40:	e1bfff15 	stw	r6,-4(fp)
  int rc = -ENOTTY;
   2fb44:	00bff9c4 	movi	r2,-25
   2fb48:	e0bffb15 	stw	r2,-20(fp)

  switch (req)
   2fb4c:	e0bffe17 	ldw	r2,-8(fp)
   2fb50:	10da8060 	cmpeqi	r3,r2,27137
   2fb54:	1800031e 	bne	r3,zero,2fb64 <altera_avalon_jtag_uart_ioctl+0x38>
   2fb58:	109a80a0 	cmpeqi	r2,r2,27138
   2fb5c:	1000191e 	bne	r2,zero,2fbc4 <altera_avalon_jtag_uart_ioctl+0x98>
      rc = 0;
    }
    break;

  default:
    break;
   2fb60:	00002806 	br	2fc04 <altera_avalon_jtag_uart_ioctl+0xd8>

  switch (req)
  {
  case TIOCSTIMEOUT:
    /* Set the time to wait until assuming host is not connected */
    if (sp->timeout != INT_MAX)
   2fb64:	e0bffd17 	ldw	r2,-12(fp)
   2fb68:	10c00117 	ldw	r3,4(r2)
   2fb6c:	00a00034 	movhi	r2,32768
   2fb70:	10bfffc4 	addi	r2,r2,-1
   2fb74:	18801226 	beq	r3,r2,2fbc0 <altera_avalon_jtag_uart_ioctl+0x94>
    {
      int timeout = *((int *)arg);
   2fb78:	e0bfff17 	ldw	r2,-4(fp)
   2fb7c:	10800017 	ldw	r2,0(r2)
   2fb80:	e0bffc15 	stw	r2,-16(fp)
      sp->timeout = (timeout >= 2 && timeout < INT_MAX) ? timeout : INT_MAX - 1;
   2fb84:	e0bffc17 	ldw	r2,-16(fp)
   2fb88:	10800090 	cmplti	r2,r2,2
   2fb8c:	1000061e 	bne	r2,zero,2fba8 <altera_avalon_jtag_uart_ioctl+0x7c>
   2fb90:	e0fffc17 	ldw	r3,-16(fp)
   2fb94:	00a00034 	movhi	r2,32768
   2fb98:	10bfffc4 	addi	r2,r2,-1
   2fb9c:	18800226 	beq	r3,r2,2fba8 <altera_avalon_jtag_uart_ioctl+0x7c>
   2fba0:	e0bffc17 	ldw	r2,-16(fp)
   2fba4:	00000206 	br	2fbb0 <altera_avalon_jtag_uart_ioctl+0x84>
   2fba8:	00a00034 	movhi	r2,32768
   2fbac:	10bfff84 	addi	r2,r2,-2
   2fbb0:	e0fffd17 	ldw	r3,-12(fp)
   2fbb4:	18800115 	stw	r2,4(r3)
      rc = 0;
   2fbb8:	e03ffb15 	stw	zero,-20(fp)
    }
    break;
   2fbbc:	00001106 	br	2fc04 <altera_avalon_jtag_uart_ioctl+0xd8>
   2fbc0:	00001006 	br	2fc04 <altera_avalon_jtag_uart_ioctl+0xd8>

  case TIOCGCONNECTED:
    /* Find out whether host is connected */
    if (sp->timeout != INT_MAX)
   2fbc4:	e0bffd17 	ldw	r2,-12(fp)
   2fbc8:	10c00117 	ldw	r3,4(r2)
   2fbcc:	00a00034 	movhi	r2,32768
   2fbd0:	10bfffc4 	addi	r2,r2,-1
   2fbd4:	18800a26 	beq	r3,r2,2fc00 <altera_avalon_jtag_uart_ioctl+0xd4>
    {
      *((int *)arg) = (sp->host_inactive < sp->timeout) ? 1 : 0;
   2fbd8:	e0bffd17 	ldw	r2,-12(fp)
   2fbdc:	10c00917 	ldw	r3,36(r2)
   2fbe0:	e0bffd17 	ldw	r2,-12(fp)
   2fbe4:	10800117 	ldw	r2,4(r2)
   2fbe8:	1885803a 	cmpltu	r2,r3,r2
   2fbec:	10c03fcc 	andi	r3,r2,255
   2fbf0:	e0bfff17 	ldw	r2,-4(fp)
   2fbf4:	10c00015 	stw	r3,0(r2)
      rc = 0;
   2fbf8:	e03ffb15 	stw	zero,-20(fp)
    }
    break;
   2fbfc:	00000006 	br	2fc00 <altera_avalon_jtag_uart_ioctl+0xd4>
   2fc00:	0001883a 	nop

  default:
    break;
  }

  return rc;
   2fc04:	e0bffb17 	ldw	r2,-20(fp)
}
   2fc08:	e037883a 	mov	sp,fp
   2fc0c:	df000017 	ldw	fp,0(sp)
   2fc10:	dec00104 	addi	sp,sp,4
   2fc14:	f800283a 	ret

0002fc18 <altera_avalon_jtag_uart_read>:
/* ----------------------------------------------------------- */

int 
altera_avalon_jtag_uart_read(altera_avalon_jtag_uart_state* sp, 
  char * buffer, int space, int flags)
{
   2fc18:	defff304 	addi	sp,sp,-52
   2fc1c:	dfc00c15 	stw	ra,48(sp)
   2fc20:	df000b15 	stw	fp,44(sp)
   2fc24:	df000b04 	addi	fp,sp,44
   2fc28:	e13ffc15 	stw	r4,-16(fp)
   2fc2c:	e17ffd15 	stw	r5,-12(fp)
   2fc30:	e1bffe15 	stw	r6,-8(fp)
   2fc34:	e1ffff15 	stw	r7,-4(fp)
  char * ptr = buffer;
   2fc38:	e0bffd17 	ldw	r2,-12(fp)
   2fc3c:	e0bff515 	stw	r2,-44(fp)
   * When running in a multi threaded environment, obtain the "read_lock"
   * semaphore. This ensures that reading from the device is thread-safe.
   */
  ALT_SEM_PEND (sp->read_lock, 0);

  while (space > 0)
   2fc40:	00004906 	br	2fd68 <altera_avalon_jtag_uart_read+0x150>
    unsigned int in, out;

    /* Read as much data as possible */
    do
    {
      in  = sp->rx_in;
   2fc44:	e0bffc17 	ldw	r2,-16(fp)
   2fc48:	10800a17 	ldw	r2,40(r2)
   2fc4c:	e0bff715 	stw	r2,-36(fp)
      out = sp->rx_out;
   2fc50:	e0bffc17 	ldw	r2,-16(fp)
   2fc54:	10800b17 	ldw	r2,44(r2)
   2fc58:	e0bff815 	stw	r2,-32(fp)

      if (in >= out)
   2fc5c:	e0fff717 	ldw	r3,-36(fp)
   2fc60:	e0bff817 	ldw	r2,-32(fp)
   2fc64:	18800536 	bltu	r3,r2,2fc7c <altera_avalon_jtag_uart_read+0x64>
        n = in - out;
   2fc68:	e0fff717 	ldw	r3,-36(fp)
   2fc6c:	e0bff817 	ldw	r2,-32(fp)
   2fc70:	1885c83a 	sub	r2,r3,r2
   2fc74:	e0bff615 	stw	r2,-40(fp)
   2fc78:	00000406 	br	2fc8c <altera_avalon_jtag_uart_read+0x74>
      else
        n = ALTERA_AVALON_JTAG_UART_BUF_LEN - out;
   2fc7c:	00c20004 	movi	r3,2048
   2fc80:	e0bff817 	ldw	r2,-32(fp)
   2fc84:	1885c83a 	sub	r2,r3,r2
   2fc88:	e0bff615 	stw	r2,-40(fp)

      if (n == 0)
   2fc8c:	e0bff617 	ldw	r2,-40(fp)
   2fc90:	1000011e 	bne	r2,zero,2fc98 <altera_avalon_jtag_uart_read+0x80>
        break; /* No more data available */
   2fc94:	00001d06 	br	2fd0c <altera_avalon_jtag_uart_read+0xf4>

      if (n > space)
   2fc98:	e0fffe17 	ldw	r3,-8(fp)
   2fc9c:	e0bff617 	ldw	r2,-40(fp)
   2fca0:	1880022e 	bgeu	r3,r2,2fcac <altera_avalon_jtag_uart_read+0x94>
        n = space;
   2fca4:	e0bffe17 	ldw	r2,-8(fp)
   2fca8:	e0bff615 	stw	r2,-40(fp)

      memcpy(ptr, sp->rx_buf + out, n);
   2fcac:	e0bff817 	ldw	r2,-32(fp)
   2fcb0:	10800e04 	addi	r2,r2,56
   2fcb4:	e0fffc17 	ldw	r3,-16(fp)
   2fcb8:	1885883a 	add	r2,r3,r2
   2fcbc:	e13ff517 	ldw	r4,-44(fp)
   2fcc0:	100b883a 	mov	r5,r2
   2fcc4:	e1bff617 	ldw	r6,-40(fp)
   2fcc8:	0027f4c0 	call	27f4c <memcpy>
      ptr   += n;
   2fccc:	e0fff517 	ldw	r3,-44(fp)
   2fcd0:	e0bff617 	ldw	r2,-40(fp)
   2fcd4:	1885883a 	add	r2,r3,r2
   2fcd8:	e0bff515 	stw	r2,-44(fp)
      space -= n;
   2fcdc:	e0fffe17 	ldw	r3,-8(fp)
   2fce0:	e0bff617 	ldw	r2,-40(fp)
   2fce4:	1885c83a 	sub	r2,r3,r2
   2fce8:	e0bffe15 	stw	r2,-8(fp)

      sp->rx_out = (out + n) % ALTERA_AVALON_JTAG_UART_BUF_LEN;
   2fcec:	e0fff817 	ldw	r3,-32(fp)
   2fcf0:	e0bff617 	ldw	r2,-40(fp)
   2fcf4:	1885883a 	add	r2,r3,r2
   2fcf8:	10c1ffcc 	andi	r3,r2,2047
   2fcfc:	e0bffc17 	ldw	r2,-16(fp)
   2fd00:	10c00b15 	stw	r3,44(r2)
    }
    while (space > 0);
   2fd04:	e0bffe17 	ldw	r2,-8(fp)
   2fd08:	00bfce16 	blt	zero,r2,2fc44 <_gp+0xffff3dd0>

    /* If we read any data then return it */
    if (ptr != buffer)
   2fd0c:	e0fff517 	ldw	r3,-44(fp)
   2fd10:	e0bffd17 	ldw	r2,-12(fp)
   2fd14:	18800126 	beq	r3,r2,2fd1c <altera_avalon_jtag_uart_read+0x104>
      break;
   2fd18:	00001506 	br	2fd70 <altera_avalon_jtag_uart_read+0x158>

    /* If in non-blocking mode then return error */
    if (flags & O_NONBLOCK)
   2fd1c:	e0bfff17 	ldw	r2,-4(fp)
   2fd20:	1090000c 	andi	r2,r2,16384
   2fd24:	10000126 	beq	r2,zero,2fd2c <altera_avalon_jtag_uart_read+0x114>
      break;
   2fd28:	00001106 	br	2fd70 <altera_avalon_jtag_uart_read+0x158>
      while (in == sp->rx_in && sp->host_inactive < sp->timeout)
        ;
    }
#else
    /* No OS: Always spin */
    while (in == sp->rx_in && sp->host_inactive < sp->timeout)
   2fd2c:	0001883a 	nop
   2fd30:	e0bffc17 	ldw	r2,-16(fp)
   2fd34:	10c00a17 	ldw	r3,40(r2)
   2fd38:	e0bff717 	ldw	r2,-36(fp)
   2fd3c:	1880051e 	bne	r3,r2,2fd54 <altera_avalon_jtag_uart_read+0x13c>
   2fd40:	e0bffc17 	ldw	r2,-16(fp)
   2fd44:	10c00917 	ldw	r3,36(r2)
   2fd48:	e0bffc17 	ldw	r2,-16(fp)
   2fd4c:	10800117 	ldw	r2,4(r2)
   2fd50:	18bff736 	bltu	r3,r2,2fd30 <_gp+0xffff3ebc>
      ;
#endif /* __ucosii__ */

    if (in == sp->rx_in)
   2fd54:	e0bffc17 	ldw	r2,-16(fp)
   2fd58:	10c00a17 	ldw	r3,40(r2)
   2fd5c:	e0bff717 	ldw	r2,-36(fp)
   2fd60:	1880011e 	bne	r3,r2,2fd68 <altera_avalon_jtag_uart_read+0x150>
      break;
   2fd64:	00000206 	br	2fd70 <altera_avalon_jtag_uart_read+0x158>
   * When running in a multi threaded environment, obtain the "read_lock"
   * semaphore. This ensures that reading from the device is thread-safe.
   */
  ALT_SEM_PEND (sp->read_lock, 0);

  while (space > 0)
   2fd68:	e0bffe17 	ldw	r2,-8(fp)
   2fd6c:	00bfb516 	blt	zero,r2,2fc44 <_gp+0xffff3dd0>
   * semaphore so that other threads can access the buffer.
   */

  ALT_SEM_POST (sp->read_lock);

  if (ptr != buffer)
   2fd70:	e0fff517 	ldw	r3,-44(fp)
   2fd74:	e0bffd17 	ldw	r2,-12(fp)
   2fd78:	18801826 	beq	r3,r2,2fddc <altera_avalon_jtag_uart_read+0x1c4>
static ALT_INLINE alt_irq_context ALT_ALWAYS_INLINE 
       alt_irq_disable_all (void)
{
  alt_irq_context context;

  NIOS2_READ_STATUS (context);
   2fd7c:	0005303a 	rdctl	r2,status
   2fd80:	e0bffa15 	stw	r2,-24(fp)

  NIOS2_WRITE_STATUS (context & ~NIOS2_STATUS_PIE_MSK);
   2fd84:	e0fffa17 	ldw	r3,-24(fp)
   2fd88:	00bfff84 	movi	r2,-2
   2fd8c:	1884703a 	and	r2,r3,r2
   2fd90:	1001703a 	wrctl	status,r2
  
  return context;
   2fd94:	e0bffa17 	ldw	r2,-24(fp)
  {
    /* If we read any data then there is space in the buffer so enable interrupts */
    context = alt_irq_disable_all();
   2fd98:	e0bff915 	stw	r2,-28(fp)
    sp->irq_enable |= ALTERA_AVALON_JTAG_UART_CONTROL_RE_MSK;
   2fd9c:	e0bffc17 	ldw	r2,-16(fp)
   2fda0:	10800817 	ldw	r2,32(r2)
   2fda4:	10c00054 	ori	r3,r2,1
   2fda8:	e0bffc17 	ldw	r2,-16(fp)
   2fdac:	10c00815 	stw	r3,32(r2)
    IOWR_ALTERA_AVALON_JTAG_UART_CONTROL(sp->base, sp->irq_enable);
   2fdb0:	e0bffc17 	ldw	r2,-16(fp)
   2fdb4:	10800017 	ldw	r2,0(r2)
   2fdb8:	10800104 	addi	r2,r2,4
   2fdbc:	1007883a 	mov	r3,r2
   2fdc0:	e0bffc17 	ldw	r2,-16(fp)
   2fdc4:	10800817 	ldw	r2,32(r2)
   2fdc8:	18800035 	stwio	r2,0(r3)
   2fdcc:	e0bff917 	ldw	r2,-28(fp)
   2fdd0:	e0bffb15 	stw	r2,-20(fp)
  status &= ~NIOS2_STATUS_PIE_MSK;
  status |= (context & NIOS2_STATUS_PIE_MSK);
  
  NIOS2_WRITE_STATUS (status);
#else
  NIOS2_WRITE_STATUS (context);
   2fdd4:	e0bffb17 	ldw	r2,-20(fp)
   2fdd8:	1001703a 	wrctl	status,r2
    alt_irq_enable_all(context);
  }

  if (ptr != buffer)
   2fddc:	e0fff517 	ldw	r3,-44(fp)
   2fde0:	e0bffd17 	ldw	r2,-12(fp)
   2fde4:	18800426 	beq	r3,r2,2fdf8 <altera_avalon_jtag_uart_read+0x1e0>
    return ptr - buffer;
   2fde8:	e0fff517 	ldw	r3,-44(fp)
   2fdec:	e0bffd17 	ldw	r2,-12(fp)
   2fdf0:	1885c83a 	sub	r2,r3,r2
   2fdf4:	00000606 	br	2fe10 <altera_avalon_jtag_uart_read+0x1f8>
  else if (flags & O_NONBLOCK)
   2fdf8:	e0bfff17 	ldw	r2,-4(fp)
   2fdfc:	1090000c 	andi	r2,r2,16384
   2fe00:	10000226 	beq	r2,zero,2fe0c <altera_avalon_jtag_uart_read+0x1f4>
    return -EWOULDBLOCK;
   2fe04:	00bffd44 	movi	r2,-11
   2fe08:	00000106 	br	2fe10 <altera_avalon_jtag_uart_read+0x1f8>
  else
    return -EIO;
   2fe0c:	00bffec4 	movi	r2,-5
}
   2fe10:	e037883a 	mov	sp,fp
   2fe14:	dfc00117 	ldw	ra,4(sp)
   2fe18:	df000017 	ldw	fp,0(sp)
   2fe1c:	dec00204 	addi	sp,sp,8
   2fe20:	f800283a 	ret

0002fe24 <altera_avalon_jtag_uart_write>:
/* ----------------------------------------------------------- */

int 
altera_avalon_jtag_uart_write(altera_avalon_jtag_uart_state* sp, 
  const char * ptr, int count, int flags)
{
   2fe24:	defff304 	addi	sp,sp,-52
   2fe28:	dfc00c15 	stw	ra,48(sp)
   2fe2c:	df000b15 	stw	fp,44(sp)
   2fe30:	df000b04 	addi	fp,sp,44
   2fe34:	e13ffc15 	stw	r4,-16(fp)
   2fe38:	e17ffd15 	stw	r5,-12(fp)
   2fe3c:	e1bffe15 	stw	r6,-8(fp)
   2fe40:	e1ffff15 	stw	r7,-4(fp)
  /* Remove warning at optimisation level 03 by seting out to 0 */
  unsigned int in, out=0;
   2fe44:	e03ff515 	stw	zero,-44(fp)
  unsigned int n;
  alt_irq_context context;

  const char * start = ptr;
   2fe48:	e0bffd17 	ldw	r2,-12(fp)
   2fe4c:	e0bff715 	stw	r2,-36(fp)
  ALT_SEM_PEND (sp->write_lock, 0);

  do
  {
    /* Copy as much as we can into the transmit buffer */
    while (count > 0)
   2fe50:	00003806 	br	2ff34 <altera_avalon_jtag_uart_write+0x110>
    {
      /* We need a stable value of the out pointer to calculate the space available */
      in  = sp->tx_in;
   2fe54:	e0bffc17 	ldw	r2,-16(fp)
   2fe58:	10800c17 	ldw	r2,48(r2)
   2fe5c:	e0bff815 	stw	r2,-32(fp)
      out = sp->tx_out;
   2fe60:	e0bffc17 	ldw	r2,-16(fp)
   2fe64:	10800d17 	ldw	r2,52(r2)
   2fe68:	e0bff515 	stw	r2,-44(fp)

      if (in < out)
   2fe6c:	e0fff817 	ldw	r3,-32(fp)
   2fe70:	e0bff517 	ldw	r2,-44(fp)
   2fe74:	1880062e 	bgeu	r3,r2,2fe90 <altera_avalon_jtag_uart_write+0x6c>
        n = out - 1 - in;
   2fe78:	e0fff517 	ldw	r3,-44(fp)
   2fe7c:	e0bff817 	ldw	r2,-32(fp)
   2fe80:	1885c83a 	sub	r2,r3,r2
   2fe84:	10bfffc4 	addi	r2,r2,-1
   2fe88:	e0bff615 	stw	r2,-40(fp)
   2fe8c:	00000b06 	br	2febc <altera_avalon_jtag_uart_write+0x98>
      else if (out > 0)
   2fe90:	e0bff517 	ldw	r2,-44(fp)
   2fe94:	10000526 	beq	r2,zero,2feac <altera_avalon_jtag_uart_write+0x88>
        n = ALTERA_AVALON_JTAG_UART_BUF_LEN - in;
   2fe98:	00c20004 	movi	r3,2048
   2fe9c:	e0bff817 	ldw	r2,-32(fp)
   2fea0:	1885c83a 	sub	r2,r3,r2
   2fea4:	e0bff615 	stw	r2,-40(fp)
   2fea8:	00000406 	br	2febc <altera_avalon_jtag_uart_write+0x98>
      else
        n = ALTERA_AVALON_JTAG_UART_BUF_LEN - 1 - in;
   2feac:	00c1ffc4 	movi	r3,2047
   2feb0:	e0bff817 	ldw	r2,-32(fp)
   2feb4:	1885c83a 	sub	r2,r3,r2
   2feb8:	e0bff615 	stw	r2,-40(fp)

      if (n == 0)
   2febc:	e0bff617 	ldw	r2,-40(fp)
   2fec0:	1000011e 	bne	r2,zero,2fec8 <altera_avalon_jtag_uart_write+0xa4>
        break;
   2fec4:	00001d06 	br	2ff3c <altera_avalon_jtag_uart_write+0x118>

      if (n > count)
   2fec8:	e0fffe17 	ldw	r3,-8(fp)
   2fecc:	e0bff617 	ldw	r2,-40(fp)
   2fed0:	1880022e 	bgeu	r3,r2,2fedc <altera_avalon_jtag_uart_write+0xb8>
        n = count;
   2fed4:	e0bffe17 	ldw	r2,-8(fp)
   2fed8:	e0bff615 	stw	r2,-40(fp)

      memcpy(sp->tx_buf + in, ptr, n);
   2fedc:	e0bff817 	ldw	r2,-32(fp)
   2fee0:	10820e04 	addi	r2,r2,2104
   2fee4:	e0fffc17 	ldw	r3,-16(fp)
   2fee8:	1885883a 	add	r2,r3,r2
   2feec:	1009883a 	mov	r4,r2
   2fef0:	e17ffd17 	ldw	r5,-12(fp)
   2fef4:	e1bff617 	ldw	r6,-40(fp)
   2fef8:	0027f4c0 	call	27f4c <memcpy>
      ptr   += n;
   2fefc:	e0fffd17 	ldw	r3,-12(fp)
   2ff00:	e0bff617 	ldw	r2,-40(fp)
   2ff04:	1885883a 	add	r2,r3,r2
   2ff08:	e0bffd15 	stw	r2,-12(fp)
      count -= n;
   2ff0c:	e0fffe17 	ldw	r3,-8(fp)
   2ff10:	e0bff617 	ldw	r2,-40(fp)
   2ff14:	1885c83a 	sub	r2,r3,r2
   2ff18:	e0bffe15 	stw	r2,-8(fp)

      sp->tx_in = (in + n) % ALTERA_AVALON_JTAG_UART_BUF_LEN;
   2ff1c:	e0fff817 	ldw	r3,-32(fp)
   2ff20:	e0bff617 	ldw	r2,-40(fp)
   2ff24:	1885883a 	add	r2,r3,r2
   2ff28:	10c1ffcc 	andi	r3,r2,2047
   2ff2c:	e0bffc17 	ldw	r2,-16(fp)
   2ff30:	10c00c15 	stw	r3,48(r2)
  ALT_SEM_PEND (sp->write_lock, 0);

  do
  {
    /* Copy as much as we can into the transmit buffer */
    while (count > 0)
   2ff34:	e0bffe17 	ldw	r2,-8(fp)
   2ff38:	00bfc616 	blt	zero,r2,2fe54 <_gp+0xffff3fe0>
static ALT_INLINE alt_irq_context ALT_ALWAYS_INLINE 
       alt_irq_disable_all (void)
{
  alt_irq_context context;

  NIOS2_READ_STATUS (context);
   2ff3c:	0005303a 	rdctl	r2,status
   2ff40:	e0bffa15 	stw	r2,-24(fp)

  NIOS2_WRITE_STATUS (context & ~NIOS2_STATUS_PIE_MSK);
   2ff44:	e0fffa17 	ldw	r3,-24(fp)
   2ff48:	00bfff84 	movi	r2,-2
   2ff4c:	1884703a 	and	r2,r3,r2
   2ff50:	1001703a 	wrctl	status,r2
  
  return context;
   2ff54:	e0bffa17 	ldw	r2,-24(fp)
     * to enable interrupts if there is no space left in the FIFO
     *
     * For now kick the interrupt routine every time to make it transmit 
     * the data 
     */
    context = alt_irq_disable_all();
   2ff58:	e0bff915 	stw	r2,-28(fp)
    sp->irq_enable |= ALTERA_AVALON_JTAG_UART_CONTROL_WE_MSK;
   2ff5c:	e0bffc17 	ldw	r2,-16(fp)
   2ff60:	10800817 	ldw	r2,32(r2)
   2ff64:	10c00094 	ori	r3,r2,2
   2ff68:	e0bffc17 	ldw	r2,-16(fp)
   2ff6c:	10c00815 	stw	r3,32(r2)
    IOWR_ALTERA_AVALON_JTAG_UART_CONTROL(sp->base, sp->irq_enable);
   2ff70:	e0bffc17 	ldw	r2,-16(fp)
   2ff74:	10800017 	ldw	r2,0(r2)
   2ff78:	10800104 	addi	r2,r2,4
   2ff7c:	1007883a 	mov	r3,r2
   2ff80:	e0bffc17 	ldw	r2,-16(fp)
   2ff84:	10800817 	ldw	r2,32(r2)
   2ff88:	18800035 	stwio	r2,0(r3)
   2ff8c:	e0bff917 	ldw	r2,-28(fp)
   2ff90:	e0bffb15 	stw	r2,-20(fp)
  status &= ~NIOS2_STATUS_PIE_MSK;
  status |= (context & NIOS2_STATUS_PIE_MSK);
  
  NIOS2_WRITE_STATUS (status);
#else
  NIOS2_WRITE_STATUS (context);
   2ff94:	e0bffb17 	ldw	r2,-20(fp)
   2ff98:	1001703a 	wrctl	status,r2
    /* 
     * If there is any data left then either return now or block until 
     * some has been sent 
     */
    /* consider: test whether there is anything there while doing this and delay for at most 2s. */
    if (count > 0)
   2ff9c:	e0bffe17 	ldw	r2,-8(fp)
   2ffa0:	0080120e 	bge	zero,r2,2ffec <altera_avalon_jtag_uart_write+0x1c8>
    {
      if (flags & O_NONBLOCK)
   2ffa4:	e0bfff17 	ldw	r2,-4(fp)
   2ffa8:	1090000c 	andi	r2,r2,16384
   2ffac:	10000126 	beq	r2,zero,2ffb4 <altera_avalon_jtag_uart_write+0x190>
        break;
   2ffb0:	00001006 	br	2fff4 <altera_avalon_jtag_uart_write+0x1d0>
      /*
       * No OS present: Always wait for data to be removed from buffer.  Once
       * the interrupt routine has removed some data then we will be able to
       * insert some more.
       */
      while (out == sp->tx_out && sp->host_inactive < sp->timeout)
   2ffb4:	0001883a 	nop
   2ffb8:	e0bffc17 	ldw	r2,-16(fp)
   2ffbc:	10c00d17 	ldw	r3,52(r2)
   2ffc0:	e0bff517 	ldw	r2,-44(fp)
   2ffc4:	1880051e 	bne	r3,r2,2ffdc <altera_avalon_jtag_uart_write+0x1b8>
   2ffc8:	e0bffc17 	ldw	r2,-16(fp)
   2ffcc:	10c00917 	ldw	r3,36(r2)
   2ffd0:	e0bffc17 	ldw	r2,-16(fp)
   2ffd4:	10800117 	ldw	r2,4(r2)
   2ffd8:	18bff736 	bltu	r3,r2,2ffb8 <_gp+0xffff4144>
        ;
#endif /* __ucosii__ */

      if  (sp->host_inactive)
   2ffdc:	e0bffc17 	ldw	r2,-16(fp)
   2ffe0:	10800917 	ldw	r2,36(r2)
   2ffe4:	10000126 	beq	r2,zero,2ffec <altera_avalon_jtag_uart_write+0x1c8>
         break;
   2ffe8:	00000206 	br	2fff4 <altera_avalon_jtag_uart_write+0x1d0>
    }
  }
  while (count > 0);
   2ffec:	e0bffe17 	ldw	r2,-8(fp)
   2fff0:	00bf9716 	blt	zero,r2,2fe50 <_gp+0xffff3fdc>
   * Now that access to the circular buffer is complete, release the write
   * semaphore so that other threads can access the buffer.
   */
  ALT_SEM_POST (sp->write_lock);

  if (ptr != start)
   2fff4:	e0fffd17 	ldw	r3,-12(fp)
   2fff8:	e0bff717 	ldw	r2,-36(fp)
   2fffc:	18800426 	beq	r3,r2,30010 <altera_avalon_jtag_uart_write+0x1ec>
    return ptr - start;
   30000:	e0fffd17 	ldw	r3,-12(fp)
   30004:	e0bff717 	ldw	r2,-36(fp)
   30008:	1885c83a 	sub	r2,r3,r2
   3000c:	00000606 	br	30028 <altera_avalon_jtag_uart_write+0x204>
  else if (flags & O_NONBLOCK)
   30010:	e0bfff17 	ldw	r2,-4(fp)
   30014:	1090000c 	andi	r2,r2,16384
   30018:	10000226 	beq	r2,zero,30024 <altera_avalon_jtag_uart_write+0x200>
    return -EWOULDBLOCK;
   3001c:	00bffd44 	movi	r2,-11
   30020:	00000106 	br	30028 <altera_avalon_jtag_uart_write+0x204>
    sp->tx_out = sp->tx_in = 0;
    return ptr - start + count;
  }
#endif
  else
    return -EIO; /* Host not connected */
   30024:	00bffec4 	movi	r2,-5
}
   30028:	e037883a 	mov	sp,fp
   3002c:	dfc00117 	ldw	ra,4(sp)
   30030:	df000017 	ldw	fp,0(sp)
   30034:	dec00204 	addi	sp,sp,8
   30038:	f800283a 	ret

0003003c <alt_avalon_timer_sc_irq>:
#ifdef ALT_ENHANCED_INTERRUPT_API_PRESENT
static void alt_avalon_timer_sc_irq (void* base)
#else
static void alt_avalon_timer_sc_irq (void* base, alt_u32 id)
#endif
{
   3003c:	defffa04 	addi	sp,sp,-24
   30040:	dfc00515 	stw	ra,20(sp)
   30044:	df000415 	stw	fp,16(sp)
   30048:	df000404 	addi	fp,sp,16
   3004c:	e13fff15 	stw	r4,-4(fp)
  alt_irq_context cpu_sr;
  
  /* clear the interrupt */
  IOWR_ALTERA_AVALON_TIMER_STATUS (base, 0);
   30050:	0007883a 	mov	r3,zero
   30054:	e0bfff17 	ldw	r2,-4(fp)
   30058:	10c00035 	stwio	r3,0(r2)
  /* 
   * Dummy read to ensure IRQ is negated before the ISR returns.
   * The control register is read because reading the status
   * register has side-effects per the register map documentation.
   */
  IORD_ALTERA_AVALON_TIMER_CONTROL (base);
   3005c:	e0bfff17 	ldw	r2,-4(fp)
   30060:	10800104 	addi	r2,r2,4
   30064:	10800037 	ldwio	r2,0(r2)
static ALT_INLINE alt_irq_context ALT_ALWAYS_INLINE 
       alt_irq_disable_all (void)
{
  alt_irq_context context;

  NIOS2_READ_STATUS (context);
   30068:	0005303a 	rdctl	r2,status
   3006c:	e0bffd15 	stw	r2,-12(fp)

  NIOS2_WRITE_STATUS (context & ~NIOS2_STATUS_PIE_MSK);
   30070:	e0fffd17 	ldw	r3,-12(fp)
   30074:	00bfff84 	movi	r2,-2
   30078:	1884703a 	and	r2,r3,r2
   3007c:	1001703a 	wrctl	status,r2
  
  return context;
   30080:	e0bffd17 	ldw	r2,-12(fp)

  /* 
   * Notify the system of a clock tick. disable interrupts 
   * during this time to safely support ISR preemption
   */
  cpu_sr = alt_irq_disable_all();
   30084:	e0bffc15 	stw	r2,-16(fp)
  alt_tick ();
   30088:	002f2a80 	call	2f2a8 <alt_tick>
   3008c:	e0bffc17 	ldw	r2,-16(fp)
   30090:	e0bffe15 	stw	r2,-8(fp)
  status &= ~NIOS2_STATUS_PIE_MSK;
  status |= (context & NIOS2_STATUS_PIE_MSK);
  
  NIOS2_WRITE_STATUS (status);
#else
  NIOS2_WRITE_STATUS (context);
   30094:	e0bffe17 	ldw	r2,-8(fp)
   30098:	1001703a 	wrctl	status,r2
  alt_irq_enable_all(cpu_sr);
}
   3009c:	e037883a 	mov	sp,fp
   300a0:	dfc00117 	ldw	ra,4(sp)
   300a4:	df000017 	ldw	fp,0(sp)
   300a8:	dec00204 	addi	sp,sp,8
   300ac:	f800283a 	ret

000300b0 <alt_avalon_timer_sc_init>:
 * auto-generated alt_sys_init() function.
 */

void alt_avalon_timer_sc_init (void* base, alt_u32 irq_controller_id, 
                                alt_u32 irq, alt_u32 freq)
{
   300b0:	defff804 	addi	sp,sp,-32
   300b4:	dfc00715 	stw	ra,28(sp)
   300b8:	df000615 	stw	fp,24(sp)
   300bc:	df000604 	addi	fp,sp,24
   300c0:	e13ffc15 	stw	r4,-16(fp)
   300c4:	e17ffd15 	stw	r5,-12(fp)
   300c8:	e1bffe15 	stw	r6,-8(fp)
   300cc:	e1ffff15 	stw	r7,-4(fp)
   300d0:	e0bfff17 	ldw	r2,-4(fp)
   300d4:	e0bffb15 	stw	r2,-20(fp)
 * in order to initialise the value of the clock frequency.
 */

static ALT_INLINE int ALT_ALWAYS_INLINE alt_sysclk_init (alt_u32 nticks)
{
  if (! _alt_tick_rate)
   300d8:	008000f4 	movhi	r2,3
   300dc:	10985e04 	addi	r2,r2,24952
   300e0:	10800017 	ldw	r2,0(r2)
   300e4:	1000041e 	bne	r2,zero,300f8 <alt_avalon_timer_sc_init+0x48>
  {
    _alt_tick_rate = nticks;
   300e8:	008000f4 	movhi	r2,3
   300ec:	10985e04 	addi	r2,r2,24952
   300f0:	e0fffb17 	ldw	r3,-20(fp)
   300f4:	10c00015 	stw	r3,0(r2)
  
  alt_sysclk_init (freq);
  
  /* set to free running mode */
  
  IOWR_ALTERA_AVALON_TIMER_CONTROL (base, 
   300f8:	e0bffc17 	ldw	r2,-16(fp)
   300fc:	10800104 	addi	r2,r2,4
   30100:	00c001c4 	movi	r3,7
   30104:	10c00035 	stwio	r3,0(r2)
            ALTERA_AVALON_TIMER_CONTROL_CONT_MSK |
            ALTERA_AVALON_TIMER_CONTROL_START_MSK);

  /* register the interrupt handler, and enable the interrupt */
#ifdef ALT_ENHANCED_INTERRUPT_API_PRESENT
  alt_ic_isr_register(irq_controller_id, irq, alt_avalon_timer_sc_irq, 
   30108:	d8000015 	stw	zero,0(sp)
   3010c:	e13ffd17 	ldw	r4,-12(fp)
   30110:	e17ffe17 	ldw	r5,-8(fp)
   30114:	018000f4 	movhi	r6,3
   30118:	31800f04 	addi	r6,r6,60
   3011c:	e1fffc17 	ldw	r7,-16(fp)
   30120:	00305f00 	call	305f0 <alt_ic_isr_register>
                      base, NULL);
#else
  alt_irq_register (irq, base, alt_avalon_timer_sc_irq);
#endif  
}
   30124:	e037883a 	mov	sp,fp
   30128:	dfc00117 	ldw	ra,4(sp)
   3012c:	df000017 	ldw	fp,0(sp)
   30130:	dec00204 	addi	sp,sp,8
   30134:	f800283a 	ret

00030138 <alt_alarm_start>:
 */ 

int alt_alarm_start (alt_alarm* alarm, alt_u32 nticks,
                     alt_u32 (*callback) (void* context),
                     void* context)
{
   30138:	defff504 	addi	sp,sp,-44
   3013c:	df000a15 	stw	fp,40(sp)
   30140:	df000a04 	addi	fp,sp,40
   30144:	e13ffc15 	stw	r4,-16(fp)
   30148:	e17ffd15 	stw	r5,-12(fp)
   3014c:	e1bffe15 	stw	r6,-8(fp)
   30150:	e1ffff15 	stw	r7,-4(fp)
  alt_irq_context irq_context;
  alt_u32 current_nticks = 0;
   30154:	e03ff615 	stw	zero,-40(fp)
 * Obtain the system clock rate in ticks/s. 
 */

static ALT_INLINE alt_u32 ALT_ALWAYS_INLINE alt_ticks_per_second (void)
{
  return _alt_tick_rate;
   30158:	008000f4 	movhi	r2,3
   3015c:	10985e04 	addi	r2,r2,24952
   30160:	10800017 	ldw	r2,0(r2)
  
  if (alt_ticks_per_second ())
   30164:	10003f26 	beq	r2,zero,30264 <alt_alarm_start+0x12c>
  {
    if (alarm)
   30168:	e0bffc17 	ldw	r2,-16(fp)
   3016c:	10003b26 	beq	r2,zero,3025c <alt_alarm_start+0x124>
    {
      alarm->callback = callback;
   30170:	e0bffc17 	ldw	r2,-16(fp)
   30174:	e0fffe17 	ldw	r3,-8(fp)
   30178:	10c00315 	stw	r3,12(r2)
      alarm->context  = context;
   3017c:	e0bffc17 	ldw	r2,-16(fp)
   30180:	e0ffff17 	ldw	r3,-4(fp)
   30184:	10c00515 	stw	r3,20(r2)
static ALT_INLINE alt_irq_context ALT_ALWAYS_INLINE 
       alt_irq_disable_all (void)
{
  alt_irq_context context;

  NIOS2_READ_STATUS (context);
   30188:	0005303a 	rdctl	r2,status
   3018c:	e0bff815 	stw	r2,-32(fp)

  NIOS2_WRITE_STATUS (context & ~NIOS2_STATUS_PIE_MSK);
   30190:	e0fff817 	ldw	r3,-32(fp)
   30194:	00bfff84 	movi	r2,-2
   30198:	1884703a 	and	r2,r3,r2
   3019c:	1001703a 	wrctl	status,r2
  
  return context;
   301a0:	e0bff817 	ldw	r2,-32(fp)
 
      irq_context = alt_irq_disable_all ();
   301a4:	e0bff715 	stw	r2,-36(fp)
 * alt_nticks() returns the elapsed number of system clock ticks since reset.
 */

static ALT_INLINE alt_u32 ALT_ALWAYS_INLINE alt_nticks (void)
{
  return _alt_nticks;
   301a8:	008000f4 	movhi	r2,3
   301ac:	10985f04 	addi	r2,r2,24956
   301b0:	10800017 	ldw	r2,0(r2)
      
      current_nticks = alt_nticks();
   301b4:	e0bff615 	stw	r2,-40(fp)
      
      alarm->time = nticks + current_nticks + 1; 
   301b8:	e0fffd17 	ldw	r3,-12(fp)
   301bc:	e0bff617 	ldw	r2,-40(fp)
   301c0:	1885883a 	add	r2,r3,r2
   301c4:	10c00044 	addi	r3,r2,1
   301c8:	e0bffc17 	ldw	r2,-16(fp)
   301cc:	10c00215 	stw	r3,8(r2)
      /* 
       * If the desired alarm time causes a roll-over, set the rollover
       * flag. This will prevent the subsequent tick event from causing
       * an alarm too early.
       */
      if(alarm->time < current_nticks)
   301d0:	e0bffc17 	ldw	r2,-16(fp)
   301d4:	10c00217 	ldw	r3,8(r2)
   301d8:	e0bff617 	ldw	r2,-40(fp)
   301dc:	1880042e 	bgeu	r3,r2,301f0 <alt_alarm_start+0xb8>
      {
        alarm->rollover = 1;
   301e0:	e0bffc17 	ldw	r2,-16(fp)
   301e4:	00c00044 	movi	r3,1
   301e8:	10c00405 	stb	r3,16(r2)
   301ec:	00000206 	br	301f8 <alt_alarm_start+0xc0>
      }
      else
      {
        alarm->rollover = 0;
   301f0:	e0bffc17 	ldw	r2,-16(fp)
   301f4:	10000405 	stb	zero,16(r2)
      }
    
      alt_llist_insert (&alt_alarm_list, &alarm->llist);
   301f8:	e0fffc17 	ldw	r3,-16(fp)
   301fc:	008000f4 	movhi	r2,3
   30200:	108fad04 	addi	r2,r2,16052
   30204:	e0bff915 	stw	r2,-28(fp)
   30208:	e0fffa15 	stw	r3,-24(fp)
 */

static ALT_INLINE void ALT_ALWAYS_INLINE alt_llist_insert(alt_llist* list, 
                alt_llist* entry)
{
  entry->previous = list;
   3020c:	e0bffa17 	ldw	r2,-24(fp)
   30210:	e0fff917 	ldw	r3,-28(fp)
   30214:	10c00115 	stw	r3,4(r2)
  entry->next     = list->next;
   30218:	e0bff917 	ldw	r2,-28(fp)
   3021c:	10c00017 	ldw	r3,0(r2)
   30220:	e0bffa17 	ldw	r2,-24(fp)
   30224:	10c00015 	stw	r3,0(r2)

  list->next->previous = entry;
   30228:	e0bff917 	ldw	r2,-28(fp)
   3022c:	10800017 	ldw	r2,0(r2)
   30230:	e0fffa17 	ldw	r3,-24(fp)
   30234:	10c00115 	stw	r3,4(r2)
  list->next           = entry;
   30238:	e0bff917 	ldw	r2,-28(fp)
   3023c:	e0fffa17 	ldw	r3,-24(fp)
   30240:	10c00015 	stw	r3,0(r2)
   30244:	e0bff717 	ldw	r2,-36(fp)
   30248:	e0bffb15 	stw	r2,-20(fp)
  status &= ~NIOS2_STATUS_PIE_MSK;
  status |= (context & NIOS2_STATUS_PIE_MSK);
  
  NIOS2_WRITE_STATUS (status);
#else
  NIOS2_WRITE_STATUS (context);
   3024c:	e0bffb17 	ldw	r2,-20(fp)
   30250:	1001703a 	wrctl	status,r2
      alt_irq_enable_all (irq_context);

      return 0;
   30254:	0005883a 	mov	r2,zero
   30258:	00000306 	br	30268 <alt_alarm_start+0x130>
    }
    else
    {
      return -EINVAL;
   3025c:	00bffa84 	movi	r2,-22
   30260:	00000106 	br	30268 <alt_alarm_start+0x130>
    }
  }
  else
  {
    return -ENOTSUP;
   30264:	00bfde84 	movi	r2,-134
  }
}
   30268:	e037883a 	mov	sp,fp
   3026c:	df000017 	ldw	fp,0(sp)
   30270:	dec00104 	addi	sp,sp,4
   30274:	f800283a 	ret

00030278 <alt_busy_sleep>:
#include "alt_types.h"

#include "priv/alt_busy_sleep.h"

unsigned int alt_busy_sleep (unsigned int us)
{
   30278:	defffa04 	addi	sp,sp,-24
   3027c:	dfc00515 	stw	ra,20(sp)
   30280:	df000415 	stw	fp,16(sp)
   30284:	df000404 	addi	fp,sp,16
   30288:	e13fff15 	stw	r4,-4(fp)
  {
    cycles_per_loop = 9;
  }
  else  
  {
    cycles_per_loop = 3;
   3028c:	008000c4 	movi	r2,3
   30290:	e0bffd15 	stw	r2,-12(fp)
  }
  

  big_loops = us / (INT_MAX/
  (ALT_CPU_FREQ/(cycles_per_loop * 1000000)));
   30294:	e0fffd17 	ldw	r3,-12(fp)
   30298:	008003f4 	movhi	r2,15
   3029c:	10909004 	addi	r2,r2,16960
   302a0:	1885383a 	mul	r2,r3,r2
   302a4:	0100bef4 	movhi	r4,763
   302a8:	213c2004 	addi	r4,r4,-3968
   302ac:	100b883a 	mov	r5,r2
   302b0:	002255c0 	call	2255c <__udivsi3>
  {
    cycles_per_loop = 3;
  }
  

  big_loops = us / (INT_MAX/
   302b4:	01200034 	movhi	r4,32768
   302b8:	213fffc4 	addi	r4,r4,-1
   302bc:	100b883a 	mov	r5,r2
   302c0:	002255c0 	call	2255c <__udivsi3>
   302c4:	e13fff17 	ldw	r4,-4(fp)
   302c8:	100b883a 	mov	r5,r2
   302cc:	002255c0 	call	2255c <__udivsi3>
   302d0:	e0bffe15 	stw	r2,-8(fp)
  (ALT_CPU_FREQ/(cycles_per_loop * 1000000)));

  if (big_loops)
   302d4:	e0bffe17 	ldw	r2,-8(fp)
   302d8:	10002a26 	beq	r2,zero,30384 <alt_busy_sleep+0x10c>
  {
    for(i=0;i<big_loops;i++)
   302dc:	e03ffc15 	stw	zero,-16(fp)
   302e0:	00001706 	br	30340 <alt_busy_sleep+0xc8>
      /*
      * Do NOT Try to single step the asm statement below 
      * (single step will never return)
      * Step out of this function or set a breakpoint after the asm statements
      */
      __asm__ volatile (
   302e4:	00a00034 	movhi	r2,32768
   302e8:	10bfffc4 	addi	r2,r2,-1
   302ec:	10bfffc4 	addi	r2,r2,-1
   302f0:	103ffe1e 	bne	r2,zero,302ec <_gp+0xffff4478>
        "\n\t.pushsection .debug_alt_sim_info"
        "\n\t.int 4, 0, 0b, 1b"
        "\n\t.popsection"
        :: "r" (INT_MAX));
      us -= (INT_MAX/(ALT_CPU_FREQ/
      (cycles_per_loop * 1000000)));
   302f4:	e0fffd17 	ldw	r3,-12(fp)
   302f8:	008003f4 	movhi	r2,15
   302fc:	10909004 	addi	r2,r2,16960
   30300:	1885383a 	mul	r2,r3,r2
        "\n1:"
        "\n\t.pushsection .debug_alt_sim_info"
        "\n\t.int 4, 0, 0b, 1b"
        "\n\t.popsection"
        :: "r" (INT_MAX));
      us -= (INT_MAX/(ALT_CPU_FREQ/
   30304:	0100bef4 	movhi	r4,763
   30308:	213c2004 	addi	r4,r4,-3968
   3030c:	100b883a 	mov	r5,r2
   30310:	002255c0 	call	2255c <__udivsi3>
   30314:	01200034 	movhi	r4,32768
   30318:	213fffc4 	addi	r4,r4,-1
   3031c:	100b883a 	mov	r5,r2
   30320:	002255c0 	call	2255c <__udivsi3>
   30324:	1007883a 	mov	r3,r2
   30328:	e0bfff17 	ldw	r2,-4(fp)
   3032c:	10c5c83a 	sub	r2,r2,r3
   30330:	e0bfff15 	stw	r2,-4(fp)
  big_loops = us / (INT_MAX/
  (ALT_CPU_FREQ/(cycles_per_loop * 1000000)));

  if (big_loops)
  {
    for(i=0;i<big_loops;i++)
   30334:	e0bffc17 	ldw	r2,-16(fp)
   30338:	10800044 	addi	r2,r2,1
   3033c:	e0bffc15 	stw	r2,-16(fp)
   30340:	e0fffc17 	ldw	r3,-16(fp)
   30344:	e0bffe17 	ldw	r2,-8(fp)
   30348:	18bfe616 	blt	r3,r2,302e4 <_gp+0xffff4470>
      "\n\tbne %0,zero,0b"
      "\n1:"
      "\n\t.pushsection .debug_alt_sim_info"
      "\n\t.int 4, 0, 0b, 1b"
      "\n\t.popsection"
      :: "r" (us*(ALT_CPU_FREQ/(cycles_per_loop * 1000000))));
   3034c:	e0fffd17 	ldw	r3,-12(fp)
   30350:	008003f4 	movhi	r2,15
   30354:	10909004 	addi	r2,r2,16960
   30358:	1885383a 	mul	r2,r3,r2
   3035c:	0100bef4 	movhi	r4,763
   30360:	213c2004 	addi	r4,r4,-3968
   30364:	100b883a 	mov	r5,r2
   30368:	002255c0 	call	2255c <__udivsi3>
   3036c:	1007883a 	mov	r3,r2
   30370:	e0bfff17 	ldw	r2,-4(fp)
   30374:	1885383a 	mul	r2,r3,r2
    /*
    * Do NOT Try to single step the asm statement below 
    * (single step will never return)
    * Step out of this function or set a breakpoint after the asm statements
    */
    __asm__ volatile (
   30378:	10bfffc4 	addi	r2,r2,-1
   3037c:	103ffe1e 	bne	r2,zero,30378 <_gp+0xffff4504>
   30380:	00000d06 	br	303b8 <alt_busy_sleep+0x140>
      "\n\tbgt %0,zero,0b"
      "\n1:"
      "\n\t.pushsection .debug_alt_sim_info"
      "\n\t.int 4, 0, 0b, 1b"
      "\n\t.popsection"
      :: "r" (us*(ALT_CPU_FREQ/(cycles_per_loop * 1000000))));
   30384:	e0fffd17 	ldw	r3,-12(fp)
   30388:	008003f4 	movhi	r2,15
   3038c:	10909004 	addi	r2,r2,16960
   30390:	1885383a 	mul	r2,r3,r2
   30394:	0100bef4 	movhi	r4,763
   30398:	213c2004 	addi	r4,r4,-3968
   3039c:	100b883a 	mov	r5,r2
   303a0:	002255c0 	call	2255c <__udivsi3>
   303a4:	1007883a 	mov	r3,r2
   303a8:	e0bfff17 	ldw	r2,-4(fp)
   303ac:	1885383a 	mul	r2,r3,r2
    /*
    * Do NOT Try to single step the asm statement below 
    * (single step will never return)
    * Step out of this function or set a breakpoint after the asm statements
    */
    __asm__ volatile (
   303b0:	10bfffc4 	addi	r2,r2,-1
   303b4:	00bffe16 	blt	zero,r2,303b0 <_gp+0xffff453c>
      "\n\t.int 4, 0, 0b, 1b"
      "\n\t.popsection"
      :: "r" (us*(ALT_CPU_FREQ/(cycles_per_loop * 1000000))));
  }
#endif /* #ifndef ALT_SIM_OPTIMIZE */
  return 0;
   303b8:	0005883a 	mov	r2,zero
}
   303bc:	e037883a 	mov	sp,fp
   303c0:	dfc00117 	ldw	ra,4(sp)
   303c4:	df000017 	ldw	fp,0(sp)
   303c8:	dec00204 	addi	sp,sp,8
   303cc:	f800283a 	ret

000303d0 <alt_dcache_flush_all>:
/*
 * alt_dcache_flush_all() is called to flush the entire data cache.
 */

void alt_dcache_flush_all (void)
{
   303d0:	defffe04 	addi	sp,sp,-8
   303d4:	df000115 	stw	fp,4(sp)
   303d8:	df000104 	addi	fp,sp,4
#if NIOS2_DCACHE_SIZE > 0
  char* i;
  
  for (i = (char*) 0; i < (char*) NIOS2_DCACHE_SIZE; i+= NIOS2_DCACHE_LINE_SIZE)
   303dc:	e03fff15 	stw	zero,-4(fp)
   303e0:	00000506 	br	303f8 <alt_dcache_flush_all+0x28>
  { 
    __asm__ volatile ("flushd (%0)" :: "r" (i));
   303e4:	e0bfff17 	ldw	r2,-4(fp)
   303e8:	1000003b 	flushd	0(r2)
void alt_dcache_flush_all (void)
{
#if NIOS2_DCACHE_SIZE > 0
  char* i;
  
  for (i = (char*) 0; i < (char*) NIOS2_DCACHE_SIZE; i+= NIOS2_DCACHE_LINE_SIZE)
   303ec:	e0bfff17 	ldw	r2,-4(fp)
   303f0:	10800804 	addi	r2,r2,32
   303f4:	e0bfff15 	stw	r2,-4(fp)
   303f8:	e0bfff17 	ldw	r2,-4(fp)
   303fc:	10820030 	cmpltui	r2,r2,2048
   30400:	103ff81e 	bne	r2,zero,303e4 <_gp+0xffff4570>
  { 
    __asm__ volatile ("flushd (%0)" :: "r" (i));
  }
#endif /* NIOS2_DCACHE_SIZE > 0 */
}
   30404:	e037883a 	mov	sp,fp
   30408:	df000017 	ldw	fp,0(sp)
   3040c:	dec00104 	addi	sp,sp,4
   30410:	f800283a 	ret

00030414 <alt_get_errno>:
#undef errno

extern int errno;

static ALT_INLINE int* alt_get_errno(void)
{
   30414:	defffe04 	addi	sp,sp,-8
   30418:	dfc00115 	stw	ra,4(sp)
   3041c:	df000015 	stw	fp,0(sp)
   30420:	d839883a 	mov	fp,sp
  return ((alt_errno) ? alt_errno() : &errno);
   30424:	008000f4 	movhi	r2,3
   30428:	108fab04 	addi	r2,r2,16044
   3042c:	10800017 	ldw	r2,0(r2)
   30430:	10000526 	beq	r2,zero,30448 <alt_get_errno+0x34>
   30434:	008000f4 	movhi	r2,3
   30438:	108fab04 	addi	r2,r2,16044
   3043c:	10800017 	ldw	r2,0(r2)
   30440:	103ee83a 	callr	r2
   30444:	00000206 	br	30450 <alt_get_errno+0x3c>
   30448:	008000f4 	movhi	r2,3
   3044c:	10985704 	addi	r2,r2,24924
}
   30450:	e037883a 	mov	sp,fp
   30454:	dfc00117 	ldw	ra,4(sp)
   30458:	df000017 	ldw	fp,0(sp)
   3045c:	dec00204 	addi	sp,sp,8
   30460:	f800283a 	ret

00030464 <alt_dev_llist_insert>:
/*
 *
 */

int alt_dev_llist_insert (alt_dev_llist* dev, alt_llist* list)
{
   30464:	defffa04 	addi	sp,sp,-24
   30468:	dfc00515 	stw	ra,20(sp)
   3046c:	df000415 	stw	fp,16(sp)
   30470:	df000404 	addi	fp,sp,16
   30474:	e13ffe15 	stw	r4,-8(fp)
   30478:	e17fff15 	stw	r5,-4(fp)
  /*
   * check that the device exists, and that it has a valid name.
   */

  if (!dev || !dev->name)
   3047c:	e0bffe17 	ldw	r2,-8(fp)
   30480:	10000326 	beq	r2,zero,30490 <alt_dev_llist_insert+0x2c>
   30484:	e0bffe17 	ldw	r2,-8(fp)
   30488:	10800217 	ldw	r2,8(r2)
   3048c:	1000061e 	bne	r2,zero,304a8 <alt_dev_llist_insert+0x44>
  {
    ALT_ERRNO = EINVAL;
   30490:	00304140 	call	30414 <alt_get_errno>
   30494:	1007883a 	mov	r3,r2
   30498:	00800584 	movi	r2,22
   3049c:	18800015 	stw	r2,0(r3)
    return -EINVAL;
   304a0:	00bffa84 	movi	r2,-22
   304a4:	00001306 	br	304f4 <alt_dev_llist_insert+0x90>
  
  /*
   * register the device.
   */
  
  alt_llist_insert(list, &dev->llist);
   304a8:	e0bffe17 	ldw	r2,-8(fp)
   304ac:	e0ffff17 	ldw	r3,-4(fp)
   304b0:	e0fffc15 	stw	r3,-16(fp)
   304b4:	e0bffd15 	stw	r2,-12(fp)
 */

static ALT_INLINE void ALT_ALWAYS_INLINE alt_llist_insert(alt_llist* list, 
                alt_llist* entry)
{
  entry->previous = list;
   304b8:	e0bffd17 	ldw	r2,-12(fp)
   304bc:	e0fffc17 	ldw	r3,-16(fp)
   304c0:	10c00115 	stw	r3,4(r2)
  entry->next     = list->next;
   304c4:	e0bffc17 	ldw	r2,-16(fp)
   304c8:	10c00017 	ldw	r3,0(r2)
   304cc:	e0bffd17 	ldw	r2,-12(fp)
   304d0:	10c00015 	stw	r3,0(r2)

  list->next->previous = entry;
   304d4:	e0bffc17 	ldw	r2,-16(fp)
   304d8:	10800017 	ldw	r2,0(r2)
   304dc:	e0fffd17 	ldw	r3,-12(fp)
   304e0:	10c00115 	stw	r3,4(r2)
  list->next           = entry;
   304e4:	e0bffc17 	ldw	r2,-16(fp)
   304e8:	e0fffd17 	ldw	r3,-12(fp)
   304ec:	10c00015 	stw	r3,0(r2)

  return 0;  
   304f0:	0005883a 	mov	r2,zero
}
   304f4:	e037883a 	mov	sp,fp
   304f8:	dfc00117 	ldw	ra,4(sp)
   304fc:	df000017 	ldw	fp,0(sp)
   30500:	dec00204 	addi	sp,sp,8
   30504:	f800283a 	ret

00030508 <_do_ctors>:
/*
 * Run the C++ static constructors.
 */

void _do_ctors(void)
{
   30508:	defffd04 	addi	sp,sp,-12
   3050c:	dfc00215 	stw	ra,8(sp)
   30510:	df000115 	stw	fp,4(sp)
   30514:	df000104 	addi	fp,sp,4
  constructor* ctor;

  for (ctor = &__CTOR_END__[-1]; ctor >= __CTOR_LIST__; ctor--)
   30518:	008000f4 	movhi	r2,3
   3051c:	1084eb04 	addi	r2,r2,5036
   30520:	e0bfff15 	stw	r2,-4(fp)
   30524:	00000606 	br	30540 <_do_ctors+0x38>
        (*ctor) (); 
   30528:	e0bfff17 	ldw	r2,-4(fp)
   3052c:	10800017 	ldw	r2,0(r2)
   30530:	103ee83a 	callr	r2

void _do_ctors(void)
{
  constructor* ctor;

  for (ctor = &__CTOR_END__[-1]; ctor >= __CTOR_LIST__; ctor--)
   30534:	e0bfff17 	ldw	r2,-4(fp)
   30538:	10bfff04 	addi	r2,r2,-4
   3053c:	e0bfff15 	stw	r2,-4(fp)
   30540:	e0ffff17 	ldw	r3,-4(fp)
   30544:	008000f4 	movhi	r2,3
   30548:	1084ec04 	addi	r2,r2,5040
   3054c:	18bff62e 	bgeu	r3,r2,30528 <_gp+0xffff46b4>
        (*ctor) (); 
}
   30550:	e037883a 	mov	sp,fp
   30554:	dfc00117 	ldw	ra,4(sp)
   30558:	df000017 	ldw	fp,0(sp)
   3055c:	dec00204 	addi	sp,sp,8
   30560:	f800283a 	ret

00030564 <_do_dtors>:
/*
 * Run the C++ static destructors.
 */

void _do_dtors(void)
{
   30564:	defffd04 	addi	sp,sp,-12
   30568:	dfc00215 	stw	ra,8(sp)
   3056c:	df000115 	stw	fp,4(sp)
   30570:	df000104 	addi	fp,sp,4
  destructor* dtor;

  for (dtor = &__DTOR_END__[-1]; dtor >= __DTOR_LIST__; dtor--)
   30574:	008000f4 	movhi	r2,3
   30578:	1084eb04 	addi	r2,r2,5036
   3057c:	e0bfff15 	stw	r2,-4(fp)
   30580:	00000606 	br	3059c <_do_dtors+0x38>
        (*dtor) (); 
   30584:	e0bfff17 	ldw	r2,-4(fp)
   30588:	10800017 	ldw	r2,0(r2)
   3058c:	103ee83a 	callr	r2

void _do_dtors(void)
{
  destructor* dtor;

  for (dtor = &__DTOR_END__[-1]; dtor >= __DTOR_LIST__; dtor--)
   30590:	e0bfff17 	ldw	r2,-4(fp)
   30594:	10bfff04 	addi	r2,r2,-4
   30598:	e0bfff15 	stw	r2,-4(fp)
   3059c:	e0ffff17 	ldw	r3,-4(fp)
   305a0:	008000f4 	movhi	r2,3
   305a4:	1084ec04 	addi	r2,r2,5040
   305a8:	18bff62e 	bgeu	r3,r2,30584 <_gp+0xffff4710>
        (*dtor) (); 
}
   305ac:	e037883a 	mov	sp,fp
   305b0:	dfc00117 	ldw	ra,4(sp)
   305b4:	df000017 	ldw	fp,0(sp)
   305b8:	dec00204 	addi	sp,sp,8
   305bc:	f800283a 	ret

000305c0 <alt_icache_flush_all>:
/*
 * alt_icache_flush_all() is called to flush the entire instruction cache.
 */

void alt_icache_flush_all (void)
{
   305c0:	defffe04 	addi	sp,sp,-8
   305c4:	dfc00115 	stw	ra,4(sp)
   305c8:	df000015 	stw	fp,0(sp)
   305cc:	d839883a 	mov	fp,sp
#if NIOS2_ICACHE_SIZE > 0
  alt_icache_flush (0, NIOS2_ICACHE_SIZE);
   305d0:	0009883a 	mov	r4,zero
   305d4:	01440004 	movi	r5,4096
   305d8:	0030ee40 	call	30ee4 <alt_icache_flush>
#endif
}
   305dc:	e037883a 	mov	sp,fp
   305e0:	dfc00117 	ldw	ra,4(sp)
   305e4:	df000017 	ldw	fp,0(sp)
   305e8:	dec00204 	addi	sp,sp,8
   305ec:	f800283a 	ret

000305f0 <alt_ic_isr_register>:
  * @param irq              IRQ number
  * @return                 0 if successful, else error (-1)
  */
int alt_ic_isr_register(alt_u32 ic_id, alt_u32 irq, alt_isr_func isr, 
  void *isr_context, void *flags)
{
   305f0:	defff904 	addi	sp,sp,-28
   305f4:	dfc00615 	stw	ra,24(sp)
   305f8:	df000515 	stw	fp,20(sp)
   305fc:	df000504 	addi	fp,sp,20
   30600:	e13ffc15 	stw	r4,-16(fp)
   30604:	e17ffd15 	stw	r5,-12(fp)
   30608:	e1bffe15 	stw	r6,-8(fp)
   3060c:	e1ffff15 	stw	r7,-4(fp)
    return alt_iic_isr_register(ic_id, irq, isr, isr_context, flags);
   30610:	e0800217 	ldw	r2,8(fp)
   30614:	d8800015 	stw	r2,0(sp)
   30618:	e13ffc17 	ldw	r4,-16(fp)
   3061c:	e17ffd17 	ldw	r5,-12(fp)
   30620:	e1bffe17 	ldw	r6,-8(fp)
   30624:	e1ffff17 	ldw	r7,-4(fp)
   30628:	00307d00 	call	307d0 <alt_iic_isr_register>
}  
   3062c:	e037883a 	mov	sp,fp
   30630:	dfc00117 	ldw	ra,4(sp)
   30634:	df000017 	ldw	fp,0(sp)
   30638:	dec00204 	addi	sp,sp,8
   3063c:	f800283a 	ret

00030640 <alt_ic_irq_enable>:
  * @param ic_id            Ignored.
  * @param irq              IRQ number
  * @return                 0 if successful, else error (-1)
  */
int alt_ic_irq_enable (alt_u32 ic_id, alt_u32 irq)
{
   30640:	defff904 	addi	sp,sp,-28
   30644:	df000615 	stw	fp,24(sp)
   30648:	df000604 	addi	fp,sp,24
   3064c:	e13ffe15 	stw	r4,-8(fp)
   30650:	e17fff15 	stw	r5,-4(fp)
   30654:	e0bfff17 	ldw	r2,-4(fp)
   30658:	e0bffa15 	stw	r2,-24(fp)
static ALT_INLINE alt_irq_context ALT_ALWAYS_INLINE 
       alt_irq_disable_all (void)
{
  alt_irq_context context;

  NIOS2_READ_STATUS (context);
   3065c:	0005303a 	rdctl	r2,status
   30660:	e0bffb15 	stw	r2,-20(fp)

  NIOS2_WRITE_STATUS (context & ~NIOS2_STATUS_PIE_MSK);
   30664:	e0fffb17 	ldw	r3,-20(fp)
   30668:	00bfff84 	movi	r2,-2
   3066c:	1884703a 	and	r2,r3,r2
   30670:	1001703a 	wrctl	status,r2
  
  return context;
   30674:	e0bffb17 	ldw	r2,-20(fp)
static ALT_INLINE int ALT_ALWAYS_INLINE alt_irq_enable (alt_u32 id)
{
  alt_irq_context  status;
  extern volatile alt_u32 alt_irq_active;

  status = alt_irq_disable_all ();
   30678:	e0bffc15 	stw	r2,-16(fp)

  alt_irq_active |= (1 << id);
   3067c:	e0bffa17 	ldw	r2,-24(fp)
   30680:	00c00044 	movi	r3,1
   30684:	1884983a 	sll	r2,r3,r2
   30688:	1007883a 	mov	r3,r2
   3068c:	008000f4 	movhi	r2,3
   30690:	10986004 	addi	r2,r2,24960
   30694:	10800017 	ldw	r2,0(r2)
   30698:	1886b03a 	or	r3,r3,r2
   3069c:	008000f4 	movhi	r2,3
   306a0:	10986004 	addi	r2,r2,24960
   306a4:	10c00015 	stw	r3,0(r2)
  NIOS2_WRITE_IENABLE (alt_irq_active);
   306a8:	008000f4 	movhi	r2,3
   306ac:	10986004 	addi	r2,r2,24960
   306b0:	10800017 	ldw	r2,0(r2)
   306b4:	100170fa 	wrctl	ienable,r2
   306b8:	e0bffc17 	ldw	r2,-16(fp)
   306bc:	e0bffd15 	stw	r2,-12(fp)
  status &= ~NIOS2_STATUS_PIE_MSK;
  status |= (context & NIOS2_STATUS_PIE_MSK);
  
  NIOS2_WRITE_STATUS (status);
#else
  NIOS2_WRITE_STATUS (context);
   306c0:	e0bffd17 	ldw	r2,-12(fp)
   306c4:	1001703a 	wrctl	status,r2

  alt_irq_enable_all(status);

  return 0;
   306c8:	0005883a 	mov	r2,zero
    return alt_irq_enable(irq);
   306cc:	0001883a 	nop
}
   306d0:	e037883a 	mov	sp,fp
   306d4:	df000017 	ldw	fp,0(sp)
   306d8:	dec00104 	addi	sp,sp,4
   306dc:	f800283a 	ret

000306e0 <alt_ic_irq_disable>:
  * @param ic_id            Ignored.
  * @param irq              IRQ number
  * @return                 0 if successful, else error (-1)
  */
int alt_ic_irq_disable(alt_u32 ic_id, alt_u32 irq)
{
   306e0:	defff904 	addi	sp,sp,-28
   306e4:	df000615 	stw	fp,24(sp)
   306e8:	df000604 	addi	fp,sp,24
   306ec:	e13ffe15 	stw	r4,-8(fp)
   306f0:	e17fff15 	stw	r5,-4(fp)
   306f4:	e0bfff17 	ldw	r2,-4(fp)
   306f8:	e0bffa15 	stw	r2,-24(fp)
static ALT_INLINE alt_irq_context ALT_ALWAYS_INLINE 
       alt_irq_disable_all (void)
{
  alt_irq_context context;

  NIOS2_READ_STATUS (context);
   306fc:	0005303a 	rdctl	r2,status
   30700:	e0bffb15 	stw	r2,-20(fp)

  NIOS2_WRITE_STATUS (context & ~NIOS2_STATUS_PIE_MSK);
   30704:	e0fffb17 	ldw	r3,-20(fp)
   30708:	00bfff84 	movi	r2,-2
   3070c:	1884703a 	and	r2,r3,r2
   30710:	1001703a 	wrctl	status,r2
  
  return context;
   30714:	e0bffb17 	ldw	r2,-20(fp)
static ALT_INLINE int ALT_ALWAYS_INLINE alt_irq_disable (alt_u32 id)
{
  alt_irq_context  status;
  extern volatile alt_u32 alt_irq_active;

  status = alt_irq_disable_all ();
   30718:	e0bffc15 	stw	r2,-16(fp)

  alt_irq_active &= ~(1 << id);
   3071c:	e0bffa17 	ldw	r2,-24(fp)
   30720:	00c00044 	movi	r3,1
   30724:	1884983a 	sll	r2,r3,r2
   30728:	0084303a 	nor	r2,zero,r2
   3072c:	1007883a 	mov	r3,r2
   30730:	008000f4 	movhi	r2,3
   30734:	10986004 	addi	r2,r2,24960
   30738:	10800017 	ldw	r2,0(r2)
   3073c:	1886703a 	and	r3,r3,r2
   30740:	008000f4 	movhi	r2,3
   30744:	10986004 	addi	r2,r2,24960
   30748:	10c00015 	stw	r3,0(r2)
  NIOS2_WRITE_IENABLE (alt_irq_active);
   3074c:	008000f4 	movhi	r2,3
   30750:	10986004 	addi	r2,r2,24960
   30754:	10800017 	ldw	r2,0(r2)
   30758:	100170fa 	wrctl	ienable,r2
   3075c:	e0bffc17 	ldw	r2,-16(fp)
   30760:	e0bffd15 	stw	r2,-12(fp)
  status &= ~NIOS2_STATUS_PIE_MSK;
  status |= (context & NIOS2_STATUS_PIE_MSK);
  
  NIOS2_WRITE_STATUS (status);
#else
  NIOS2_WRITE_STATUS (context);
   30764:	e0bffd17 	ldw	r2,-12(fp)
   30768:	1001703a 	wrctl	status,r2

  alt_irq_enable_all(status);

  return 0;
   3076c:	0005883a 	mov	r2,zero
    return alt_irq_disable(irq);
   30770:	0001883a 	nop
}
   30774:	e037883a 	mov	sp,fp
   30778:	df000017 	ldw	fp,0(sp)
   3077c:	dec00104 	addi	sp,sp,4
   30780:	f800283a 	ret

00030784 <alt_ic_irq_enabled>:
  * @param irq              IRQ number
  * @return                 Zero if corresponding interrupt is disabled and
  *                         non-zero otherwise.
  */
alt_u32 alt_ic_irq_enabled(alt_u32 ic_id, alt_u32 irq)
{
   30784:	defffc04 	addi	sp,sp,-16
   30788:	df000315 	stw	fp,12(sp)
   3078c:	df000304 	addi	fp,sp,12
   30790:	e13ffe15 	stw	r4,-8(fp)
   30794:	e17fff15 	stw	r5,-4(fp)
    alt_u32 irq_enabled;

    NIOS2_READ_IENABLE(irq_enabled);
   30798:	000530fa 	rdctl	r2,ienable
   3079c:	e0bffd15 	stw	r2,-12(fp)

    return (irq_enabled & (1 << irq)) ? 1: 0;
   307a0:	e0bfff17 	ldw	r2,-4(fp)
   307a4:	00c00044 	movi	r3,1
   307a8:	1884983a 	sll	r2,r3,r2
   307ac:	1007883a 	mov	r3,r2
   307b0:	e0bffd17 	ldw	r2,-12(fp)
   307b4:	1884703a 	and	r2,r3,r2
   307b8:	1004c03a 	cmpne	r2,r2,zero
   307bc:	10803fcc 	andi	r2,r2,255
}
   307c0:	e037883a 	mov	sp,fp
   307c4:	df000017 	ldw	fp,0(sp)
   307c8:	dec00104 	addi	sp,sp,4
   307cc:	f800283a 	ret

000307d0 <alt_iic_isr_register>:
  * @param flags            
  * @return                 0 if successful, else error (-1)
  */
int alt_iic_isr_register(alt_u32 ic_id, alt_u32 irq, alt_isr_func isr, 
  void *isr_context, void *flags)
{
   307d0:	defff504 	addi	sp,sp,-44
   307d4:	dfc00a15 	stw	ra,40(sp)
   307d8:	df000915 	stw	fp,36(sp)
   307dc:	df000904 	addi	fp,sp,36
   307e0:	e13ffc15 	stw	r4,-16(fp)
   307e4:	e17ffd15 	stw	r5,-12(fp)
   307e8:	e1bffe15 	stw	r6,-8(fp)
   307ec:	e1ffff15 	stw	r7,-4(fp)
  int rc = -EINVAL;  
   307f0:	00bffa84 	movi	r2,-22
   307f4:	e0bff715 	stw	r2,-36(fp)
  int id = irq;             /* IRQ interpreted as the interrupt ID. */
   307f8:	e0bffd17 	ldw	r2,-12(fp)
   307fc:	e0bff815 	stw	r2,-32(fp)
  alt_irq_context status;

  if (id < ALT_NIRQ)
   30800:	e0bff817 	ldw	r2,-32(fp)
   30804:	10800808 	cmpgei	r2,r2,32
   30808:	1000271e 	bne	r2,zero,308a8 <alt_iic_isr_register+0xd8>
static ALT_INLINE alt_irq_context ALT_ALWAYS_INLINE 
       alt_irq_disable_all (void)
{
  alt_irq_context context;

  NIOS2_READ_STATUS (context);
   3080c:	0005303a 	rdctl	r2,status
   30810:	e0bffa15 	stw	r2,-24(fp)

  NIOS2_WRITE_STATUS (context & ~NIOS2_STATUS_PIE_MSK);
   30814:	e0fffa17 	ldw	r3,-24(fp)
   30818:	00bfff84 	movi	r2,-2
   3081c:	1884703a 	and	r2,r3,r2
   30820:	1001703a 	wrctl	status,r2
  
  return context;
   30824:	e0bffa17 	ldw	r2,-24(fp)
     * interrupts are disabled while the handler tables are updated to ensure
     * that an interrupt doesn't occur while the tables are in an inconsistant
     * state.
     */

    status = alt_irq_disable_all();
   30828:	e0bff915 	stw	r2,-28(fp)

    alt_irq[id].handler = isr;
   3082c:	008000f4 	movhi	r2,3
   30830:	10986c04 	addi	r2,r2,25008
   30834:	e0fff817 	ldw	r3,-32(fp)
   30838:	180690fa 	slli	r3,r3,3
   3083c:	10c5883a 	add	r2,r2,r3
   30840:	e0fffe17 	ldw	r3,-8(fp)
   30844:	10c00015 	stw	r3,0(r2)
    alt_irq[id].context = isr_context;
   30848:	008000f4 	movhi	r2,3
   3084c:	10986c04 	addi	r2,r2,25008
   30850:	e0fff817 	ldw	r3,-32(fp)
   30854:	180690fa 	slli	r3,r3,3
   30858:	18c00104 	addi	r3,r3,4
   3085c:	10c5883a 	add	r2,r2,r3
   30860:	e0ffff17 	ldw	r3,-4(fp)
   30864:	10c00015 	stw	r3,0(r2)

    rc = (isr) ? alt_ic_irq_enable(ic_id, id) : alt_ic_irq_disable(ic_id, id);
   30868:	e0bffe17 	ldw	r2,-8(fp)
   3086c:	10000526 	beq	r2,zero,30884 <alt_iic_isr_register+0xb4>
   30870:	e0bff817 	ldw	r2,-32(fp)
   30874:	e13ffc17 	ldw	r4,-16(fp)
   30878:	100b883a 	mov	r5,r2
   3087c:	00306400 	call	30640 <alt_ic_irq_enable>
   30880:	00000406 	br	30894 <alt_iic_isr_register+0xc4>
   30884:	e0bff817 	ldw	r2,-32(fp)
   30888:	e13ffc17 	ldw	r4,-16(fp)
   3088c:	100b883a 	mov	r5,r2
   30890:	00306e00 	call	306e0 <alt_ic_irq_disable>
   30894:	e0bff715 	stw	r2,-36(fp)
   30898:	e0bff917 	ldw	r2,-28(fp)
   3089c:	e0bffb15 	stw	r2,-20(fp)
  status &= ~NIOS2_STATUS_PIE_MSK;
  status |= (context & NIOS2_STATUS_PIE_MSK);
  
  NIOS2_WRITE_STATUS (status);
#else
  NIOS2_WRITE_STATUS (context);
   308a0:	e0bffb17 	ldw	r2,-20(fp)
   308a4:	1001703a 	wrctl	status,r2

    alt_irq_enable_all(status);
  }

  return rc; 
   308a8:	e0bff717 	ldw	r2,-36(fp)
}
   308ac:	e037883a 	mov	sp,fp
   308b0:	dfc00117 	ldw	ra,4(sp)
   308b4:	df000017 	ldw	fp,0(sp)
   308b8:	dec00204 	addi	sp,sp,8
   308bc:	f800283a 	ret

000308c0 <alt_open_fd>:
 * If the device can not be succesfully opened, then the input file descriptor
 * remains unchanged.
 */

static void alt_open_fd(alt_fd* fd, const char* name, int flags, int mode)
{
   308c0:	defff904 	addi	sp,sp,-28
   308c4:	dfc00615 	stw	ra,24(sp)
   308c8:	df000515 	stw	fp,20(sp)
   308cc:	df000504 	addi	fp,sp,20
   308d0:	e13ffc15 	stw	r4,-16(fp)
   308d4:	e17ffd15 	stw	r5,-12(fp)
   308d8:	e1bffe15 	stw	r6,-8(fp)
   308dc:	e1ffff15 	stw	r7,-4(fp)
  int old;

  old = open (name, flags, mode);
   308e0:	e13ffd17 	ldw	r4,-12(fp)
   308e4:	e17ffe17 	ldw	r5,-8(fp)
   308e8:	e1bfff17 	ldw	r6,-4(fp)
   308ec:	0030b140 	call	30b14 <open>
   308f0:	e0bffb15 	stw	r2,-20(fp)

  if (old >= 0)
   308f4:	e0bffb17 	ldw	r2,-20(fp)
   308f8:	10001c16 	blt	r2,zero,3096c <alt_open_fd+0xac>
  {
    fd->dev      = alt_fd_list[old].dev;
   308fc:	008000f4 	movhi	r2,3
   30900:	108b2504 	addi	r2,r2,11412
   30904:	e0fffb17 	ldw	r3,-20(fp)
   30908:	18c00324 	muli	r3,r3,12
   3090c:	10c5883a 	add	r2,r2,r3
   30910:	10c00017 	ldw	r3,0(r2)
   30914:	e0bffc17 	ldw	r2,-16(fp)
   30918:	10c00015 	stw	r3,0(r2)
    fd->priv     = alt_fd_list[old].priv;
   3091c:	008000f4 	movhi	r2,3
   30920:	108b2504 	addi	r2,r2,11412
   30924:	e0fffb17 	ldw	r3,-20(fp)
   30928:	18c00324 	muli	r3,r3,12
   3092c:	18c00104 	addi	r3,r3,4
   30930:	10c5883a 	add	r2,r2,r3
   30934:	10c00017 	ldw	r3,0(r2)
   30938:	e0bffc17 	ldw	r2,-16(fp)
   3093c:	10c00115 	stw	r3,4(r2)
    fd->fd_flags = alt_fd_list[old].fd_flags;
   30940:	008000f4 	movhi	r2,3
   30944:	108b2504 	addi	r2,r2,11412
   30948:	e0fffb17 	ldw	r3,-20(fp)
   3094c:	18c00324 	muli	r3,r3,12
   30950:	18c00204 	addi	r3,r3,8
   30954:	10c5883a 	add	r2,r2,r3
   30958:	10c00017 	ldw	r3,0(r2)
   3095c:	e0bffc17 	ldw	r2,-16(fp)
   30960:	10c00215 	stw	r3,8(r2)

    alt_release_fd (old);
   30964:	e13ffb17 	ldw	r4,-20(fp)
   30968:	002f1000 	call	2f100 <alt_release_fd>
  }
} 
   3096c:	e037883a 	mov	sp,fp
   30970:	dfc00117 	ldw	ra,4(sp)
   30974:	df000017 	ldw	fp,0(sp)
   30978:	dec00204 	addi	sp,sp,8
   3097c:	f800283a 	ret

00030980 <alt_io_redirect>:
 */
 
void alt_io_redirect(const char* stdout_dev, 
                     const char* stdin_dev, 
                     const char* stderr_dev)
{
   30980:	defffb04 	addi	sp,sp,-20
   30984:	dfc00415 	stw	ra,16(sp)
   30988:	df000315 	stw	fp,12(sp)
   3098c:	df000304 	addi	fp,sp,12
   30990:	e13ffd15 	stw	r4,-12(fp)
   30994:	e17ffe15 	stw	r5,-8(fp)
   30998:	e1bfff15 	stw	r6,-4(fp)
  /* Redirect the channels */

  alt_open_fd (&alt_fd_list[STDOUT_FILENO], stdout_dev, O_WRONLY, 0777);
   3099c:	010000f4 	movhi	r4,3
   309a0:	210b2804 	addi	r4,r4,11424
   309a4:	e17ffd17 	ldw	r5,-12(fp)
   309a8:	01800044 	movi	r6,1
   309ac:	01c07fc4 	movi	r7,511
   309b0:	00308c00 	call	308c0 <alt_open_fd>
  alt_open_fd (&alt_fd_list[STDIN_FILENO], stdin_dev, O_RDONLY, 0777);
   309b4:	010000f4 	movhi	r4,3
   309b8:	210b2504 	addi	r4,r4,11412
   309bc:	e17ffe17 	ldw	r5,-8(fp)
   309c0:	000d883a 	mov	r6,zero
   309c4:	01c07fc4 	movi	r7,511
   309c8:	00308c00 	call	308c0 <alt_open_fd>
  alt_open_fd (&alt_fd_list[STDERR_FILENO], stderr_dev, O_WRONLY, 0777);
   309cc:	010000f4 	movhi	r4,3
   309d0:	210b2b04 	addi	r4,r4,11436
   309d4:	e17fff17 	ldw	r5,-4(fp)
   309d8:	01800044 	movi	r6,1
   309dc:	01c07fc4 	movi	r7,511
   309e0:	00308c00 	call	308c0 <alt_open_fd>
}  
   309e4:	e037883a 	mov	sp,fp
   309e8:	dfc00117 	ldw	ra,4(sp)
   309ec:	df000017 	ldw	fp,0(sp)
   309f0:	dec00204 	addi	sp,sp,8
   309f4:	f800283a 	ret

000309f8 <alt_get_errno>:
#undef errno

extern int errno;

static ALT_INLINE int* alt_get_errno(void)
{
   309f8:	defffe04 	addi	sp,sp,-8
   309fc:	dfc00115 	stw	ra,4(sp)
   30a00:	df000015 	stw	fp,0(sp)
   30a04:	d839883a 	mov	fp,sp
  return ((alt_errno) ? alt_errno() : &errno);
   30a08:	008000f4 	movhi	r2,3
   30a0c:	108fab04 	addi	r2,r2,16044
   30a10:	10800017 	ldw	r2,0(r2)
   30a14:	10000526 	beq	r2,zero,30a2c <alt_get_errno+0x34>
   30a18:	008000f4 	movhi	r2,3
   30a1c:	108fab04 	addi	r2,r2,16044
   30a20:	10800017 	ldw	r2,0(r2)
   30a24:	103ee83a 	callr	r2
   30a28:	00000206 	br	30a34 <alt_get_errno+0x3c>
   30a2c:	008000f4 	movhi	r2,3
   30a30:	10985704 	addi	r2,r2,24924
}
   30a34:	e037883a 	mov	sp,fp
   30a38:	dfc00117 	ldw	ra,4(sp)
   30a3c:	df000017 	ldw	fp,0(sp)
   30a40:	dec00204 	addi	sp,sp,8
   30a44:	f800283a 	ret

00030a48 <alt_file_locked>:
 * performed for devices. Filesystems are required to handle the ioctl() call
 * themselves, and report the error from the filesystems open() function. 
 */ 

static int alt_file_locked (alt_fd* fd)
{
   30a48:	defffd04 	addi	sp,sp,-12
   30a4c:	df000215 	stw	fp,8(sp)
   30a50:	df000204 	addi	fp,sp,8
   30a54:	e13fff15 	stw	r4,-4(fp)

  /*
   * Mark the file descriptor as belonging to a device.
   */

  fd->fd_flags |= ALT_FD_DEV;
   30a58:	e0bfff17 	ldw	r2,-4(fp)
   30a5c:	10800217 	ldw	r2,8(r2)
   30a60:	10d00034 	orhi	r3,r2,16384
   30a64:	e0bfff17 	ldw	r2,-4(fp)
   30a68:	10c00215 	stw	r3,8(r2)
  /*
   * Loop through all current file descriptors searching for one that's locked
   * for exclusive access. If a match is found, generate an error.
   */

  for (i = 0; i <= alt_max_fd; i++)
   30a6c:	e03ffe15 	stw	zero,-8(fp)
   30a70:	00001d06 	br	30ae8 <alt_file_locked+0xa0>
  {
    if ((alt_fd_list[i].dev == fd->dev) &&
   30a74:	008000f4 	movhi	r2,3
   30a78:	108b2504 	addi	r2,r2,11412
   30a7c:	e0fffe17 	ldw	r3,-8(fp)
   30a80:	18c00324 	muli	r3,r3,12
   30a84:	10c5883a 	add	r2,r2,r3
   30a88:	10c00017 	ldw	r3,0(r2)
   30a8c:	e0bfff17 	ldw	r2,-4(fp)
   30a90:	10800017 	ldw	r2,0(r2)
   30a94:	1880111e 	bne	r3,r2,30adc <alt_file_locked+0x94>
        (alt_fd_list[i].fd_flags & ALT_FD_EXCL) &&
   30a98:	008000f4 	movhi	r2,3
   30a9c:	108b2504 	addi	r2,r2,11412
   30aa0:	e0fffe17 	ldw	r3,-8(fp)
   30aa4:	18c00324 	muli	r3,r3,12
   30aa8:	18c00204 	addi	r3,r3,8
   30aac:	10c5883a 	add	r2,r2,r3
   30ab0:	10800017 	ldw	r2,0(r2)
   * for exclusive access. If a match is found, generate an error.
   */

  for (i = 0; i <= alt_max_fd; i++)
  {
    if ((alt_fd_list[i].dev == fd->dev) &&
   30ab4:	1000090e 	bge	r2,zero,30adc <alt_file_locked+0x94>
        (alt_fd_list[i].fd_flags & ALT_FD_EXCL) &&
        (&alt_fd_list[i] != fd))
   30ab8:	e0bffe17 	ldw	r2,-8(fp)
   30abc:	10c00324 	muli	r3,r2,12
   30ac0:	008000f4 	movhi	r2,3
   30ac4:	108b2504 	addi	r2,r2,11412
   30ac8:	1887883a 	add	r3,r3,r2
   */

  for (i = 0; i <= alt_max_fd; i++)
  {
    if ((alt_fd_list[i].dev == fd->dev) &&
        (alt_fd_list[i].fd_flags & ALT_FD_EXCL) &&
   30acc:	e0bfff17 	ldw	r2,-4(fp)
   30ad0:	18800226 	beq	r3,r2,30adc <alt_file_locked+0x94>
        (&alt_fd_list[i] != fd))
    {
      return -EACCES;
   30ad4:	00bffcc4 	movi	r2,-13
   30ad8:	00000a06 	br	30b04 <alt_file_locked+0xbc>
  /*
   * Loop through all current file descriptors searching for one that's locked
   * for exclusive access. If a match is found, generate an error.
   */

  for (i = 0; i <= alt_max_fd; i++)
   30adc:	e0bffe17 	ldw	r2,-8(fp)
   30ae0:	10800044 	addi	r2,r2,1
   30ae4:	e0bffe15 	stw	r2,-8(fp)
   30ae8:	008000f4 	movhi	r2,3
   30aec:	108faa04 	addi	r2,r2,16040
   30af0:	10800017 	ldw	r2,0(r2)
   30af4:	1007883a 	mov	r3,r2
   30af8:	e0bffe17 	ldw	r2,-8(fp)
   30afc:	18bfdd2e 	bgeu	r3,r2,30a74 <_gp+0xffff4c00>
    }
  }
  
  /* The device is not locked */
 
  return 0;
   30b00:	0005883a 	mov	r2,zero
}
   30b04:	e037883a 	mov	sp,fp
   30b08:	df000017 	ldw	fp,0(sp)
   30b0c:	dec00104 	addi	sp,sp,4
   30b10:	f800283a 	ret

00030b14 <open>:
 *
 * ALT_OPEN is mapped onto the open() system call in alt_syscall.h
 */
 
int ALT_OPEN (const char* file, int flags, int mode)
{ 
   30b14:	defff604 	addi	sp,sp,-40
   30b18:	dfc00915 	stw	ra,36(sp)
   30b1c:	df000815 	stw	fp,32(sp)
   30b20:	df000804 	addi	fp,sp,32
   30b24:	e13ffd15 	stw	r4,-12(fp)
   30b28:	e17ffe15 	stw	r5,-8(fp)
   30b2c:	e1bfff15 	stw	r6,-4(fp)
  alt_dev* dev;
  alt_fd*  fd;
  int index  = -1;
   30b30:	00bfffc4 	movi	r2,-1
   30b34:	e0bff915 	stw	r2,-28(fp)
  int status = -ENODEV;
   30b38:	00bffb44 	movi	r2,-19
   30b3c:	e0bffa15 	stw	r2,-24(fp)
  int isafs = 0;
   30b40:	e03ffb15 	stw	zero,-20(fp)
  /* 
   * Check the device list, to see if a device with a matching name is 
   * registered.
   */
  
  if (!(dev = alt_find_dev (file, &alt_dev_list)))
   30b44:	e13ffd17 	ldw	r4,-12(fp)
   30b48:	014000f4 	movhi	r5,3
   30b4c:	294fa804 	addi	r5,r5,16032
   30b50:	0030c8c0 	call	30c8c <alt_find_dev>
   30b54:	e0bff815 	stw	r2,-32(fp)
   30b58:	e0bff817 	ldw	r2,-32(fp)
   30b5c:	1000051e 	bne	r2,zero,30b74 <open+0x60>
  {
    /* No matching device, so try the filesystem list */

    dev   = alt_find_file (file);
   30b60:	e13ffd17 	ldw	r4,-12(fp)
   30b64:	0030d1c0 	call	30d1c <alt_find_file>
   30b68:	e0bff815 	stw	r2,-32(fp)
    isafs = 1;
   30b6c:	00800044 	movi	r2,1
   30b70:	e0bffb15 	stw	r2,-20(fp)

  /* 
   * If a matching device or filesystem is found, allocate a file descriptor. 
   */

  if (dev)
   30b74:	e0bff817 	ldw	r2,-32(fp)
   30b78:	10002926 	beq	r2,zero,30c20 <open+0x10c>
  {
    if ((index = alt_get_fd (dev)) < 0)
   30b7c:	e13ff817 	ldw	r4,-32(fp)
   30b80:	0030e300 	call	30e30 <alt_get_fd>
   30b84:	e0bff915 	stw	r2,-28(fp)
   30b88:	e0bff917 	ldw	r2,-28(fp)
   30b8c:	1000030e 	bge	r2,zero,30b9c <open+0x88>
    {
      status = index;
   30b90:	e0bff917 	ldw	r2,-28(fp)
   30b94:	e0bffa15 	stw	r2,-24(fp)
   30b98:	00002306 	br	30c28 <open+0x114>
    }
    else
    {
      fd = &alt_fd_list[index];
   30b9c:	e0bff917 	ldw	r2,-28(fp)
   30ba0:	10c00324 	muli	r3,r2,12
   30ba4:	008000f4 	movhi	r2,3
   30ba8:	108b2504 	addi	r2,r2,11412
   30bac:	1885883a 	add	r2,r3,r2
   30bb0:	e0bffc15 	stw	r2,-16(fp)
      fd->fd_flags = (flags & ~ALT_FD_FLAGS_MASK);
   30bb4:	e0fffe17 	ldw	r3,-8(fp)
   30bb8:	00900034 	movhi	r2,16384
   30bbc:	10bfffc4 	addi	r2,r2,-1
   30bc0:	1886703a 	and	r3,r3,r2
   30bc4:	e0bffc17 	ldw	r2,-16(fp)
   30bc8:	10c00215 	stw	r3,8(r2)
      
      /* If this is a device, ensure it isn't already locked */

      if (isafs || ((status = alt_file_locked (fd)) >= 0))
   30bcc:	e0bffb17 	ldw	r2,-20(fp)
   30bd0:	1000051e 	bne	r2,zero,30be8 <open+0xd4>
   30bd4:	e13ffc17 	ldw	r4,-16(fp)
   30bd8:	0030a480 	call	30a48 <alt_file_locked>
   30bdc:	e0bffa15 	stw	r2,-24(fp)
   30be0:	e0bffa17 	ldw	r2,-24(fp)
   30be4:	10001016 	blt	r2,zero,30c28 <open+0x114>
        /* 
         * If the device or filesystem provides an open() callback function,
         * call it now to perform any device/filesystem specific operations.
         */
    
        status = (dev->open) ? dev->open(fd, file, flags, mode): 0;
   30be8:	e0bff817 	ldw	r2,-32(fp)
   30bec:	10800317 	ldw	r2,12(r2)
   30bf0:	10000826 	beq	r2,zero,30c14 <open+0x100>
   30bf4:	e0bff817 	ldw	r2,-32(fp)
   30bf8:	10800317 	ldw	r2,12(r2)
   30bfc:	e13ffc17 	ldw	r4,-16(fp)
   30c00:	e17ffd17 	ldw	r5,-12(fp)
   30c04:	e1bffe17 	ldw	r6,-8(fp)
   30c08:	e1ffff17 	ldw	r7,-4(fp)
   30c0c:	103ee83a 	callr	r2
   30c10:	00000106 	br	30c18 <open+0x104>
   30c14:	0005883a 	mov	r2,zero
   30c18:	e0bffa15 	stw	r2,-24(fp)
   30c1c:	00000206 	br	30c28 <open+0x114>
      }
    }
  }
  else
  {
    status = -ENODEV;
   30c20:	00bffb44 	movi	r2,-19
   30c24:	e0bffa15 	stw	r2,-24(fp)
  }

  /* Allocation failed, so clean up and return an error */ 

  if (status < 0)
   30c28:	e0bffa17 	ldw	r2,-24(fp)
   30c2c:	1000090e 	bge	r2,zero,30c54 <open+0x140>
  {
    alt_release_fd (index);  
   30c30:	e13ff917 	ldw	r4,-28(fp)
   30c34:	002f1000 	call	2f100 <alt_release_fd>
    ALT_ERRNO = -status;
   30c38:	00309f80 	call	309f8 <alt_get_errno>
   30c3c:	1007883a 	mov	r3,r2
   30c40:	e0bffa17 	ldw	r2,-24(fp)
   30c44:	0085c83a 	sub	r2,zero,r2
   30c48:	18800015 	stw	r2,0(r3)
    return -1;
   30c4c:	00bfffc4 	movi	r2,-1
   30c50:	00000106 	br	30c58 <open+0x144>
  }
  
  /* return the reference upon success */

  return index;
   30c54:	e0bff917 	ldw	r2,-28(fp)
}
   30c58:	e037883a 	mov	sp,fp
   30c5c:	dfc00117 	ldw	ra,4(sp)
   30c60:	df000017 	ldw	fp,0(sp)
   30c64:	dec00204 	addi	sp,sp,8
   30c68:	f800283a 	ret

00030c6c <altera_nios2_gen2_irq_init>:
/*
 * To initialize the internal interrupt controller, just clear the IENABLE
 * register so that all possible IRQs are disabled.
 */
void altera_nios2_gen2_irq_init(void) 
{
   30c6c:	deffff04 	addi	sp,sp,-4
   30c70:	df000015 	stw	fp,0(sp)
   30c74:	d839883a 	mov	fp,sp
    NIOS2_WRITE_IENABLE(0);
   30c78:	000170fa 	wrctl	ienable,zero
}
   30c7c:	e037883a 	mov	sp,fp
   30c80:	df000017 	ldw	fp,0(sp)
   30c84:	dec00104 	addi	sp,sp,4
   30c88:	f800283a 	ret

00030c8c <alt_find_dev>:
 * "name" must be an exact match for the devices registered name for a match to
 * be found.
 */
 
alt_dev* alt_find_dev(const char* name, alt_llist* llist)
{
   30c8c:	defffa04 	addi	sp,sp,-24
   30c90:	dfc00515 	stw	ra,20(sp)
   30c94:	df000415 	stw	fp,16(sp)
   30c98:	df000404 	addi	fp,sp,16
   30c9c:	e13ffe15 	stw	r4,-8(fp)
   30ca0:	e17fff15 	stw	r5,-4(fp)
  alt_dev* next = (alt_dev*) llist->next;
   30ca4:	e0bfff17 	ldw	r2,-4(fp)
   30ca8:	10800017 	ldw	r2,0(r2)
   30cac:	e0bffc15 	stw	r2,-16(fp)
  alt_32 len;

  len  = strlen(name) + 1;
   30cb0:	e13ffe17 	ldw	r4,-8(fp)
   30cb4:	0022ff80 	call	22ff8 <strlen>
   30cb8:	10800044 	addi	r2,r2,1
   30cbc:	e0bffd15 	stw	r2,-12(fp)
  /*
   * Check each list entry in turn, until a match is found, or we reach the
   * end of the list (i.e. next winds up pointing back to the list head).
   */ 

  while (next != (alt_dev*) llist)
   30cc0:	00000d06 	br	30cf8 <alt_find_dev+0x6c>
    /* 
     * memcmp() is used here rather than strcmp() in order to reduce the size
     * of the executable.
     */

    if (!memcmp (next->name, name, len))
   30cc4:	e0bffc17 	ldw	r2,-16(fp)
   30cc8:	10c00217 	ldw	r3,8(r2)
   30ccc:	e0bffd17 	ldw	r2,-12(fp)
   30cd0:	1809883a 	mov	r4,r3
   30cd4:	e17ffe17 	ldw	r5,-8(fp)
   30cd8:	100d883a 	mov	r6,r2
   30cdc:	00310580 	call	31058 <memcmp>
   30ce0:	1000021e 	bne	r2,zero,30cec <alt_find_dev+0x60>
    {
      /* match found */

      return next;
   30ce4:	e0bffc17 	ldw	r2,-16(fp)
   30ce8:	00000706 	br	30d08 <alt_find_dev+0x7c>
    }
    next = (alt_dev*) next->llist.next;
   30cec:	e0bffc17 	ldw	r2,-16(fp)
   30cf0:	10800017 	ldw	r2,0(r2)
   30cf4:	e0bffc15 	stw	r2,-16(fp)
  /*
   * Check each list entry in turn, until a match is found, or we reach the
   * end of the list (i.e. next winds up pointing back to the list head).
   */ 

  while (next != (alt_dev*) llist)
   30cf8:	e0fffc17 	ldw	r3,-16(fp)
   30cfc:	e0bfff17 	ldw	r2,-4(fp)
   30d00:	18bff01e 	bne	r3,r2,30cc4 <_gp+0xffff4e50>
    next = (alt_dev*) next->llist.next;
  }
  
  /* No match found */
  
  return NULL;
   30d04:	0005883a 	mov	r2,zero
}
   30d08:	e037883a 	mov	sp,fp
   30d0c:	dfc00117 	ldw	ra,4(sp)
   30d10:	df000017 	ldw	fp,0(sp)
   30d14:	dec00204 	addi	sp,sp,8
   30d18:	f800283a 	ret

00030d1c <alt_find_file>:
 * either '/' or '\0' is the prefix of the filename. For example the filename:
 * "/myfilesystem/junk.txt" would match: "/myfilesystem", but not: "/myfile". 
 */
 
alt_dev* alt_find_file (const char* name)
{
   30d1c:	defffb04 	addi	sp,sp,-20
   30d20:	dfc00415 	stw	ra,16(sp)
   30d24:	df000315 	stw	fp,12(sp)
   30d28:	df000304 	addi	fp,sp,12
   30d2c:	e13fff15 	stw	r4,-4(fp)
  alt_dev* next = (alt_dev*) alt_fs_list.next;   
   30d30:	008000f4 	movhi	r2,3
   30d34:	108fa604 	addi	r2,r2,16024
   30d38:	10800017 	ldw	r2,0(r2)
   30d3c:	e0bffd15 	stw	r2,-12(fp)
  /*
   * Check each list entry in turn, until a match is found, or we reach the
   * end of the list (i.e. next winds up pointing back to the list head).
   */ 
 
  while (next != (alt_dev*) &alt_fs_list)
   30d40:	00003106 	br	30e08 <alt_find_file+0xec>
  {
    len = strlen(next->name);
   30d44:	e0bffd17 	ldw	r2,-12(fp)
   30d48:	10800217 	ldw	r2,8(r2)
   30d4c:	1009883a 	mov	r4,r2
   30d50:	0022ff80 	call	22ff8 <strlen>
   30d54:	e0bffe15 	stw	r2,-8(fp)
    
    if (next->name[len-1] == '/')
   30d58:	e0bffd17 	ldw	r2,-12(fp)
   30d5c:	10c00217 	ldw	r3,8(r2)
   30d60:	e0bffe17 	ldw	r2,-8(fp)
   30d64:	10bfffc4 	addi	r2,r2,-1
   30d68:	1885883a 	add	r2,r3,r2
   30d6c:	10800003 	ldbu	r2,0(r2)
   30d70:	10803fcc 	andi	r2,r2,255
   30d74:	1080201c 	xori	r2,r2,128
   30d78:	10bfe004 	addi	r2,r2,-128
   30d7c:	10800bd8 	cmpnei	r2,r2,47
   30d80:	1000031e 	bne	r2,zero,30d90 <alt_find_file+0x74>
    {
      len -= 1;
   30d84:	e0bffe17 	ldw	r2,-8(fp)
   30d88:	10bfffc4 	addi	r2,r2,-1
   30d8c:	e0bffe15 	stw	r2,-8(fp)
    }

    if (((name[len] == '/') || (name[len] == '\0')) && 
   30d90:	e0bffe17 	ldw	r2,-8(fp)
   30d94:	e0ffff17 	ldw	r3,-4(fp)
   30d98:	1885883a 	add	r2,r3,r2
   30d9c:	10800003 	ldbu	r2,0(r2)
   30da0:	10803fcc 	andi	r2,r2,255
   30da4:	1080201c 	xori	r2,r2,128
   30da8:	10bfe004 	addi	r2,r2,-128
   30dac:	10800be0 	cmpeqi	r2,r2,47
   30db0:	1000081e 	bne	r2,zero,30dd4 <alt_find_file+0xb8>
   30db4:	e0bffe17 	ldw	r2,-8(fp)
   30db8:	e0ffff17 	ldw	r3,-4(fp)
   30dbc:	1885883a 	add	r2,r3,r2
   30dc0:	10800003 	ldbu	r2,0(r2)
   30dc4:	10803fcc 	andi	r2,r2,255
   30dc8:	1080201c 	xori	r2,r2,128
   30dcc:	10bfe004 	addi	r2,r2,-128
   30dd0:	10000a1e 	bne	r2,zero,30dfc <alt_find_file+0xe0>
        !memcmp (next->name, name, len))
   30dd4:	e0bffd17 	ldw	r2,-12(fp)
   30dd8:	10c00217 	ldw	r3,8(r2)
   30ddc:	e0bffe17 	ldw	r2,-8(fp)
   30de0:	1809883a 	mov	r4,r3
   30de4:	e17fff17 	ldw	r5,-4(fp)
   30de8:	100d883a 	mov	r6,r2
   30dec:	00310580 	call	31058 <memcmp>
    if (next->name[len-1] == '/')
    {
      len -= 1;
    }

    if (((name[len] == '/') || (name[len] == '\0')) && 
   30df0:	1000021e 	bne	r2,zero,30dfc <alt_find_file+0xe0>
        !memcmp (next->name, name, len))
    {
      /* match found */

      return next;
   30df4:	e0bffd17 	ldw	r2,-12(fp)
   30df8:	00000806 	br	30e1c <alt_find_file+0x100>
    }
    next = (alt_dev*) next->llist.next;
   30dfc:	e0bffd17 	ldw	r2,-12(fp)
   30e00:	10800017 	ldw	r2,0(r2)
   30e04:	e0bffd15 	stw	r2,-12(fp)
  /*
   * Check each list entry in turn, until a match is found, or we reach the
   * end of the list (i.e. next winds up pointing back to the list head).
   */ 
 
  while (next != (alt_dev*) &alt_fs_list)
   30e08:	e0fffd17 	ldw	r3,-12(fp)
   30e0c:	008000f4 	movhi	r2,3
   30e10:	108fa604 	addi	r2,r2,16024
   30e14:	18bfcb1e 	bne	r3,r2,30d44 <_gp+0xffff4ed0>
    next = (alt_dev*) next->llist.next;
  }
  
  /* No match found */
  
  return NULL;     
   30e18:	0005883a 	mov	r2,zero
}
   30e1c:	e037883a 	mov	sp,fp
   30e20:	dfc00117 	ldw	ra,4(sp)
   30e24:	df000017 	ldw	fp,0(sp)
   30e28:	dec00204 	addi	sp,sp,8
   30e2c:	f800283a 	ret

00030e30 <alt_get_fd>:
 * the offset of the file descriptor within the file descriptor array). A
 * negative value indicates failure.
 */

int alt_get_fd (alt_dev* dev)
{
   30e30:	defffc04 	addi	sp,sp,-16
   30e34:	df000315 	stw	fp,12(sp)
   30e38:	df000304 	addi	fp,sp,12
   30e3c:	e13fff15 	stw	r4,-4(fp)
  alt_32 i;
  int rc = -EMFILE;
   30e40:	00bffa04 	movi	r2,-24
   30e44:	e0bffe15 	stw	r2,-8(fp)
   * indicates the highest file descriptor ever allocated. This is used to
   * improve efficency when searching the file descriptor list, and 
   * therefore reduce contention on the alt_fd_list_lock semaphore. 
   */

  for (i = 0; i < ALT_MAX_FD; i++)
   30e48:	e03ffd15 	stw	zero,-12(fp)
   30e4c:	00001d06 	br	30ec4 <alt_get_fd+0x94>
  {
    if (!alt_fd_list[i].dev)
   30e50:	008000f4 	movhi	r2,3
   30e54:	108b2504 	addi	r2,r2,11412
   30e58:	e0fffd17 	ldw	r3,-12(fp)
   30e5c:	18c00324 	muli	r3,r3,12
   30e60:	10c5883a 	add	r2,r2,r3
   30e64:	10800017 	ldw	r2,0(r2)
   30e68:	1000131e 	bne	r2,zero,30eb8 <alt_get_fd+0x88>
    {
      alt_fd_list[i].dev = dev;
   30e6c:	008000f4 	movhi	r2,3
   30e70:	108b2504 	addi	r2,r2,11412
   30e74:	e0fffd17 	ldw	r3,-12(fp)
   30e78:	18c00324 	muli	r3,r3,12
   30e7c:	10c5883a 	add	r2,r2,r3
   30e80:	e0ffff17 	ldw	r3,-4(fp)
   30e84:	10c00015 	stw	r3,0(r2)
      if (i > alt_max_fd)
   30e88:	008000f4 	movhi	r2,3
   30e8c:	108faa04 	addi	r2,r2,16040
   30e90:	10c00017 	ldw	r3,0(r2)
   30e94:	e0bffd17 	ldw	r2,-12(fp)
   30e98:	1880040e 	bge	r3,r2,30eac <alt_get_fd+0x7c>
      {
        alt_max_fd = i;
   30e9c:	008000f4 	movhi	r2,3
   30ea0:	108faa04 	addi	r2,r2,16040
   30ea4:	e0fffd17 	ldw	r3,-12(fp)
   30ea8:	10c00015 	stw	r3,0(r2)
      }
      rc = i;
   30eac:	e0bffd17 	ldw	r2,-12(fp)
   30eb0:	e0bffe15 	stw	r2,-8(fp)
      goto alt_get_fd_exit;
   30eb4:	00000606 	br	30ed0 <alt_get_fd+0xa0>
   * indicates the highest file descriptor ever allocated. This is used to
   * improve efficency when searching the file descriptor list, and 
   * therefore reduce contention on the alt_fd_list_lock semaphore. 
   */

  for (i = 0; i < ALT_MAX_FD; i++)
   30eb8:	e0bffd17 	ldw	r2,-12(fp)
   30ebc:	10800044 	addi	r2,r2,1
   30ec0:	e0bffd15 	stw	r2,-12(fp)
   30ec4:	e0bffd17 	ldw	r2,-12(fp)
   30ec8:	10800810 	cmplti	r2,r2,32
   30ecc:	103fe01e 	bne	r2,zero,30e50 <_gp+0xffff4fdc>
   * file descriptor pool.
   */

  ALT_SEM_POST(alt_fd_list_lock);

  return rc;
   30ed0:	e0bffe17 	ldw	r2,-8(fp)
}
   30ed4:	e037883a 	mov	sp,fp
   30ed8:	df000017 	ldw	fp,0(sp)
   30edc:	dec00104 	addi	sp,sp,4
   30ee0:	f800283a 	ret

00030ee4 <alt_icache_flush>:
 * alt_icache_flush() is called to flush the instruction cache for a memory
 * region of length "len" bytes, starting at address "start".
 */

void alt_icache_flush (void* start, alt_u32 len)
{
   30ee4:	defffb04 	addi	sp,sp,-20
   30ee8:	df000415 	stw	fp,16(sp)
   30eec:	df000404 	addi	fp,sp,16
   30ef0:	e13ffe15 	stw	r4,-8(fp)
   30ef4:	e17fff15 	stw	r5,-4(fp)

  /*
   * This is the most we would ever need to flush.
   */
 
  if (len > NIOS2_ICACHE_SIZE)
   30ef8:	e0bfff17 	ldw	r2,-4(fp)
   30efc:	10840070 	cmpltui	r2,r2,4097
   30f00:	1000021e 	bne	r2,zero,30f0c <alt_icache_flush+0x28>
  {
    len = NIOS2_ICACHE_SIZE;
   30f04:	00840004 	movi	r2,4096
   30f08:	e0bfff15 	stw	r2,-4(fp)
  }

  end = ((char*) start) + len;
   30f0c:	e0fffe17 	ldw	r3,-8(fp)
   30f10:	e0bfff17 	ldw	r2,-4(fp)
   30f14:	1885883a 	add	r2,r3,r2
   30f18:	e0bffd15 	stw	r2,-12(fp)

  for (i = start; i < end; i+= NIOS2_ICACHE_LINE_SIZE)
   30f1c:	e0bffe17 	ldw	r2,-8(fp)
   30f20:	e0bffc15 	stw	r2,-16(fp)
   30f24:	00000506 	br	30f3c <alt_icache_flush+0x58>
  { 
    __asm__ volatile ("flushi %0" :: "r" (i)); 
   30f28:	e0bffc17 	ldw	r2,-16(fp)
   30f2c:	1000603a 	flushi	r2
    len = NIOS2_ICACHE_SIZE;
  }

  end = ((char*) start) + len;

  for (i = start; i < end; i+= NIOS2_ICACHE_LINE_SIZE)
   30f30:	e0bffc17 	ldw	r2,-16(fp)
   30f34:	10800804 	addi	r2,r2,32
   30f38:	e0bffc15 	stw	r2,-16(fp)
   30f3c:	e0fffc17 	ldw	r3,-16(fp)
   30f40:	e0bffd17 	ldw	r2,-12(fp)
   30f44:	18bff836 	bltu	r3,r2,30f28 <_gp+0xffff50b4>
   * For an unaligned flush request, we've got one more line left.
   * Note that this is dependent on NIOS2_ICACHE_LINE_SIZE to be a 
   * multiple of 2 (which it always is).
   */

  if (((alt_u32) start) & (NIOS2_ICACHE_LINE_SIZE - 1))
   30f48:	e0bffe17 	ldw	r2,-8(fp)
   30f4c:	108007cc 	andi	r2,r2,31
   30f50:	10000226 	beq	r2,zero,30f5c <alt_icache_flush+0x78>
  {
    __asm__ volatile ("flushi %0" :: "r" (i));
   30f54:	e0bffc17 	ldw	r2,-16(fp)
   30f58:	1000603a 	flushi	r2
  /* 
   * Having flushed the cache, flush any stale instructions in the 
   * pipeline 
   */

  __asm__ volatile ("flushp");
   30f5c:	0000203a 	flushp

#endif /* NIOS2_ICACHE_SIZE > 0 */
}
   30f60:	e037883a 	mov	sp,fp
   30f64:	df000017 	ldw	fp,0(sp)
   30f68:	dec00104 	addi	sp,sp,4
   30f6c:	f800283a 	ret

00030f70 <alt_exception_cause_generated_bad_addr>:
 * Return: 1: BADADDR (bad_addr argument to handler) is valid
 *         0: BADADDR is not valid
 */
int 
alt_exception_cause_generated_bad_addr(alt_exception_cause cause)
{
   30f70:	defffe04 	addi	sp,sp,-8
   30f74:	df000115 	stw	fp,4(sp)
   30f78:	df000104 	addi	fp,sp,4
   30f7c:	e13fff15 	stw	r4,-4(fp)
  switch (cause) {
   30f80:	e0bfff17 	ldw	r2,-4(fp)
   30f84:	10bffe84 	addi	r2,r2,-6
   30f88:	10c00428 	cmpgeui	r3,r2,16
   30f8c:	18001a1e 	bne	r3,zero,30ff8 <alt_exception_cause_generated_bad_addr+0x88>
   30f90:	100690ba 	slli	r3,r2,2
   30f94:	008000f4 	movhi	r2,3
   30f98:	1083ea04 	addi	r2,r2,4008
   30f9c:	1885883a 	add	r2,r3,r2
   30fa0:	10800017 	ldw	r2,0(r2)
   30fa4:	1000683a 	jmp	r2
   30fa8:	00030fe8 	cmpgeui	zero,zero,3135
   30fac:	00030fe8 	cmpgeui	zero,zero,3135
   30fb0:	00030ff8 	rdprs	zero,zero,3135
   30fb4:	00030ff8 	rdprs	zero,zero,3135
   30fb8:	00030ff8 	rdprs	zero,zero,3135
   30fbc:	00030fe8 	cmpgeui	zero,zero,3135
   30fc0:	00030ff0 	cmpltui	zero,zero,3135
   30fc4:	00030ff8 	rdprs	zero,zero,3135
   30fc8:	00030fe8 	cmpgeui	zero,zero,3135
   30fcc:	00030fe8 	cmpgeui	zero,zero,3135
   30fd0:	00030ff8 	rdprs	zero,zero,3135
   30fd4:	00030fe8 	cmpgeui	zero,zero,3135
   30fd8:	00030ff0 	cmpltui	zero,zero,3135
   30fdc:	00030ff8 	rdprs	zero,zero,3135
   30fe0:	00030ff8 	rdprs	zero,zero,3135
   30fe4:	00030fe8 	cmpgeui	zero,zero,3135
  case NIOS2_EXCEPTION_MISALIGNED_TARGET_PC:
  case NIOS2_EXCEPTION_TLB_READ_PERM_VIOLATION:
  case NIOS2_EXCEPTION_TLB_WRITE_PERM_VIOLATION:
  case NIOS2_EXCEPTION_MPU_DATA_REGION_VIOLATION:
  case NIOS2_EXCEPTION_ECC_DATA_ERR:
    return 1;
   30fe8:	00800044 	movi	r2,1
   30fec:	00000306 	br	30ffc <alt_exception_cause_generated_bad_addr+0x8c>

  case NIOS2_EXCEPTION_TLB_MISS:
  case NIOS2_EXCEPTION_ECC_TLB_ERR:
    return 0;
   30ff0:	0005883a 	mov	r2,zero
   30ff4:	00000106 	br	30ffc <alt_exception_cause_generated_bad_addr+0x8c>

  default:
    return 0;
   30ff8:	0005883a 	mov	r2,zero
  }
}
   30ffc:	e037883a 	mov	sp,fp
   31000:	df000017 	ldw	fp,0(sp)
   31004:	dec00104 	addi	sp,sp,4
   31008:	f800283a 	ret

0003100c <atexit>:
   3100c:	200b883a 	mov	r5,r4
   31010:	000d883a 	mov	r6,zero
   31014:	0009883a 	mov	r4,zero
   31018:	000f883a 	mov	r7,zero
   3101c:	00310d41 	jmpi	310d4 <__register_exitproc>

00031020 <exit>:
   31020:	defffe04 	addi	sp,sp,-8
   31024:	000b883a 	mov	r5,zero
   31028:	dc000015 	stw	r16,0(sp)
   3102c:	dfc00115 	stw	ra,4(sp)
   31030:	2021883a 	mov	r16,r4
   31034:	00311e80 	call	311e8 <__call_exitprocs>
   31038:	008000f4 	movhi	r2,3
   3103c:	108fa204 	addi	r2,r2,16008
   31040:	11000017 	ldw	r4,0(r2)
   31044:	20800f17 	ldw	r2,60(r4)
   31048:	10000126 	beq	r2,zero,31050 <exit+0x30>
   3104c:	103ee83a 	callr	r2
   31050:	8009883a 	mov	r4,r16
   31054:	003137c0 	call	3137c <_exit>

00031058 <memcmp>:
   31058:	01c000c4 	movi	r7,3
   3105c:	3980192e 	bgeu	r7,r6,310c4 <memcmp+0x6c>
   31060:	2144b03a 	or	r2,r4,r5
   31064:	11c4703a 	and	r2,r2,r7
   31068:	10000f26 	beq	r2,zero,310a8 <memcmp+0x50>
   3106c:	20800003 	ldbu	r2,0(r4)
   31070:	28c00003 	ldbu	r3,0(r5)
   31074:	10c0151e 	bne	r2,r3,310cc <memcmp+0x74>
   31078:	31bfff84 	addi	r6,r6,-2
   3107c:	01ffffc4 	movi	r7,-1
   31080:	00000406 	br	31094 <memcmp+0x3c>
   31084:	20800003 	ldbu	r2,0(r4)
   31088:	28c00003 	ldbu	r3,0(r5)
   3108c:	31bfffc4 	addi	r6,r6,-1
   31090:	10c00e1e 	bne	r2,r3,310cc <memcmp+0x74>
   31094:	21000044 	addi	r4,r4,1
   31098:	29400044 	addi	r5,r5,1
   3109c:	31fff91e 	bne	r6,r7,31084 <_gp+0xffff5210>
   310a0:	0005883a 	mov	r2,zero
   310a4:	f800283a 	ret
   310a8:	20c00017 	ldw	r3,0(r4)
   310ac:	28800017 	ldw	r2,0(r5)
   310b0:	1880041e 	bne	r3,r2,310c4 <memcmp+0x6c>
   310b4:	31bfff04 	addi	r6,r6,-4
   310b8:	21000104 	addi	r4,r4,4
   310bc:	29400104 	addi	r5,r5,4
   310c0:	39bff936 	bltu	r7,r6,310a8 <_gp+0xffff5234>
   310c4:	303fe91e 	bne	r6,zero,3106c <_gp+0xffff51f8>
   310c8:	003ff506 	br	310a0 <_gp+0xffff522c>
   310cc:	10c5c83a 	sub	r2,r2,r3
   310d0:	f800283a 	ret

000310d4 <__register_exitproc>:
   310d4:	008000f4 	movhi	r2,3
   310d8:	defffa04 	addi	sp,sp,-24
   310dc:	108fa204 	addi	r2,r2,16008
   310e0:	dc000315 	stw	r16,12(sp)
   310e4:	14000017 	ldw	r16,0(r2)
   310e8:	dc400415 	stw	r17,16(sp)
   310ec:	dfc00515 	stw	ra,20(sp)
   310f0:	80805217 	ldw	r2,328(r16)
   310f4:	2023883a 	mov	r17,r4
   310f8:	10003626 	beq	r2,zero,311d4 <__register_exitproc+0x100>
   310fc:	10c00117 	ldw	r3,4(r2)
   31100:	010007c4 	movi	r4,31
   31104:	20c00e16 	blt	r4,r3,31140 <__register_exitproc+0x6c>
   31108:	1a400044 	addi	r9,r3,1
   3110c:	8800211e 	bne	r17,zero,31194 <__register_exitproc+0xc0>
   31110:	18c00084 	addi	r3,r3,2
   31114:	18c7883a 	add	r3,r3,r3
   31118:	18c7883a 	add	r3,r3,r3
   3111c:	12400115 	stw	r9,4(r2)
   31120:	10c7883a 	add	r3,r2,r3
   31124:	19400015 	stw	r5,0(r3)
   31128:	0005883a 	mov	r2,zero
   3112c:	dfc00517 	ldw	ra,20(sp)
   31130:	dc400417 	ldw	r17,16(sp)
   31134:	dc000317 	ldw	r16,12(sp)
   31138:	dec00604 	addi	sp,sp,24
   3113c:	f800283a 	ret
   31140:	008000b4 	movhi	r2,2
   31144:	10895b04 	addi	r2,r2,9580
   31148:	10002526 	beq	r2,zero,311e0 <__register_exitproc+0x10c>
   3114c:	01006404 	movi	r4,400
   31150:	d9400015 	stw	r5,0(sp)
   31154:	d9800115 	stw	r6,4(sp)
   31158:	d9c00215 	stw	r7,8(sp)
   3115c:	002256c0 	call	2256c <malloc>
   31160:	d9400017 	ldw	r5,0(sp)
   31164:	d9800117 	ldw	r6,4(sp)
   31168:	d9c00217 	ldw	r7,8(sp)
   3116c:	10001c26 	beq	r2,zero,311e0 <__register_exitproc+0x10c>
   31170:	80c05217 	ldw	r3,328(r16)
   31174:	10000115 	stw	zero,4(r2)
   31178:	02400044 	movi	r9,1
   3117c:	10c00015 	stw	r3,0(r2)
   31180:	80805215 	stw	r2,328(r16)
   31184:	10006215 	stw	zero,392(r2)
   31188:	10006315 	stw	zero,396(r2)
   3118c:	0007883a 	mov	r3,zero
   31190:	883fdf26 	beq	r17,zero,31110 <_gp+0xffff529c>
   31194:	18d1883a 	add	r8,r3,r3
   31198:	4211883a 	add	r8,r8,r8
   3119c:	1211883a 	add	r8,r2,r8
   311a0:	41802215 	stw	r6,136(r8)
   311a4:	01000044 	movi	r4,1
   311a8:	11806217 	ldw	r6,392(r2)
   311ac:	20c8983a 	sll	r4,r4,r3
   311b0:	310cb03a 	or	r6,r6,r4
   311b4:	11806215 	stw	r6,392(r2)
   311b8:	41c04215 	stw	r7,264(r8)
   311bc:	01800084 	movi	r6,2
   311c0:	89bfd31e 	bne	r17,r6,31110 <_gp+0xffff529c>
   311c4:	11806317 	ldw	r6,396(r2)
   311c8:	3108b03a 	or	r4,r6,r4
   311cc:	11006315 	stw	r4,396(r2)
   311d0:	003fcf06 	br	31110 <_gp+0xffff529c>
   311d4:	80805304 	addi	r2,r16,332
   311d8:	80805215 	stw	r2,328(r16)
   311dc:	003fc706 	br	310fc <_gp+0xffff5288>
   311e0:	00bfffc4 	movi	r2,-1
   311e4:	003fd106 	br	3112c <_gp+0xffff52b8>

000311e8 <__call_exitprocs>:
   311e8:	008000f4 	movhi	r2,3
   311ec:	108fa204 	addi	r2,r2,16008
   311f0:	10800017 	ldw	r2,0(r2)
   311f4:	defff404 	addi	sp,sp,-48
   311f8:	dd800815 	stw	r22,32(sp)
   311fc:	d8800015 	stw	r2,0(sp)
   31200:	10805204 	addi	r2,r2,328
   31204:	dd000615 	stw	r20,24(sp)
   31208:	dc800415 	stw	r18,16(sp)
   3120c:	dfc00b15 	stw	ra,44(sp)
   31210:	df000a15 	stw	fp,40(sp)
   31214:	ddc00915 	stw	r23,36(sp)
   31218:	dd400715 	stw	r21,28(sp)
   3121c:	dcc00515 	stw	r19,20(sp)
   31220:	dc400315 	stw	r17,12(sp)
   31224:	dc000215 	stw	r16,8(sp)
   31228:	2025883a 	mov	r18,r4
   3122c:	2829883a 	mov	r20,r5
   31230:	d8800115 	stw	r2,4(sp)
   31234:	05bfffc4 	movi	r22,-1
   31238:	d8800017 	ldw	r2,0(sp)
   3123c:	14c05217 	ldw	r19,328(r2)
   31240:	98001d26 	beq	r19,zero,312b8 <__call_exitprocs+0xd0>
   31244:	dd400117 	ldw	r21,4(sp)
   31248:	98800117 	ldw	r2,4(r19)
   3124c:	173fffc4 	addi	fp,r2,-1
   31250:	e0000d16 	blt	fp,zero,31288 <__call_exitprocs+0xa0>
   31254:	14000044 	addi	r16,r2,1
   31258:	8421883a 	add	r16,r16,r16
   3125c:	8421883a 	add	r16,r16,r16
   31260:	84402004 	addi	r17,r16,128
   31264:	9c63883a 	add	r17,r19,r17
   31268:	9c21883a 	add	r16,r19,r16
   3126c:	a0001e26 	beq	r20,zero,312e8 <__call_exitprocs+0x100>
   31270:	80804017 	ldw	r2,256(r16)
   31274:	15001c26 	beq	r2,r20,312e8 <__call_exitprocs+0x100>
   31278:	e73fffc4 	addi	fp,fp,-1
   3127c:	843fff04 	addi	r16,r16,-4
   31280:	8c7fff04 	addi	r17,r17,-4
   31284:	e5bff91e 	bne	fp,r22,3126c <_gp+0xffff53f8>
   31288:	008000b4 	movhi	r2,2
   3128c:	10896004 	addi	r2,r2,9600
   31290:	10000926 	beq	r2,zero,312b8 <__call_exitprocs+0xd0>
   31294:	98800117 	ldw	r2,4(r19)
   31298:	1000311e 	bne	r2,zero,31360 <__call_exitprocs+0x178>
   3129c:	98800017 	ldw	r2,0(r19)
   312a0:	10003426 	beq	r2,zero,31374 <__call_exitprocs+0x18c>
   312a4:	9809883a 	mov	r4,r19
   312a8:	a8800015 	stw	r2,0(r21)
   312ac:	00225800 	call	22580 <free>
   312b0:	acc00017 	ldw	r19,0(r21)
   312b4:	983fe41e 	bne	r19,zero,31248 <_gp+0xffff53d4>
   312b8:	dfc00b17 	ldw	ra,44(sp)
   312bc:	df000a17 	ldw	fp,40(sp)
   312c0:	ddc00917 	ldw	r23,36(sp)
   312c4:	dd800817 	ldw	r22,32(sp)
   312c8:	dd400717 	ldw	r21,28(sp)
   312cc:	dd000617 	ldw	r20,24(sp)
   312d0:	dcc00517 	ldw	r19,20(sp)
   312d4:	dc800417 	ldw	r18,16(sp)
   312d8:	dc400317 	ldw	r17,12(sp)
   312dc:	dc000217 	ldw	r16,8(sp)
   312e0:	dec00c04 	addi	sp,sp,48
   312e4:	f800283a 	ret
   312e8:	98800117 	ldw	r2,4(r19)
   312ec:	80c00017 	ldw	r3,0(r16)
   312f0:	10bfffc4 	addi	r2,r2,-1
   312f4:	17001526 	beq	r2,fp,3134c <__call_exitprocs+0x164>
   312f8:	80000015 	stw	zero,0(r16)
   312fc:	183fde26 	beq	r3,zero,31278 <_gp+0xffff5404>
   31300:	00800044 	movi	r2,1
   31304:	1708983a 	sll	r4,r2,fp
   31308:	98806217 	ldw	r2,392(r19)
   3130c:	9dc00117 	ldw	r23,4(r19)
   31310:	2084703a 	and	r2,r4,r2
   31314:	1000061e 	bne	r2,zero,31330 <__call_exitprocs+0x148>
   31318:	183ee83a 	callr	r3
   3131c:	98800117 	ldw	r2,4(r19)
   31320:	15ffc51e 	bne	r2,r23,31238 <_gp+0xffff53c4>
   31324:	a8800017 	ldw	r2,0(r21)
   31328:	14ffd326 	beq	r2,r19,31278 <_gp+0xffff5404>
   3132c:	003fc206 	br	31238 <_gp+0xffff53c4>
   31330:	98806317 	ldw	r2,396(r19)
   31334:	2084703a 	and	r2,r4,r2
   31338:	1000061e 	bne	r2,zero,31354 <__call_exitprocs+0x16c>
   3133c:	89400017 	ldw	r5,0(r17)
   31340:	9009883a 	mov	r4,r18
   31344:	183ee83a 	callr	r3
   31348:	003ff406 	br	3131c <_gp+0xffff54a8>
   3134c:	9f000115 	stw	fp,4(r19)
   31350:	003fea06 	br	312fc <_gp+0xffff5488>
   31354:	89000017 	ldw	r4,0(r17)
   31358:	183ee83a 	callr	r3
   3135c:	003fef06 	br	3131c <_gp+0xffff54a8>
   31360:	98800017 	ldw	r2,0(r19)
   31364:	982b883a 	mov	r21,r19
   31368:	1027883a 	mov	r19,r2
   3136c:	983fb61e 	bne	r19,zero,31248 <_gp+0xffff53d4>
   31370:	003fd106 	br	312b8 <_gp+0xffff5444>
   31374:	0005883a 	mov	r2,zero
   31378:	003ffa06 	br	31364 <_gp+0xffff54f0>

0003137c <_exit>:
 *
 * ALT_EXIT is mapped onto the _exit() system call in alt_syscall.h
 */

void ALT_EXIT (int exit_code)
{
   3137c:	defffd04 	addi	sp,sp,-12
   31380:	df000215 	stw	fp,8(sp)
   31384:	df000204 	addi	fp,sp,8
   31388:	e13fff15 	stw	r4,-4(fp)
  ALT_LOG_PRINT_BOOT("[alt_exit.c] Entering _exit() function.\r\n");
  ALT_LOG_PRINT_BOOT("[alt_exit.c] Exit code from main was %d.\r\n",exit_code);
  /* Stop all other threads */

  ALT_LOG_PRINT_BOOT("[alt_exit.c] Calling ALT_OS_STOP().\r\n");
  ALT_OS_STOP();
   3138c:	0001883a 	nop
   31390:	e0bfff17 	ldw	r2,-4(fp)
   31394:	e0bffe15 	stw	r2,-8(fp)
/*
 * Routine called on exit.
 */
static ALT_INLINE ALT_ALWAYS_INLINE void alt_sim_halt(int exit_code)
{
  register int r2 asm ("r2") = exit_code;
   31398:	e0bffe17 	ldw	r2,-8(fp)
  __asm__ volatile ("\n0:\n\taddi %0,%0, -1\n\tbgt %0,zero,0b" : : "r" (ALT_CPU_FREQ/100) ); /* Delay for >30ms */

  __asm__ volatile ("break 2" : : "r"(r2), "r"(r3) ALT_GMON_DATA );

#else /* !DEBUG_STUB */
  if (r2) {
   3139c:	10000226 	beq	r2,zero,313a8 <_exit+0x2c>
    ALT_SIM_FAIL();
   313a0:	002af070 	cmpltui	zero,zero,43969
   313a4:	00000106 	br	313ac <_exit+0x30>
  } else {
    ALT_SIM_PASS();
   313a8:	002af0b0 	cmpltui	zero,zero,43970
  ALT_SIM_HALT(exit_code);

  /* spin forever, since there's no where to go back to */

  ALT_LOG_PRINT_BOOT("[alt_exit.c] Spinning forever.\r\n");
  while (1);
   313ac:	003fff06 	br	313ac <_gp+0xffff5538>
