
Camera_Test.elf:     file format elf32-littlenios2
Camera_Test.elf
architecture: nios2:r1, flags 0x00000112:
EXEC_P, HAS_SYMS, D_PAGED
start address 0x00020240

Program Header:
    LOAD off    0x00001000 vaddr 0x00020000 paddr 0x00020000 align 2**12
         filesz 0x00000020 memsz 0x00000020 flags r-x
    LOAD off    0x00001020 vaddr 0x00020020 paddr 0x00020020 align 2**12
         filesz 0x00014e1c memsz 0x00014e1c flags r-x
    LOAD off    0x00015e3c vaddr 0x00034e3c paddr 0x000370cc align 2**12
         filesz 0x00002290 memsz 0x00002290 flags rw-
    LOAD off    0x0001835c vaddr 0x0003935c paddr 0x0003935c align 2**12
         filesz 0x00000000 memsz 0x000001e8 flags rw-

Sections:
Idx Name          Size      VMA       LMA       File off  Algn
  0 .entry        00000020  00020000  00020000  00001000  2**5
                  CONTENTS, ALLOC, LOAD, READONLY, CODE
  1 .exceptions   00000220  00020020  00020020  00001020  2**2
                  CONTENTS, ALLOC, LOAD, READONLY, CODE
  2 .text         00014014  00020240  00020240  00001240  2**2
                  CONTENTS, ALLOC, LOAD, READONLY, CODE
  3 .rodata       00000be8  00034254  00034254  00015254  2**2
                  CONTENTS, ALLOC, LOAD, READONLY, DATA
  4 .rwdata       00002290  00034e3c  000370cc  00015e3c  2**2
                  CONTENTS, ALLOC, LOAD, DATA, SMALL_DATA
  5 .bss          000001e8  0003935c  0003935c  0001835c  2**2
                  ALLOC, SMALL_DATA
  6 .onchip_memory2_0 00000000  00039544  00039544  000180cc  2**0
                  CONTENTS
  7 .comment      00000023  00000000  00000000  000180cc  2**0
                  CONTENTS, READONLY
  8 .debug_aranges 00000fb0  00000000  00000000  000180f0  2**3
                  CONTENTS, READONLY, DEBUGGING
  9 .debug_info   000283fb  00000000  00000000  000190a0  2**0
                  CONTENTS, READONLY, DEBUGGING
 10 .debug_abbrev 0000a972  00000000  00000000  0004149b  2**0
                  CONTENTS, READONLY, DEBUGGING
 11 .debug_line   0000cf64  00000000  00000000  0004be0d  2**0
                  CONTENTS, READONLY, DEBUGGING
 12 .debug_frame  00002bf4  00000000  00000000  00058d74  2**2
                  CONTENTS, READONLY, DEBUGGING
 13 .debug_str    0000403b  00000000  00000000  0005b968  2**0
                  CONTENTS, READONLY, DEBUGGING
 14 .debug_loc    00019da5  00000000  00000000  0005f9a3  2**0
                  CONTENTS, READONLY, DEBUGGING
 15 .debug_alt_sim_info 00000060  00000000  00000000  00079748  2**2
                  CONTENTS, READONLY, DEBUGGING
 16 .debug_ranges 00001850  00000000  00000000  000797a8  2**3
                  CONTENTS, READONLY, DEBUGGING
 17 .thread_model 00000003  00000000  00000000  0007ed42  2**0
                  CONTENTS, READONLY
 18 .cpu          0000000a  00000000  00000000  0007ed45  2**0
                  CONTENTS, READONLY
 19 .qsys         00000001  00000000  00000000  0007ed4f  2**0
                  CONTENTS, READONLY
 20 .simulation_enabled 00000001  00000000  00000000  0007ed50  2**0
                  CONTENTS, READONLY
 21 .sysid_hash   00000004  00000000  00000000  0007ed51  2**0
                  CONTENTS, READONLY
 22 .sysid_base   00000004  00000000  00000000  0007ed55  2**0
                  CONTENTS, READONLY
 23 .sysid_time   00000004  00000000  00000000  0007ed59  2**0
                  CONTENTS, READONLY
 24 .stderr_dev   00000009  00000000  00000000  0007ed5d  2**0
                  CONTENTS, READONLY
 25 .stdin_dev    00000009  00000000  00000000  0007ed66  2**0
                  CONTENTS, READONLY
 26 .stdout_dev   00000009  00000000  00000000  0007ed6f  2**0
                  CONTENTS, READONLY
 27 .sopc_system_name 00000004  00000000  00000000  0007ed78  2**0
                  CONTENTS, READONLY
 28 .quartus_project_dir 00000033  00000000  00000000  0007ed7c  2**0
                  CONTENTS, READONLY
 29 .jdi          00004cc9  00000000  00000000  0007edaf  2**0
                  CONTENTS, READONLY
 30 .sopcinfo     000ebd70  00000000  00000000  00083a78  2**0
                  CONTENTS, READONLY
SYMBOL TABLE:
00020000 l    d  .entry	00000000 .entry
00020020 l    d  .exceptions	00000000 .exceptions
00020240 l    d  .text	00000000 .text
00034254 l    d  .rodata	00000000 .rodata
00034e3c l    d  .rwdata	00000000 .rwdata
0003935c l    d  .bss	00000000 .bss
00039544 l    d  .onchip_memory2_0	00000000 .onchip_memory2_0
00000000 l    d  .comment	00000000 .comment
00000000 l    d  .debug_aranges	00000000 .debug_aranges
00000000 l    d  .debug_info	00000000 .debug_info
00000000 l    d  .debug_abbrev	00000000 .debug_abbrev
00000000 l    d  .debug_line	00000000 .debug_line
00000000 l    d  .debug_frame	00000000 .debug_frame
00000000 l    d  .debug_str	00000000 .debug_str
00000000 l    d  .debug_loc	00000000 .debug_loc
00000000 l    d  .debug_alt_sim_info	00000000 .debug_alt_sim_info
00000000 l    d  .debug_ranges	00000000 .debug_ranges
00000000 l    df *ABS*	00000000 ../Camera_Test_bsp//obj/HAL/src/crt0.o
00020288 l       .text	00000000 alt_after_alt_main
00000000 l    df *ABS*	00000000 alt_irq_handler.c
00000000 l    df *ABS*	00000000 alt_instruction_exception_entry.c
00000000 l    df *ABS*	00000000 I2C_core.c
00000000 l    df *ABS*	00000000 auto_focus.c
00000000 l    df *ABS*	00000000 main.c
00000000 l    df *ABS*	00000000 mipi_bridge_config.c
00034e3c l     O .rwdata	00000034 MipiBridgeReg
00000000 l    df *ABS*	00000000 mipi_camera_config.c
00034e70 l     O .rwdata	00000762 MipiCameraReg
00000000 l    df *ABS*	00000000 mixerii_config.c
00000000 l    df *ABS*	00000000 picture_in_picture.c
00000000 l    df *ABS*	00000000 queue.c
00000000 l    df *ABS*	00000000 scalerii_config.c
00000000 l    df *ABS*	00000000 libgcc2.c
00000000 l    df *ABS*	00000000 lib2-divmod.c
00023d84 l     F .text	0000006c udivmodsi4
00000000 l    df *ABS*	00000000 addsf3.c
00000000 l    df *ABS*	00000000 divsf3.c
00000000 l    df *ABS*	00000000 gesf2.c
00000000 l    df *ABS*	00000000 mulsf3.c
00000000 l    df *ABS*	00000000 subsf3.c
00000000 l    df *ABS*	00000000 fixsfsi.c
00000000 l    df *ABS*	00000000 floatsisf.c
00000000 l    df *ABS*	00000000 floatunsisf.c
00000000 l    df *ABS*	00000000 libgcc2.c
00000000 l    df *ABS*	00000000 libgcc2.c
00000000 l    df *ABS*	00000000 malloc.c
00000000 l    df *ABS*	00000000 mallocr.c
00000000 l    df *ABS*	00000000 memset.c
00000000 l    df *ABS*	00000000 printf.c
00000000 l    df *ABS*	00000000 putchar.c
00000000 l    df *ABS*	00000000 puts.c
00000000 l    df *ABS*	00000000 sbrkr.c
00000000 l    df *ABS*	00000000 strlen.c
00000000 l    df *ABS*	00000000 vfprintf.c
00034c8a l     O .rodata	00000010 zeroes.4181
00034c9a l     O .rodata	00000010 blanks.4180
00000000 l    df *ABS*	00000000 wsetup.c
00000000 l    df *ABS*	00000000 dtoa.c
0002815c l     F .text	00000200 quorem
00000000 l    df *ABS*	00000000 fflush.c
00000000 l    df *ABS*	00000000 findfp.c
00029cdc l     F .text	00000008 __fp_lock
00029ce4 l     F .text	00000008 __fp_unlock
00029cf8 l     F .text	000001a0 __sinit.part.1
00000000 l    df *ABS*	00000000 mallocr.c
00000000 l    df *ABS*	00000000 fvwrite.c
00000000 l    df *ABS*	00000000 fwalk.c
00000000 l    df *ABS*	00000000 impure.c
000359dc l     O .rwdata	00000424 impure_data
00000000 l    df *ABS*	00000000 int_errno.c
00000000 l    df *ABS*	00000000 locale.c
00035e20 l     O .rwdata	00000020 lc_ctype_charset
00035e00 l     O .rwdata	00000020 lc_message_charset
00035e40 l     O .rwdata	00000038 lconv
00000000 l    df *ABS*	00000000 makebuf.c
00000000 l    df *ABS*	00000000 memchr.c
00000000 l    df *ABS*	00000000 memcpy.c
00000000 l    df *ABS*	00000000 memmove.c
00000000 l    df *ABS*	00000000 mprec.c
00034ccc l     O .rodata	0000000c p05.2678
00000000 l    df *ABS*	00000000 putc.c
00000000 l    df *ABS*	00000000 mallocr.c
00000000 l    df *ABS*	00000000 s_fpclassify.c
00000000 l    df *ABS*	00000000 stdio.c
00000000 l    df *ABS*	00000000 strcmp.c
00000000 l    df *ABS*	00000000 vfprintf.c
0002c9a0 l     F .text	000000fc __sprint_r.part.0
00034e00 l     O .rodata	00000010 blanks.4125
00034df0 l     O .rodata	00000010 zeroes.4126
00000000 l    df *ABS*	00000000 wbuf.c
00000000 l    df *ABS*	00000000 writer.c
00000000 l    df *ABS*	00000000 closer.c
00000000 l    df *ABS*	00000000 mallocr.c
00000000 l    df *ABS*	00000000 fclose.c
00000000 l    df *ABS*	00000000 fputwc.c
00000000 l    df *ABS*	00000000 fstatr.c
00000000 l    df *ABS*	00000000 isattyr.c
00000000 l    df *ABS*	00000000 lseekr.c
00000000 l    df *ABS*	00000000 readr.c
00000000 l    df *ABS*	00000000 wcrtomb.c
00000000 l    df *ABS*	00000000 wctomb_r.c
00000000 l    df *ABS*	00000000 libgcc2.c
00000000 l    df *ABS*	00000000 libgcc2.c
00000000 l    df *ABS*	00000000 adddf3.c
00000000 l    df *ABS*	00000000 divdf3.c
00000000 l    df *ABS*	00000000 eqdf2.c
00000000 l    df *ABS*	00000000 gedf2.c
00000000 l    df *ABS*	00000000 ledf2.c
00000000 l    df *ABS*	00000000 muldf3.c
00000000 l    df *ABS*	00000000 subdf3.c
00000000 l    df *ABS*	00000000 fixdfsi.c
00000000 l    df *ABS*	00000000 floatsidf.c
00000000 l    df *ABS*	00000000 floatunsidf.c
00000000 l    df *ABS*	00000000 alt_close.c
00031858 l     F .text	00000050 alt_get_errno
00000000 l    df *ABS*	00000000 alt_dev.c
00031978 l     F .text	0000002c alt_dev_null_write
00000000 l    df *ABS*	00000000 alt_errno.c
00000000 l    df *ABS*	00000000 alt_fstat.c
000319a4 l     F .text	00000050 alt_get_errno
00000000 l    df *ABS*	00000000 alt_isatty.c
00031aa4 l     F .text	00000050 alt_get_errno
00000000 l    df *ABS*	00000000 alt_load.c
00031b98 l     F .text	00000064 alt_load_section
00000000 l    df *ABS*	00000000 alt_lseek.c
00031c7c l     F .text	00000050 alt_get_errno
00000000 l    df *ABS*	00000000 alt_main.c
00000000 l    df *ABS*	00000000 alt_malloc_lock.c
00000000 l    df *ABS*	00000000 alt_read.c
00031e58 l     F .text	00000050 alt_get_errno
00000000 l    df *ABS*	00000000 alt_release_fd.c
00000000 l    df *ABS*	00000000 alt_sbrk.c
000370bc l     O .rwdata	00000004 heap_end
00000000 l    df *ABS*	00000000 alt_tick.c
00000000 l    df *ABS*	00000000 alt_usleep.c
00000000 l    df *ABS*	00000000 alt_write.c
00032280 l     F .text	00000050 alt_get_errno
00000000 l    df *ABS*	00000000 alt_sys_init.c
000323c8 l     F .text	00000038 alt_dev_reg
00036020 l     O .rwdata	00001060 jtag_uart
00000000 l    df *ABS*	00000000 altera_avalon_jtag_uart_fd.c
00000000 l    df *ABS*	00000000 altera_avalon_jtag_uart_init.c
000326bc l     F .text	00000204 altera_avalon_jtag_uart_irq
000328c0 l     F .text	000000a8 altera_avalon_jtag_uart_timeout
00000000 l    df *ABS*	00000000 altera_avalon_jtag_uart_ioctl.c
00000000 l    df *ABS*	00000000 altera_avalon_jtag_uart_read.c
00000000 l    df *ABS*	00000000 altera_avalon_jtag_uart_write.c
00000000 l    df *ABS*	00000000 altera_avalon_timer_sc.c
00032ee0 l     F .text	00000074 alt_avalon_timer_sc_irq
00000000 l    df *ABS*	00000000 alt_alarm_start.c
00000000 l    df *ABS*	00000000 alt_busy_sleep.c
00000000 l    df *ABS*	00000000 alt_dcache_flush_all.c
00000000 l    df *ABS*	00000000 alt_dev_llist_insert.c
000332b8 l     F .text	00000050 alt_get_errno
00000000 l    df *ABS*	00000000 alt_do_ctors.c
00000000 l    df *ABS*	00000000 alt_do_dtors.c
00000000 l    df *ABS*	00000000 alt_icache_flush_all.c
00000000 l    df *ABS*	00000000 alt_iic.c
00000000 l    df *ABS*	00000000 alt_iic_isr_register.c
00000000 l    df *ABS*	00000000 alt_io_redirect.c
00033764 l     F .text	000000c0 alt_open_fd
00000000 l    df *ABS*	00000000 alt_irq_vars.c
00000000 l    df *ABS*	00000000 alt_open.c
0003389c l     F .text	00000050 alt_get_errno
000338ec l     F .text	000000cc alt_file_locked
00000000 l    df *ABS*	00000000 altera_nios2_gen2_irq.c
00000000 l    df *ABS*	00000000 alt_find_dev.c
00000000 l    df *ABS*	00000000 alt_find_file.c
00000000 l    df *ABS*	00000000 alt_get_fd.c
00000000 l    df *ABS*	00000000 alt_icache_flush.c
00000000 l    df *ABS*	00000000 atexit.c
00000000 l    df *ABS*	00000000 exit.c
00000000 l    df *ABS*	00000000 memcmp.c
00000000 l    df *ABS*	00000000 __atexit.c
00000000 l    df *ABS*	00000000 __call_atexit.c
00000000 l    df *ABS*	00000000 alt_exit.c
00039390 g     O .bss	00000004 alt_instruction_exception_handler
00025e3c g     F .text	00000018 putchar
0002becc g     F .text	00000074 _mprec_log10
0002bfb8 g     F .text	0000008c __any_on
0002e460 g     F .text	00000054 _isatty_r
00034cd8 g     O .rodata	00000028 __mprec_tinytens
00031da0 g     F .text	00000078 alt_main
00025e54 g     F .text	000000b8 _puts_r
00039444 g     O .bss	00000100 alt_irq
0002e4b4 g     F .text	0000005c _lseek_r
000213bc g     F .text	000000b4 Focus_Released
000205e0 g     F .text	00000060 ACK_check
000370cc g       *ABS*	00000000 __flash_rwdata_start
00020554 g     F .text	0000008c ACK_single_check
0003942c g     O .bss	0000000c camera0
00030424 g     F .text	00000084 .hidden __eqdf2
00021198 g     F .text	00000224 Focus_Window
000222fc g     F .text	00000068 OV8865_write_AF
00039544 g       *ABS*	00000000 __alt_heap_start
00023a0c g     F .text	00000064 QUEUE_IsFull
00025df8 g     F .text	0000003c printf
0002e56c g     F .text	0000009c _wcrtomb_r
0002c898 g     F .text	0000005c __sseek
0002a02c g     F .text	00000010 __sinit
0002de34 g     F .text	00000154 __swbuf_r
0002aaa4 g     F .text	0000007c _setlocale_r
00029e98 g     F .text	00000064 __sfmoreglue
00031e38 g     F .text	00000020 __malloc_unlock
00024390 g     F .text	00000450 .hidden __divsf3
00022934 g     F .text	0000004c mixerii_go
0002af5c g     F .text	0000015c memmove
00020640 g     F .text	00000200 OC_I2C_Write
0002a014 g     F .text	00000018 _cleanup
0002b0b8 g     F .text	000000a8 _Balloc
000251b8 g     F .text	00000078 .hidden __fixsfsi
00021038 g     F .text	00000160 Focus_Init
000304a8 g     F .text	000000e0 .hidden __gtdf2
00033b10 g     F .text	00000020 altera_nios2_gen2_irq_init
00000000  w      *UND*	00000000 __errno
00020000 g     F .entry	0000001c __reset
00020020 g       *ABS*	00000000 __flash_exceptions_start
0002e408 g     F .text	00000058 _fstat_r
00037088 g     O .rwdata	00000001 focus_scal
00039368 g     O .bss	00000004 errno
0002c814 g     F .text	00000008 __seofread
0003937c g     O .bss	00000004 alt_argv
0003f080 g       *ABS*	00000000 _gp
00032250 g     F .text	00000030 usleep
00024cbc g     F .text	000004fc .hidden __subsf3
00035ea0 g     O .rwdata	00000180 alt_fd_list
00025e34 g     F .text	00000008 _putchar_r
00033b30 g     F .text	00000090 alt_find_dev
0002ae24 g     F .text	00000138 memcpy
00020394 g     F .text	0000013c oc_i2c_init_ex
00029cec g     F .text	0000000c _cleanup_r
00022d64 g     F .text	000001d4 PinP_init
000316e4 g     F .text	000000d0 .hidden __floatsidf
00033824 g     F .text	00000078 alt_io_redirect
00030588 g     F .text	000000e0 .hidden __ltdf2
00034254 g       *ABS*	00000000 __DTOR_END__
00025f0c g     F .text	00000014 puts
00033e14 g     F .text	0000009c alt_exception_cause_generated_bad_addr
0002c74c g     F .text	00000074 __fpclassifyd
0002be28 g     F .text	000000a4 __ratio
0002de10 g     F .text	00000024 __vfiprintf_internal
000239cc g     F .text	00000040 QUEUE_IsEmpty
00032abc g     F .text	0000020c altera_avalon_jtag_uart_read
000254d8 g     F .text	00000014 malloc
00025dcc g     F .text	0000002c _printf_r
00020000 g       *ABS*	00000000 __alt_mem_onchip_memory2_0
00023ea0 g     F .text	00000008 .hidden __udivsi3
00031af4 g     F .text	000000a4 isatty
00021470 g     F .text	000001b4 camera_config_init
00034d28 g     O .rodata	000000c8 __mprec_tens
0002ab20 g     F .text	0000000c __locale_charset
00033d88 g     F .text	0000008c alt_icache_flush
00039364 g     O .bss	00000004 __malloc_top_pad
00023b94 g     F .text	00000030 QUEUE_Empty
000223e8 g     F .text	00000100 OV8865_FOCUS_Move_to
0003709c g     O .rwdata	00000004 __mb_cur_max
0002ab50 g     F .text	0000000c _localeconv_r
00023c2c g     F .text	00000058 scalerii_output_size
0002b4b8 g     F .text	0000003c __i2b
0002a490 g     F .text	000004a4 __sfvwrite_r
00023b04 g     F .text	00000090 QUEUE_Pop
00025f20 g     F .text	00000054 _sbrk_r
0002e510 g     F .text	0000005c _read_r
00037086 g     O .rwdata	00000002 focus_height
00023c84 g     F .text	000000a0 scalerii_scale
0002365c g     F .text	000002d0 PinP_2camera_ajust
000370b4 g     O .rwdata	00000004 alt_max_fd
0002e118 g     F .text	00000100 _fclose_r
00022294 g     F .text	00000068 OV8865_write_cmos_sensor_8
00029cac g     F .text	00000030 fflush
00039360 g     O .bss	00000004 __malloc_max_sbrked_mem
00022bbc g     F .text	00000074 camera_scale_down
0002f2bc g     F .text	0000089c .hidden __adddf3
0002bbd0 g     F .text	0000011c __b2d
0002ed2c g     F .text	00000590 .hidden __umoddi3
00031ccc g     F .text	000000d4 lseek
000229c4 g     F .text	00000090 mixerii_layer_enable
00037094 g     O .rwdata	00000004 _global_impure_ptr
0002c1ac g     F .text	000005a0 _realloc_r
00039544 g       *ABS*	00000000 __bss_end
00033674 g     F .text	000000f0 alt_iic_isr_register
0003214c g     F .text	00000104 alt_tick
0002e76c g     F .text	000005c0 .hidden __udivdi3
0002e22c g     F .text	00000184 _fputwc_r
00034d00 g     O .rodata	00000028 __mprec_bigtens
0002b29c g     F .text	00000104 __s2b
000317b4 g     F .text	000000a4 .hidden __floatunsidf
00037082 g     O .rwdata	00000002 video_h
0002b978 g     F .text	00000060 __mcmp
0002a04c g     F .text	00000018 __fp_lock_all
00033628 g     F .text	0000004c alt_ic_irq_enabled
00021f00 g     F .text	000000e8 mipi_clear_error
00020ba8 g     F .text	00000210 OC_I2CL_Write
000320b4 g     F .text	00000098 alt_alarm_stop
0003938c g     O .bss	00000004 alt_irq_active
00039438 g     O .bss	0000000c camera1
00020840 g     F .text	00000064 ACK_judge_for_read
000200fc g     F .exceptions	000000d0 alt_irq_handler
00035e78 g     O .rwdata	00000028 alt_dev_null
0002028c g     F .text	00000058 Write32_Data
00033274 g     F .text	00000044 alt_dcache_flush_all
0002b3a0 g     F .text	00000068 __hi0bits
0003165c g     F .text	00000088 .hidden __fixdfsi
00037089 g     O .rwdata	00000001 focus_scal_f
00023bc4 g     F .text	00000068 scalerii_go
000370cc g       *ABS*	00000000 __ram_rwdata_end
000370ac g     O .rwdata	00000008 alt_dev_list
000322d0 g     F .text	000000f8 write
0002c044 g     F .text	000000a0 _putc_r
000247e0 g     F .text	000000b8 .hidden __gtsf2
00034e3c g       *ABS*	00000000 __ram_rodata_end
000319f4 g     F .text	000000b0 fstat
00021624 g     F .text	0000017c D8Mx2_Init
00030588 g     F .text	000000e0 .hidden __ledf2
0002b6f0 g     F .text	00000140 __pow5mult
0002cab4 g     F .text	0000135c ___vfiprintf_internal_r
00039374 g     O .bss	00000004 __nlocale_changed
00023ea8 g     F .text	00000008 .hidden __umodsi3
00022088 g     F .text	000001a8 mipi_show_error_info_more
00039544 g       *ABS*	00000000 end
000325f8 g     F .text	000000c4 altera_avalon_jtag_uart_init
000201cc g     F .exceptions	00000074 alt_instruction_exception_entry
00034254 g       *ABS*	00000000 __CTOR_LIST__
00040000 g       *ABS*	00000000 __alt_stack_pointer
00032f54 g     F .text	00000088 alt_avalon_timer_sc_init
00025474 g     F .text	00000064 .hidden __clzsi2
00032cc8 g     F .text	00000218 altera_avalon_jtag_uart_write
0002a03c g     F .text	00000004 __sfp_lock_acquire
0002ad3c g     F .text	000000e8 memchr
0002600c g     F .text	00001ffc ___vfprintf_internal_r
0002a1a0 g     F .text	000002f0 _free_r
0002ab2c g     F .text	00000010 __locale_mb_cur_max
0003408c g     F .text	00000194 __call_exitprocs
00039370 g     O .bss	00000004 __mlocale_changed
0003708c g     O .rwdata	00000004 __malloc_sbrk_base
00020240 g     F .text	0000004c _start
00039384 g     O .bss	00000004 _alt_tick_rate
0002b830 g     F .text	00000148 __lshift
00023a70 g     F .text	00000094 QUEUE_Push
00039388 g     O .bss	00000004 _alt_nticks
00031ea8 g     F .text	000000fc read
00032434 g     F .text	00000060 alt_sys_init
00025230 g     F .text	00000134 .hidden __floatsisf
000393bc g     O .bss	00000038 camera1_config
00033f78 g     F .text	00000114 __register_exitproc
00022230 g     F .text	00000064 OV8865_read_cmos_sensor_8
0002b4f4 g     F .text	000001fc __multiply
00032968 g     F .text	00000068 altera_avalon_jtag_uart_close
00021c9c g     F .text	00000068 MipiBridgeRegWrite
00034e3c g       *ABS*	00000000 __ram_rwdata_start
00034254 g       *ABS*	00000000 __ram_rodata_start
00039394 g     O .bss	00000028 __malloc_current_mallinfo
0002bcec g     F .text	0000013c __d2b
000224e8 g     F .text	0000021c camera_bin_level
00032494 g     F .text	00000060 altera_avalon_jtag_uart_read_fd
00033cd4 g     F .text	000000b4 alt_get_fd
00022a54 g     F .text	0000009c mixerii_layer_position
0003311c g     F .text	00000158 alt_busy_sleep
0002e000 g     F .text	00000054 _close_r
000393f4 g     O .bss	00000038 camera0_config
00033efc g     F .text	0000007c memcmp
00032554 g     F .text	00000050 altera_avalon_jtag_uart_close_fd
00039544 g       *ABS*	00000000 __alt_stack_base
000325a4 g     F .text	00000054 altera_avalon_jtag_uart_ioctl_fd
0002802c g     F .text	00000130 __swsetup_r
0002033c g     F .text	00000058 oc_i2c_init
0002fb58 g     F .text	000008cc .hidden __divdf3
00029efc g     F .text	00000118 __sfp
0002bf40 g     F .text	00000078 __copybits
000355d4 g     O .rwdata	00000408 __malloc_av_
0002a048 g     F .text	00000004 __sinit_lock_release
00030668 g     F .text	00000724 .hidden __muldf3
0002c7c0 g     F .text	00000054 __sread
00033bc0 g     F .text	00000114 alt_find_file
00033308 g     F .text	000000a4 alt_dev_llist_insert
00031e18 g     F .text	00000020 __malloc_lock
00032004 g     F .text	000000b0 sbrk
00022704 g     F .text	00000230 MipiCameraInit
00021c50 g     F .text	0000004c nSWAP16
00029a84 g     F .text	00000228 _fflush_r
0002e054 g     F .text	000000c4 _calloc_r
0002392c g     F .text	00000070 QUEUE_New
0003935c g       *ABS*	00000000 __bss_start
00025ca8 g     F .text	00000124 memset
000217a0 g     F .text	000004b0 main
00039380 g     O .bss	00000004 alt_envp
0003935c g     O .bss	00000004 __malloc_max_total_mem
00022980 g     F .text	00000044 mixerii_background_config
000324f4 g     F .text	00000060 altera_avalon_jtag_uart_write_fd
0002df88 g     F .text	0000001c __swbuf
0002c8f4 g     F .text	00000008 __sclose
00040000 g       *ABS*	00000000 __alt_heap_limit
0002e218 g     F .text	00000014 fclose
0002835c g     F .text	00001728 _dtoa_r
00025500 g     F .text	000007a8 _malloc_r
0002e6e0 g     F .text	00000030 __ascii_wctomb
000370b8 g     O .rwdata	00000004 alt_errno
0002a934 g     F .text	000000b8 _fwalk
00022c30 g     F .text	00000134 PinP_position_set
0002c0e4 g     F .text	000000c8 putc
00023df0 g     F .text	00000054 .hidden __divsi3
000204d0 g     F .text	00000084 oc_i2c_uninit
0002a07c g     F .text	00000124 _malloc_trim_r
00034254 g       *ABS*	00000000 __CTOR_END__
00024898 g     F .text	00000424 .hidden __mulsf3
0002c8fc g     F .text	000000a4 strcmp
00034254 g       *ABS*	00000000 __flash_rodata_start
00034254 g       *ABS*	00000000 __DTOR_LIST__
00030424 g     F .text	00000084 .hidden __nedf2
00032400 g     F .text	00000034 alt_irq_init
00031fa4 g     F .text	00000060 alt_release_fd
00021d7c g     F .text	00000184 MipiBridgeInit
00034b44 g     O .rodata	00000100 .hidden __clz_tab
0003936c g     O .bss	00000004 _PathLocale
00033eb0 g     F .text	00000014 atexit
000247e0 g     F .text	000000b8 .hidden __gesf2
0002dfa4 g     F .text	0000005c _write_r
0002ab5c g     F .text	0000001c setlocale
00022f38 g     F .text	00000338 PinP_mode
00037098 g     O .rwdata	00000004 _impure_ptr
00039378 g     O .bss	00000004 alt_argc
00021d04 g     F .text	00000078 MipiBridgeRegRead
00033408 g     F .text	0000005c _do_dtors
0002ab48 g     F .text	00000008 __locale_cjk_lang
00022af0 g     F .text	000000cc camera_out_of_range
00037080 g     O .rwdata	00000002 video_w
00020020 g       .exceptions	00000000 alt_irq_entry
0002bb70 g     F .text	00000060 __ulp
0002a064 g     F .text	00000018 __fp_unlock_all
000370a4 g     O .rwdata	00000008 alt_fs_list
000202e4 g     F .text	00000058 Read32_Data
000208a4 g     F .text	000001cc OC_I2C_Read
00020020 g       *ABS*	00000000 __ram_exceptions_start
0002ab78 g     F .text	0000000c localeconv
00033494 g     F .text	00000050 alt_ic_isr_register
000370cc g       *ABS*	00000000 _edata
00039544 g       *ABS*	00000000 _end
00020240 g       *ABS*	00000000 __ram_exceptions_end
000329d0 g     F .text	000000ec altera_avalon_jtag_uart_ioctl
00033584 g     F .text	000000a4 alt_ic_irq_disable
0002c81c g     F .text	0000007c __swrite
00037090 g     O .rwdata	00000004 __malloc_trim_threshold
00020a70 g     F .text	00000138 OC_I2C_Read_Continue
0002ab3c g     F .text	0000000c __locale_msgcharset
00033ec4 g     F .text	00000038 exit
0003708a g     O .rwdata	00000001 focus_th
0002a9ec g     F .text	000000b8 _fwalk_reent
00025364 g     F .text	00000110 .hidden __floatunsisf
0002b9d8 g     F .text	00000198 __mdiff
00023e44 g     F .text	0000005c .hidden __modsi3
00040000 g       *ABS*	00000000 __alt_data_end
00020020 g     F .exceptions	00000000 alt_exception
0002a040 g     F .text	00000004 __sfp_lock_release
00021fe8 g     F .text	000000a0 mipi_show_error_info
0002399c g     F .text	00000030 QUEUE_Delete
00023d24 g     F .text	00000060 .hidden __fixunssfsi
00020db8 g     F .text	00000280 OC_I2CL_Read
00034220 g     F .text	00000034 _exit
00032fdc g     F .text	00000140 alt_alarm_start
0002ab84 g     F .text	000001b8 __smakebuf_r
00025f74 g     F .text	00000098 strlen
000339b8 g     F .text	00000158 open
000304a8 g     F .text	000000e0 .hidden __gedf2
000370a0 g     O .rwdata	00000004 __wctomb
0002ca9c g     F .text	00000018 __sprint_r
00033464 g     F .text	00000030 alt_icache_flush_all
000370c8 g     O .rwdata	00000004 alt_priority_mask
00037084 g     O .rwdata	00000002 focus_width
000334e4 g     F .text	000000a0 alt_ic_irq_enable
00028008 g     F .text	00000024 __vfprintf_internal
0002e710 g     F .text	0000005c _wctomb_r
00030d8c g     F .text	000008d0 .hidden __subdf3
0002b408 g     F .text	000000b0 __lo0bits
000370c0 g     O .rwdata	00000008 alt_alarm_list
000333ac g     F .text	0000005c _do_ctors
00023270 g     F .text	000003ec PinP_video_change
0002e608 g     F .text	000000d8 wcrtomb
000318a8 g     F .text	000000d0 close
00023eb0 g     F .text	000004e0 .hidden __addsf3
00022364 g     F .text	00000084 OV8865_read_AF
00031bfc g     F .text	00000080 alt_load
0002e3b0 g     F .text	00000058 fputwc
000254ec g     F .text	00000014 free
0002a044 g     F .text	00000004 __sinit_lock_acquire
0002b188 g     F .text	00000114 __multadd
0002b160 g     F .text	00000028 _Bfree



Disassembly of section .entry:

00020000 <__reset>:
#if NIOS2_ICACHE_SIZE > 0 && defined(ALT_ALLOW_CODE_AT_RESET) && (!defined(ALT_SIM_OPTIMIZE) || defined(NIOS2_ECC_PRESENT))
    /* Assume the instruction cache size is always a power of two. */
#if NIOS2_ICACHE_SIZE > 0x8000
    movhi r2, %hi(NIOS2_ICACHE_SIZE)
#else
    movui r2, NIOS2_ICACHE_SIZE
   20000:	00840014 	movui	r2,4096
#endif

0:
    initi r2
   20004:	1001483a 	initi	r2
    addi r2, r2, -NIOS2_ICACHE_LINE_SIZE
   20008:	10bff804 	addi	r2,r2,-32
    bgt r2, zero, 0b
   2000c:	00bffd16 	blt	zero,r2,20004 <__alt_data_end+0xfffe0004>
 * Jump to the _start entry point in the .text section if reset code
 * is allowed or if optimizing for RTL simulation.
 */
#if defined(ALT_ALLOW_CODE_AT_RESET) || defined(ALT_SIM_OPTIMIZE)
    /* Jump to the _start entry point in the .text section. */
    movhi r1, %hi(_start)
   20010:	004000b4 	movhi	at,2
    ori r1, r1, %lo(_start)
   20014:	08409014 	ori	at,at,576
    jmp r1
   20018:	0800683a 	jmp	at
   2001c:	00000000 	call	0 <__alt_mem_onchip_memory2_0-0x20000>

Disassembly of section .exceptions:

00020020 <alt_exception>:

#else /* ALT_EXCEPTION_STACK disabled */
        /* 
         * Reserve space on normal stack for registers about to be pushed.
         */
        addi  sp, sp, -76
   20020:	deffed04 	addi	sp,sp,-76
         * documentation for details).
         *
         * Leave a gap in the stack frame at 4(sp) for the muldiv handler to
         * store zero into.
         */
        stw   ra,  0(sp)
   20024:	dfc00015 	stw	ra,0(sp)
        stw   r1,   8(sp)
   20028:	d8400215 	stw	at,8(sp)
        stw   r2,  12(sp)
   2002c:	d8800315 	stw	r2,12(sp)
        stw   r3,  16(sp)
   20030:	d8c00415 	stw	r3,16(sp)
        stw   r4,  20(sp)
   20034:	d9000515 	stw	r4,20(sp)
        stw   r5,  24(sp)
   20038:	d9400615 	stw	r5,24(sp)
        stw   r6,  28(sp)
   2003c:	d9800715 	stw	r6,28(sp)
        stw   r7,  32(sp)
   20040:	d9c00815 	stw	r7,32(sp)
        rdctl r5, estatus   /* Read early to avoid usage stall */
   20044:	000b307a 	rdctl	r5,estatus
        stw   r8,  36(sp)
   20048:	da000915 	stw	r8,36(sp)
        stw   r9,  40(sp)
   2004c:	da400a15 	stw	r9,40(sp)
        stw   r10, 44(sp)
   20050:	da800b15 	stw	r10,44(sp)
        stw   r11, 48(sp)
   20054:	dac00c15 	stw	r11,48(sp)
        stw   r12, 52(sp)
   20058:	db000d15 	stw	r12,52(sp)
        stw   r13, 56(sp)
   2005c:	db400e15 	stw	r13,56(sp)
        stw   r14, 60(sp)
   20060:	db800f15 	stw	r14,60(sp)
        stw   r15, 64(sp)
   20064:	dbc01015 	stw	r15,64(sp)
        /*
         * ea-4 contains the address of the instruction being executed
         * when the exception occured. For interrupt exceptions, we will
         * will be re-issue the isntruction. Store it in 72(sp)
         */
        stw   r5,  68(sp)  /* estatus */
   20068:	d9401115 	stw	r5,68(sp)
        addi  r15, ea, -4  /* instruction that caused exception */
   2006c:	ebffff04 	addi	r15,ea,-4
        stw   r15,  72(sp)
   20070:	dbc01215 	stw	r15,72(sp)
#else
        /*
         * Test to see if the exception was a software exception or caused 
         * by an external interrupt, and vector accordingly.
         */
        rdctl r4, ipending
   20074:	0009313a 	rdctl	r4,ipending
        andi  r2, r5, 1
   20078:	2880004c 	andi	r2,r5,1
        beq   r2, zero, .Lnot_irq
   2007c:	10000326 	beq	r2,zero,2008c <alt_exception+0x6c>
        beq   r4, zero, .Lnot_irq
   20080:	20000226 	beq	r4,zero,2008c <alt_exception+0x6c>
        /*
         * Now that all necessary registers have been preserved, call 
         * alt_irq_handler() to process the interrupts.
         */

        call alt_irq_handler
   20084:	00200fc0 	call	200fc <alt_irq_handler>

        .section .exceptions.irqreturn, "xa"

        br    .Lexception_exit
   20088:	00000706 	br	200a8 <alt_exception+0x88>
         * upon completion, so we write ea (address of instruction *after*
         * the one where the exception occured) into 72(sp). The actual
         * instruction that caused the exception is written in r2, which these
         * handlers will utilize.
         */
        stw   ea,  72(sp)  /* Don't re-issue */
   2008c:	df401215 	stw	ea,72(sp)
        ldhu.n  r2, 0(r4)
        ldhu.n  r3, 2(r4)
        slli.n  r3, r3, 16
        or.n    r2, r2, r3 /* Instruction that caused exception */
#else
        ldw   r2, -4(ea)   /* Instruction that caused exception */
   20090:	e8bfff17 	ldw	r2,-4(ea)
         * debugger is present) or go into an infinite loop since the
         * handling behavior is undefined; in that case we will not return here.
         */

        /* Load exception-causing address as first argument (r4) */
        addi   r4, ea, -4
   20094:	e93fff04 	addi	r4,ea,-4

        /* Call the instruction-exception entry */
        call   alt_instruction_exception_entry
   20098:	00201cc0 	call	201cc <alt_instruction_exception_entry>
         * instruction
         *
         * Return code was 0: Skip. The instruction after the exception is
         * already stored in 72(sp).
         */
        bne   r2, r0, .Lexception_exit
   2009c:	1000021e 	bne	r2,zero,200a8 <alt_exception+0x88>

        /*
         * Otherwise, modify 72(sp) to re-issue the instruction that caused the
         * exception.
         */
        addi  r15, ea, -4  /* instruction that caused exception */
   200a0:	ebffff04 	addi	r15,ea,-4
        stw   r15,  72(sp)
   200a4:	dbc01215 	stw	r15,72(sp)
        /* 
         * Restore the saved registers, so that all general purpose registers 
         * have been restored to their state at the time the interrupt occured.
         */

        ldw   r5,  68(sp)
   200a8:	d9401117 	ldw	r5,68(sp)
        ldw   ea,  72(sp)  /* This becomes the PC once eret is executed */
   200ac:	df401217 	ldw	ea,72(sp)
        ldw   ra,   0(sp)
   200b0:	dfc00017 	ldw	ra,0(sp)

        wrctl estatus, r5
   200b4:	2801707a 	wrctl	estatus,r5

        ldw   r1,   8(sp)
   200b8:	d8400217 	ldw	at,8(sp)
        ldw   r2,  12(sp)
   200bc:	d8800317 	ldw	r2,12(sp)
        ldw   r3,  16(sp)
   200c0:	d8c00417 	ldw	r3,16(sp)
        ldw   r4,  20(sp)
   200c4:	d9000517 	ldw	r4,20(sp)
        ldw   r5,  24(sp)
   200c8:	d9400617 	ldw	r5,24(sp)
        ldw   r6,  28(sp)
   200cc:	d9800717 	ldw	r6,28(sp)
        ldw   r7,  32(sp)
   200d0:	d9c00817 	ldw	r7,32(sp)

#if defined(ALT_EXCEPTION_STACK) && defined(ALT_STACK_CHECK)
        ldw   et, %gprel(alt_exception_old_stack_limit)(gp)
#endif

        ldw   r8,  36(sp)
   200d4:	da000917 	ldw	r8,36(sp)
        ldw   r9,  40(sp)
   200d8:	da400a17 	ldw	r9,40(sp)
        ldw   r10, 44(sp)
   200dc:	da800b17 	ldw	r10,44(sp)
        ldw   r11, 48(sp)
   200e0:	dac00c17 	ldw	r11,48(sp)
        ldw   r12, 52(sp)
   200e4:	db000d17 	ldw	r12,52(sp)
        ldw   r13, 56(sp)
   200e8:	db400e17 	ldw	r13,56(sp)
        ldw   r14, 60(sp)
   200ec:	db800f17 	ldw	r14,60(sp)
        ldw   r15, 64(sp)
   200f0:	dbc01017 	ldw	r15,64(sp)
        stw   et, %gprel(alt_stack_limit_value)(gp)
        stw   zero, %gprel(alt_exception_old_stack_limit)(gp)
#endif /* ALT_STACK_CHECK */
        ldw   sp,  76(sp)
#else /* ALT_EXCEPTION_STACK disabled */
        addi  sp, sp, 76
   200f4:	dec01304 	addi	sp,sp,76

        /*
         * Return to the interrupted instruction.
         */

        eret
   200f8:	ef80083a 	eret

000200fc <alt_irq_handler>:
 * instruction is present if the macro ALT_CI_INTERRUPT_VECTOR defined.
 */

void alt_irq_handler (void) __attribute__ ((section (".exceptions")));
void alt_irq_handler (void)
{
   200fc:	defff904 	addi	sp,sp,-28
   20100:	dfc00615 	stw	ra,24(sp)
   20104:	df000515 	stw	fp,20(sp)
   20108:	df000504 	addi	fp,sp,20
  
  /*
   * Notify the operating system that we are at interrupt level.
   */ 
  
  ALT_OS_INT_ENTER();
   2010c:	0001883a 	nop
#ifndef NIOS2_EIC_PRESENT
static ALT_INLINE alt_u32 ALT_ALWAYS_INLINE alt_irq_pending (void)
{
  alt_u32 active;

  NIOS2_READ_IPENDING (active);
   20110:	0005313a 	rdctl	r2,ipending
   20114:	e0bffe15 	stw	r2,-8(fp)

  return active;
   20118:	e0bffe17 	ldw	r2,-8(fp)
   * Consider the case where the high priority interupt is asserted during
   * the interrupt entry sequence for a lower priority interrupt to see why
   * this is the case.
   */

  active = alt_irq_pending ();
   2011c:	e0bffb15 	stw	r2,-20(fp)

  do
  {
    i = 0;
   20120:	e03ffd15 	stw	zero,-12(fp)
    mask = 1;
   20124:	00800044 	movi	r2,1
   20128:	e0bffc15 	stw	r2,-16(fp)
     * called to clear the interrupt condition.
     */

    do
    {
      if (active & mask)
   2012c:	e0fffb17 	ldw	r3,-20(fp)
   20130:	e0bffc17 	ldw	r2,-16(fp)
   20134:	1884703a 	and	r2,r3,r2
   20138:	10001426 	beq	r2,zero,2018c <alt_irq_handler+0x90>
      { 
#ifdef ALT_ENHANCED_INTERRUPT_API_PRESENT
        alt_irq[i].handler(alt_irq[i].context); 
   2013c:	00800134 	movhi	r2,4
   20140:	10a51104 	addi	r2,r2,-27580
   20144:	e0fffd17 	ldw	r3,-12(fp)
   20148:	180690fa 	slli	r3,r3,3
   2014c:	10c5883a 	add	r2,r2,r3
   20150:	10c00017 	ldw	r3,0(r2)
   20154:	00800134 	movhi	r2,4
   20158:	10a51104 	addi	r2,r2,-27580
   2015c:	e13ffd17 	ldw	r4,-12(fp)
   20160:	200890fa 	slli	r4,r4,3
   20164:	1105883a 	add	r2,r2,r4
   20168:	10800104 	addi	r2,r2,4
   2016c:	10800017 	ldw	r2,0(r2)
   20170:	1009883a 	mov	r4,r2
   20174:	183ee83a 	callr	r3
#else
        alt_irq[i].handler(alt_irq[i].context, i); 
#endif
        break;
   20178:	0001883a 	nop
#ifndef NIOS2_EIC_PRESENT
static ALT_INLINE alt_u32 ALT_ALWAYS_INLINE alt_irq_pending (void)
{
  alt_u32 active;

  NIOS2_READ_IPENDING (active);
   2017c:	0005313a 	rdctl	r2,ipending
   20180:	e0bfff15 	stw	r2,-4(fp)

  return active;
   20184:	e0bfff17 	ldw	r2,-4(fp)
   20188:	00000706 	br	201a8 <alt_irq_handler+0xac>
      }
      mask <<= 1;
   2018c:	e0bffc17 	ldw	r2,-16(fp)
   20190:	1085883a 	add	r2,r2,r2
   20194:	e0bffc15 	stw	r2,-16(fp)
      i++;
   20198:	e0bffd17 	ldw	r2,-12(fp)
   2019c:	10800044 	addi	r2,r2,1
   201a0:	e0bffd15 	stw	r2,-12(fp)

    } while (1);
   201a4:	003fe106 	br	2012c <__alt_data_end+0xfffe012c>

    active = alt_irq_pending ();
   201a8:	e0bffb15 	stw	r2,-20(fp)
    
  } while (active);
   201ac:	e0bffb17 	ldw	r2,-20(fp)
   201b0:	103fdb1e 	bne	r2,zero,20120 <__alt_data_end+0xfffe0120>

  /*
   * Notify the operating system that interrupt processing is complete.
   */ 

  ALT_OS_INT_EXIT();
   201b4:	0001883a 	nop
}
   201b8:	e037883a 	mov	sp,fp
   201bc:	dfc00117 	ldw	ra,4(sp)
   201c0:	df000017 	ldw	fp,0(sp)
   201c4:	dec00204 	addi	sp,sp,8
   201c8:	f800283a 	ret

000201cc <alt_instruction_exception_entry>:
 * that handler if it has been registered. Absent a handler, it will
 * break break or hang as discussed below.
 */
int 
alt_instruction_exception_entry (alt_u32 exception_pc)
{
   201cc:	defffb04 	addi	sp,sp,-20
   201d0:	dfc00415 	stw	ra,16(sp)
   201d4:	df000315 	stw	fp,12(sp)
   201d8:	df000304 	addi	fp,sp,12
   201dc:	e13fff15 	stw	r4,-4(fp)
 * NIOS2_EXCEPTION_CAUSE_NOT_PRESENT. Your handling routine should
 * check the validity of the cause argument before proceeding.
 */
#ifdef NIOS2_HAS_EXTRA_EXCEPTION_INFO
  /* Get exception cause & "badaddr" */
  NIOS2_READ_EXCEPTION(cause);
   201e0:	000531fa 	rdctl	r2,exception
   201e4:	e0bffd15 	stw	r2,-12(fp)
  cause = ( (cause & NIOS2_EXCEPTION_REG_CAUSE_MASK) >>
   201e8:	e0bffd17 	ldw	r2,-12(fp)
   201ec:	10801f0c 	andi	r2,r2,124
   201f0:	1004d0ba 	srli	r2,r2,2
   201f4:	e0bffd15 	stw	r2,-12(fp)
              NIOS2_EXCEPTION_REG_CAUSE_OFST );

  NIOS2_READ_BADADDR(badaddr);
   201f8:	0005333a 	rdctl	r2,badaddr
   201fc:	e0bffe15 	stw	r2,-8(fp)
#else
  cause = NIOS2_EXCEPTION_CAUSE_NOT_PRESENT;
  badaddr = 0;
#endif /* NIOS2_HAS_EXTRA_EXCEPTION_INFO */

  if(alt_instruction_exception_handler) {
   20200:	d0a8c417 	ldw	r2,-23792(gp)
   20204:	10000726 	beq	r2,zero,20224 <alt_instruction_exception_entry+0x58>
     * Call handler. Its return value indicates whether the exception-causing
     * instruction should be re-issued. The code that called us,
     * alt_eceptions_entry.S, will look at this value and adjust the ea
     * register as necessary
     */
    return alt_instruction_exception_handler(cause, exception_pc, badaddr);
   20208:	d0a8c417 	ldw	r2,-23792(gp)
   2020c:	e0fffd17 	ldw	r3,-12(fp)
   20210:	1809883a 	mov	r4,r3
   20214:	e17fff17 	ldw	r5,-4(fp)
   20218:	e1bffe17 	ldw	r6,-8(fp)
   2021c:	103ee83a 	callr	r2
   20220:	00000206 	br	2022c <alt_instruction_exception_entry+0x60>
   *    (a peripheral which negates its interrupt output before its
   *    interrupt handler has been executed will cause spurious interrupts)
   */
  else {
#ifdef NIOS2_HAS_DEBUG_STUB
    NIOS2_BREAK();
   20224:	003da03a 	break	0
      ;
#endif /* NIOS2_HAS_DEBUG_STUB */
  }

  /* We should not get here. Remove compiler warning. */
  return NIOS2_EXCEPTION_RETURN_REISSUE_INST;
   20228:	0005883a 	mov	r2,zero
}
   2022c:	e037883a 	mov	sp,fp
   20230:	dfc00117 	ldw	ra,4(sp)
   20234:	df000017 	ldw	fp,0(sp)
   20238:	dec00204 	addi	sp,sp,8
   2023c:	f800283a 	ret

Disassembly of section .text:

00020240 <_start>:

    /* Assume the data cache size is always a power of two. */
#if NIOS2_DCACHE_SIZE > 0x8000
    movhi r2, %hi(NIOS2_DCACHE_SIZE)
#else
    movui r2, NIOS2_DCACHE_SIZE
   20240:	00820014 	movui	r2,2048
#endif

0:
    initd 0(r2)
   20244:	10000033 	initd	0(r2)
#ifdef NIOS2_ECC_PRESENT
    addi r2, r2, -4
#else
    addi r2, r2, -NIOS2_DCACHE_LINE_SIZE
   20248:	10bff804 	addi	r2,r2,-32
#endif
    bgt r2, zero, 0b
   2024c:	00bffd16 	blt	zero,r2,20244 <__alt_data_end+0xfffe0244>

    /*
     * Now that the caches are initialized, set up the stack pointer and global pointer.
     * The values provided by the linker are assumed to be correctly aligned.
     */
    movhi sp, %hi(__alt_stack_pointer)
   20250:	06c00134 	movhi	sp,4
    ori sp, sp, %lo(__alt_stack_pointer)
   20254:	dec00014 	ori	sp,sp,0
    movhi gp, %hi(_gp)
   20258:	068000f4 	movhi	gp,3
    ori gp, gp, %lo(_gp)
   2025c:	d6bc2014 	ori	gp,gp,61568
 */
#ifndef ALT_SIM_OPTIMIZE
    /* Log that the BSS is about to be cleared. */
    ALT_LOG_PUTS(alt_log_msg_bss)

    movhi r2, %hi(__bss_start)
   20260:	008000f4 	movhi	r2,3
    ori r2, r2, %lo(__bss_start)
   20264:	10a4d714 	ori	r2,r2,37724

    movhi r3, %hi(__bss_end)
   20268:	00c000f4 	movhi	r3,3
    ori r3, r3, %lo(__bss_end)
   2026c:	18e55114 	ori	r3,r3,38212

    beq r2, r3, 1f
   20270:	10c00326 	beq	r2,r3,20280 <_start+0x40>

0:
    stw zero, (r2)
   20274:	10000015 	stw	zero,0(r2)
    addi r2, r2, 4
   20278:	10800104 	addi	r2,r2,4
    bltu r2, r3, 0b
   2027c:	10fffd36 	bltu	r2,r3,20274 <__alt_data_end+0xfffe0274>
     * section aren't defined until alt_load() has been called).
     */
    mov   et, zero
#endif

    call alt_load
   20280:	0031bfc0 	call	31bfc <alt_load>

    /* Log that alt_main is about to be called. */
    ALT_LOG_PUTS(alt_log_msg_alt_main)

    /* Call the C entry point. It should never return. */
    call alt_main
   20284:	0031da00 	call	31da0 <alt_main>

00020288 <alt_after_alt_main>:

    /* Wait in infinite loop in case alt_main does return. */
alt_after_alt_main:
    br alt_after_alt_main
   20288:	003fff06 	br	20288 <__alt_data_end+0xfffe0288>

0002028c <Write32_Data>:
#define SLEEP_TIME 250  //us
#define ACK_SLEEP_TIME 250 //us
#define TRUE 1
#define FALSE 0

bool Write32_Data(alt_32 base_address, alt_32 offset_address, alt_32 Data){
   2028c:	defffb04 	addi	sp,sp,-20
   20290:	df000415 	stw	fp,16(sp)
   20294:	df000404 	addi	fp,sp,16
   20298:	e13ffd15 	stw	r4,-12(fp)
   2029c:	e17ffe15 	stw	r5,-8(fp)
   202a0:	e1bfff15 	stw	r6,-4(fp)
	bool bPass;
    IOWR(base_address, offset_address,Data);
   202a4:	e0bffe17 	ldw	r2,-8(fp)
   202a8:	1085883a 	add	r2,r2,r2
   202ac:	1085883a 	add	r2,r2,r2
   202b0:	1007883a 	mov	r3,r2
   202b4:	e0bffd17 	ldw	r2,-12(fp)
   202b8:	1885883a 	add	r2,r3,r2
   202bc:	1007883a 	mov	r3,r2
   202c0:	e0bfff17 	ldw	r2,-4(fp)
   202c4:	18800035 	stwio	r2,0(r3)
    bPass=TRUE;
   202c8:	00800044 	movi	r2,1
   202cc:	e0bffc15 	stw	r2,-16(fp)
    return bPass;
   202d0:	e0bffc17 	ldw	r2,-16(fp)
}
   202d4:	e037883a 	mov	sp,fp
   202d8:	df000017 	ldw	fp,0(sp)
   202dc:	dec00104 	addi	sp,sp,4
   202e0:	f800283a 	ret

000202e4 <Read32_Data>:



bool  Read32_Data(alt_32 base_address, alt_32 offset_address, alt_32 *pData32){
   202e4:	defffb04 	addi	sp,sp,-20
   202e8:	df000415 	stw	fp,16(sp)
   202ec:	df000404 	addi	fp,sp,16
   202f0:	e13ffd15 	stw	r4,-12(fp)
   202f4:	e17ffe15 	stw	r5,-8(fp)
   202f8:	e1bfff15 	stw	r6,-4(fp)
	bool bPass;
	*pData32 =IORD(base_address ,offset_address  );
   202fc:	e0bffe17 	ldw	r2,-8(fp)
   20300:	1085883a 	add	r2,r2,r2
   20304:	1085883a 	add	r2,r2,r2
   20308:	1007883a 	mov	r3,r2
   2030c:	e0bffd17 	ldw	r2,-12(fp)
   20310:	1885883a 	add	r2,r3,r2
   20314:	10c00037 	ldwio	r3,0(r2)
   20318:	e0bfff17 	ldw	r2,-4(fp)
   2031c:	10c00015 	stw	r3,0(r2)
	bPass=TRUE;
   20320:	00800044 	movi	r2,1
   20324:	e0bffc15 	stw	r2,-16(fp)
    return bPass;
   20328:	e0bffc17 	ldw	r2,-16(fp)
}
   2032c:	e037883a 	mov	sp,fp
   20330:	df000017 	ldw	fp,0(sp)
   20334:	dec00104 	addi	sp,sp,4
   20338:	f800283a 	ret

0002033c <oc_i2c_init>:

bool oc_i2c_init(alt_32 i2c_base){
   2033c:	defffa04 	addi	sp,sp,-24
   20340:	dfc00515 	stw	ra,20(sp)
   20344:	df000415 	stw	fp,16(sp)
   20348:	df000404 	addi	fp,sp,16
   2034c:	e13fff15 	stw	r4,-4(fp)
	bool bSuccess;
	const alt_32 ref_clk = 50*1000*1000; // 50MHz
   20350:	0080bef4 	movhi	r2,763
   20354:	10bc2004 	addi	r2,r2,-3968
   20358:	e0bffc15 	stw	r2,-16(fp)
	const alt_32 i2c_clk = 400*1000; // 400KHz
   2035c:	008001b4 	movhi	r2,6
   20360:	1086a004 	addi	r2,r2,6784
   20364:	e0bffd15 	stw	r2,-12(fp)

	bSuccess = oc_i2c_init_ex(i2c_base, ref_clk, i2c_clk);
   20368:	e13fff17 	ldw	r4,-4(fp)
   2036c:	e17ffc17 	ldw	r5,-16(fp)
   20370:	e1bffd17 	ldw	r6,-12(fp)
   20374:	00203940 	call	20394 <oc_i2c_init_ex>
   20378:	e0bffe15 	stw	r2,-8(fp)

	return bSuccess;
   2037c:	e0bffe17 	ldw	r2,-8(fp)
}
   20380:	e037883a 	mov	sp,fp
   20384:	dfc00117 	ldw	ra,4(sp)
   20388:	df000017 	ldw	fp,0(sp)
   2038c:	dec00204 	addi	sp,sp,8
   20390:	f800283a 	ret

00020394 <oc_i2c_init_ex>:

bool  oc_i2c_init_ex(alt_32 i2c_base, alt_32 ref_clk, alt_32 i2c_clk)
{
   20394:	defff604 	addi	sp,sp,-40
   20398:	dfc00915 	stw	ra,36(sp)
   2039c:	df000815 	stw	fp,32(sp)
   203a0:	df000804 	addi	fp,sp,32
   203a4:	e13ffd15 	stw	r4,-12(fp)
   203a8:	e17ffe15 	stw	r5,-8(fp)
   203ac:	e1bfff15 	stw	r6,-4(fp)
	bool bSuccess=TRUE;
   203b0:	00800044 	movi	r2,1
   203b4:	e0bff815 	stw	r2,-32(fp)
	alt_32 read_data;
	alt_32 prescale;
	alt_u8 prescale_high;
	alt_u8 prescale_low;
	const alt_u8 ControlValue = 0x80;
   203b8:	00bfe004 	movi	r2,-128
   203bc:	e0bff905 	stb	r2,-28(fp)

    // I2c sysclock =50M hz
	// i2c scl max 400k
	//scl =sysclock/(prescale*5)
	prescale = (ref_clk/(5*i2c_clk))-1;
   203c0:	e0bfff17 	ldw	r2,-4(fp)
   203c4:	10800164 	muli	r2,r2,5
   203c8:	e13ffe17 	ldw	r4,-8(fp)
   203cc:	100b883a 	mov	r5,r2
   203d0:	0023df00 	call	23df0 <__divsi3>
   203d4:	10bfffc4 	addi	r2,r2,-1
   203d8:	e0bffa15 	stw	r2,-24(fp)
	prescale_low = prescale & 0xFF;
   203dc:	e0bffa17 	ldw	r2,-24(fp)
   203e0:	e0bffb05 	stb	r2,-20(fp)
	prescale_high = (prescale >> 8) & 0xFF;
   203e4:	e0bffa17 	ldw	r2,-24(fp)
   203e8:	1005d23a 	srai	r2,r2,8
   203ec:	e0bffb45 	stb	r2,-19(fp)

   IOWR(i2c_base, 0, prescale_low);//write low byte of  prescale (reg 0)
   203f0:	e0bffd17 	ldw	r2,-12(fp)
   203f4:	e0fffb03 	ldbu	r3,-20(fp)
   203f8:	10c00035 	stwio	r3,0(r2)
   IOWR(i2c_base, 1, prescale_high);//write high byte of prescale (reg 1)
   203fc:	e0bffd17 	ldw	r2,-12(fp)
   20400:	10800104 	addi	r2,r2,4
   20404:	1007883a 	mov	r3,r2
   20408:	e0bffb43 	ldbu	r2,-19(fp)
   2040c:	18800035 	stwio	r2,0(r3)

   //enable the I2C core, but disable the IRQ
   IOWR( i2c_base, 2, ControlValue);
   20410:	e0bffd17 	ldw	r2,-12(fp)
   20414:	10800204 	addi	r2,r2,8
   20418:	1007883a 	mov	r3,r2
   2041c:	e0bff903 	ldbu	r2,-28(fp)
   20420:	18800035 	stwio	r2,0(r3)


    // check prescale low byte
    if (bSuccess){
   20424:	e0bff817 	ldw	r2,-32(fp)
   20428:	10000826 	beq	r2,zero,2044c <oc_i2c_init_ex+0xb8>
    	read_data =IORD(i2c_base, 0);
   2042c:	e0bffd17 	ldw	r2,-12(fp)
   20430:	10800037 	ldwio	r2,0(r2)
   20434:	e0bffc15 	stw	r2,-16(fp)
        if( (read_data & 0x00ff) != prescale_low ){
   20438:	e0bffc17 	ldw	r2,-16(fp)
   2043c:	10c03fcc 	andi	r3,r2,255
   20440:	e0bffb03 	ldbu	r2,-20(fp)
   20444:	18800126 	beq	r3,r2,2044c <oc_i2c_init_ex+0xb8>
            bSuccess = FALSE;
   20448:	e03ff815 	stw	zero,-32(fp)
        }
    }

    // check prescale high byte
    if (bSuccess){
   2044c:	e0bff817 	ldw	r2,-32(fp)
   20450:	10000926 	beq	r2,zero,20478 <oc_i2c_init_ex+0xe4>
    	read_data =IORD(i2c_base, 1);
   20454:	e0bffd17 	ldw	r2,-12(fp)
   20458:	10800104 	addi	r2,r2,4
   2045c:	10800037 	ldwio	r2,0(r2)
   20460:	e0bffc15 	stw	r2,-16(fp)
        if( (read_data & 0x00ff) != prescale_high ){
   20464:	e0bffc17 	ldw	r2,-16(fp)
   20468:	10c03fcc 	andi	r3,r2,255
   2046c:	e0bffb43 	ldbu	r2,-19(fp)
   20470:	18800126 	beq	r3,r2,20478 <oc_i2c_init_ex+0xe4>
            bSuccess = FALSE;
   20474:	e03ff815 	stw	zero,-32(fp)
        }
    }

    // check control
    if (bSuccess){
   20478:	e0bff817 	ldw	r2,-32(fp)
   2047c:	10000926 	beq	r2,zero,204a4 <oc_i2c_init_ex+0x110>
    	read_data =IORD(i2c_base, 2);
   20480:	e0bffd17 	ldw	r2,-12(fp)
   20484:	10800204 	addi	r2,r2,8
   20488:	10800037 	ldwio	r2,0(r2)
   2048c:	e0bffc15 	stw	r2,-16(fp)
        if( (read_data & 0x00ff) != ControlValue ){
   20490:	e0bffc17 	ldw	r2,-16(fp)
   20494:	10c03fcc 	andi	r3,r2,255
   20498:	e0bff903 	ldbu	r2,-28(fp)
   2049c:	18800126 	beq	r3,r2,204a4 <oc_i2c_init_ex+0x110>
            bSuccess = FALSE;
   204a0:	e03ff815 	stw	zero,-32(fp)
        }
    }

   if (bSuccess){
   204a4:	e0bff817 	ldw	r2,-32(fp)
   204a8:	1000031e 	bne	r2,zero,204b8 <oc_i2c_init_ex+0x124>
//       printf("\nI2C core is enabled! \r\n");
   }
   else
       printf("\nI2C core is not enabled successfully! \r\n");
   204ac:	010000f4 	movhi	r4,3
   204b0:	21109504 	addi	r4,r4,16980
   204b4:	0025f0c0 	call	25f0c <puts>

   return bSuccess;
   204b8:	e0bff817 	ldw	r2,-32(fp)

}
   204bc:	e037883a 	mov	sp,fp
   204c0:	dfc00117 	ldw	ra,4(sp)
   204c4:	df000017 	ldw	fp,0(sp)
   204c8:	dec00204 	addi	sp,sp,8
   204cc:	f800283a 	ret

000204d0 <oc_i2c_uninit>:

bool oc_i2c_uninit(alt_32 i2c_base)
{
   204d0:	defffa04 	addi	sp,sp,-24
   204d4:	dfc00515 	stw	ra,20(sp)
   204d8:	df000415 	stw	fp,16(sp)
   204dc:	df000404 	addi	fp,sp,16
   204e0:	e13fff15 	stw	r4,-4(fp)
	bool bSuccess=TRUE;
   204e4:	00800044 	movi	r2,1
   204e8:	e0bffc15 	stw	r2,-16(fp)
	alt_32 read_data;
	const alt_u8 ControlValue = 0x00;
   204ec:	e03ffd05 	stb	zero,-12(fp)

    IOWR( i2c_base, 2, ControlValue);
   204f0:	e0bfff17 	ldw	r2,-4(fp)
   204f4:	10800204 	addi	r2,r2,8
   204f8:	1007883a 	mov	r3,r2
   204fc:	e0bffd03 	ldbu	r2,-12(fp)
   20500:	18800035 	stwio	r2,0(r3)
   	read_data =IORD(i2c_base, 2);
   20504:	e0bfff17 	ldw	r2,-4(fp)
   20508:	10800204 	addi	r2,r2,8
   2050c:	10800037 	ldwio	r2,0(r2)
   20510:	e0bffe15 	stw	r2,-8(fp)
	if( (read_data & 0x00ff) != ControlValue ){
   20514:	e0bffe17 	ldw	r2,-8(fp)
   20518:	10c03fcc 	andi	r3,r2,255
   2051c:	e0bffd03 	ldbu	r2,-12(fp)
   20520:	18800126 	beq	r3,r2,20528 <oc_i2c_uninit+0x58>
            bSuccess = FALSE;
   20524:	e03ffc15 	stw	zero,-16(fp)
    }

   if (bSuccess){
   20528:	e0bffc17 	ldw	r2,-16(fp)
   2052c:	1000031e 	bne	r2,zero,2053c <oc_i2c_uninit+0x6c>
//       printf("\I2C core  is disabled! \r\n");
   }
   else
       printf("\I2C core is failed to disable! \r\n");
   20530:	010000f4 	movhi	r4,3
   20534:	2110a004 	addi	r4,r4,17024
   20538:	0025f0c0 	call	25f0c <puts>

   return bSuccess;
   2053c:	e0bffc17 	ldw	r2,-16(fp)

}
   20540:	e037883a 	mov	sp,fp
   20544:	dfc00117 	ldw	ra,4(sp)
   20548:	df000017 	ldw	fp,0(sp)
   2054c:	dec00204 	addi	sp,sp,8
   20550:	f800283a 	ret

00020554 <ACK_single_check>:




bool  ACK_single_check(alt_32 i2c_base)
{
   20554:	defffb04 	addi	sp,sp,-20
   20558:	dfc00415 	stw	ra,16(sp)
   2055c:	df000315 	stw	fp,12(sp)
   20560:	df000304 	addi	fp,sp,12
   20564:	e13fff15 	stw	r4,-4(fp)
	bool bSuccess=TRUE;
   20568:	00800044 	movi	r2,1
   2056c:	e0bffd15 	stw	r2,-12(fp)
	alt_32 read_data;

    usleep(ACK_SLEEP_TIME);
   20570:	01003e84 	movi	r4,250
   20574:	00322500 	call	32250 <usleep>
    read_data =IORD(i2c_base, 4);
   20578:	e0bfff17 	ldw	r2,-4(fp)
   2057c:	10800404 	addi	r2,r2,16
   20580:	10800037 	ldwio	r2,0(r2)
   20584:	e0bffe15 	stw	r2,-8(fp)
    if(read_data & 0x02)
   20588:	e0bffe17 	ldw	r2,-8(fp)
   2058c:	1080008c 	andi	r2,r2,2
   20590:	10000126 	beq	r2,zero,20598 <ACK_single_check+0x44>
            bSuccess = FALSE;
   20594:	e03ffd15 	stw	zero,-12(fp)
     if (bSuccess){
   20598:	e0bffd17 	ldw	r2,-12(fp)
   2059c:	10000a26 	beq	r2,zero,205c8 <ACK_single_check+0x74>
            usleep(ACK_SLEEP_TIME);
   205a0:	01003e84 	movi	r4,250
   205a4:	00322500 	call	32250 <usleep>
            read_data =IORD(i2c_base, 4);
   205a8:	e0bfff17 	ldw	r2,-4(fp)
   205ac:	10800404 	addi	r2,r2,16
   205b0:	10800037 	ldwio	r2,0(r2)
   205b4:	e0bffe15 	stw	r2,-8(fp)
                if(read_data & 0x80)
   205b8:	e0bffe17 	ldw	r2,-8(fp)
   205bc:	1080200c 	andi	r2,r2,128
   205c0:	10000126 	beq	r2,zero,205c8 <ACK_single_check+0x74>
                    bSuccess = FALSE;
   205c4:	e03ffd15 	stw	zero,-12(fp)
     }
    return bSuccess;
   205c8:	e0bffd17 	ldw	r2,-12(fp)
}
   205cc:	e037883a 	mov	sp,fp
   205d0:	dfc00117 	ldw	ra,4(sp)
   205d4:	df000017 	ldw	fp,0(sp)
   205d8:	dec00204 	addi	sp,sp,8
   205dc:	f800283a 	ret

000205e0 <ACK_check>:


bool  ACK_check(alt_32 i2c_base){
   205e0:	defffb04 	addi	sp,sp,-20
   205e4:	dfc00415 	stw	ra,16(sp)
   205e8:	df000315 	stw	fp,12(sp)
   205ec:	df000304 	addi	fp,sp,12
   205f0:	e13fff15 	stw	r4,-4(fp)
    bool bSuccess = FALSE;
   205f4:	e03ffd15 	stw	zero,-12(fp)
    int i=0;
   205f8:	e03ffe15 	stw	zero,-8(fp)

    while(!bSuccess && i++ < 10){
   205fc:	00000306 	br	2060c <ACK_check+0x2c>
        bSuccess = ACK_single_check(i2c_base);
   20600:	e13fff17 	ldw	r4,-4(fp)
   20604:	00205540 	call	20554 <ACK_single_check>
   20608:	e0bffd15 	stw	r2,-12(fp)

bool  ACK_check(alt_32 i2c_base){
    bool bSuccess = FALSE;
    int i=0;

    while(!bSuccess && i++ < 10){
   2060c:	e0bffd17 	ldw	r2,-12(fp)
   20610:	1000051e 	bne	r2,zero,20628 <ACK_check+0x48>
   20614:	e0bffe17 	ldw	r2,-8(fp)
   20618:	10c00044 	addi	r3,r2,1
   2061c:	e0fffe15 	stw	r3,-8(fp)
   20620:	10800290 	cmplti	r2,r2,10
   20624:	103ff61e 	bne	r2,zero,20600 <__alt_data_end+0xfffe0600>
        bSuccess = ACK_single_check(i2c_base);
    }

    return bSuccess;
   20628:	e0bffd17 	ldw	r2,-12(fp)
}
   2062c:	e037883a 	mov	sp,fp
   20630:	dfc00117 	ldw	ra,4(sp)
   20634:	df000017 	ldw	fp,0(sp)
   20638:	dec00204 	addi	sp,sp,8
   2063c:	f800283a 	ret

00020640 <OC_I2C_Write>:

bool  OC_I2C_Write(alt_32 i2c_base,alt_u8 device_address,alt_u8 sub_address, alt_u8 *pData, int nWriteLength)
{
   20640:	defff904 	addi	sp,sp,-28
   20644:	dfc00615 	stw	ra,24(sp)
   20648:	df000515 	stw	fp,20(sp)
   2064c:	df000504 	addi	fp,sp,20
   20650:	e13ffc15 	stw	r4,-16(fp)
   20654:	2807883a 	mov	r3,r5
   20658:	3005883a 	mov	r2,r6
   2065c:	e1ffff15 	stw	r7,-4(fp)
   20660:	e0fffd05 	stb	r3,-12(fp)
   20664:	e0bffe05 	stb	r2,-8(fp)
    //DWORD reg_data = 0x0;
    int i;

   //set the tx reg audio chip dev address with write bit
   if (!Write32_Data( i2c_base, 3,device_address)){
   20668:	e0bffd03 	ldbu	r2,-12(fp)
   2066c:	e13ffc17 	ldw	r4,-16(fp)
   20670:	014000c4 	movi	r5,3
   20674:	100d883a 	mov	r6,r2
   20678:	002028c0 	call	2028c <Write32_Data>
   2067c:	1000051e 	bne	r2,zero,20694 <OC_I2C_Write+0x54>
       printf("OC_I2C_Write error[0]\r\n");
   20680:	010000f4 	movhi	r4,3
   20684:	2110a904 	addi	r4,r4,17060
   20688:	0025f0c0 	call	25f0c <puts>
       return FALSE;
   2068c:	0005883a 	mov	r2,zero
   20690:	00006606 	br	2082c <OC_I2C_Write+0x1ec>
   }
   //set STA and WR bits(bit7 and bit4)
   if (!Write32_Data( i2c_base, 4,0x90)){
   20694:	e13ffc17 	ldw	r4,-16(fp)
   20698:	01400104 	movi	r5,4
   2069c:	01802404 	movi	r6,144
   206a0:	002028c0 	call	2028c <Write32_Data>
   206a4:	1000051e 	bne	r2,zero,206bc <OC_I2C_Write+0x7c>
       printf("OC_I2C_Write error[1]\r\n");
   206a8:	010000f4 	movhi	r4,3
   206ac:	2110af04 	addi	r4,r4,17084
   206b0:	0025f0c0 	call	25f0c <puts>
       return FALSE;
   206b4:	0005883a 	mov	r2,zero
   206b8:	00005c06 	br	2082c <OC_I2C_Write+0x1ec>
   }

   //wait TIP bit go to 0 to end Tx
    if(!ACK_check( i2c_base)){
   206bc:	e13ffc17 	ldw	r4,-16(fp)
   206c0:	00205e00 	call	205e0 <ACK_check>
   206c4:	1000051e 	bne	r2,zero,206dc <OC_I2C_Write+0x9c>
        printf("OC_I2C_Write error[2]\r\n");
   206c8:	010000f4 	movhi	r4,3
   206cc:	2110b504 	addi	r4,r4,17108
   206d0:	0025f0c0 	call	25f0c <puts>
        return FALSE;
   206d4:	0005883a 	mov	r2,zero
   206d8:	00005406 	br	2082c <OC_I2C_Write+0x1ec>
    }
  // printf("\n receive ACK-device address! \n");

   //set the txr reg data with reg address + 1 data MSB
   if (!Write32_Data( i2c_base, 3,sub_address)){
   206dc:	e0bffe03 	ldbu	r2,-8(fp)
   206e0:	e13ffc17 	ldw	r4,-16(fp)
   206e4:	014000c4 	movi	r5,3
   206e8:	100d883a 	mov	r6,r2
   206ec:	002028c0 	call	2028c <Write32_Data>
   206f0:	1000051e 	bne	r2,zero,20708 <OC_I2C_Write+0xc8>
       printf("OC_I2C_Write error[3]\r\n");
   206f4:	010000f4 	movhi	r4,3
   206f8:	2110bb04 	addi	r4,r4,17132
   206fc:	0025f0c0 	call	25f0c <puts>
       return FALSE;
   20700:	0005883a 	mov	r2,zero
   20704:	00004906 	br	2082c <OC_I2C_Write+0x1ec>
   }

   //set WR bits(bit4)
    if (!Write32_Data( i2c_base, 4,0x10)){
   20708:	e13ffc17 	ldw	r4,-16(fp)
   2070c:	01400104 	movi	r5,4
   20710:	01800404 	movi	r6,16
   20714:	002028c0 	call	2028c <Write32_Data>
   20718:	1000051e 	bne	r2,zero,20730 <OC_I2C_Write+0xf0>
        printf("OC_I2C_Write error[4]\r\n");
   2071c:	010000f4 	movhi	r4,3
   20720:	2110c104 	addi	r4,r4,17156
   20724:	0025f0c0 	call	25f0c <puts>
        return FALSE;
   20728:	0005883a 	mov	r2,zero
   2072c:	00003f06 	br	2082c <OC_I2C_Write+0x1ec>
    }

   //wait TIP bit go to 0 to end Tx
    if(!ACK_check( i2c_base)){
   20730:	e13ffc17 	ldw	r4,-16(fp)
   20734:	00205e00 	call	205e0 <ACK_check>
   20738:	1000051e 	bne	r2,zero,20750 <OC_I2C_Write+0x110>
        printf("OC_I2C_Write error[5]\r\n");
   2073c:	010000f4 	movhi	r4,3
   20740:	2110c704 	addi	r4,r4,17180
   20744:	0025f0c0 	call	25f0c <puts>
        return FALSE;
   20748:	0005883a 	mov	r2,zero
   2074c:	00003706 	br	2082c <OC_I2C_Write+0x1ec>
    }
 //  printf("\n receive ACK-reg address! \n");

#if 1
        for( i=nWriteLength-1;i>=0;i--){
   20750:	e0800217 	ldw	r2,8(fp)
   20754:	10bfffc4 	addi	r2,r2,-1
   20758:	e0bffb15 	stw	r2,-20(fp)
   2075c:	00002406 	br	207f0 <OC_I2C_Write+0x1b0>
        //set the txr reg data with the data
          if (!Write32_Data( i2c_base, 3,*(pData+i))){
   20760:	e0bffb17 	ldw	r2,-20(fp)
   20764:	e0ffff17 	ldw	r3,-4(fp)
   20768:	1885883a 	add	r2,r3,r2
   2076c:	10800003 	ldbu	r2,0(r2)
   20770:	10803fcc 	andi	r2,r2,255
   20774:	e13ffc17 	ldw	r4,-16(fp)
   20778:	014000c4 	movi	r5,3
   2077c:	100d883a 	mov	r6,r2
   20780:	002028c0 	call	2028c <Write32_Data>
   20784:	1000051e 	bne	r2,zero,2079c <OC_I2C_Write+0x15c>
              printf("OC_I2C_Write error[6]\r\n");
   20788:	010000f4 	movhi	r4,3
   2078c:	2110cd04 	addi	r4,r4,17204
   20790:	0025f0c0 	call	25f0c <puts>
              return FALSE;
   20794:	0005883a 	mov	r2,zero
   20798:	00002406 	br	2082c <OC_I2C_Write+0x1ec>
          }

        //set STO and WR bits(bit7 and bit4)
         if (!Write32_Data( i2c_base, 4,0x10)){
   2079c:	e13ffc17 	ldw	r4,-16(fp)
   207a0:	01400104 	movi	r5,4
   207a4:	01800404 	movi	r6,16
   207a8:	002028c0 	call	2028c <Write32_Data>
   207ac:	1000051e 	bne	r2,zero,207c4 <OC_I2C_Write+0x184>
             printf("OC_I2C_Write error[7]\r\n");
   207b0:	010000f4 	movhi	r4,3
   207b4:	2110d304 	addi	r4,r4,17228
   207b8:	0025f0c0 	call	25f0c <puts>
              return FALSE;
   207bc:	0005883a 	mov	r2,zero
   207c0:	00001a06 	br	2082c <OC_I2C_Write+0x1ec>
         }

         //wait TIP bit go to 0 to end Tx
          if(!ACK_check( i2c_base)){
   207c4:	e13ffc17 	ldw	r4,-16(fp)
   207c8:	00205e00 	call	205e0 <ACK_check>
   207cc:	1000051e 	bne	r2,zero,207e4 <OC_I2C_Write+0x1a4>
              printf("OC_I2C_Write error[8]\r\n");
   207d0:	010000f4 	movhi	r4,3
   207d4:	2110d904 	addi	r4,r4,17252
   207d8:	0025f0c0 	call	25f0c <puts>
              return FALSE;
   207dc:	0005883a 	mov	r2,zero
   207e0:	00001206 	br	2082c <OC_I2C_Write+0x1ec>
        return FALSE;
    }
 //  printf("\n receive ACK-reg address! \n");

#if 1
        for( i=nWriteLength-1;i>=0;i--){
   207e4:	e0bffb17 	ldw	r2,-20(fp)
   207e8:	10bfffc4 	addi	r2,r2,-1
   207ec:	e0bffb15 	stw	r2,-20(fp)
   207f0:	e0bffb17 	ldw	r2,-20(fp)
   207f4:	103fda0e 	bge	r2,zero,20760 <__alt_data_end+0xfffe0760>
   //wait TIP bit go to 0 to end Tx
    if(!ACK_check( i2c_base))
        return false;
#endif

     if (!Write32_Data( i2c_base, 4,0x40)){
   207f8:	e13ffc17 	ldw	r4,-16(fp)
   207fc:	01400104 	movi	r5,4
   20800:	01801004 	movi	r6,64
   20804:	002028c0 	call	2028c <Write32_Data>
   20808:	1000051e 	bne	r2,zero,20820 <OC_I2C_Write+0x1e0>
         printf("OC_I2C_Write error[9]\r\n");
   2080c:	010000f4 	movhi	r4,3
   20810:	2110df04 	addi	r4,r4,17276
   20814:	0025f0c0 	call	25f0c <puts>
         return FALSE;
   20818:	0005883a 	mov	r2,zero
   2081c:	00000306 	br	2082c <OC_I2C_Write+0x1ec>
     }
         //Sleep(10);
     //OS_msleep(1);
     usleep(SLEEP_TIME);
   20820:	01003e84 	movi	r4,250
   20824:	00322500 	call	32250 <usleep>

  // printf("\n receive ACK-data! \n");

     return TRUE;
   20828:	00800044 	movi	r2,1

}
   2082c:	e037883a 	mov	sp,fp
   20830:	dfc00117 	ldw	ra,4(sp)
   20834:	df000017 	ldw	fp,0(sp)
   20838:	dec00204 	addi	sp,sp,8
   2083c:	f800283a 	ret

00020840 <ACK_judge_for_read>:


bool ACK_judge_for_read(alt_32 i2c_base)
{
   20840:	defffb04 	addi	sp,sp,-20
   20844:	dfc00415 	stw	ra,16(sp)
   20848:	df000315 	stw	fp,12(sp)
   2084c:	df000304 	addi	fp,sp,12
   20850:	e13fff15 	stw	r4,-4(fp)
	bool bSuccess;
    alt_32 this_data;

   // OS_msleep( SLEEP_TIME );
     usleep(ACK_SLEEP_TIME);
   20854:	01003e84 	movi	r4,250
   20858:	00322500 	call	32250 <usleep>
    //   while(this_data & 0x02)
//   {
//      this_data =  Read32_Data ( hPCIe, i2c_base, 4);
//   }
    bSuccess =  Read32_Data ( i2c_base, 4, &this_data);
   2085c:	e0bffe04 	addi	r2,fp,-8
   20860:	e13fff17 	ldw	r4,-4(fp)
   20864:	01400104 	movi	r5,4
   20868:	100d883a 	mov	r6,r2
   2086c:	00202e40 	call	202e4 <Read32_Data>
   20870:	e0bffd15 	stw	r2,-12(fp)
    if (bSuccess){
   20874:	e0bffd17 	ldw	r2,-12(fp)
   20878:	10000426 	beq	r2,zero,2088c <ACK_judge_for_read+0x4c>
        if(this_data & 0x02)
   2087c:	e0bffe17 	ldw	r2,-8(fp)
   20880:	1080008c 	andi	r2,r2,2
   20884:	10000126 	beq	r2,zero,2088c <ACK_judge_for_read+0x4c>
            bSuccess = FALSE;
   20888:	e03ffd15 	stw	zero,-12(fp)
    }
   //wait the rx ACK signal 0-valid

    return bSuccess;
   2088c:	e0bffd17 	ldw	r2,-12(fp)

}
   20890:	e037883a 	mov	sp,fp
   20894:	dfc00117 	ldw	ra,4(sp)
   20898:	df000017 	ldw	fp,0(sp)
   2089c:	dec00204 	addi	sp,sp,8
   208a0:	f800283a 	ret

000208a4 <OC_I2C_Read>:

bool  OC_I2C_Read(alt_32 i2c_base,alt_u8 device_address,alt_u8 sub_address, alt_u8 *pData8, int nReadLength){
   208a4:	defff804 	addi	sp,sp,-32
   208a8:	dfc00715 	stw	ra,28(sp)
   208ac:	df000615 	stw	fp,24(sp)
   208b0:	df000604 	addi	fp,sp,24
   208b4:	e13ffc15 	stw	r4,-16(fp)
   208b8:	2807883a 	mov	r3,r5
   208bc:	3005883a 	mov	r2,r6
   208c0:	e1ffff15 	stw	r7,-4(fp)
   208c4:	e0fffd05 	stb	r3,-12(fp)
   208c8:	e0bffe05 	stb	r2,-8(fp)
    //BYTE data = 0x0;
    alt_32 Data32;
    int i;

   //set the tx reg audio chip dev address with write bit
   IOWR( i2c_base, 3,device_address);
   208cc:	e0bffc17 	ldw	r2,-16(fp)
   208d0:	10800304 	addi	r2,r2,12
   208d4:	1007883a 	mov	r3,r2
   208d8:	e0bffd03 	ldbu	r2,-12(fp)
   208dc:	18800035 	stwio	r2,0(r3)
   //set STA and WR bits(bit7 and bit4)
   IOWR( i2c_base, 4,0x90);
   208e0:	e0bffc17 	ldw	r2,-16(fp)
   208e4:	10800404 	addi	r2,r2,16
   208e8:	1007883a 	mov	r3,r2
   208ec:	00802404 	movi	r2,144
   208f0:	18800035 	stwio	r2,0(r3)
   //wait TIP bit go to 0 to end Tx
   if (!ACK_check( i2c_base)){
   208f4:	e13ffc17 	ldw	r4,-16(fp)
   208f8:	00205e00 	call	205e0 <ACK_check>
   208fc:	1000051e 	bne	r2,zero,20914 <OC_I2C_Read+0x70>
       printf("OC_I2C_Read error[2]\r\n");
   20900:	010000f4 	movhi	r4,3
   20904:	2110e504 	addi	r4,r4,17300
   20908:	0025f0c0 	call	25f0c <puts>
       return FALSE;
   2090c:	0005883a 	mov	r2,zero
   20910:	00005206 	br	20a5c <OC_I2C_Read+0x1b8>
   }
   IOWR(i2c_base, 3,sub_address);
   20914:	e0bffc17 	ldw	r2,-16(fp)
   20918:	10800304 	addi	r2,r2,12
   2091c:	1007883a 	mov	r3,r2
   20920:	e0bffe03 	ldbu	r2,-8(fp)
   20924:	18800035 	stwio	r2,0(r3)

   //set WR bits(bit4)
   IOWR( i2c_base, 4,0x10);
   20928:	e0bffc17 	ldw	r2,-16(fp)
   2092c:	10800404 	addi	r2,r2,16
   20930:	1007883a 	mov	r3,r2
   20934:	00800404 	movi	r2,16
   20938:	18800035 	stwio	r2,0(r3)
   //wait TIP bit go to 0 to end Tx
    if (!ACK_check( i2c_base)){
   2093c:	e13ffc17 	ldw	r4,-16(fp)
   20940:	00205e00 	call	205e0 <ACK_check>
   20944:	1000051e 	bne	r2,zero,2095c <OC_I2C_Read+0xb8>
        printf("OC_I2C_Read error[5]\r\n");
   20948:	010000f4 	movhi	r4,3
   2094c:	2110eb04 	addi	r4,r4,17324
   20950:	0025f0c0 	call	25f0c <puts>
        return FALSE;
   20954:	0005883a 	mov	r2,zero
   20958:	00004006 	br	20a5c <OC_I2C_Read+0x1b8>
  // printf("\n read receive ACK-reg address! \n");

   //read
    //set the tx reg audio chip dev address with read bit 1

    IOWR(i2c_base, 3,device_address|0x01);
   2095c:	e0bffc17 	ldw	r2,-16(fp)
   20960:	10800304 	addi	r2,r2,12
   20964:	1007883a 	mov	r3,r2
   20968:	e0bffd03 	ldbu	r2,-12(fp)
   2096c:	10800054 	ori	r2,r2,1
   20970:	10803fcc 	andi	r2,r2,255
   20974:	18800035 	stwio	r2,0(r3)

   //set STA and WR bits(bit7 and bit4)
    IOWR( i2c_base, 4,0x90);
   20978:	e0bffc17 	ldw	r2,-16(fp)
   2097c:	10800404 	addi	r2,r2,16
   20980:	1007883a 	mov	r3,r2
   20984:	00802404 	movi	r2,144
   20988:	18800035 	stwio	r2,0(r3)

   //wait TIP bit go to 0 to end Tx
    if (!ACK_check( i2c_base)){
   2098c:	e13ffc17 	ldw	r4,-16(fp)
   20990:	00205e00 	call	205e0 <ACK_check>
   20994:	1000051e 	bne	r2,zero,209ac <OC_I2C_Read+0x108>
        printf("OC_I2C_Read error[8]\r\n");
   20998:	010000f4 	movhi	r4,3
   2099c:	2110f104 	addi	r4,r4,17348
   209a0:	0025f0c0 	call	25f0c <puts>
        return FALSE;
   209a4:	0005883a 	mov	r2,zero
   209a8:	00002c06 	br	20a5c <OC_I2C_Read+0x1b8>
    }

    for(i=0;i<nReadLength;i++){
   209ac:	e03ffa15 	stw	zero,-24(fp)
   209b0:	00001f06 	br	20a30 <OC_I2C_Read+0x18c>
  // printf("\n read receive ACK-device address(read)! \n");
   //set the RD and ACK bit(bit5 and bit3)
    	IOWR( i2c_base, 4,((i+1) == nReadLength)?0x28:0x20);
   209b4:	e0bffc17 	ldw	r2,-16(fp)
   209b8:	10800404 	addi	r2,r2,16
   209bc:	1009883a 	mov	r4,r2
   209c0:	e0bffa17 	ldw	r2,-24(fp)
   209c4:	10c00044 	addi	r3,r2,1
   209c8:	e0800217 	ldw	r2,8(fp)
   209cc:	1880021e 	bne	r3,r2,209d8 <OC_I2C_Read+0x134>
   209d0:	00800a04 	movi	r2,40
   209d4:	00000106 	br	209dc <OC_I2C_Read+0x138>
   209d8:	00800804 	movi	r2,32
   209dc:	20800035 	stwio	r2,0(r4)

        if (!ACK_judge_for_read( i2c_base)){
   209e0:	e13ffc17 	ldw	r4,-16(fp)
   209e4:	00208400 	call	20840 <ACK_judge_for_read>
   209e8:	1000051e 	bne	r2,zero,20a00 <OC_I2C_Read+0x15c>
            printf("OC_I2C_Read error[10]\r\n");
   209ec:	010000f4 	movhi	r4,3
   209f0:	2110f704 	addi	r4,r4,17372
   209f4:	0025f0c0 	call	25f0c <puts>
            return FALSE;
   209f8:	0005883a 	mov	r2,zero
   209fc:	00001706 	br	20a5c <OC_I2C_Read+0x1b8>
        }
   // printf("\n read receive ACK-device address(read)! \n");

        Data32=IORD( i2c_base, 3);
   20a00:	e0bffc17 	ldw	r2,-16(fp)
   20a04:	10800304 	addi	r2,r2,12
   20a08:	10800037 	ldwio	r2,0(r2)
   20a0c:	e0bffb15 	stw	r2,-20(fp)
        *(pData8+i) =  Data32 & 0xff;
   20a10:	e0bffa17 	ldw	r2,-24(fp)
   20a14:	e0ffff17 	ldw	r3,-4(fp)
   20a18:	1885883a 	add	r2,r3,r2
   20a1c:	e0fffb17 	ldw	r3,-20(fp)
   20a20:	10c00005 	stb	r3,0(r2)
    if (!ACK_check( i2c_base)){
        printf("OC_I2C_Read error[8]\r\n");
        return FALSE;
    }

    for(i=0;i<nReadLength;i++){
   20a24:	e0bffa17 	ldw	r2,-24(fp)
   20a28:	10800044 	addi	r2,r2,1
   20a2c:	e0bffa15 	stw	r2,-24(fp)
   20a30:	e0fffa17 	ldw	r3,-24(fp)
   20a34:	e0800217 	ldw	r2,8(fp)
   20a38:	18bfde16 	blt	r3,r2,209b4 <__alt_data_end+0xfffe09b4>

        Data32=IORD( i2c_base, 3);
        *(pData8+i) =  Data32 & 0xff;
    }

    IOWR( i2c_base, 4,0x40);
   20a3c:	e0bffc17 	ldw	r2,-16(fp)
   20a40:	10800404 	addi	r2,r2,16
   20a44:	1007883a 	mov	r3,r2
   20a48:	00801004 	movi	r2,64
   20a4c:	18800035 	stwio	r2,0(r3)

  // Sleep(10);
   //OS_msleep(1);
    usleep(SLEEP_TIME);
   20a50:	01003e84 	movi	r4,250
   20a54:	00322500 	call	32250 <usleep>
 //  printf(" Read  [%02X] = %02Xh\r\n", sub_address, data);


   return TRUE;
   20a58:	00800044 	movi	r2,1

}
   20a5c:	e037883a 	mov	sp,fp
   20a60:	dfc00117 	ldw	ra,4(sp)
   20a64:	df000017 	ldw	fp,0(sp)
   20a68:	dec00204 	addi	sp,sp,8
   20a6c:	f800283a 	ret

00020a70 <OC_I2C_Read_Continue>:


bool  OC_I2C_Read_Continue(alt_32 i2c_base,alt_u8 device_address, alt_u8 *pData8, int nReadLength){
   20a70:	defff804 	addi	sp,sp,-32
   20a74:	dfc00715 	stw	ra,28(sp)
   20a78:	df000615 	stw	fp,24(sp)
   20a7c:	df000604 	addi	fp,sp,24
   20a80:	e13ffc15 	stw	r4,-16(fp)
   20a84:	2805883a 	mov	r2,r5
   20a88:	e1bffe15 	stw	r6,-8(fp)
   20a8c:	e1ffff15 	stw	r7,-4(fp)
   20a90:	e0bffd05 	stb	r2,-12(fp)
	int i;
	alt_u32 Data32;

    IOWR(i2c_base, 3,device_address|0x01);
   20a94:	e0bffc17 	ldw	r2,-16(fp)
   20a98:	10800304 	addi	r2,r2,12
   20a9c:	1007883a 	mov	r3,r2
   20aa0:	e0bffd03 	ldbu	r2,-12(fp)
   20aa4:	10800054 	ori	r2,r2,1
   20aa8:	10803fcc 	andi	r2,r2,255
   20aac:	18800035 	stwio	r2,0(r3)

   //set STA and WR bits(bit7 and bit4)
    IOWR( i2c_base, 4,0x90);
   20ab0:	e0bffc17 	ldw	r2,-16(fp)
   20ab4:	10800404 	addi	r2,r2,16
   20ab8:	1007883a 	mov	r3,r2
   20abc:	00802404 	movi	r2,144
   20ac0:	18800035 	stwio	r2,0(r3)
//usleep(5*1000);
   //wait TIP bit go to 0 to end Tx
    if (!ACK_check( i2c_base)){
   20ac4:	e13ffc17 	ldw	r4,-16(fp)
   20ac8:	00205e00 	call	205e0 <ACK_check>
   20acc:	1000051e 	bne	r2,zero,20ae4 <OC_I2C_Read_Continue+0x74>
        printf("OC_I2C_Read error[8]\r\n");
   20ad0:	010000f4 	movhi	r4,3
   20ad4:	2110f104 	addi	r4,r4,17348
   20ad8:	0025f0c0 	call	25f0c <puts>
        return FALSE;
   20adc:	0005883a 	mov	r2,zero
   20ae0:	00002c06 	br	20b94 <OC_I2C_Read_Continue+0x124>
    }

    for(i=0;i<nReadLength;i++){
   20ae4:	e03ffa15 	stw	zero,-24(fp)
   20ae8:	00001f06 	br	20b68 <OC_I2C_Read_Continue+0xf8>
  // printf("\n read receive ACK-device address(read)! \n");
   //set the RD and ACK bit(bit5 and bit3)
    	IOWR( i2c_base, 4,((i+1) == nReadLength)?0x28:0x20);
   20aec:	e0bffc17 	ldw	r2,-16(fp)
   20af0:	10800404 	addi	r2,r2,16
   20af4:	1009883a 	mov	r4,r2
   20af8:	e0bffa17 	ldw	r2,-24(fp)
   20afc:	10c00044 	addi	r3,r2,1
   20b00:	e0bfff17 	ldw	r2,-4(fp)
   20b04:	1880021e 	bne	r3,r2,20b10 <OC_I2C_Read_Continue+0xa0>
   20b08:	00800a04 	movi	r2,40
   20b0c:	00000106 	br	20b14 <OC_I2C_Read_Continue+0xa4>
   20b10:	00800804 	movi	r2,32
   20b14:	20800035 	stwio	r2,0(r4)

        if (!ACK_judge_for_read( i2c_base)){
   20b18:	e13ffc17 	ldw	r4,-16(fp)
   20b1c:	00208400 	call	20840 <ACK_judge_for_read>
   20b20:	1000051e 	bne	r2,zero,20b38 <OC_I2C_Read_Continue+0xc8>
            printf("OC_I2C_Read error[10]\r\n");
   20b24:	010000f4 	movhi	r4,3
   20b28:	2110f704 	addi	r4,r4,17372
   20b2c:	0025f0c0 	call	25f0c <puts>
            return FALSE;
   20b30:	0005883a 	mov	r2,zero
   20b34:	00001706 	br	20b94 <OC_I2C_Read_Continue+0x124>
        }
   // printf("\n read receive ACK-device address(read)! \n");

        Data32=IORD( i2c_base, 3);
   20b38:	e0bffc17 	ldw	r2,-16(fp)
   20b3c:	10800304 	addi	r2,r2,12
   20b40:	10800037 	ldwio	r2,0(r2)
   20b44:	e0bffb15 	stw	r2,-20(fp)
        *(pData8+i) =  Data32 & 0xff;
   20b48:	e0bffa17 	ldw	r2,-24(fp)
   20b4c:	e0fffe17 	ldw	r3,-8(fp)
   20b50:	1885883a 	add	r2,r3,r2
   20b54:	e0fffb17 	ldw	r3,-20(fp)
   20b58:	10c00005 	stb	r3,0(r2)
    if (!ACK_check( i2c_base)){
        printf("OC_I2C_Read error[8]\r\n");
        return FALSE;
    }

    for(i=0;i<nReadLength;i++){
   20b5c:	e0bffa17 	ldw	r2,-24(fp)
   20b60:	10800044 	addi	r2,r2,1
   20b64:	e0bffa15 	stw	r2,-24(fp)
   20b68:	e0fffa17 	ldw	r3,-24(fp)
   20b6c:	e0bfff17 	ldw	r2,-4(fp)
   20b70:	18bfde16 	blt	r3,r2,20aec <__alt_data_end+0xfffe0aec>

        Data32=IORD( i2c_base, 3);
        *(pData8+i) =  Data32 & 0xff;
    }

    IOWR( i2c_base, 4,0x40);
   20b74:	e0bffc17 	ldw	r2,-16(fp)
   20b78:	10800404 	addi	r2,r2,16
   20b7c:	1007883a 	mov	r3,r2
   20b80:	00801004 	movi	r2,64
   20b84:	18800035 	stwio	r2,0(r3)

  // Sleep(10);
   //OS_msleep(1);
    usleep(SLEEP_TIME);
   20b88:	01003e84 	movi	r4,250
   20b8c:	00322500 	call	32250 <usleep>
 //  printf(" Read  [%02X] = %02Xh\r\n", sub_address, data);


   return TRUE;
   20b90:	00800044 	movi	r2,1

}
   20b94:	e037883a 	mov	sp,fp
   20b98:	dfc00117 	ldw	ra,4(sp)
   20b9c:	df000017 	ldw	fp,0(sp)
   20ba0:	dec00204 	addi	sp,sp,8
   20ba4:	f800283a 	ret

00020ba8 <OC_I2CL_Write>:


//  size > 2Kb
bool  OC_I2CL_Write(alt_32 i2c_base,alt_u8 device_address,alt_u16 sub_address,alt_u8 *pData, int nWriteLength)
    {
   20ba8:	defff804 	addi	sp,sp,-32
   20bac:	dfc00715 	stw	ra,28(sp)
   20bb0:	df000615 	stw	fp,24(sp)
   20bb4:	df000604 	addi	fp,sp,24
   20bb8:	e13ffc15 	stw	r4,-16(fp)
   20bbc:	2807883a 	mov	r3,r5
   20bc0:	3005883a 	mov	r2,r6
   20bc4:	e1ffff15 	stw	r7,-4(fp)
   20bc8:	e0fffd05 	stb	r3,-12(fp)
   20bcc:	e0bffe0d 	sth	r2,-8(fp)
    //DWORD reg_data = 0x0;
	alt_u8 AddrHigh, AddrLow;
    //int count= 0;

    AddrHigh = (sub_address >> 8) & 0xFF;
   20bd0:	e0bffe0b 	ldhu	r2,-8(fp)
   20bd4:	1004d23a 	srli	r2,r2,8
   20bd8:	e0bffb05 	stb	r2,-20(fp)
    AddrLow  = sub_address & 0xFF;
   20bdc:	e0bffe0b 	ldhu	r2,-8(fp)
   20be0:	e0bffb45 	stb	r2,-19(fp)

    int i;

    //set the tx reg audio chip dev address with write bit
   if (!Write32_Data( i2c_base, 3,device_address))
   20be4:	e0bffd03 	ldbu	r2,-12(fp)
   20be8:	e13ffc17 	ldw	r4,-16(fp)
   20bec:	014000c4 	movi	r5,3
   20bf0:	100d883a 	mov	r6,r2
   20bf4:	002028c0 	call	2028c <Write32_Data>
   20bf8:	1000021e 	bne	r2,zero,20c04 <OC_I2CL_Write+0x5c>
       return FALSE;
   20bfc:	0005883a 	mov	r2,zero
   20c00:	00006806 	br	20da4 <OC_I2CL_Write+0x1fc>
   //set STA and WR bits(bit7 and bit4)
   if (!Write32_Data( i2c_base, 4,0x90))//0x90
   20c04:	e13ffc17 	ldw	r4,-16(fp)
   20c08:	01400104 	movi	r5,4
   20c0c:	01802404 	movi	r6,144
   20c10:	002028c0 	call	2028c <Write32_Data>
   20c14:	1000021e 	bne	r2,zero,20c20 <OC_I2CL_Write+0x78>
       return FALSE;
   20c18:	0005883a 	mov	r2,zero
   20c1c:	00006106 	br	20da4 <OC_I2CL_Write+0x1fc>

   //wait TIP bit go to 0 to end Tx
    if(!ACK_check( i2c_base)){
   20c20:	e13ffc17 	ldw	r4,-16(fp)
   20c24:	00205e00 	call	205e0 <ACK_check>
   20c28:	1000051e 	bne	r2,zero,20c40 <OC_I2CL_Write+0x98>
        printf("OC_I2CL_Write error[0]\r\n");
   20c2c:	010000f4 	movhi	r4,3
   20c30:	2110fd04 	addi	r4,r4,17396
   20c34:	0025f0c0 	call	25f0c <puts>
        return FALSE;
   20c38:	0005883a 	mov	r2,zero
   20c3c:	00005906 	br	20da4 <OC_I2CL_Write+0x1fc>
  // printf("\n receive ACK-device address! \n");

   //set the txr reg data with reg address + 1 data MSB
 //  reg_data  = (sub_address << 1) & 0xFE;
   //reg_data |= ((data >> 8) & 0x01);
   if (!Write32_Data( i2c_base, 3,AddrHigh))//reg_data&0xff);
   20c40:	e0bffb03 	ldbu	r2,-20(fp)
   20c44:	e13ffc17 	ldw	r4,-16(fp)
   20c48:	014000c4 	movi	r5,3
   20c4c:	100d883a 	mov	r6,r2
   20c50:	002028c0 	call	2028c <Write32_Data>
   20c54:	1000021e 	bne	r2,zero,20c60 <OC_I2CL_Write+0xb8>
       return FALSE;
   20c58:	0005883a 	mov	r2,zero
   20c5c:	00005106 	br	20da4 <OC_I2CL_Write+0x1fc>

   //set WR bits(bit4)
    if (!Write32_Data( i2c_base, 4,0x10))
   20c60:	e13ffc17 	ldw	r4,-16(fp)
   20c64:	01400104 	movi	r5,4
   20c68:	01800404 	movi	r6,16
   20c6c:	002028c0 	call	2028c <Write32_Data>
   20c70:	1000021e 	bne	r2,zero,20c7c <OC_I2CL_Write+0xd4>
        return FALSE;
   20c74:	0005883a 	mov	r2,zero
   20c78:	00004a06 	br	20da4 <OC_I2CL_Write+0x1fc>

   //wait TIP bit go to 0 to end Tx
    if(!ACK_check( i2c_base)){
   20c7c:	e13ffc17 	ldw	r4,-16(fp)
   20c80:	00205e00 	call	205e0 <ACK_check>
   20c84:	1000051e 	bne	r2,zero,20c9c <OC_I2CL_Write+0xf4>
        printf("OC_I2CL_Write error[1]\r\n");
   20c88:	010000f4 	movhi	r4,3
   20c8c:	21110304 	addi	r4,r4,17420
   20c90:	0025f0c0 	call	25f0c <puts>
        return FALSE;
   20c94:	0005883a 	mov	r2,zero
   20c98:	00004206 	br	20da4 <OC_I2CL_Write+0x1fc>
    }
  // printf("\n receive ACK-reg high address! \n");

   //set the txr reg data with reg address + 1 data MSB
   if (!Write32_Data( i2c_base, 3,AddrLow))//reg_data&0xff);
   20c9c:	e0bffb43 	ldbu	r2,-19(fp)
   20ca0:	e13ffc17 	ldw	r4,-16(fp)
   20ca4:	014000c4 	movi	r5,3
   20ca8:	100d883a 	mov	r6,r2
   20cac:	002028c0 	call	2028c <Write32_Data>
   20cb0:	1000021e 	bne	r2,zero,20cbc <OC_I2CL_Write+0x114>
       return FALSE;
   20cb4:	0005883a 	mov	r2,zero
   20cb8:	00003a06 	br	20da4 <OC_I2CL_Write+0x1fc>

   //set WR bits(bit4)
    Write32_Data( i2c_base, 4,0x10);
   20cbc:	e13ffc17 	ldw	r4,-16(fp)
   20cc0:	01400104 	movi	r5,4
   20cc4:	01800404 	movi	r6,16
   20cc8:	002028c0 	call	2028c <Write32_Data>

   //wait TIP bit go to 0 to end Tx
    if(!ACK_check( i2c_base)){
   20ccc:	e13ffc17 	ldw	r4,-16(fp)
   20cd0:	00205e00 	call	205e0 <ACK_check>
   20cd4:	1000051e 	bne	r2,zero,20cec <OC_I2CL_Write+0x144>
        printf("OC_I2CL_Write error[2]\r\n");
   20cd8:	010000f4 	movhi	r4,3
   20cdc:	21110904 	addi	r4,r4,17444
   20ce0:	0025f0c0 	call	25f0c <puts>
        return FALSE;
   20ce4:	0005883a 	mov	r2,zero
   20ce8:	00002e06 	br	20da4 <OC_I2CL_Write+0x1fc>
    }
  //  printf("\n receive ACK-reg low address! \n");

#if 1
    for( i=nWriteLength-1;i>=0;i--){
   20cec:	e0800217 	ldw	r2,8(fp)
   20cf0:	10bfffc4 	addi	r2,r2,-1
   20cf4:	e0bffa15 	stw	r2,-24(fp)
   20cf8:	00001e06 	br	20d74 <OC_I2CL_Write+0x1cc>
        //set the txr reg data with the other data 8 bit LSB
        if (!Write32_Data( i2c_base, 3,*(pData+i)))
   20cfc:	e0bffa17 	ldw	r2,-24(fp)
   20d00:	e0ffff17 	ldw	r3,-4(fp)
   20d04:	1885883a 	add	r2,r3,r2
   20d08:	10800003 	ldbu	r2,0(r2)
   20d0c:	10803fcc 	andi	r2,r2,255
   20d10:	e13ffc17 	ldw	r4,-16(fp)
   20d14:	014000c4 	movi	r5,3
   20d18:	100d883a 	mov	r6,r2
   20d1c:	002028c0 	call	2028c <Write32_Data>
   20d20:	1000021e 	bne	r2,zero,20d2c <OC_I2CL_Write+0x184>
            return FALSE;
   20d24:	0005883a 	mov	r2,zero
   20d28:	00001e06 	br	20da4 <OC_I2CL_Write+0x1fc>

       //set STO and WR bits(bit7 and bit4)
        if (!Write32_Data( i2c_base, 4,0x10))
   20d2c:	e13ffc17 	ldw	r4,-16(fp)
   20d30:	01400104 	movi	r5,4
   20d34:	01800404 	movi	r6,16
   20d38:	002028c0 	call	2028c <Write32_Data>
   20d3c:	1000021e 	bne	r2,zero,20d48 <OC_I2CL_Write+0x1a0>
            return FALSE;
   20d40:	0005883a 	mov	r2,zero
   20d44:	00001706 	br	20da4 <OC_I2CL_Write+0x1fc>

        //wait TIP bit go to 0 to end Tx
         if(!ACK_check( i2c_base)){
   20d48:	e13ffc17 	ldw	r4,-16(fp)
   20d4c:	00205e00 	call	205e0 <ACK_check>
   20d50:	1000051e 	bne	r2,zero,20d68 <OC_I2CL_Write+0x1c0>
             printf("OC_I2CL_Write error[3]\r\n");
   20d54:	010000f4 	movhi	r4,3
   20d58:	21110f04 	addi	r4,r4,17468
   20d5c:	0025f0c0 	call	25f0c <puts>
             return FALSE;
   20d60:	0005883a 	mov	r2,zero
   20d64:	00000f06 	br	20da4 <OC_I2CL_Write+0x1fc>
        return FALSE;
    }
  //  printf("\n receive ACK-reg low address! \n");

#if 1
    for( i=nWriteLength-1;i>=0;i--){
   20d68:	e0bffa17 	ldw	r2,-24(fp)
   20d6c:	10bfffc4 	addi	r2,r2,-1
   20d70:	e0bffa15 	stw	r2,-24(fp)
   20d74:	e0bffa17 	ldw	r2,-24(fp)
   20d78:	103fe00e 	bge	r2,zero,20cfc <__alt_data_end+0xfffe0cfc>
   //wait TIP bit go to 0 to end Tx
    if(!ACK_check( i2c_base))
        return FALSE;

#endif
    if (!Write32_Data( i2c_base, 4,0x40))
   20d7c:	e13ffc17 	ldw	r4,-16(fp)
   20d80:	01400104 	movi	r5,4
   20d84:	01801004 	movi	r6,64
   20d88:	002028c0 	call	2028c <Write32_Data>
   20d8c:	1000021e 	bne	r2,zero,20d98 <OC_I2CL_Write+0x1f0>
         return FALSE;
   20d90:	0005883a 	mov	r2,zero
   20d94:	00000306 	br	20da4 <OC_I2CL_Write+0x1fc>

     //OS_msleep(1);
      usleep(SLEEP_TIME);
   20d98:	01003e84 	movi	r4,250
   20d9c:	00322500 	call	32250 <usleep>
  //  printf("\n receive ACK-data! \n");

     return TRUE;
   20da0:	00800044 	movi	r2,1
}
   20da4:	e037883a 	mov	sp,fp
   20da8:	dfc00117 	ldw	ra,4(sp)
   20dac:	df000017 	ldw	fp,0(sp)
   20db0:	dec00204 	addi	sp,sp,8
   20db4:	f800283a 	ret

00020db8 <OC_I2CL_Read>:

   return TRUE;

} */

bool  OC_I2CL_Read(alt_32 i2c_base,alt_u8 device_address, alt_u16 sub_address, alt_u8 *pData8, int nReadLength){
   20db8:	defff704 	addi	sp,sp,-36
   20dbc:	dfc00815 	stw	ra,32(sp)
   20dc0:	df000715 	stw	fp,28(sp)
   20dc4:	df000704 	addi	fp,sp,28
   20dc8:	e13ffc15 	stw	r4,-16(fp)
   20dcc:	2807883a 	mov	r3,r5
   20dd0:	3005883a 	mov	r2,r6
   20dd4:	e1ffff15 	stw	r7,-4(fp)
   20dd8:	e0fffd05 	stb	r3,-12(fp)
   20ddc:	e0bffe0d 	sth	r2,-8(fp)
    int i;

    alt_u8 AddrHigh, AddrLow;
    alt_u8 DataHigh, DataLow;

    AddrHigh = (sub_address >> 8) & 0xFF;
   20de0:	e0bffe0b 	ldhu	r2,-8(fp)
   20de4:	1004d23a 	srli	r2,r2,8
   20de8:	e0bffa05 	stb	r2,-24(fp)
    AddrLow  = sub_address & 0xFF;
   20dec:	e0bffe0b 	ldhu	r2,-8(fp)
   20df0:	e0bffa45 	stb	r2,-23(fp)


   //set the tx reg audio chip dev address with write bit
   if (!Write32_Data( i2c_base, 3,device_address))
   20df4:	e0bffd03 	ldbu	r2,-12(fp)
   20df8:	e13ffc17 	ldw	r4,-16(fp)
   20dfc:	014000c4 	movi	r5,3
   20e00:	100d883a 	mov	r6,r2
   20e04:	002028c0 	call	2028c <Write32_Data>
   20e08:	1000021e 	bne	r2,zero,20e14 <OC_I2CL_Read+0x5c>
       return FALSE;
   20e0c:	0005883a 	mov	r2,zero
   20e10:	00008406 	br	21024 <OC_I2CL_Read+0x26c>

   //set STA and WR bits(bit7 and bit4)
   if (!Write32_Data( i2c_base, 4,0x90))
   20e14:	e13ffc17 	ldw	r4,-16(fp)
   20e18:	01400104 	movi	r5,4
   20e1c:	01802404 	movi	r6,144
   20e20:	002028c0 	call	2028c <Write32_Data>
   20e24:	1000021e 	bne	r2,zero,20e30 <OC_I2CL_Read+0x78>
       return FALSE;
   20e28:	0005883a 	mov	r2,zero
   20e2c:	00007d06 	br	21024 <OC_I2CL_Read+0x26c>

   //wait TIP bit go to 0 to end Tx
    if(!ACK_check( i2c_base)){
   20e30:	e13ffc17 	ldw	r4,-16(fp)
   20e34:	00205e00 	call	205e0 <ACK_check>
   20e38:	1000051e 	bne	r2,zero,20e50 <OC_I2CL_Read+0x98>
        printf("OC_I2CL_Read error[0]\r\n");
   20e3c:	010000f4 	movhi	r4,3
   20e40:	21111504 	addi	r4,r4,17492
   20e44:	0025f0c0 	call	25f0c <puts>
        return FALSE;
   20e48:	0005883a 	mov	r2,zero
   20e4c:	00007506 	br	21024 <OC_I2CL_Read+0x26c>
 //  printf("\n receive ACK-device address! \n");


   //set the txr reg data with reg address + 0

   if (!Write32_Data( i2c_base, 3,AddrHigh))//reg_data&0xff);
   20e50:	e0bffa03 	ldbu	r2,-24(fp)
   20e54:	e13ffc17 	ldw	r4,-16(fp)
   20e58:	014000c4 	movi	r5,3
   20e5c:	100d883a 	mov	r6,r2
   20e60:	002028c0 	call	2028c <Write32_Data>
   20e64:	1000021e 	bne	r2,zero,20e70 <OC_I2CL_Read+0xb8>
       return FALSE;
   20e68:	0005883a 	mov	r2,zero
   20e6c:	00006d06 	br	21024 <OC_I2CL_Read+0x26c>

   //set WR bits(bit4)
    if (!Write32_Data( i2c_base, 4,0x10))
   20e70:	e13ffc17 	ldw	r4,-16(fp)
   20e74:	01400104 	movi	r5,4
   20e78:	01800404 	movi	r6,16
   20e7c:	002028c0 	call	2028c <Write32_Data>
   20e80:	1000021e 	bne	r2,zero,20e8c <OC_I2CL_Read+0xd4>
        return FALSE;
   20e84:	0005883a 	mov	r2,zero
   20e88:	00006606 	br	21024 <OC_I2CL_Read+0x26c>

   //wait TIP bit go to 0 to end Tx
    if(!ACK_check( i2c_base)){
   20e8c:	e13ffc17 	ldw	r4,-16(fp)
   20e90:	00205e00 	call	205e0 <ACK_check>
   20e94:	1000051e 	bne	r2,zero,20eac <OC_I2CL_Read+0xf4>
        printf("OC_I2CL_Read error[1]\r\n");
   20e98:	010000f4 	movhi	r4,3
   20e9c:	21111b04 	addi	r4,r4,17516
   20ea0:	0025f0c0 	call	25f0c <puts>
        return FALSE;
   20ea4:	0005883a 	mov	r2,zero
   20ea8:	00005e06 	br	21024 <OC_I2CL_Read+0x26c>
    }
//   printf("\n read receive ACK-reg High address! \n");

     //set the txr reg data with reg address + 0
   if (!Write32_Data( i2c_base, 3,AddrLow)) //;//reg_data&0xff);
   20eac:	e0bffa43 	ldbu	r2,-23(fp)
   20eb0:	e13ffc17 	ldw	r4,-16(fp)
   20eb4:	014000c4 	movi	r5,3
   20eb8:	100d883a 	mov	r6,r2
   20ebc:	002028c0 	call	2028c <Write32_Data>
   20ec0:	1000021e 	bne	r2,zero,20ecc <OC_I2CL_Read+0x114>
       return FALSE;
   20ec4:	0005883a 	mov	r2,zero
   20ec8:	00005606 	br	21024 <OC_I2CL_Read+0x26c>
   //set WR bits(bit4)
    if (!Write32_Data( i2c_base, 4,0x10))
   20ecc:	e13ffc17 	ldw	r4,-16(fp)
   20ed0:	01400104 	movi	r5,4
   20ed4:	01800404 	movi	r6,16
   20ed8:	002028c0 	call	2028c <Write32_Data>
   20edc:	1000021e 	bne	r2,zero,20ee8 <OC_I2CL_Read+0x130>
        return FALSE;
   20ee0:	0005883a 	mov	r2,zero
   20ee4:	00004f06 	br	21024 <OC_I2CL_Read+0x26c>

   //wait TIP bit go to 0 to end Tx
    if(!ACK_check( i2c_base)){
   20ee8:	e13ffc17 	ldw	r4,-16(fp)
   20eec:	00205e00 	call	205e0 <ACK_check>
   20ef0:	1000051e 	bne	r2,zero,20f08 <OC_I2CL_Read+0x150>
        printf("OC_I2CL_Read error[2]\r\n");
   20ef4:	010000f4 	movhi	r4,3
   20ef8:	21112104 	addi	r4,r4,17540
   20efc:	0025f0c0 	call	25f0c <puts>
        return FALSE;
   20f00:	0005883a 	mov	r2,zero
   20f04:	00004706 	br	21024 <OC_I2CL_Read+0x26c>

 //  printf("\n read receive ACK-reg Low address! \n");

   //read
    //set the tx reg audio chip dev address with read bit 1
     if (!Write32_Data( i2c_base, 3,device_address|0x01))
   20f08:	e0bffd03 	ldbu	r2,-12(fp)
   20f0c:	10800054 	ori	r2,r2,1
   20f10:	10803fcc 	andi	r2,r2,255
   20f14:	e13ffc17 	ldw	r4,-16(fp)
   20f18:	014000c4 	movi	r5,3
   20f1c:	100d883a 	mov	r6,r2
   20f20:	002028c0 	call	2028c <Write32_Data>
   20f24:	1000021e 	bne	r2,zero,20f30 <OC_I2CL_Read+0x178>
         return FALSE;
   20f28:	0005883a 	mov	r2,zero
   20f2c:	00003d06 	br	21024 <OC_I2CL_Read+0x26c>

   //set STA and WR bits(bit7 and bit4)
     if (!Write32_Data( i2c_base, 4,0x90))
   20f30:	e13ffc17 	ldw	r4,-16(fp)
   20f34:	01400104 	movi	r5,4
   20f38:	01802404 	movi	r6,144
   20f3c:	002028c0 	call	2028c <Write32_Data>
   20f40:	1000021e 	bne	r2,zero,20f4c <OC_I2CL_Read+0x194>
         return FALSE;
   20f44:	0005883a 	mov	r2,zero
   20f48:	00003606 	br	21024 <OC_I2CL_Read+0x26c>

   //wait TIP bit go to 0 to end Tx
    if(!ACK_check( i2c_base)){
   20f4c:	e13ffc17 	ldw	r4,-16(fp)
   20f50:	00205e00 	call	205e0 <ACK_check>
   20f54:	1000051e 	bne	r2,zero,20f6c <OC_I2CL_Read+0x1b4>
        printf("OC_I2CL_Read error[3]\r\n");
   20f58:	010000f4 	movhi	r4,3
   20f5c:	21112704 	addi	r4,r4,17564
   20f60:	0025f0c0 	call	25f0c <puts>
        return FALSE;
   20f64:	0005883a 	mov	r2,zero
   20f68:	00002e06 	br	21024 <OC_I2CL_Read+0x26c>
//   printf("\n read receive ACK-device address(read)! \n");

       //read the rxr data

#if 1
    for(i=0;i<nReadLength;i++){
   20f6c:	e03ff915 	stw	zero,-28(fp)
   20f70:	00001f06 	br	20ff0 <OC_I2CL_Read+0x238>
  // printf("\n read receive ACK-device address(read)! \n");
   //set the RD and ACK bit(bit5 and bit3)
    	IOWR( i2c_base, 4,((i+1) == nReadLength)?0x28:0x20);
   20f74:	e0bffc17 	ldw	r2,-16(fp)
   20f78:	10800404 	addi	r2,r2,16
   20f7c:	1009883a 	mov	r4,r2
   20f80:	e0bff917 	ldw	r2,-28(fp)
   20f84:	10c00044 	addi	r3,r2,1
   20f88:	e0800217 	ldw	r2,8(fp)
   20f8c:	1880021e 	bne	r3,r2,20f98 <OC_I2CL_Read+0x1e0>
   20f90:	00800a04 	movi	r2,40
   20f94:	00000106 	br	20f9c <OC_I2CL_Read+0x1e4>
   20f98:	00800804 	movi	r2,32
   20f9c:	20800035 	stwio	r2,0(r4)

        if (!ACK_judge_for_read( i2c_base)){
   20fa0:	e13ffc17 	ldw	r4,-16(fp)
   20fa4:	00208400 	call	20840 <ACK_judge_for_read>
   20fa8:	1000051e 	bne	r2,zero,20fc0 <OC_I2CL_Read+0x208>
            printf("OC_I2CL_Read error[4]\r\n");
   20fac:	010000f4 	movhi	r4,3
   20fb0:	21112d04 	addi	r4,r4,17588
   20fb4:	0025f0c0 	call	25f0c <puts>
            return FALSE;
   20fb8:	0005883a 	mov	r2,zero
   20fbc:	00001906 	br	21024 <OC_I2CL_Read+0x26c>
        }
   // printf("\n read receive ACK-device address(read)! \n");

        Data32=IORD( i2c_base, 3);
   20fc0:	e0bffc17 	ldw	r2,-16(fp)
   20fc4:	10800304 	addi	r2,r2,12
   20fc8:	10800037 	ldwio	r2,0(r2)
   20fcc:	e0bffb15 	stw	r2,-20(fp)
        *(pData8+i) =  Data32 & 0xff;
   20fd0:	e0bff917 	ldw	r2,-28(fp)
   20fd4:	e0ffff17 	ldw	r3,-4(fp)
   20fd8:	1885883a 	add	r2,r3,r2
   20fdc:	e0fffb17 	ldw	r3,-20(fp)
   20fe0:	10c00005 	stb	r3,0(r2)
//   printf("\n read receive ACK-device address(read)! \n");

       //read the rxr data

#if 1
    for(i=0;i<nReadLength;i++){
   20fe4:	e0bff917 	ldw	r2,-28(fp)
   20fe8:	10800044 	addi	r2,r2,1
   20fec:	e0bff915 	stw	r2,-28(fp)
   20ff0:	e0fff917 	ldw	r3,-28(fp)
   20ff4:	e0800217 	ldw	r2,8(fp)
   20ff8:	18bfde16 	blt	r3,r2,20f74 <__alt_data_end+0xfffe0f74>
    DataLow =  Data32 & 0xff;

    pData16 = (DataHigh << 8) | DataLow;
#endif

   if (!Write32_Data( i2c_base, 4,0x40))
   20ffc:	e13ffc17 	ldw	r4,-16(fp)
   21000:	01400104 	movi	r5,4
   21004:	01801004 	movi	r6,64
   21008:	002028c0 	call	2028c <Write32_Data>
   2100c:	1000021e 	bne	r2,zero,21018 <OC_I2CL_Read+0x260>
       return FALSE;
   21010:	0005883a 	mov	r2,zero
   21014:	00000306 	br	21024 <OC_I2CL_Read+0x26c>

   //OS_msleep(1);
    usleep(SLEEP_TIME);
   21018:	01003e84 	movi	r4,250
   2101c:	00322500 	call	32250 <usleep>

   return TRUE;
   21020:	00800044 	movi	r2,1

}
   21024:	e037883a 	mov	sp,fp
   21028:	dfc00117 	ldw	ra,4(sp)
   2102c:	df000017 	ldw	fp,0(sp)
   21030:	dec00204 	addi	sp,sp,8
   21034:	f800283a 	ret

00021038 <Focus_Init>:
// please observe focus performance when change the scal ,scal_f. or when change camera frame rate
alt_u8  focus_scal   =   4;  // scan 0 -> 1023 , step: SCAL , to find STEP_UP
alt_u8  focus_scal_f =   1;  //  scan STEP_UP + - SCAL/2 , step: SCAL_F
alt_u8  focus_th     =   20;

void Focus_Init(config_t *pConfig){
   21038:	defffd04 	addi	sp,sp,-12
   2103c:	dfc00215 	stw	ra,8(sp)
   21040:	df000115 	stw	fp,4(sp)
   21044:	df000104 	addi	fp,sp,4
   21048:	e13fff15 	stw	r4,-4(fp)
  // please look at TERASIC_AUTO_FOCUS IP to see register's detail.
  IOWR(pConfig->focus_ip_base,REG_CTRL, 0);// focus mode : 1: window-screen, 0: full-screen
   2104c:	e0bfff17 	ldw	r2,-4(fp)
   21050:	10800217 	ldw	r2,8(r2)
   21054:	10800104 	addi	r2,r2,4
   21058:	0007883a 	mov	r3,zero
   2105c:	10c00035 	stwio	r3,0(r2)
  IOWR(pConfig->focus_ip_base,REG_FOCUS_W, focus_width);// focus_width
   21060:	e0bfff17 	ldw	r2,-4(fp)
   21064:	10800217 	ldw	r2,8(r2)
   21068:	10800204 	addi	r2,r2,8
   2106c:	1007883a 	mov	r3,r2
   21070:	d0a0010b 	ldhu	r2,-32764(gp)
   21074:	10bfffcc 	andi	r2,r2,65535
   21078:	18800035 	stwio	r2,0(r3)
  IOWR(pConfig->focus_ip_base,REG_FOCUS_H, focus_height);// focus_height
   2107c:	e0bfff17 	ldw	r2,-4(fp)
   21080:	10800217 	ldw	r2,8(r2)
   21084:	10800304 	addi	r2,r2,12
   21088:	1007883a 	mov	r3,r2
   2108c:	d0a0018b 	ldhu	r2,-32762(gp)
   21090:	10bfffcc 	andi	r2,r2,65535
   21094:	18800035 	stwio	r2,0(r3)
  IOWR(pConfig->focus_ip_base,REG_FOCUS_X_START, video_w/2-focus_width/2);//x_start
   21098:	e0bfff17 	ldw	r2,-4(fp)
   2109c:	10800217 	ldw	r2,8(r2)
   210a0:	10800404 	addi	r2,r2,16
   210a4:	1009883a 	mov	r4,r2
   210a8:	d0a0000b 	ldhu	r2,-32768(gp)
   210ac:	10bfffcc 	andi	r2,r2,65535
   210b0:	1004d07a 	srli	r2,r2,1
   210b4:	10ffffcc 	andi	r3,r2,65535
   210b8:	d0a0010b 	ldhu	r2,-32764(gp)
   210bc:	10bfffcc 	andi	r2,r2,65535
   210c0:	1004d07a 	srli	r2,r2,1
   210c4:	10bfffcc 	andi	r2,r2,65535
   210c8:	1885c83a 	sub	r2,r3,r2
   210cc:	20800035 	stwio	r2,0(r4)
  IOWR(pConfig->focus_ip_base,REG_FOCUS_Y_START, video_h/2-focus_height/2);// y_start
   210d0:	e0bfff17 	ldw	r2,-4(fp)
   210d4:	10800217 	ldw	r2,8(r2)
   210d8:	10800504 	addi	r2,r2,20
   210dc:	1009883a 	mov	r4,r2
   210e0:	d0a0008b 	ldhu	r2,-32766(gp)
   210e4:	10bfffcc 	andi	r2,r2,65535
   210e8:	1004d07a 	srli	r2,r2,1
   210ec:	10ffffcc 	andi	r3,r2,65535
   210f0:	d0a0018b 	ldhu	r2,-32762(gp)
   210f4:	10bfffcc 	andi	r2,r2,65535
   210f8:	1004d07a 	srli	r2,r2,1
   210fc:	10bfffcc 	andi	r2,r2,65535
   21100:	1885c83a 	sub	r2,r3,r2
   21104:	20800035 	stwio	r2,0(r4)

  IOWR(pConfig->focus_ip_base,REG_SCAL, focus_scal*256 + focus_scal_f); // scan 0 -> 1023 , step: SCAL , to find STEP_UP
   21108:	e0bfff17 	ldw	r2,-4(fp)
   2110c:	10800217 	ldw	r2,8(r2)
   21110:	10800604 	addi	r2,r2,24
   21114:	1009883a 	mov	r4,r2
   21118:	d0a00203 	ldbu	r2,-32760(gp)
   2111c:	10803fcc 	andi	r2,r2,255
   21120:	1006923a 	slli	r3,r2,8
   21124:	d0a00243 	ldbu	r2,-32759(gp)
   21128:	10803fcc 	andi	r2,r2,255
   2112c:	1885883a 	add	r2,r3,r2
   21130:	20800035 	stwio	r2,0(r4)
                                                                          //  scan STEP_UP + - SCAL/2 , step: SCAL_F
  IOWR(pConfig->focus_ip_base,REG_TH, focus_th);
   21134:	e0bfff17 	ldw	r2,-4(fp)
   21138:	10800217 	ldw	r2,8(r2)
   2113c:	10800704 	addi	r2,r2,28
   21140:	1007883a 	mov	r3,r2
   21144:	d0a00283 	ldbu	r2,-32758(gp)
   21148:	10803fcc 	andi	r2,r2,255
   2114c:	18800035 	stwio	r2,0(r3)

  //////////// focus at initial time
  usleep(100);
   21150:	01001904 	movi	r4,100
   21154:	00322500 	call	32250 <usleep>
  IOWR(pConfig->focus_ip_base,REG_GO, 1);
   21158:	e0bfff17 	ldw	r2,-4(fp)
   2115c:	10800217 	ldw	r2,8(r2)
   21160:	1007883a 	mov	r3,r2
   21164:	00800044 	movi	r2,1
   21168:	18800035 	stwio	r2,0(r3)
  usleep(2);
   2116c:	01000084 	movi	r4,2
   21170:	00322500 	call	32250 <usleep>
  IOWR(pConfig->focus_ip_base,REG_GO, 0);
   21174:	e0bfff17 	ldw	r2,-4(fp)
   21178:	10800217 	ldw	r2,8(r2)
   2117c:	0007883a 	mov	r3,zero
   21180:	10c00035 	stwio	r3,0(r2)
}
   21184:	e037883a 	mov	sp,fp
   21188:	dfc00117 	ldw	ra,4(sp)
   2118c:	df000017 	ldw	fp,0(sp)
   21190:	dec00204 	addi	sp,sp,8
   21194:	f800283a 	ret

00021198 <Focus_Window>:

alt_u16 Focus_Window(config_t *pConfig,int x,int y){
   21198:	defff904 	addi	sp,sp,-28
   2119c:	dfc00615 	stw	ra,24(sp)
   211a0:	df000515 	stw	fp,20(sp)
   211a4:	df000504 	addi	fp,sp,20
   211a8:	e13ffd15 	stw	r4,-12(fp)
   211ac:	e17ffe15 	stw	r5,-8(fp)
   211b0:	e1bfff15 	stw	r6,-4(fp)
   alt_u16 x_start,y_start;
   alt_u16 end_focus = 300;
   211b4:	00804b04 	movi	r2,300
   211b8:	e0bffc0d 	sth	r2,-16(fp)

   if(Focus_Released(pConfig)) { // pre focus done
   211bc:	e13ffd17 	ldw	r4,-12(fp)
   211c0:	00213bc0 	call	213bc <Focus_Released>
   211c4:	10007726 	beq	r2,zero,213a4 <Focus_Window+0x20c>
	   IOWR(pConfig->focus_ip_base,REG_CTRL, 1);// focus mode : 1: window-screen, 0: full-screen
   211c8:	e0bffd17 	ldw	r2,-12(fp)
   211cc:	10800217 	ldw	r2,8(r2)
   211d0:	10800104 	addi	r2,r2,4
   211d4:	1007883a 	mov	r3,r2
   211d8:	00800044 	movi	r2,1
   211dc:	18800035 	stwio	r2,0(r3)

	   if(( x -  focus_width/2) < 0 ) x_start = 0;
   211e0:	d0a0010b 	ldhu	r2,-32764(gp)
   211e4:	10bfffcc 	andi	r2,r2,65535
   211e8:	1004d07a 	srli	r2,r2,1
   211ec:	10bfffcc 	andi	r2,r2,65535
   211f0:	e0fffe17 	ldw	r3,-8(fp)
   211f4:	1885c83a 	sub	r2,r3,r2
   211f8:	1000020e 	bge	r2,zero,21204 <Focus_Window+0x6c>
   211fc:	e03ffb0d 	sth	zero,-20(fp)
   21200:	00001606 	br	2125c <Focus_Window+0xc4>
	   else if(( x + focus_width/2 ) > video_w )  x_start = video_w -1 -focus_width;
   21204:	d0a0010b 	ldhu	r2,-32764(gp)
   21208:	10bfffcc 	andi	r2,r2,65535
   2120c:	1004d07a 	srli	r2,r2,1
   21210:	10ffffcc 	andi	r3,r2,65535
   21214:	e0bffe17 	ldw	r2,-8(fp)
   21218:	1885883a 	add	r2,r3,r2
   2121c:	d0e0000b 	ldhu	r3,-32768(gp)
   21220:	18ffffcc 	andi	r3,r3,65535
   21224:	1880060e 	bge	r3,r2,21240 <Focus_Window+0xa8>
   21228:	d0e0000b 	ldhu	r3,-32768(gp)
   2122c:	d0a0010b 	ldhu	r2,-32764(gp)
   21230:	1885c83a 	sub	r2,r3,r2
   21234:	10bfffc4 	addi	r2,r2,-1
   21238:	e0bffb0d 	sth	r2,-20(fp)
   2123c:	00000706 	br	2125c <Focus_Window+0xc4>
	   else x_start = x - focus_width/2;
   21240:	e0bffe17 	ldw	r2,-8(fp)
   21244:	1007883a 	mov	r3,r2
   21248:	d0a0010b 	ldhu	r2,-32764(gp)
   2124c:	10bfffcc 	andi	r2,r2,65535
   21250:	1004d07a 	srli	r2,r2,1
   21254:	1885c83a 	sub	r2,r3,r2
   21258:	e0bffb0d 	sth	r2,-20(fp)

	   if(( y -  focus_height/2) < 0 ) y_start = 0;
   2125c:	d0a0018b 	ldhu	r2,-32762(gp)
   21260:	10bfffcc 	andi	r2,r2,65535
   21264:	1004d07a 	srli	r2,r2,1
   21268:	10bfffcc 	andi	r2,r2,65535
   2126c:	e0ffff17 	ldw	r3,-4(fp)
   21270:	1885c83a 	sub	r2,r3,r2
   21274:	1000020e 	bge	r2,zero,21280 <Focus_Window+0xe8>
   21278:	e03ffb8d 	sth	zero,-18(fp)
   2127c:	00001606 	br	212d8 <Focus_Window+0x140>
	   else if(( y + focus_height/2 ) > video_h )  y_start = video_h -1 -focus_height;
   21280:	d0a0018b 	ldhu	r2,-32762(gp)
   21284:	10bfffcc 	andi	r2,r2,65535
   21288:	1004d07a 	srli	r2,r2,1
   2128c:	10ffffcc 	andi	r3,r2,65535
   21290:	e0bfff17 	ldw	r2,-4(fp)
   21294:	1885883a 	add	r2,r3,r2
   21298:	d0e0008b 	ldhu	r3,-32766(gp)
   2129c:	18ffffcc 	andi	r3,r3,65535
   212a0:	1880060e 	bge	r3,r2,212bc <Focus_Window+0x124>
   212a4:	d0e0008b 	ldhu	r3,-32766(gp)
   212a8:	d0a0018b 	ldhu	r2,-32762(gp)
   212ac:	1885c83a 	sub	r2,r3,r2
   212b0:	10bfffc4 	addi	r2,r2,-1
   212b4:	e0bffb8d 	sth	r2,-18(fp)
   212b8:	00000706 	br	212d8 <Focus_Window+0x140>
	   else y_start = y - focus_height/2;
   212bc:	e0bfff17 	ldw	r2,-4(fp)
   212c0:	1007883a 	mov	r3,r2
   212c4:	d0a0018b 	ldhu	r2,-32762(gp)
   212c8:	10bfffcc 	andi	r2,r2,65535
   212cc:	1004d07a 	srli	r2,r2,1
   212d0:	1885c83a 	sub	r2,r3,r2
   212d4:	e0bffb8d 	sth	r2,-18(fp)

	   printf("[%s]: x_start= %d,y_start= %d\n",pConfig->str,x_start,y_start);
   212d8:	e0bffd17 	ldw	r2,-12(fp)
   212dc:	11400544 	addi	r5,r2,21
   212e0:	e0fffb0b 	ldhu	r3,-20(fp)
   212e4:	e0bffb8b 	ldhu	r2,-18(fp)
   212e8:	010000f4 	movhi	r4,3
   212ec:	21113304 	addi	r4,r4,17612
   212f0:	180d883a 	mov	r6,r3
   212f4:	100f883a 	mov	r7,r2
   212f8:	0025df80 	call	25df8 <printf>

	   IOWR(pConfig->focus_ip_base,REG_FOCUS_X_START, x_start);//x_start
   212fc:	e0bffd17 	ldw	r2,-12(fp)
   21300:	10800217 	ldw	r2,8(r2)
   21304:	10800404 	addi	r2,r2,16
   21308:	1007883a 	mov	r3,r2
   2130c:	e0bffb0b 	ldhu	r2,-20(fp)
   21310:	18800035 	stwio	r2,0(r3)
	   IOWR(pConfig->focus_ip_base,REG_FOCUS_Y_START, y_start);//y_start
   21314:	e0bffd17 	ldw	r2,-12(fp)
   21318:	10800217 	ldw	r2,8(r2)
   2131c:	10800504 	addi	r2,r2,20
   21320:	1007883a 	mov	r3,r2
   21324:	e0bffb8b 	ldhu	r2,-18(fp)
   21328:	18800035 	stwio	r2,0(r3)

	   usleep(10);
   2132c:	01000284 	movi	r4,10
   21330:	00322500 	call	32250 <usleep>

	   IOWR(pConfig->focus_ip_base,REG_GO, 1);
   21334:	e0bffd17 	ldw	r2,-12(fp)
   21338:	10800217 	ldw	r2,8(r2)
   2133c:	1007883a 	mov	r3,r2
   21340:	00800044 	movi	r2,1
   21344:	18800035 	stwio	r2,0(r3)
	   usleep(10);
   21348:	01000284 	movi	r4,10
   2134c:	00322500 	call	32250 <usleep>
	   IOWR(pConfig->focus_ip_base,REG_GO, 0);
   21350:	e0bffd17 	ldw	r2,-12(fp)
   21354:	10800217 	ldw	r2,8(r2)
   21358:	0007883a 	mov	r3,zero
   2135c:	10c00035 	stwio	r3,0(r2)
	   Focus_Released(pConfig);
   21360:	e13ffd17 	ldw	r4,-12(fp)
   21364:	00213bc0 	call	213bc <Focus_Released>

	   end_focus = IORD(pConfig->focus_ip_base,REG_STATUS)&0x0FFF;
   21368:	e0bffd17 	ldw	r2,-12(fp)
   2136c:	10800217 	ldw	r2,8(r2)
   21370:	10800037 	ldwio	r2,0(r2)
   21374:	1083ffcc 	andi	r2,r2,4095
   21378:	e0bffc0d 	sth	r2,-16(fp)
	   printf("[%s]: end_focus = %d \n",pConfig->str,end_focus);
   2137c:	e0bffd17 	ldw	r2,-12(fp)
   21380:	10c00544 	addi	r3,r2,21
   21384:	e0bffc0b 	ldhu	r2,-16(fp)
   21388:	010000f4 	movhi	r4,3
   2138c:	21113b04 	addi	r4,r4,17644
   21390:	180b883a 	mov	r5,r3
   21394:	100d883a 	mov	r6,r2
   21398:	0025df80 	call	25df8 <printf>

	   return end_focus;
   2139c:	e0bffc0b 	ldhu	r2,-16(fp)
   213a0:	00000106 	br	213a8 <Focus_Window+0x210>

   }
   return end_focus;
   213a4:	e0bffc0b 	ldhu	r2,-16(fp)

}
   213a8:	e037883a 	mov	sp,fp
   213ac:	dfc00117 	ldw	ra,4(sp)
   213b0:	df000017 	ldw	fp,0(sp)
   213b4:	dec00204 	addi	sp,sp,8
   213b8:	f800283a 	ret

000213bc <Focus_Released>:

int Focus_Released(config_t *pConfig){
   213bc:	defffb04 	addi	sp,sp,-20
   213c0:	dfc00415 	stw	ra,16(sp)
   213c4:	df000315 	stw	fp,12(sp)
   213c8:	df000304 	addi	fp,sp,12
   213cc:	e13fff15 	stw	r4,-4(fp)
  int Released = FALSE;
   213d0:	e03ffd15 	stw	zero,-12(fp)
 * alt_nticks() returns the elapsed number of system clock ticks since reset.
 */

static ALT_INLINE alt_u32 ALT_ALWAYS_INLINE alt_nticks (void)
{
  return _alt_nticks;
   213d4:	00800134 	movhi	r2,4
   213d8:	10a4e204 	addi	r2,r2,-27768
   213dc:	10c00017 	ldw	r3,0(r2)
 * Obtain the system clock rate in ticks/s. 
 */

static ALT_INLINE alt_u32 ALT_ALWAYS_INLINE alt_ticks_per_second (void)
{
  return _alt_tick_rate;
   213e0:	00800134 	movhi	r2,4
   213e4:	10a4e104 	addi	r2,r2,-27772
   213e8:	10800017 	ldw	r2,0(r2)
  alt_u32 TimeOut;

  TimeOut = alt_nticks() + alt_ticks_per_second()*8;
   213ec:	100490fa 	slli	r2,r2,3
   213f0:	1885883a 	add	r2,r3,r2
   213f4:	e0bffe15 	stw	r2,-8(fp)

  while((IORD(pConfig->focus_ip_base,REG_STATUS)&0x8000) ==0 && alt_nticks() < TimeOut ); // waiting for VCM release I2C bus
   213f8:	0001883a 	nop
   213fc:	e0bfff17 	ldw	r2,-4(fp)
   21400:	10800217 	ldw	r2,8(r2)
   21404:	10800037 	ldwio	r2,0(r2)
   21408:	10a0000c 	andi	r2,r2,32768
   2140c:	1000051e 	bne	r2,zero,21424 <Focus_Released+0x68>
 * alt_nticks() returns the elapsed number of system clock ticks since reset.
 */

static ALT_INLINE alt_u32 ALT_ALWAYS_INLINE alt_nticks (void)
{
  return _alt_nticks;
   21410:	00800134 	movhi	r2,4
   21414:	10a4e204 	addi	r2,r2,-27768
   21418:	10c00017 	ldw	r3,0(r2)
   2141c:	e0bffe17 	ldw	r2,-8(fp)
   21420:	18bff636 	bltu	r3,r2,213fc <__alt_data_end+0xfffe13fc>
   21424:	00800134 	movhi	r2,4
   21428:	10a4e204 	addi	r2,r2,-27768
   2142c:	10c00017 	ldw	r3,0(r2)

  if(alt_nticks() < TimeOut ) Released = TRUE;
   21430:	e0bffe17 	ldw	r2,-8(fp)
   21434:	1880032e 	bgeu	r3,r2,21444 <Focus_Released+0x88>
   21438:	00800044 	movi	r2,1
   2143c:	e0bffd15 	stw	r2,-12(fp)
   21440:	00000306 	br	21450 <Focus_Released+0x94>
  else printf("\n =>Released check TimeOut!\n");
   21444:	010000f4 	movhi	r4,3
   21448:	21114104 	addi	r4,r4,17668
   2144c:	0025f0c0 	call	25f0c <puts>

  usleep(100);
   21450:	01001904 	movi	r4,100
   21454:	00322500 	call	32250 <usleep>

  return Released;
   21458:	e0bffd17 	ldw	r2,-12(fp)
}
   2145c:	e037883a 	mov	sp,fp
   21460:	dfc00117 	ldw	ra,4(sp)
   21464:	df000017 	ldw	fp,0(sp)
   21468:	dec00204 	addi	sp,sp,8
   2146c:	f800283a 	ret

00021470 <camera_config_init>:
#define DEFAULT_FOCUS 300

config_t camera0_config;
config_t camera1_config;

void camera_config_init(void){
   21470:	deffff04 	addi	sp,sp,-4
   21474:	df000015 	stw	fp,0(sp)
   21478:	d839883a 	mov	fp,sp

	camera0_config.bridge_i2c_base = I2C_OPENCORES_MIPI_BASE;
   2147c:	00800134 	movhi	r2,4
   21480:	10a4fd04 	addi	r2,r2,-27660
   21484:	00c00134 	movhi	r3,4
   21488:	18c57004 	addi	r3,r3,5568
   2148c:	10c00015 	stw	r3,0(r2)
	camera0_config.camera_i2c_base = I2C_OPENCORES_CAMERA_BASE;
   21490:	00800134 	movhi	r2,4
   21494:	10a4fd04 	addi	r2,r2,-27660
   21498:	00c00134 	movhi	r3,4
   2149c:	18c56804 	addi	r3,r3,5536
   214a0:	10c00115 	stw	r3,4(r2)
	camera0_config.focus_ip_base   = TERASIC_AUTO_FOCUS_0_BASE;
   214a4:	00800134 	movhi	r2,4
   214a8:	10a4fd04 	addi	r2,r2,-27660
   214ac:	00c00134 	movhi	r3,4
   214b0:	18c54804 	addi	r3,r3,5408
   214b4:	10c00215 	stw	r3,8(r2)
	camera0_config.scalerii_base = ALT_VIP_CL_SCL_0_BASE;
   214b8:	00800134 	movhi	r2,4
   214bc:	10a4fd04 	addi	r2,r2,-27660
   214c0:	00c00134 	movhi	r3,4
   214c4:	18c48004 	addi	r3,r3,4608
   214c8:	10c00315 	stw	r3,12(r2)
	camera0_config.zoom_level      = DEFAULT_LEVEL;
   214cc:	00800134 	movhi	r2,4
   214d0:	10a4fd04 	addi	r2,r2,-27660
   214d4:	00c00084 	movi	r3,2
   214d8:	10c00405 	stb	r3,16(r2)
	camera0_config.focus_level     = DEFAULT_FOCUS;
   214dc:	00800134 	movhi	r2,4
   214e0:	10a4fd04 	addi	r2,r2,-27660
   214e4:	00c04b04 	movi	r3,300
   214e8:	10c0048d 	sth	r3,18(r2)
	camera0_config.scalerii_run          = 1;
   214ec:	00800134 	movhi	r2,4
   214f0:	10a4fd04 	addi	r2,r2,-27660
   214f4:	00c00044 	movi	r3,1
   214f8:	10c00505 	stb	r3,20(r2)
	strcpy(camera0_config.str,"Camera 0");
   214fc:	00800134 	movhi	r2,4
   21500:	10a50244 	addi	r2,r2,-27639
   21504:	00c010c4 	movi	r3,67
   21508:	10c00005 	stb	r3,0(r2)
   2150c:	00c01844 	movi	r3,97
   21510:	10c00045 	stb	r3,1(r2)
   21514:	00c01b44 	movi	r3,109
   21518:	10c00085 	stb	r3,2(r2)
   2151c:	00c01944 	movi	r3,101
   21520:	10c000c5 	stb	r3,3(r2)
   21524:	00c01c84 	movi	r3,114
   21528:	10c00105 	stb	r3,4(r2)
   2152c:	00c01844 	movi	r3,97
   21530:	10c00145 	stb	r3,5(r2)
   21534:	00c00804 	movi	r3,32
   21538:	10c00185 	stb	r3,6(r2)
   2153c:	00c00c04 	movi	r3,48
   21540:	10c001c5 	stb	r3,7(r2)
   21544:	10000205 	stb	zero,8(r2)

	camera1_config.bridge_i2c_base = I2C_OPENCORES_MIPI_1_BASE;
   21548:	00800134 	movhi	r2,4
   2154c:	10a4ef04 	addi	r2,r2,-27716
   21550:	00c00134 	movhi	r3,4
   21554:	18c56004 	addi	r3,r3,5504
   21558:	10c00015 	stw	r3,0(r2)
	camera1_config.camera_i2c_base = I2C_OPENCORES_CAMERA_1_BASE;
   2155c:	00800134 	movhi	r2,4
   21560:	10a4ef04 	addi	r2,r2,-27716
   21564:	00c00134 	movhi	r3,4
   21568:	18c55804 	addi	r3,r3,5472
   2156c:	10c00115 	stw	r3,4(r2)
	camera1_config.focus_ip_base   = TERASIC_AUTO_FOCUS_1_BASE;
   21570:	00800134 	movhi	r2,4
   21574:	10a4ef04 	addi	r2,r2,-27716
   21578:	00c00134 	movhi	r3,4
   2157c:	18c55004 	addi	r3,r3,5440
   21580:	10c00215 	stw	r3,8(r2)
	camera1_config.scalerii_base = ALT_VIP_CL_SCL_1_BASE;
   21584:	00800134 	movhi	r2,4
   21588:	10a4ef04 	addi	r2,r2,-27716
   2158c:	00c00134 	movhi	r3,4
   21590:	18c40004 	addi	r3,r3,4096
   21594:	10c00315 	stw	r3,12(r2)
	camera1_config.zoom_level      = DEFAULT_LEVEL;
   21598:	00800134 	movhi	r2,4
   2159c:	10a4ef04 	addi	r2,r2,-27716
   215a0:	00c00084 	movi	r3,2
   215a4:	10c00405 	stb	r3,16(r2)
	camera1_config.focus_level     = DEFAULT_FOCUS;
   215a8:	00800134 	movhi	r2,4
   215ac:	10a4ef04 	addi	r2,r2,-27716
   215b0:	00c04b04 	movi	r3,300
   215b4:	10c0048d 	sth	r3,18(r2)
	camera1_config.scalerii_run          = 1;
   215b8:	00800134 	movhi	r2,4
   215bc:	10a4ef04 	addi	r2,r2,-27716
   215c0:	00c00044 	movi	r3,1
   215c4:	10c00505 	stb	r3,20(r2)
	strcpy(camera1_config.str,"Camera 1");
   215c8:	00800134 	movhi	r2,4
   215cc:	10a4f444 	addi	r2,r2,-27695
   215d0:	00c010c4 	movi	r3,67
   215d4:	10c00005 	stb	r3,0(r2)
   215d8:	00c01844 	movi	r3,97
   215dc:	10c00045 	stb	r3,1(r2)
   215e0:	00c01b44 	movi	r3,109
   215e4:	10c00085 	stb	r3,2(r2)
   215e8:	00c01944 	movi	r3,101
   215ec:	10c000c5 	stb	r3,3(r2)
   215f0:	00c01c84 	movi	r3,114
   215f4:	10c00105 	stb	r3,4(r2)
   215f8:	00c01844 	movi	r3,97
   215fc:	10c00145 	stb	r3,5(r2)
   21600:	00c00804 	movi	r3,32
   21604:	10c00185 	stb	r3,6(r2)
   21608:	00c00c44 	movi	r3,49
   2160c:	10c001c5 	stb	r3,7(r2)
   21610:	10000205 	stb	zero,8(r2)

}
   21614:	e037883a 	mov	sp,fp
   21618:	df000017 	ldw	fp,0(sp)
   2161c:	dec00104 	addi	sp,sp,4
   21620:	f800283a 	ret

00021624 <D8Mx2_Init>:

void D8Mx2_Init(void){
   21624:	defffe04 	addi	sp,sp,-8
   21628:	dfc00115 	stw	ra,4(sp)
   2162c:	df000015 	stw	fp,0(sp)
   21630:	d839883a 	mov	fp,sp


    IOWR(MIPI_PWDN_N_BASE, 0x00, 0x00);
   21634:	0007883a 	mov	r3,zero
   21638:	00800134 	movhi	r2,4
   2163c:	10857804 	addi	r2,r2,5600
   21640:	10c00035 	stwio	r3,0(r2)
    IOWR(MIPI_RESET_N_BASE, 0x00, 0x00);
   21644:	0007883a 	mov	r3,zero
   21648:	00800134 	movhi	r2,4
   2164c:	10857c04 	addi	r2,r2,5616
   21650:	10c00035 	stwio	r3,0(r2)
    usleep(200);
   21654:	01003204 	movi	r4,200
   21658:	00322500 	call	32250 <usleep>
    IOWR(MIPI_PWDN_N_BASE, 0x00, 0xFF);
   2165c:	00c03fc4 	movi	r3,255
   21660:	00800134 	movhi	r2,4
   21664:	10857804 	addi	r2,r2,5600
   21668:	10c00035 	stwio	r3,0(r2)
    usleep(200);
   2166c:	01003204 	movi	r4,200
   21670:	00322500 	call	32250 <usleep>
    IOWR(MIPI_RESET_N_BASE, 0x00, 0xFF);
   21674:	00c03fc4 	movi	r3,255
   21678:	00800134 	movhi	r2,4
   2167c:	10857c04 	addi	r2,r2,5616
   21680:	10c00035 	stwio	r3,0(r2)


    usleep(50*1000);
   21684:	0130d414 	movui	r4,50000
   21688:	00322500 	call	32250 <usleep>
    MipiBridgeInit(&camera0_config);
   2168c:	01000134 	movhi	r4,4
   21690:	2124fd04 	addi	r4,r4,-27660
   21694:	0021d7c0 	call	21d7c <MipiBridgeInit>
    MipiBridgeInit(&camera1_config);
   21698:	01000134 	movhi	r4,4
   2169c:	2124ef04 	addi	r4,r4,-27716
   216a0:	0021d7c0 	call	21d7c <MipiBridgeInit>

    usleep(500*1000);
   216a4:	01000234 	movhi	r4,8
   216a8:	21284804 	addi	r4,r4,-24288
   216ac:	00322500 	call	32250 <usleep>
    MipiCameraInit(&camera0_config);
   216b0:	01000134 	movhi	r4,4
   216b4:	2124fd04 	addi	r4,r4,-27660
   216b8:	00227040 	call	22704 <MipiCameraInit>
    MipiCameraInit(&camera1_config);
   216bc:	01000134 	movhi	r4,4
   216c0:	2124ef04 	addi	r4,r4,-27716
   216c4:	00227040 	call	22704 <MipiCameraInit>

    camera_bin_level(&camera0_config,DEFAULT_LEVEL);
   216c8:	01000134 	movhi	r4,4
   216cc:	2124fd04 	addi	r4,r4,-27660
   216d0:	01400084 	movi	r5,2
   216d4:	00224e80 	call	224e8 <camera_bin_level>
    camera_bin_level(&camera1_config,DEFAULT_LEVEL);
   216d8:	01000134 	movhi	r4,4
   216dc:	2124ef04 	addi	r4,r4,-27716
   216e0:	01400084 	movi	r5,2
   216e4:	00224e80 	call	224e8 <camera_bin_level>
 	usleep(1000);
   216e8:	0100fa04 	movi	r4,1000
   216ec:	00322500 	call	32250 <usleep>


    // status check
 	    mipi_clear_error(&camera0_config);
   216f0:	01000134 	movhi	r4,4
   216f4:	2124fd04 	addi	r4,r4,-27660
   216f8:	0021f000 	call	21f00 <mipi_clear_error>
		mipi_clear_error(&camera1_config);
   216fc:	01000134 	movhi	r4,4
   21700:	2124ef04 	addi	r4,r4,-27716
   21704:	0021f000 	call	21f00 <mipi_clear_error>
		usleep(50*1000);
   21708:	0130d414 	movui	r4,50000
   2170c:	00322500 	call	32250 <usleep>
 	    mipi_clear_error(&camera0_config);
   21710:	01000134 	movhi	r4,4
   21714:	2124fd04 	addi	r4,r4,-27660
   21718:	0021f000 	call	21f00 <mipi_clear_error>
		mipi_clear_error(&camera1_config);
   2171c:	01000134 	movhi	r4,4
   21720:	2124ef04 	addi	r4,r4,-27716
   21724:	0021f000 	call	21f00 <mipi_clear_error>

	 	usleep(1000*1000); // wait 1s
   21728:	010003f4 	movhi	r4,15
   2172c:	21109004 	addi	r4,r4,16960
   21730:	00322500 	call	32250 <usleep>

        printf("\r\nCamera 0 status:\r\n");
   21734:	010000f4 	movhi	r4,3
   21738:	21114904 	addi	r4,r4,17700
   2173c:	0025f0c0 	call	25f0c <puts>
	    mipi_show_error_info(&camera0_config);
   21740:	01000134 	movhi	r4,4
   21744:	2124fd04 	addi	r4,r4,-27660
   21748:	0021fe80 	call	21fe8 <mipi_show_error_info>
//	    mipi_show_error_info_more(I2C_OPENCORES_MIPI_BASE);
	    printf("\n");
   2174c:	01000284 	movi	r4,10
   21750:	0025e3c0 	call	25e3c <putchar>

		printf("\r\nCamera 1 status:\r\n");
   21754:	010000f4 	movhi	r4,3
   21758:	21114e04 	addi	r4,r4,17720
   2175c:	0025f0c0 	call	25f0c <puts>
		mipi_show_error_info(&camera1_config);
   21760:	01000134 	movhi	r4,4
   21764:	2124ef04 	addi	r4,r4,-27716
   21768:	0021fe80 	call	21fe8 <mipi_show_error_info>
//	    mipi_show_error_info_more(I2C_OPENCORES_MIPI_1_BASE);
	    printf("\n");
   2176c:	01000284 	movi	r4,10
   21770:	0025e3c0 	call	25e3c <putchar>

	    Focus_Init(&camera0_config);
   21774:	01000134 	movhi	r4,4
   21778:	2124fd04 	addi	r4,r4,-27660
   2177c:	00210380 	call	21038 <Focus_Init>
	    Focus_Init(&camera1_config);
   21780:	01000134 	movhi	r4,4
   21784:	2124ef04 	addi	r4,r4,-27716
   21788:	00210380 	call	21038 <Focus_Init>


}
   2178c:	e037883a 	mov	sp,fp
   21790:	dfc00117 	ldw	ra,4(sp)
   21794:	df000017 	ldw	fp,0(sp)
   21798:	dec00204 	addi	sp,sp,8
   2179c:	f800283a 	ret

000217a0 <main>:



int main()
{
   217a0:	defffb04 	addi	sp,sp,-20
   217a4:	dfc00415 	stw	ra,16(sp)
   217a8:	df000315 	stw	fp,12(sp)
   217ac:	df000304 	addi	fp,sp,12
    alt_u16 ii = 0;
   217b0:	e03ffd0d 	sth	zero,-12(fp)

    printf("DE1-SoC two D8M Demo\n");
   217b4:	010000f4 	movhi	r4,3
   217b8:	21115304 	addi	r4,r4,17740
   217bc:	0025f0c0 	call	25f0c <puts>
    printf("Camera original resolution is %d x %d\n",CAMERA_WIDTH,CAMERA_HEIGHT);
   217c0:	010000f4 	movhi	r4,3
   217c4:	21115904 	addi	r4,r4,17764
   217c8:	0140a004 	movi	r5,640
   217cc:	01807804 	movi	r6,480
   217d0:	0025df80 	call	25df8 <printf>
    printf("BackGround(Mixerii) resolution is %d x %d\n",MIXERII_WIDTH,MIXERII_HEIGHT);
   217d4:	010000f4 	movhi	r4,3
   217d8:	21116304 	addi	r4,r4,17804
   217dc:	0140c804 	movi	r5,800
   217e0:	01809604 	movi	r6,600
   217e4:	0025df80 	call	25df8 <printf>

	camera_config_init();
   217e8:	00214700 	call	21470 <camera_config_init>

    PinP_init();
   217ec:	0022d640 	call	22d64 <PinP_init>

    D8Mx2_Init();
   217f0:	00216240 	call	21624 <D8Mx2_Init>



    printf("After two Camera Configured! PWDN_n low for hardware standby two camera  \n");
   217f4:	010000f4 	movhi	r4,3
   217f8:	21116e04 	addi	r4,r4,17848
   217fc:	0025f0c0 	call	25f0c <puts>
    IOWR(MIPI_PWDN_N_BASE, 0x00, 0x00);
   21800:	0007883a 	mov	r3,zero
   21804:	00800134 	movhi	r2,4
   21808:	10857804 	addi	r2,r2,5600
   2180c:	10c00035 	stwio	r3,0(r2)
    usleep(1000);
   21810:	0100fa04 	movi	r4,1000
   21814:	00322500 	call	32250 <usleep>
    IOWR(MIPI_PWDN_N_BASE, 0x00, 0xFF);
   21818:	00c03fc4 	movi	r3,255
   2181c:	00800134 	movhi	r2,4
   21820:	10857804 	addi	r2,r2,5600
   21824:	10c00035 	stwio	r3,0(r2)
    printf("Then resume for sync two camera!  \n\n\n");
   21828:	010000f4 	movhi	r4,3
   2182c:	21118104 	addi	r4,r4,17924
   21830:	0025f0c0 	call	25f0c <puts>



    printf("SW and KEY functions:\n\n");
   21834:	010000f4 	movhi	r4,3
   21838:	21118b04 	addi	r4,r4,17964
   2183c:	0025f0c0 	call	25f0c <puts>
    printf("SW1 high: Mixerii functions\n");
   21840:	010000f4 	movhi	r4,3
   21844:	21119104 	addi	r4,r4,17988
   21848:	0025f0c0 	call	25f0c <puts>
    printf("  KEY0: Mixerii display mode change\n");
   2184c:	010000f4 	movhi	r4,3
   21850:	21119804 	addi	r4,r4,18016
   21854:	0025f0c0 	call	25f0c <puts>
    printf("  KEY1: Scale camera video to right/bottom\n");
   21858:	010000f4 	movhi	r4,3
   2185c:	2111a104 	addi	r4,r4,18052
   21860:	0025f0c0 	call	25f0c <puts>
    printf("  KEY2: Scale camera video to left/top\n");
   21864:	010000f4 	movhi	r4,3
   21868:	2111ac04 	addi	r4,r4,18096
   2186c:	0025f0c0 	call	25f0c <puts>
    printf("  KEY3: Stop/Run camera0/1\n");
   21870:	010000f4 	movhi	r4,3
   21874:	2111b604 	addi	r4,r4,18136
   21878:	0025f0c0 	call	25f0c <puts>
    printf("   (Control camera0 when SW0=low, camera1 when SW0=high)\n\n");
   2187c:	010000f4 	movhi	r4,3
   21880:	2111bd04 	addi	r4,r4,18164
   21884:	0025f0c0 	call	25f0c <puts>
    printf("SW1 low: Camera focus&Zoom function\n");
   21888:	010000f4 	movhi	r4,3
   2188c:	2111cc04 	addi	r4,r4,18224
   21890:	0025f0c0 	call	25f0c <puts>
    printf("(Control camera0 when SW0=low, camera1 when SW0=high)\n");
   21894:	010000f4 	movhi	r4,3
   21898:	2111d504 	addi	r4,r4,18260
   2189c:	0025f0c0 	call	25f0c <puts>
    printf("  KEY0: Auto Focus\n");
   218a0:	010000f4 	movhi	r4,3
   218a4:	2111e304 	addi	r4,r4,18316
   218a8:	0025f0c0 	call	25f0c <puts>
    printf("  KEY1: Manual Focus -\n");
   218ac:	010000f4 	movhi	r4,3
   218b0:	2111e804 	addi	r4,r4,18336
   218b4:	0025f0c0 	call	25f0c <puts>
    printf("  KEY2: Manual Focus +\n");
   218b8:	010000f4 	movhi	r4,3
   218bc:	2111ee04 	addi	r4,r4,18360
   218c0:	0025f0c0 	call	25f0c <puts>
    printf("  KEY3: Zoom mode \n\n\n");
   218c4:	010000f4 	movhi	r4,3
   218c8:	2111f404 	addi	r4,r4,18384
   218cc:	0025f0c0 	call	25f0c <puts>



		     //////////////////////////////////////////////////////////
		     // for focus settings
		     alt_u8   manual_focus_step = 10;
   218d0:	00800284 	movi	r2,10
   218d4:	e0bfff05 	stb	r2,-4(fp)
		     config_t *pConfig;

		     while(1){

		    	 if(IORD(SW_BASE,0)&0x2){ //SW1 high -> Mixerii functions
   218d8:	00800134 	movhi	r2,4
   218dc:	10858404 	addi	r2,r2,5648
   218e0:	10800037 	ldwio	r2,0(r2)
   218e4:	1080008c 	andi	r2,r2,2
   218e8:	10004126 	beq	r2,zero,219f0 <main+0x250>

		    	  // touch KEY0 to trigger mixer mode change
		          if((IORD(KEY_BASE,0)&0x0F) == 0x0E){
   218ec:	00800134 	movhi	r2,4
   218f0:	10858004 	addi	r2,r2,5632
   218f4:	10800037 	ldwio	r2,0(r2)
   218f8:	108003cc 	andi	r2,r2,15
   218fc:	10800398 	cmpnei	r2,r2,14
   21900:	10000a1e 	bne	r2,zero,2192c <main+0x18c>
		        	 ii++;
   21904:	e0bffd0b 	ldhu	r2,-12(fp)
   21908:	10800044 	addi	r2,r2,1
   2190c:	e0bffd0d 	sth	r2,-12(fp)
			    	 PinP_mode(ii%4);
   21910:	e0bffd0b 	ldhu	r2,-12(fp)
   21914:	108000cc 	andi	r2,r2,3
   21918:	1009883a 	mov	r4,r2
   2191c:	0022f380 	call	22f38 <PinP_mode>
		             usleep(500000);
   21920:	01000234 	movhi	r4,8
   21924:	21284804 	addi	r4,r4,-24288
   21928:	00322500 	call	32250 <usleep>
		           }

		          // touch KEY1 to trigger scale to right/bottom
		          if((IORD(KEY_BASE,0)&0x0F) == 0x0D) PinP_2camera_ajust(1);
   2192c:	00800134 	movhi	r2,4
   21930:	10858004 	addi	r2,r2,5632
   21934:	10800037 	ldwio	r2,0(r2)
   21938:	108003cc 	andi	r2,r2,15
   2193c:	10800358 	cmpnei	r2,r2,13
   21940:	1000021e 	bne	r2,zero,2194c <main+0x1ac>
   21944:	01000044 	movi	r4,1
   21948:	002365c0 	call	2365c <PinP_2camera_ajust>

		          // touch KEY2 to trigger scale to left/top
		          if((IORD(KEY_BASE,0)&0x0F) == 0x0B) PinP_2camera_ajust(0);
   2194c:	00800134 	movhi	r2,4
   21950:	10858004 	addi	r2,r2,5632
   21954:	10800037 	ldwio	r2,0(r2)
   21958:	108003cc 	andi	r2,r2,15
   2195c:	108002d8 	cmpnei	r2,r2,11
   21960:	1000021e 	bne	r2,zero,2196c <main+0x1cc>
   21964:	0009883a 	mov	r4,zero
   21968:	002365c0 	call	2365c <PinP_2camera_ajust>

		          // touch KEY3 to stop or run camera video
		          if((IORD(KEY_BASE,0)&0x0F) == 0x07){
   2196c:	00800134 	movhi	r2,4
   21970:	10858004 	addi	r2,r2,5632
   21974:	10800037 	ldwio	r2,0(r2)
   21978:	108003cc 	andi	r2,r2,15
   2197c:	108001d8 	cmpnei	r2,r2,7
   21980:	1000b21e 	bne	r2,zero,21c4c <main+0x4ac>

			    		 if(IORD(SW_BASE,0)&0x1){// SW0 high to set camera 1
   21984:	00800134 	movhi	r2,4
   21988:	10858404 	addi	r2,r2,5648
   2198c:	10800037 	ldwio	r2,0(r2)
   21990:	1080004c 	andi	r2,r2,1
   21994:	10000426 	beq	r2,zero,219a8 <main+0x208>
				    		pConfig     =  &camera1_config;
   21998:	00800134 	movhi	r2,4
   2199c:	10a4ef04 	addi	r2,r2,-27716
   219a0:	e0bffe15 	stw	r2,-8(fp)
   219a4:	00000306 	br	219b4 <main+0x214>
			    		 }else{// SW0 low  to set camera 0
			    		    pConfig     =  &camera0_config;
   219a8:	00800134 	movhi	r2,4
   219ac:	10a4fd04 	addi	r2,r2,-27660
   219b0:	e0bffe15 	stw	r2,-8(fp)
			    		 }
                         if(pConfig->scalerii_run == 0) scalerii_go(pConfig ,1);
   219b4:	e0bffe17 	ldw	r2,-8(fp)
   219b8:	10800503 	ldbu	r2,20(r2)
   219bc:	10803fcc 	andi	r2,r2,255
   219c0:	1000041e 	bne	r2,zero,219d4 <main+0x234>
   219c4:	e13ffe17 	ldw	r4,-8(fp)
   219c8:	01400044 	movi	r5,1
   219cc:	0023bc40 	call	23bc4 <scalerii_go>
   219d0:	00000306 	br	219e0 <main+0x240>
                         else                       	scalerii_go(pConfig ,0);
   219d4:	e13ffe17 	ldw	r4,-8(fp)
   219d8:	000b883a 	mov	r5,zero
   219dc:	0023bc40 	call	23bc4 <scalerii_go>
    		             usleep(500000);
   219e0:	01000234 	movhi	r4,8
   219e4:	21284804 	addi	r4,r4,-24288
   219e8:	00322500 	call	32250 <usleep>
   219ec:	003fba06 	br	218d8 <__alt_data_end+0xfffe18d8>
		          }


		    	 }else{ // SW1 low -> Camera settings functions

		    		 if(IORD(SW_BASE,0)&0x1){// SW0 high to set camera 1
   219f0:	00800134 	movhi	r2,4
   219f4:	10858404 	addi	r2,r2,5648
   219f8:	10800037 	ldwio	r2,0(r2)
   219fc:	1080004c 	andi	r2,r2,1
   21a00:	10000426 	beq	r2,zero,21a14 <main+0x274>
			    		pConfig     =  &camera1_config;
   21a04:	00800134 	movhi	r2,4
   21a08:	10a4ef04 	addi	r2,r2,-27716
   21a0c:	e0bffe15 	stw	r2,-8(fp)
   21a10:	00000306 	br	21a20 <main+0x280>
		    		 }else{// SW0 low  to set camera 0
		    		    pConfig     =  &camera0_config;
   21a14:	00800134 	movhi	r2,4
   21a18:	10a4fd04 	addi	r2,r2,-27660
   21a1c:	e0bffe15 	stw	r2,-8(fp)
		    		 }
                     if((IORD(KEY_BASE,0)&0x0F) != 0x0F){
   21a20:	00800134 	movhi	r2,4
   21a24:	10858004 	addi	r2,r2,5632
   21a28:	10800037 	ldwio	r2,0(r2)
   21a2c:	108003cc 	andi	r2,r2,15
   21a30:	108003e0 	cmpeqi	r2,r2,15
   21a34:	1000201e 	bne	r2,zero,21ab8 <main+0x318>
                    	 if(pConfig->scalerii_run == 0){
   21a38:	e0bffe17 	ldw	r2,-8(fp)
   21a3c:	10800503 	ldbu	r2,20(r2)
   21a40:	10803fcc 	andi	r2,r2,255
   21a44:	10001c1e 	bne	r2,zero,21ab8 <main+0x318>
                    		 printf("[%s]: Please running video frist!\n",pConfig->str);
   21a48:	e0bffe17 	ldw	r2,-8(fp)
   21a4c:	10800544 	addi	r2,r2,21
   21a50:	010000f4 	movhi	r4,3
   21a54:	2111fa04 	addi	r4,r4,18408
   21a58:	100b883a 	mov	r5,r2
   21a5c:	0025df80 	call	25df8 <printf>
                    		 printf("set SW1 high,set SW0 %s,then press KEY3 to running %s!\n\n",(pConfig->camera_i2c_base==camera0_config.camera_i2c_base)?"low":"high",pConfig->str);
   21a60:	e0bffe17 	ldw	r2,-8(fp)
   21a64:	10c00117 	ldw	r3,4(r2)
   21a68:	00800134 	movhi	r2,4
   21a6c:	10a4fd04 	addi	r2,r2,-27660
   21a70:	10800117 	ldw	r2,4(r2)
   21a74:	1880031e 	bne	r3,r2,21a84 <main+0x2e4>
   21a78:	008000f4 	movhi	r2,3
   21a7c:	10920304 	addi	r2,r2,18444
   21a80:	00000206 	br	21a8c <main+0x2ec>
   21a84:	008000f4 	movhi	r2,3
   21a88:	10920404 	addi	r2,r2,18448
   21a8c:	e0fffe17 	ldw	r3,-8(fp)
   21a90:	18c00544 	addi	r3,r3,21
   21a94:	010000f4 	movhi	r4,3
   21a98:	21120604 	addi	r4,r4,18456
   21a9c:	100b883a 	mov	r5,r2
   21aa0:	180d883a 	mov	r6,r3
   21aa4:	0025df80 	call	25df8 <printf>
        		             usleep(500000);
   21aa8:	01000234 	movhi	r4,8
   21aac:	21284804 	addi	r4,r4,-24288
   21ab0:	00322500 	call	32250 <usleep>
                    		 continue;
   21ab4:	00006506 	br	21c4c <main+0x4ac>
                    	 }
                     }

		    	       // touch KEY0 to trigger Auto focus
		    	       if((IORD(KEY_BASE,0)&0x0F) == 0x0E){
   21ab8:	00800134 	movhi	r2,4
   21abc:	10858004 	addi	r2,r2,5632
   21ac0:	10800037 	ldwio	r2,0(r2)
   21ac4:	108003cc 	andi	r2,r2,15
   21ac8:	10800398 	cmpnei	r2,r2,14
   21acc:	1000071e 	bne	r2,zero,21aec <main+0x34c>
		    	    	   pConfig->focus_level = Focus_Window(pConfig,CAMERA_WIDTH/2,CAMERA_HEIGHT/2);
   21ad0:	e13ffe17 	ldw	r4,-8(fp)
   21ad4:	01405004 	movi	r5,320
   21ad8:	01803c04 	movi	r6,240
   21adc:	00211980 	call	21198 <Focus_Window>
   21ae0:	1007883a 	mov	r3,r2
   21ae4:	e0bffe17 	ldw	r2,-8(fp)
   21ae8:	10c0048d 	sth	r3,18(r2)
		    	       }

		    	       // touch KEY1 to trigger Manual focus  - step
		    	       if((IORD(KEY_BASE,0)&0x0F) == 0x0D){
   21aec:	00800134 	movhi	r2,4
   21af0:	10858004 	addi	r2,r2,5632
   21af4:	10800037 	ldwio	r2,0(r2)
   21af8:	108003cc 	andi	r2,r2,15
   21afc:	10800358 	cmpnei	r2,r2,13
   21b00:	1000161e 	bne	r2,zero,21b5c <main+0x3bc>
		    	    	   if(pConfig->focus_level > manual_focus_step) pConfig->focus_level -= manual_focus_step;
   21b04:	e0bffe17 	ldw	r2,-8(fp)
   21b08:	1080048b 	ldhu	r2,18(r2)
   21b0c:	e0ffff03 	ldbu	r3,-4(fp)
   21b10:	10bfffcc 	andi	r2,r2,65535
   21b14:	18ffffcc 	andi	r3,r3,65535
   21b18:	1880082e 	bgeu	r3,r2,21b3c <main+0x39c>
   21b1c:	e0bffe17 	ldw	r2,-8(fp)
   21b20:	10c0048b 	ldhu	r3,18(r2)
   21b24:	e0bfff03 	ldbu	r2,-4(fp)
   21b28:	1885c83a 	sub	r2,r3,r2
   21b2c:	1007883a 	mov	r3,r2
   21b30:	e0bffe17 	ldw	r2,-8(fp)
   21b34:	10c0048d 	sth	r3,18(r2)
   21b38:	00000206 	br	21b44 <main+0x3a4>
		    	    	   else pConfig->focus_level = 0;
   21b3c:	e0bffe17 	ldw	r2,-8(fp)
   21b40:	1000048d 	sth	zero,18(r2)
		    	    	   OV8865_FOCUS_Move_to(pConfig,pConfig->focus_level);
   21b44:	e0bffe17 	ldw	r2,-8(fp)
   21b48:	1080048b 	ldhu	r2,18(r2)
   21b4c:	10bfffcc 	andi	r2,r2,65535
   21b50:	e13ffe17 	ldw	r4,-8(fp)
   21b54:	100b883a 	mov	r5,r2
   21b58:	00223e80 	call	223e8 <OV8865_FOCUS_Move_to>
		    	       }

		    	       // touch KEY2 to trigger Manual focus  + step
		    	       if((IORD(KEY_BASE,0)&0x0F) == 0x0B){
   21b5c:	00800134 	movhi	r2,4
   21b60:	10858004 	addi	r2,r2,5632
   21b64:	10800037 	ldwio	r2,0(r2)
   21b68:	108003cc 	andi	r2,r2,15
   21b6c:	108002d8 	cmpnei	r2,r2,11
   21b70:	1000151e 	bne	r2,zero,21bc8 <main+0x428>
		    	    	   pConfig->focus_level += manual_focus_step;
   21b74:	e0bffe17 	ldw	r2,-8(fp)
   21b78:	10c0048b 	ldhu	r3,18(r2)
   21b7c:	e0bfff03 	ldbu	r2,-4(fp)
   21b80:	1885883a 	add	r2,r3,r2
   21b84:	1007883a 	mov	r3,r2
   21b88:	e0bffe17 	ldw	r2,-8(fp)
   21b8c:	10c0048d 	sth	r3,18(r2)
		    	    	   if(pConfig->focus_level >1023) pConfig->focus_level = 1023;
   21b90:	e0bffe17 	ldw	r2,-8(fp)
   21b94:	1080048b 	ldhu	r2,18(r2)
   21b98:	10bfffcc 	andi	r2,r2,65535
   21b9c:	10810030 	cmpltui	r2,r2,1024
   21ba0:	1000031e 	bne	r2,zero,21bb0 <main+0x410>
   21ba4:	e0bffe17 	ldw	r2,-8(fp)
   21ba8:	00c0ffc4 	movi	r3,1023
   21bac:	10c0048d 	sth	r3,18(r2)
		    	    	   OV8865_FOCUS_Move_to(pConfig,pConfig->focus_level);
   21bb0:	e0bffe17 	ldw	r2,-8(fp)
   21bb4:	1080048b 	ldhu	r2,18(r2)
   21bb8:	10bfffcc 	andi	r2,r2,65535
   21bbc:	e13ffe17 	ldw	r4,-8(fp)
   21bc0:	100b883a 	mov	r5,r2
   21bc4:	00223e80 	call	223e8 <OV8865_FOCUS_Move_to>
		    	       }

		    	       // touch KEY3 to ZOOM
		    	       if((IORD(KEY_BASE,0)&0x0F) == 0x07){
   21bc8:	00800134 	movhi	r2,4
   21bcc:	10858004 	addi	r2,r2,5632
   21bd0:	10800037 	ldwio	r2,0(r2)
   21bd4:	108003cc 	andi	r2,r2,15
   21bd8:	108001d8 	cmpnei	r2,r2,7
   21bdc:	1000181e 	bne	r2,zero,21c40 <main+0x4a0>
		    	    	   if(pConfig->zoom_level == 3 )pConfig->zoom_level = 1;
   21be0:	e0bffe17 	ldw	r2,-8(fp)
   21be4:	10800403 	ldbu	r2,16(r2)
   21be8:	10803fcc 	andi	r2,r2,255
   21bec:	108000d8 	cmpnei	r2,r2,3
   21bf0:	1000041e 	bne	r2,zero,21c04 <main+0x464>
   21bf4:	e0bffe17 	ldw	r2,-8(fp)
   21bf8:	00c00044 	movi	r3,1
   21bfc:	10c00405 	stb	r3,16(r2)
   21c00:	00000606 	br	21c1c <main+0x47c>
		    	    	   else pConfig->zoom_level +=1;
   21c04:	e0bffe17 	ldw	r2,-8(fp)
   21c08:	10800403 	ldbu	r2,16(r2)
   21c0c:	10800044 	addi	r2,r2,1
   21c10:	1007883a 	mov	r3,r2
   21c14:	e0bffe17 	ldw	r2,-8(fp)
   21c18:	10c00405 	stb	r3,16(r2)
		    	    	   camera_bin_level(pConfig,pConfig->zoom_level);
   21c1c:	e0bffe17 	ldw	r2,-8(fp)
   21c20:	10800403 	ldbu	r2,16(r2)
   21c24:	10803fcc 	andi	r2,r2,255
   21c28:	e13ffe17 	ldw	r4,-8(fp)
   21c2c:	100b883a 	mov	r5,r2
   21c30:	00224e80 	call	224e8 <camera_bin_level>
		    	    	   usleep(500000);
   21c34:	01000234 	movhi	r4,8
   21c38:	21284804 	addi	r4,r4,-24288
   21c3c:	00322500 	call	32250 <usleep>
		    	       }

		    	       usleep(200000);
   21c40:	010000f4 	movhi	r4,3
   21c44:	21035004 	addi	r4,r4,3392
   21c48:	00322500 	call	32250 <usleep>
		    	 }// end if- SW1 select

//		          usleep(50000);

		      };
   21c4c:	003f2206 	br	218d8 <__alt_data_end+0xfffe18d8>

00021c50 <nSWAP16>:
	{0x0004,0x8047} // Configuration Control Register

};


alt_u16 nSWAP16(alt_u16 x){
   21c50:	defffd04 	addi	sp,sp,-12
   21c54:	df000215 	stw	fp,8(sp)
   21c58:	df000204 	addi	fp,sp,8
   21c5c:	2005883a 	mov	r2,r4
   21c60:	e0bfff0d 	sth	r2,-4(fp)
	alt_u16 y;
	//y =  (((x) >> 8) & 0xff) | (((x) & 0xff) << 8);

//	y = x;
	y = (x >> 8) & 0x00ff;
   21c64:	e0bfff0b 	ldhu	r2,-4(fp)
   21c68:	1004d23a 	srli	r2,r2,8
   21c6c:	e0bffe0d 	sth	r2,-8(fp)
	y |= (x << 8) & 0xff00;
   21c70:	e0bfff0b 	ldhu	r2,-4(fp)
   21c74:	1004923a 	slli	r2,r2,8
   21c78:	1007883a 	mov	r3,r2
   21c7c:	e0bffe0b 	ldhu	r2,-8(fp)
   21c80:	1884b03a 	or	r2,r3,r2
   21c84:	e0bffe0d 	sth	r2,-8(fp)
	return y;
   21c88:	e0bffe0b 	ldhu	r2,-8(fp)
}
   21c8c:	e037883a 	mov	sp,fp
   21c90:	df000017 	ldw	fp,0(sp)
   21c94:	dec00104 	addi	sp,sp,4
   21c98:	f800283a 	ret

00021c9c <MipiBridgeRegWrite>:


void MipiBridgeRegWrite(config_t *pConfig,alt_u16 Addr, alt_u16 Value){
   21c9c:	defff904 	addi	sp,sp,-28
   21ca0:	dfc00615 	stw	ra,24(sp)
   21ca4:	df000515 	stw	fp,20(sp)
   21ca8:	df000504 	addi	fp,sp,20
   21cac:	e13ffd15 	stw	r4,-12(fp)
   21cb0:	2807883a 	mov	r3,r5
   21cb4:	3005883a 	mov	r2,r6
   21cb8:	e0fffe0d 	sth	r3,-8(fp)
   21cbc:	e0bfff0d 	sth	r2,-4(fp)
	const alt_u8 device_address = MIPI_BRIDGE_I2C_ADDR;
   21cc0:	00800704 	movi	r2,28
   21cc4:	e0bffc05 	stb	r2,-16(fp)
	OC_I2CL_Write(pConfig->bridge_i2c_base, device_address, Addr, (alt_u8 *)&Value, sizeof(Value));
   21cc8:	e0bffd17 	ldw	r2,-12(fp)
   21ccc:	10800017 	ldw	r2,0(r2)
   21cd0:	1009883a 	mov	r4,r2
   21cd4:	e17ffc03 	ldbu	r5,-16(fp)
   21cd8:	e1bffe0b 	ldhu	r6,-8(fp)
   21cdc:	e0ffff04 	addi	r3,fp,-4
   21ce0:	00800084 	movi	r2,2
   21ce4:	d8800015 	stw	r2,0(sp)
   21ce8:	180f883a 	mov	r7,r3
   21cec:	0020ba80 	call	20ba8 <OC_I2CL_Write>
}
   21cf0:	e037883a 	mov	sp,fp
   21cf4:	dfc00117 	ldw	ra,4(sp)
   21cf8:	df000017 	ldw	fp,0(sp)
   21cfc:	dec00204 	addi	sp,sp,8
   21d00:	f800283a 	ret

00021d04 <MipiBridgeRegRead>:

alt_u16 MipiBridgeRegRead(config_t *pConfig,alt_u16 Addr){
   21d04:	defff904 	addi	sp,sp,-28
   21d08:	dfc00615 	stw	ra,24(sp)
   21d0c:	df000515 	stw	fp,20(sp)
   21d10:	df000504 	addi	fp,sp,20
   21d14:	e13ffe15 	stw	r4,-8(fp)
   21d18:	2805883a 	mov	r2,r5
   21d1c:	e0bfff0d 	sth	r2,-4(fp)
	alt_u16 Value,tValue;
	const alt_u8 device_address = MIPI_BRIDGE_I2C_ADDR;
   21d20:	00800704 	movi	r2,28
   21d24:	e0bffc05 	stb	r2,-16(fp)

	OC_I2CL_Read(pConfig->bridge_i2c_base,device_address, Addr,(alt_u8 *)&Value,sizeof(Value));
   21d28:	e0bffe17 	ldw	r2,-8(fp)
   21d2c:	10800017 	ldw	r2,0(r2)
   21d30:	1009883a 	mov	r4,r2
   21d34:	e17ffc03 	ldbu	r5,-16(fp)
   21d38:	e1bfff0b 	ldhu	r6,-4(fp)
   21d3c:	e0fffd04 	addi	r3,fp,-12
   21d40:	00800084 	movi	r2,2
   21d44:	d8800015 	stw	r2,0(sp)
   21d48:	180f883a 	mov	r7,r3
   21d4c:	0020db80 	call	20db8 <OC_I2CL_Read>

	tValue = nSWAP16(Value);
   21d50:	e0bffd0b 	ldhu	r2,-12(fp)
   21d54:	10bfffcc 	andi	r2,r2,65535
   21d58:	1009883a 	mov	r4,r2
   21d5c:	0021c500 	call	21c50 <nSWAP16>
   21d60:	e0bffc8d 	sth	r2,-14(fp)

	return (tValue);
   21d64:	e0bffc8b 	ldhu	r2,-14(fp)
}
   21d68:	e037883a 	mov	sp,fp
   21d6c:	dfc00117 	ldw	ra,4(sp)
   21d70:	df000017 	ldw	fp,0(sp)
   21d74:	dec00204 	addi	sp,sp,8
   21d78:	f800283a 	ret

00021d7c <MipiBridgeInit>:




bool MipiBridgeInit(config_t *pConfig){
   21d7c:	defff904 	addi	sp,sp,-28
   21d80:	dfc00615 	stw	ra,24(sp)
   21d84:	df000515 	stw	fp,20(sp)
   21d88:	df000504 	addi	fp,sp,20
   21d8c:	e13fff15 	stw	r4,-4(fp)

	alt_u16 data;
    int i, num;
	bool bSuccess;

	printf("\n[%s]: Start MipiBridgeInit!\n",pConfig->str);
   21d90:	e0bfff17 	ldw	r2,-4(fp)
   21d94:	10800544 	addi	r2,r2,21
   21d98:	010000f4 	movhi	r4,3
   21d9c:	21121504 	addi	r4,r4,18516
   21da0:	100b883a 	mov	r5,r2
   21da4:	0025df80 	call	25df8 <printf>

	bSuccess = oc_i2c_init_ex(pConfig->bridge_i2c_base, 50*1000*1000,100*1000); //I2C: 100K
   21da8:	e0bfff17 	ldw	r2,-4(fp)
   21dac:	10800017 	ldw	r2,0(r2)
   21db0:	1009883a 	mov	r4,r2
   21db4:	0140bef4 	movhi	r5,763
   21db8:	297c2004 	addi	r5,r5,-3968
   21dbc:	018000b4 	movhi	r6,2
   21dc0:	31a1a804 	addi	r6,r6,-31072
   21dc4:	00203940 	call	20394 <oc_i2c_init_ex>
   21dc8:	e0bffc15 	stw	r2,-16(fp)
	if (!bSuccess)
   21dcc:	e0bffc17 	ldw	r2,-16(fp)
   21dd0:	1000031e 	bne	r2,zero,21de0 <MipiBridgeInit+0x64>
		printf("failed to init MIPI- Bridge i2c\r\n");
   21dd4:	010000f4 	movhi	r4,3
   21dd8:	21121d04 	addi	r4,r4,18548
   21ddc:	0025f0c0 	call	25f0c <puts>

	data = MipiBridgeRegRead(pConfig,0x0000); // read chip and revision id;
   21de0:	e13fff17 	ldw	r4,-4(fp)
   21de4:	000b883a 	mov	r5,zero
   21de8:	0021d040 	call	21d04 <MipiBridgeRegRead>
   21dec:	e0bffd0d 	sth	r2,-12(fp)

	printf("Chip and Revision ID is 0x%04xh(expected: 0x4401);\n",data);
   21df0:	e0bffd0b 	ldhu	r2,-12(fp)
   21df4:	010000f4 	movhi	r4,3
   21df8:	21122604 	addi	r4,r4,18584
   21dfc:	100b883a 	mov	r5,r2
   21e00:	0025df80 	call	25df8 <printf>


    num = sizeof(MipiBridgeReg)/sizeof(MipiBridgeReg[0]);
   21e04:	00800344 	movi	r2,13
   21e08:	e0bffe15 	stw	r2,-8(fp)

    for(i=0;i<num;i++){
   21e0c:	e03ffb15 	stw	zero,-20(fp)
   21e10:	00002c06 	br	21ec4 <MipiBridgeInit+0x148>
   	 if (MipiBridgeReg[i].Addr == 0xFFFF)   usleep(MipiBridgeReg[i].Data*1000);
   21e14:	008000f4 	movhi	r2,3
   21e18:	10938f04 	addi	r2,r2,20028
   21e1c:	e0fffb17 	ldw	r3,-20(fp)
   21e20:	18c7883a 	add	r3,r3,r3
   21e24:	18c7883a 	add	r3,r3,r3
   21e28:	10c5883a 	add	r2,r2,r3
   21e2c:	1080000b 	ldhu	r2,0(r2)
   21e30:	10ffffcc 	andi	r3,r2,65535
   21e34:	00bfffd4 	movui	r2,65535
   21e38:	18800c1e 	bne	r3,r2,21e6c <MipiBridgeInit+0xf0>
   21e3c:	008000f4 	movhi	r2,3
   21e40:	10938f04 	addi	r2,r2,20028
   21e44:	e0fffb17 	ldw	r3,-20(fp)
   21e48:	18c7883a 	add	r3,r3,r3
   21e4c:	18c7883a 	add	r3,r3,r3
   21e50:	10c5883a 	add	r2,r2,r3
   21e54:	1080008b 	ldhu	r2,2(r2)
   21e58:	10bfffcc 	andi	r2,r2,65535
   21e5c:	1080fa24 	muli	r2,r2,1000
   21e60:	1009883a 	mov	r4,r2
   21e64:	00322500 	call	32250 <usleep>
   21e68:	00001306 	br	21eb8 <MipiBridgeInit+0x13c>
        else MipiBridgeRegWrite(pConfig,MipiBridgeReg[i].Addr,  MipiBridgeReg[i].Data);
   21e6c:	008000f4 	movhi	r2,3
   21e70:	10938f04 	addi	r2,r2,20028
   21e74:	e0fffb17 	ldw	r3,-20(fp)
   21e78:	18c7883a 	add	r3,r3,r3
   21e7c:	18c7883a 	add	r3,r3,r3
   21e80:	10c5883a 	add	r2,r2,r3
   21e84:	1080000b 	ldhu	r2,0(r2)
   21e88:	117fffcc 	andi	r5,r2,65535
   21e8c:	008000f4 	movhi	r2,3
   21e90:	10938f04 	addi	r2,r2,20028
   21e94:	e0fffb17 	ldw	r3,-20(fp)
   21e98:	18c7883a 	add	r3,r3,r3
   21e9c:	18c7883a 	add	r3,r3,r3
   21ea0:	10c5883a 	add	r2,r2,r3
   21ea4:	1080008b 	ldhu	r2,2(r2)
   21ea8:	10bfffcc 	andi	r2,r2,65535
   21eac:	e13fff17 	ldw	r4,-4(fp)
   21eb0:	100d883a 	mov	r6,r2
   21eb4:	0021c9c0 	call	21c9c <MipiBridgeRegWrite>
	printf("Chip and Revision ID is 0x%04xh(expected: 0x4401);\n",data);


    num = sizeof(MipiBridgeReg)/sizeof(MipiBridgeReg[0]);

    for(i=0;i<num;i++){
   21eb8:	e0bffb17 	ldw	r2,-20(fp)
   21ebc:	10800044 	addi	r2,r2,1
   21ec0:	e0bffb15 	stw	r2,-20(fp)
   21ec4:	e0fffb17 	ldw	r3,-20(fp)
   21ec8:	e0bffe17 	ldw	r2,-8(fp)
   21ecc:	18bfd116 	blt	r3,r2,21e14 <__alt_data_end+0xfffe1e14>
   	 if (MipiBridgeReg[i].Addr == 0xFFFF)   usleep(MipiBridgeReg[i].Data*1000);
        else MipiBridgeRegWrite(pConfig,MipiBridgeReg[i].Addr,  MipiBridgeReg[i].Data);
     }

    printf("[%s]: End MipiBridgeInit!\n\n",pConfig->str);
   21ed0:	e0bfff17 	ldw	r2,-4(fp)
   21ed4:	10800544 	addi	r2,r2,21
   21ed8:	010000f4 	movhi	r4,3
   21edc:	21123304 	addi	r4,r4,18636
   21ee0:	100b883a 	mov	r5,r2
   21ee4:	0025df80 	call	25df8 <printf>

    return bSuccess;
   21ee8:	e0bffc17 	ldw	r2,-16(fp)

}
   21eec:	e037883a 	mov	sp,fp
   21ef0:	dfc00117 	ldw	ra,4(sp)
   21ef4:	df000017 	ldw	fp,0(sp)
   21ef8:	dec00204 	addi	sp,sp,8
   21efc:	f800283a 	ret

00021f00 <mipi_clear_error>:


void mipi_clear_error(config_t *pConfig){
   21f00:	defffd04 	addi	sp,sp,-12
   21f04:	dfc00215 	stw	ra,8(sp)
   21f08:	df000115 	stw	fp,4(sp)
   21f0c:	df000104 	addi	fp,sp,4
   21f10:	e13fff15 	stw	r4,-4(fp)
	MipiBridgeRegWrite(pConfig,MIPI_REG_CSIStatus,0x01FF); // clear error
   21f14:	e13fff17 	ldw	r4,-4(fp)
   21f18:	01401904 	movi	r5,100
   21f1c:	01807fc4 	movi	r6,511
   21f20:	0021c9c0 	call	21c9c <MipiBridgeRegWrite>
	MipiBridgeRegWrite(pConfig,MIPI_REG_MDLSynErr,0x0000); // clear error
   21f24:	e13fff17 	ldw	r4,-4(fp)
   21f28:	01401a04 	movi	r5,104
   21f2c:	000d883a 	mov	r6,zero
   21f30:	0021c9c0 	call	21c9c <MipiBridgeRegWrite>
	MipiBridgeRegWrite(pConfig,MIPI_REG_FrmErrCnt,0x0000); // clear error
   21f34:	e13fff17 	ldw	r4,-4(fp)
   21f38:	01402004 	movi	r5,128
   21f3c:	000d883a 	mov	r6,zero
   21f40:	0021c9c0 	call	21c9c <MipiBridgeRegWrite>
	MipiBridgeRegWrite(pConfig,MIPI_REG_MDLErrCnt, 0x0000); // clear error
   21f44:	e13fff17 	ldw	r4,-4(fp)
   21f48:	01402404 	movi	r5,144
   21f4c:	000d883a 	mov	r6,zero
   21f50:	0021c9c0 	call	21c9c <MipiBridgeRegWrite>

  	MipiBridgeRegWrite(pConfig,0x0082,0x00);
   21f54:	e13fff17 	ldw	r4,-4(fp)
   21f58:	01402084 	movi	r5,130
   21f5c:	000d883a 	mov	r6,zero
   21f60:	0021c9c0 	call	21c9c <MipiBridgeRegWrite>
  	MipiBridgeRegWrite(pConfig,0x0084,0x00);
   21f64:	e13fff17 	ldw	r4,-4(fp)
   21f68:	01402104 	movi	r5,132
   21f6c:	000d883a 	mov	r6,zero
   21f70:	0021c9c0 	call	21c9c <MipiBridgeRegWrite>
  	MipiBridgeRegWrite(pConfig,0x0086,0x00);
   21f74:	e13fff17 	ldw	r4,-4(fp)
   21f78:	01402184 	movi	r5,134
   21f7c:	000d883a 	mov	r6,zero
   21f80:	0021c9c0 	call	21c9c <MipiBridgeRegWrite>
  	MipiBridgeRegWrite(pConfig,0x0088,0x00);
   21f84:	e13fff17 	ldw	r4,-4(fp)
   21f88:	01402204 	movi	r5,136
   21f8c:	000d883a 	mov	r6,zero
   21f90:	0021c9c0 	call	21c9c <MipiBridgeRegWrite>
  	MipiBridgeRegWrite(pConfig,0x008A,0x00);
   21f94:	e13fff17 	ldw	r4,-4(fp)
   21f98:	01402284 	movi	r5,138
   21f9c:	000d883a 	mov	r6,zero
   21fa0:	0021c9c0 	call	21c9c <MipiBridgeRegWrite>
  	MipiBridgeRegWrite(pConfig,0x008C,0x00);
   21fa4:	e13fff17 	ldw	r4,-4(fp)
   21fa8:	01402304 	movi	r5,140
   21fac:	000d883a 	mov	r6,zero
   21fb0:	0021c9c0 	call	21c9c <MipiBridgeRegWrite>
  	MipiBridgeRegWrite(pConfig,0x008E,0x00);
   21fb4:	e13fff17 	ldw	r4,-4(fp)
   21fb8:	01402384 	movi	r5,142
   21fbc:	000d883a 	mov	r6,zero
   21fc0:	0021c9c0 	call	21c9c <MipiBridgeRegWrite>
  	MipiBridgeRegWrite(pConfig,0x0090,0x00);
   21fc4:	e13fff17 	ldw	r4,-4(fp)
   21fc8:	01402404 	movi	r5,144
   21fcc:	000d883a 	mov	r6,zero
   21fd0:	0021c9c0 	call	21c9c <MipiBridgeRegWrite>
}
   21fd4:	e037883a 	mov	sp,fp
   21fd8:	dfc00117 	ldw	ra,4(sp)
   21fdc:	df000017 	ldw	fp,0(sp)
   21fe0:	dec00204 	addi	sp,sp,8
   21fe4:	f800283a 	ret

00021fe8 <mipi_show_error_info>:

void mipi_show_error_info(config_t *pConfig){
   21fe8:	defff804 	addi	sp,sp,-32
   21fec:	dfc00715 	stw	ra,28(sp)
   21ff0:	df000615 	stw	fp,24(sp)
   21ff4:	df000604 	addi	fp,sp,24
   21ff8:	e13fff15 	stw	r4,-4(fp)

	alt_u16 PHY_status, SCI_status, MDLSynErr, FrmErrCnt, MDLErrCnt;

	PHY_status = MipiBridgeRegRead(pConfig,MIPI_REG_PHYSta);
   21ffc:	e13fff17 	ldw	r4,-4(fp)
   22000:	01401884 	movi	r5,98
   22004:	0021d040 	call	21d04 <MipiBridgeRegRead>
   22008:	e0bffc0d 	sth	r2,-16(fp)
	SCI_status = MipiBridgeRegRead(pConfig,MIPI_REG_CSIStatus);
   2200c:	e13fff17 	ldw	r4,-4(fp)
   22010:	01401904 	movi	r5,100
   22014:	0021d040 	call	21d04 <MipiBridgeRegRead>
   22018:	e0bffc8d 	sth	r2,-14(fp)
	MDLSynErr = MipiBridgeRegRead(pConfig,MIPI_REG_MDLSynErr);
   2201c:	e13fff17 	ldw	r4,-4(fp)
   22020:	01401a04 	movi	r5,104
   22024:	0021d040 	call	21d04 <MipiBridgeRegRead>
   22028:	e0bffd0d 	sth	r2,-12(fp)
	FrmErrCnt = MipiBridgeRegRead(pConfig,MIPI_REG_FrmErrCnt);
   2202c:	e13fff17 	ldw	r4,-4(fp)
   22030:	01402004 	movi	r5,128
   22034:	0021d040 	call	21d04 <MipiBridgeRegRead>
   22038:	e0bffd8d 	sth	r2,-10(fp)
	MDLErrCnt = MipiBridgeRegRead(pConfig,MIPI_REG_MDLErrCnt);
   2203c:	e13fff17 	ldw	r4,-4(fp)
   22040:	01402404 	movi	r5,144
   22044:	0021d040 	call	21d04 <MipiBridgeRegRead>
   22048:	e0bffe0d 	sth	r2,-8(fp)
	printf("PHY_status=%xh, CSI_status=%xh, MDLSynErr=%xh, FrmErrCnt=%xh, MDLErrCnt=%xh\r\n", PHY_status, SCI_status, MDLSynErr,FrmErrCnt, MDLErrCnt);
   2204c:	e17ffc0b 	ldhu	r5,-16(fp)
   22050:	e1bffc8b 	ldhu	r6,-14(fp)
   22054:	e1fffd0b 	ldhu	r7,-12(fp)
   22058:	e0fffd8b 	ldhu	r3,-10(fp)
   2205c:	e0bffe0b 	ldhu	r2,-8(fp)
   22060:	d8c00015 	stw	r3,0(sp)
   22064:	d8800115 	stw	r2,4(sp)
   22068:	010000f4 	movhi	r4,3
   2206c:	21123a04 	addi	r4,r4,18664
   22070:	0025df80 	call	25df8 <printf>
}
   22074:	e037883a 	mov	sp,fp
   22078:	dfc00117 	ldw	ra,4(sp)
   2207c:	df000017 	ldw	fp,0(sp)
   22080:	dec00204 	addi	sp,sp,8
   22084:	f800283a 	ret

00022088 <mipi_show_error_info_more>:

void mipi_show_error_info_more(config_t *pConfig){
   22088:	defffd04 	addi	sp,sp,-12
   2208c:	dfc00215 	stw	ra,8(sp)
   22090:	df000115 	stw	fp,4(sp)
   22094:	df000104 	addi	fp,sp,4
   22098:	e13fff15 	stw	r4,-4(fp)
    printf("FrmErrCnt = %d\n",MipiBridgeRegRead(pConfig,0x0080));
   2209c:	e13fff17 	ldw	r4,-4(fp)
   220a0:	01402004 	movi	r5,128
   220a4:	0021d040 	call	21d04 <MipiBridgeRegRead>
   220a8:	10bfffcc 	andi	r2,r2,65535
   220ac:	010000f4 	movhi	r4,3
   220b0:	21124e04 	addi	r4,r4,18744
   220b4:	100b883a 	mov	r5,r2
   220b8:	0025df80 	call	25df8 <printf>
    printf("CRCErrCnt = %d\n",MipiBridgeRegRead(pConfig,0x0082));
   220bc:	e13fff17 	ldw	r4,-4(fp)
   220c0:	01402084 	movi	r5,130
   220c4:	0021d040 	call	21d04 <MipiBridgeRegRead>
   220c8:	10bfffcc 	andi	r2,r2,65535
   220cc:	010000f4 	movhi	r4,3
   220d0:	21125204 	addi	r4,r4,18760
   220d4:	100b883a 	mov	r5,r2
   220d8:	0025df80 	call	25df8 <printf>
    printf("CorErrCnt = %d\n",MipiBridgeRegRead(pConfig,0x0084));
   220dc:	e13fff17 	ldw	r4,-4(fp)
   220e0:	01402104 	movi	r5,132
   220e4:	0021d040 	call	21d04 <MipiBridgeRegRead>
   220e8:	10bfffcc 	andi	r2,r2,65535
   220ec:	010000f4 	movhi	r4,3
   220f0:	21125604 	addi	r4,r4,18776
   220f4:	100b883a 	mov	r5,r2
   220f8:	0025df80 	call	25df8 <printf>
    printf("HdrErrCnt = %d\n",MipiBridgeRegRead(pConfig,0x0086));
   220fc:	e13fff17 	ldw	r4,-4(fp)
   22100:	01402184 	movi	r5,134
   22104:	0021d040 	call	21d04 <MipiBridgeRegRead>
   22108:	10bfffcc 	andi	r2,r2,65535
   2210c:	010000f4 	movhi	r4,3
   22110:	21125a04 	addi	r4,r4,18792
   22114:	100b883a 	mov	r5,r2
   22118:	0025df80 	call	25df8 <printf>
    printf("EIDErrCnt = %d\n",MipiBridgeRegRead(pConfig,0x0088));
   2211c:	e13fff17 	ldw	r4,-4(fp)
   22120:	01402204 	movi	r5,136
   22124:	0021d040 	call	21d04 <MipiBridgeRegRead>
   22128:	10bfffcc 	andi	r2,r2,65535
   2212c:	010000f4 	movhi	r4,3
   22130:	21125e04 	addi	r4,r4,18808
   22134:	100b883a 	mov	r5,r2
   22138:	0025df80 	call	25df8 <printf>
    printf("CtlErrCnt = %d\n",MipiBridgeRegRead(pConfig,0x008A));
   2213c:	e13fff17 	ldw	r4,-4(fp)
   22140:	01402284 	movi	r5,138
   22144:	0021d040 	call	21d04 <MipiBridgeRegRead>
   22148:	10bfffcc 	andi	r2,r2,65535
   2214c:	010000f4 	movhi	r4,3
   22150:	21126204 	addi	r4,r4,18824
   22154:	100b883a 	mov	r5,r2
   22158:	0025df80 	call	25df8 <printf>
    printf("SoTErrCnt = %d\n",MipiBridgeRegRead(pConfig,0x008C));
   2215c:	e13fff17 	ldw	r4,-4(fp)
   22160:	01402304 	movi	r5,140
   22164:	0021d040 	call	21d04 <MipiBridgeRegRead>
   22168:	10bfffcc 	andi	r2,r2,65535
   2216c:	010000f4 	movhi	r4,3
   22170:	21126604 	addi	r4,r4,18840
   22174:	100b883a 	mov	r5,r2
   22178:	0025df80 	call	25df8 <printf>
    printf("SynErrCnt = %d\n",MipiBridgeRegRead(pConfig,0x008E));
   2217c:	e13fff17 	ldw	r4,-4(fp)
   22180:	01402384 	movi	r5,142
   22184:	0021d040 	call	21d04 <MipiBridgeRegRead>
   22188:	10bfffcc 	andi	r2,r2,65535
   2218c:	010000f4 	movhi	r4,3
   22190:	21126a04 	addi	r4,r4,18856
   22194:	100b883a 	mov	r5,r2
   22198:	0025df80 	call	25df8 <printf>
    printf("MDLErrCnt = %d\n",MipiBridgeRegRead(pConfig,0x0090));
   2219c:	e13fff17 	ldw	r4,-4(fp)
   221a0:	01402404 	movi	r5,144
   221a4:	0021d040 	call	21d04 <MipiBridgeRegRead>
   221a8:	10bfffcc 	andi	r2,r2,65535
   221ac:	010000f4 	movhi	r4,3
   221b0:	21126e04 	addi	r4,r4,18872
   221b4:	100b883a 	mov	r5,r2
   221b8:	0025df80 	call	25df8 <printf>
    printf("FIFOSTATUS = %d\n",MipiBridgeRegRead(pConfig,0x00F8));
   221bc:	e13fff17 	ldw	r4,-4(fp)
   221c0:	01403e04 	movi	r5,248
   221c4:	0021d040 	call	21d04 <MipiBridgeRegRead>
   221c8:	10bfffcc 	andi	r2,r2,65535
   221cc:	010000f4 	movhi	r4,3
   221d0:	21127204 	addi	r4,r4,18888
   221d4:	100b883a 	mov	r5,r2
   221d8:	0025df80 	call	25df8 <printf>
    printf("DataType = 0x%04x\n",MipiBridgeRegRead(pConfig,0x006A));
   221dc:	e13fff17 	ldw	r4,-4(fp)
   221e0:	01401a84 	movi	r5,106
   221e4:	0021d040 	call	21d04 <MipiBridgeRegRead>
   221e8:	10bfffcc 	andi	r2,r2,65535
   221ec:	010000f4 	movhi	r4,3
   221f0:	21127704 	addi	r4,r4,18908
   221f4:	100b883a 	mov	r5,r2
   221f8:	0025df80 	call	25df8 <printf>
    printf("CSIPktLen = %d\n",MipiBridgeRegRead(pConfig,0x006E));
   221fc:	e13fff17 	ldw	r4,-4(fp)
   22200:	01401b84 	movi	r5,110
   22204:	0021d040 	call	21d04 <MipiBridgeRegRead>
   22208:	10bfffcc 	andi	r2,r2,65535
   2220c:	010000f4 	movhi	r4,3
   22210:	21127c04 	addi	r4,r4,18928
   22214:	100b883a 	mov	r5,r2
   22218:	0025df80 	call	25df8 <printf>
}
   2221c:	e037883a 	mov	sp,fp
   22220:	dfc00117 	ldw	ra,4(sp)
   22224:	df000017 	ldw	fp,0(sp)
   22228:	dec00204 	addi	sp,sp,8
   2222c:	f800283a 	ret

00022230 <OV8865_read_cmos_sensor_8>:
   };




alt_u8 OV8865_read_cmos_sensor_8(config_t *pConfig,alt_u16 Addr){
   22230:	defffa04 	addi	sp,sp,-24
   22234:	dfc00515 	stw	ra,20(sp)
   22238:	df000415 	stw	fp,16(sp)
   2223c:	df000404 	addi	fp,sp,16
   22240:	e13ffe15 	stw	r4,-8(fp)
   22244:	2805883a 	mov	r2,r5
   22248:	e0bfff0d 	sth	r2,-4(fp)
	const alt_u8 device_address = MIPI_I2C_ADDR;
   2224c:	00801b04 	movi	r2,108
   22250:	e0bffd05 	stb	r2,-12(fp)
	alt_u8 Value;

	//OC_I2CL_Write(pConfig->camera_i2c_base, device_address, SWAP16(Addr), (alt_u8 *)&Value, sizeof(Value));
	OC_I2CL_Read(pConfig->camera_i2c_base, device_address, Addr, (alt_u8 *)&Value, sizeof(Value));
   22254:	e0bffe17 	ldw	r2,-8(fp)
   22258:	10800117 	ldw	r2,4(r2)
   2225c:	1009883a 	mov	r4,r2
   22260:	e17ffd03 	ldbu	r5,-12(fp)
   22264:	e1bfff0b 	ldhu	r6,-4(fp)
   22268:	e0fffd44 	addi	r3,fp,-11
   2226c:	00800044 	movi	r2,1
   22270:	d8800015 	stw	r2,0(sp)
   22274:	180f883a 	mov	r7,r3
   22278:	0020db80 	call	20db8 <OC_I2CL_Read>

	return (Value);
   2227c:	e0bffd43 	ldbu	r2,-11(fp)
}
   22280:	e037883a 	mov	sp,fp
   22284:	dfc00117 	ldw	ra,4(sp)
   22288:	df000017 	ldw	fp,0(sp)
   2228c:	dec00204 	addi	sp,sp,8
   22290:	f800283a 	ret

00022294 <OV8865_write_cmos_sensor_8>:


void OV8865_write_cmos_sensor_8(config_t *pConfig,alt_u16 Addr, alt_u8 Value){
   22294:	defff904 	addi	sp,sp,-28
   22298:	dfc00615 	stw	ra,24(sp)
   2229c:	df000515 	stw	fp,20(sp)
   222a0:	df000504 	addi	fp,sp,20
   222a4:	e13ffd15 	stw	r4,-12(fp)
   222a8:	2807883a 	mov	r3,r5
   222ac:	3005883a 	mov	r2,r6
   222b0:	e0fffe0d 	sth	r3,-8(fp)
   222b4:	e0bfff05 	stb	r2,-4(fp)
	const alt_u8 device_address = MIPI_I2C_ADDR;
   222b8:	00801b04 	movi	r2,108
   222bc:	e0bffc05 	stb	r2,-16(fp)
	//OC_I2CL_Write(pConfig->camera_i2c_base, device_address, SWAP16(Addr), (alt_u8 *)&Value, sizeof(Value));
	OC_I2CL_Write(pConfig->camera_i2c_base, device_address, Addr, (alt_u8 *)&Value, sizeof(Value));
   222c0:	e0bffd17 	ldw	r2,-12(fp)
   222c4:	10800117 	ldw	r2,4(r2)
   222c8:	1009883a 	mov	r4,r2
   222cc:	e17ffc03 	ldbu	r5,-16(fp)
   222d0:	e1bffe0b 	ldhu	r6,-8(fp)
   222d4:	e0ffff04 	addi	r3,fp,-4
   222d8:	00800044 	movi	r2,1
   222dc:	d8800015 	stw	r2,0(sp)
   222e0:	180f883a 	mov	r7,r3
   222e4:	0020ba80 	call	20ba8 <OC_I2CL_Write>
}
   222e8:	e037883a 	mov	sp,fp
   222ec:	dfc00117 	ldw	ra,4(sp)
   222f0:	df000017 	ldw	fp,0(sp)
   222f4:	dec00204 	addi	sp,sp,8
   222f8:	f800283a 	ret

000222fc <OV8865_write_AF>:


void OV8865_write_AF(config_t *pConfig,alt_u8 msb, alt_u8 lsb){
   222fc:	defff904 	addi	sp,sp,-28
   22300:	dfc00615 	stw	ra,24(sp)
   22304:	df000515 	stw	fp,20(sp)
   22308:	df000504 	addi	fp,sp,20
   2230c:	e13ffd15 	stw	r4,-12(fp)
   22310:	2807883a 	mov	r3,r5
   22314:	3005883a 	mov	r2,r6
   22318:	e0fffe05 	stb	r3,-8(fp)
   2231c:	e0bfff05 	stb	r2,-4(fp)
	// VCM149C
	const alt_u8 device_address = MIPI_AF_I2C_ADDR;
   22320:	00800604 	movi	r2,24
   22324:	e0bffc05 	stb	r2,-16(fp)
	OC_I2C_Write(pConfig->camera_i2c_base, device_address, msb, (alt_u8 *)&lsb, sizeof(lsb));
   22328:	e0bffd17 	ldw	r2,-12(fp)
   2232c:	10800117 	ldw	r2,4(r2)
   22330:	1009883a 	mov	r4,r2
   22334:	e17ffc03 	ldbu	r5,-16(fp)
   22338:	e1bffe03 	ldbu	r6,-8(fp)
   2233c:	e0ffff04 	addi	r3,fp,-4
   22340:	00800044 	movi	r2,1
   22344:	d8800015 	stw	r2,0(sp)
   22348:	180f883a 	mov	r7,r3
   2234c:	00206400 	call	20640 <OC_I2C_Write>
}
   22350:	e037883a 	mov	sp,fp
   22354:	dfc00117 	ldw	ra,4(sp)
   22358:	df000017 	ldw	fp,0(sp)
   2235c:	dec00204 	addi	sp,sp,8
   22360:	f800283a 	ret

00022364 <OV8865_read_AF>:

void OV8865_read_AF(config_t *pConfig){
   22364:	defffa04 	addi	sp,sp,-24
   22368:	dfc00515 	stw	ra,20(sp)
   2236c:	df000415 	stw	fp,16(sp)
   22370:	df000404 	addi	fp,sp,16
   22374:	e13fff15 	stw	r4,-4(fp)
	// VCM149C
	const alt_u8 device_address = MIPI_AF_I2C_ADDR;
   22378:	00800604 	movi	r2,24
   2237c:	e0bffc05 	stb	r2,-16(fp)
	alt_u8 szData8[2];
	bool bSuccess;

		bSuccess = OC_I2C_Read_Continue(pConfig->camera_i2c_base, device_address, szData8, sizeof(szData8));
   22380:	e0bfff17 	ldw	r2,-4(fp)
   22384:	10800117 	ldw	r2,4(r2)
   22388:	1009883a 	mov	r4,r2
   2238c:	e0fffc03 	ldbu	r3,-16(fp)
   22390:	e0bffe04 	addi	r2,fp,-8
   22394:	180b883a 	mov	r5,r3
   22398:	100d883a 	mov	r6,r2
   2239c:	01c00084 	movi	r7,2
   223a0:	0020a700 	call	20a70 <OC_I2C_Read_Continue>
   223a4:	e0bffd15 	stw	r2,-12(fp)
		if (bSuccess)
   223a8:	e0bffd17 	ldw	r2,-12(fp)
   223ac:	10000926 	beq	r2,zero,223d4 <OV8865_read_AF+0x70>
			printf("Read MSB=%xh, LSB=%xh\r\n", szData8[0], szData8[1]);
   223b0:	e0bffe03 	ldbu	r2,-8(fp)
   223b4:	10c03fcc 	andi	r3,r2,255
   223b8:	e0bffe43 	ldbu	r2,-7(fp)
   223bc:	10803fcc 	andi	r2,r2,255
   223c0:	010000f4 	movhi	r4,3
   223c4:	21128004 	addi	r4,r4,18944
   223c8:	180b883a 	mov	r5,r3
   223cc:	100d883a 	mov	r6,r2
   223d0:	0025df80 	call	25df8 <printf>
}
   223d4:	e037883a 	mov	sp,fp
   223d8:	dfc00117 	ldw	ra,4(sp)
   223dc:	df000017 	ldw	fp,0(sp)
   223e0:	dec00204 	addi	sp,sp,8
   223e4:	f800283a 	ret

000223e8 <OV8865_FOCUS_Move_to>:

void OV8865_FOCUS_Move_to(config_t *pConfig,alt_u16 a_u2MovePosition)
{
   223e8:	defffa04 	addi	sp,sp,-24
   223ec:	dfc00515 	stw	ra,20(sp)
   223f0:	df000415 	stw	fp,16(sp)
   223f4:	df000404 	addi	fp,sp,16
   223f8:	e13ffe15 	stw	r4,-8(fp)
   223fc:	2805883a 	mov	r2,r5
   22400:	e0bfff0d 	sth	r2,-4(fp)
  if (a_u2MovePosition > 1023)   {a_u2MovePosition = 1023;}
   22404:	e0bfff0b 	ldhu	r2,-4(fp)
   22408:	10810030 	cmpltui	r2,r2,1024
   2240c:	1000021e 	bne	r2,zero,22418 <OV8865_FOCUS_Move_to+0x30>
   22410:	0080ffc4 	movi	r2,1023
   22414:	e0bfff0d 	sth	r2,-4(fp)
  if (a_u2MovePosition < 0)     {a_u2MovePosition = 0;}
  int bSuccess;

  Focus_Released(pConfig); // waiting for VCM release I2C bus
   22418:	e13ffe17 	ldw	r4,-8(fp)
   2241c:	00213bc0 	call	213bc <Focus_Released>

	bSuccess = oc_i2c_init_ex(pConfig->camera_i2c_base, 50*1000*1000,100*1000); //I2C: 100K
   22420:	e0bffe17 	ldw	r2,-8(fp)
   22424:	10800117 	ldw	r2,4(r2)
   22428:	1009883a 	mov	r4,r2
   2242c:	0140bef4 	movhi	r5,763
   22430:	297c2004 	addi	r5,r5,-3968
   22434:	018000b4 	movhi	r6,2
   22438:	31a1a804 	addi	r6,r6,-31072
   2243c:	00203940 	call	20394 <oc_i2c_init_ex>
   22440:	e0bffc15 	stw	r2,-16(fp)
	if (!bSuccess)
   22444:	e0bffc17 	ldw	r2,-16(fp)
   22448:	1000031e 	bne	r2,zero,22458 <OV8865_FOCUS_Move_to+0x70>
		printf("failed to init MIPI- Camera i2c\r\n");
   2244c:	010000f4 	movhi	r4,3
   22450:	21128604 	addi	r4,r4,18968
   22454:	0025f0c0 	call	25f0c <puts>

	printf("[%s]: set focus to %d\r\n",pConfig->str,a_u2MovePosition);
   22458:	e0bffe17 	ldw	r2,-8(fp)
   2245c:	10c00544 	addi	r3,r2,21
   22460:	e0bfff0b 	ldhu	r2,-4(fp)
   22464:	010000f4 	movhi	r4,3
   22468:	21128f04 	addi	r4,r4,19004
   2246c:	180b883a 	mov	r5,r3
   22470:	100d883a 	mov	r6,r2
   22474:	0025df80 	call	25df8 <printf>
  alt_u8 msb,lsb;
  msb = (a_u2MovePosition >> 4)&0x00FF;
   22478:	e0bfff0b 	ldhu	r2,-4(fp)
   2247c:	1004d13a 	srli	r2,r2,4
   22480:	e0bffd05 	stb	r2,-12(fp)
  lsb = (a_u2MovePosition << 4 )&0x00F0;
   22484:	e0bfff0b 	ldhu	r2,-4(fp)
   22488:	1004913a 	slli	r2,r2,4
   2248c:	e0bffd45 	stb	r2,-11(fp)
  lsb += 0x06;
   22490:	e0bffd43 	ldbu	r2,-11(fp)
   22494:	10800184 	addi	r2,r2,6
   22498:	e0bffd45 	stb	r2,-11(fp)
//	printf("Write MSB=%xh, LSB=%xh\r\n", msb, lsb);
	OV8865_write_AF(pConfig,msb, lsb+0x6);
   2249c:	e0fffd03 	ldbu	r3,-12(fp)
   224a0:	e0bffd43 	ldbu	r2,-11(fp)
   224a4:	10800184 	addi	r2,r2,6
   224a8:	10803fcc 	andi	r2,r2,255
   224ac:	e13ffe17 	ldw	r4,-8(fp)
   224b0:	180b883a 	mov	r5,r3
   224b4:	100d883a 	mov	r6,r2
   224b8:	00222fc0 	call	222fc <OV8865_write_AF>
	usleep(1000);
   224bc:	0100fa04 	movi	r4,1000
   224c0:	00322500 	call	32250 <usleep>
//	OV8865_read_AF();
	oc_i2c_uninit(pConfig->camera_i2c_base);  // Release I2C bus , due to two I2C master shared!
   224c4:	e0bffe17 	ldw	r2,-8(fp)
   224c8:	10800117 	ldw	r2,4(r2)
   224cc:	1009883a 	mov	r4,r2
   224d0:	00204d00 	call	204d0 <oc_i2c_uninit>

}
   224d4:	e037883a 	mov	sp,fp
   224d8:	dfc00117 	ldw	ra,4(sp)
   224dc:	df000017 	ldw	fp,0(sp)
   224e0:	dec00204 	addi	sp,sp,8
   224e4:	f800283a 	ret

000224e8 <camera_bin_level>:




//ZOOM
void camera_bin_level(config_t *pConfig,alt_u8 level){
   224e8:	defffb04 	addi	sp,sp,-20
   224ec:	dfc00415 	stw	ra,16(sp)
   224f0:	df000315 	stw	fp,12(sp)
   224f4:	df000304 	addi	fp,sp,12
   224f8:	e13ffe15 	stw	r4,-8(fp)
   224fc:	2805883a 	mov	r2,r5
   22500:	e0bfff05 	stb	r2,-4(fp)
	if(level <= 1) level = 1;
   22504:	e0bfff03 	ldbu	r2,-4(fp)
   22508:	108000a8 	cmpgeui	r2,r2,2
   2250c:	1000021e 	bne	r2,zero,22518 <camera_bin_level+0x30>
   22510:	00800044 	movi	r2,1
   22514:	e0bfff05 	stb	r2,-4(fp)
	if(level >= 3) level = 3;
   22518:	e0bfff03 	ldbu	r2,-4(fp)
   2251c:	108000f0 	cmpltui	r2,r2,3
   22520:	1000021e 	bne	r2,zero,2252c <camera_bin_level+0x44>
   22524:	008000c4 	movi	r2,3
   22528:	e0bfff05 	stb	r2,-4(fp)

	  Focus_Released(pConfig); // waiting for VCM release I2C bus
   2252c:	e13ffe17 	ldw	r4,-8(fp)
   22530:	00213bc0 	call	213bc <Focus_Released>

	  int bSuccess;
		bSuccess = oc_i2c_init_ex(pConfig->camera_i2c_base, 50*1000*1000,100*1000); //I2C: 100K
   22534:	e0bffe17 	ldw	r2,-8(fp)
   22538:	10800117 	ldw	r2,4(r2)
   2253c:	1009883a 	mov	r4,r2
   22540:	0140bef4 	movhi	r5,763
   22544:	297c2004 	addi	r5,r5,-3968
   22548:	018000b4 	movhi	r6,2
   2254c:	31a1a804 	addi	r6,r6,-31072
   22550:	00203940 	call	20394 <oc_i2c_init_ex>
   22554:	e0bffd15 	stw	r2,-12(fp)
		if (!bSuccess)
   22558:	e0bffd17 	ldw	r2,-12(fp)
   2255c:	1000031e 	bne	r2,zero,2256c <camera_bin_level+0x84>
			printf("failed to init MIPI- Camera i2c\r\n");
   22560:	010000f4 	movhi	r4,3
   22564:	21128604 	addi	r4,r4,18968
   22568:	0025f0c0 	call	25f0c <puts>

	printf("[%s]: set zoom level to %d\r\n",pConfig->str,level);
   2256c:	e0bffe17 	ldw	r2,-8(fp)
   22570:	10c00544 	addi	r3,r2,21
   22574:	e0bfff03 	ldbu	r2,-4(fp)
   22578:	010000f4 	movhi	r4,3
   2257c:	21129504 	addi	r4,r4,19028
   22580:	180b883a 	mov	r5,r3
   22584:	100d883a 	mov	r6,r2
   22588:	0025df80 	call	25df8 <printf>

//	OV8865_write_cmos_sensor_8(pConfig,0x0100, 0x00);

	if(level == 1){
   2258c:	e0bfff03 	ldbu	r2,-4(fp)
   22590:	10800058 	cmpnei	r2,r2,1
   22594:	1000191e 	bne	r2,zero,225fc <camera_bin_level+0x114>
		OV8865_write_cmos_sensor_8(pConfig,0x3814, 0x01);
   22598:	e13ffe17 	ldw	r4,-8(fp)
   2259c:	014e0504 	movi	r5,14356
   225a0:	01800044 	movi	r6,1
   225a4:	00222940 	call	22294 <OV8865_write_cmos_sensor_8>
		OV8865_write_cmos_sensor_8(pConfig,0x3815, 0x01);
   225a8:	e13ffe17 	ldw	r4,-8(fp)
   225ac:	014e0544 	movi	r5,14357
   225b0:	01800044 	movi	r6,1
   225b4:	00222940 	call	22294 <OV8865_write_cmos_sensor_8>
		OV8865_write_cmos_sensor_8(pConfig,0x382a, 0x01);
   225b8:	e13ffe17 	ldw	r4,-8(fp)
   225bc:	014e0a84 	movi	r5,14378
   225c0:	01800044 	movi	r6,1
   225c4:	00222940 	call	22294 <OV8865_write_cmos_sensor_8>
		OV8865_write_cmos_sensor_8(pConfig,0x382b, 0x01);
   225c8:	e13ffe17 	ldw	r4,-8(fp)
   225cc:	014e0ac4 	movi	r5,14379
   225d0:	01800044 	movi	r6,1
   225d4:	00222940 	call	22294 <OV8865_write_cmos_sensor_8>

		OV8865_write_cmos_sensor_8(pConfig,0x3830, 8);
   225d8:	e13ffe17 	ldw	r4,-8(fp)
   225dc:	014e0c04 	movi	r5,14384
   225e0:	01800204 	movi	r6,8
   225e4:	00222940 	call	22294 <OV8865_write_cmos_sensor_8>
		OV8865_write_cmos_sensor_8(pConfig,0x3836, 2);
   225e8:	e13ffe17 	ldw	r4,-8(fp)
   225ec:	014e0d84 	movi	r5,14390
   225f0:	01800084 	movi	r6,2
   225f4:	00222940 	call	22294 <OV8865_write_cmos_sensor_8>
   225f8:	00003706 	br	226d8 <camera_bin_level+0x1f0>
	}
	else if(level == 2){
   225fc:	e0bfff03 	ldbu	r2,-4(fp)
   22600:	10800098 	cmpnei	r2,r2,2
   22604:	1000191e 	bne	r2,zero,2266c <camera_bin_level+0x184>
		OV8865_write_cmos_sensor_8(pConfig,0x3814, 0x03);
   22608:	e13ffe17 	ldw	r4,-8(fp)
   2260c:	014e0504 	movi	r5,14356
   22610:	018000c4 	movi	r6,3
   22614:	00222940 	call	22294 <OV8865_write_cmos_sensor_8>
		OV8865_write_cmos_sensor_8(pConfig,0x3815, 0x01);
   22618:	e13ffe17 	ldw	r4,-8(fp)
   2261c:	014e0544 	movi	r5,14357
   22620:	01800044 	movi	r6,1
   22624:	00222940 	call	22294 <OV8865_write_cmos_sensor_8>
		OV8865_write_cmos_sensor_8(pConfig,0x382a, 0x03);
   22628:	e13ffe17 	ldw	r4,-8(fp)
   2262c:	014e0a84 	movi	r5,14378
   22630:	018000c4 	movi	r6,3
   22634:	00222940 	call	22294 <OV8865_write_cmos_sensor_8>
		OV8865_write_cmos_sensor_8(pConfig,0x382b, 0x01);
   22638:	e13ffe17 	ldw	r4,-8(fp)
   2263c:	014e0ac4 	movi	r5,14379
   22640:	01800044 	movi	r6,1
   22644:	00222940 	call	22294 <OV8865_write_cmos_sensor_8>

		OV8865_write_cmos_sensor_8(pConfig,0x3830, 4);
   22648:	e13ffe17 	ldw	r4,-8(fp)
   2264c:	014e0c04 	movi	r5,14384
   22650:	01800104 	movi	r6,4
   22654:	00222940 	call	22294 <OV8865_write_cmos_sensor_8>
		OV8865_write_cmos_sensor_8(pConfig,0x3836, 1);
   22658:	e13ffe17 	ldw	r4,-8(fp)
   2265c:	014e0d84 	movi	r5,14390
   22660:	01800044 	movi	r6,1
   22664:	00222940 	call	22294 <OV8865_write_cmos_sensor_8>
   22668:	00001b06 	br	226d8 <camera_bin_level+0x1f0>

	}
	else if(level == 3){
   2266c:	e0bfff03 	ldbu	r2,-4(fp)
   22670:	108000d8 	cmpnei	r2,r2,3
   22674:	1000181e 	bne	r2,zero,226d8 <camera_bin_level+0x1f0>
		OV8865_write_cmos_sensor_8(pConfig,0x3814, 0x07);
   22678:	e13ffe17 	ldw	r4,-8(fp)
   2267c:	014e0504 	movi	r5,14356
   22680:	018001c4 	movi	r6,7
   22684:	00222940 	call	22294 <OV8865_write_cmos_sensor_8>
		OV8865_write_cmos_sensor_8(pConfig,0x3815, 0x01);
   22688:	e13ffe17 	ldw	r4,-8(fp)
   2268c:	014e0544 	movi	r5,14357
   22690:	01800044 	movi	r6,1
   22694:	00222940 	call	22294 <OV8865_write_cmos_sensor_8>
		OV8865_write_cmos_sensor_8(pConfig,0x382a, 0x07);
   22698:	e13ffe17 	ldw	r4,-8(fp)
   2269c:	014e0a84 	movi	r5,14378
   226a0:	018001c4 	movi	r6,7
   226a4:	00222940 	call	22294 <OV8865_write_cmos_sensor_8>
		OV8865_write_cmos_sensor_8(pConfig,0x382b, 0x01);
   226a8:	e13ffe17 	ldw	r4,-8(fp)
   226ac:	014e0ac4 	movi	r5,14379
   226b0:	01800044 	movi	r6,1
   226b4:	00222940 	call	22294 <OV8865_write_cmos_sensor_8>

		OV8865_write_cmos_sensor_8(pConfig,0x3830, 8);
   226b8:	e13ffe17 	ldw	r4,-8(fp)
   226bc:	014e0c04 	movi	r5,14384
   226c0:	01800204 	movi	r6,8
   226c4:	00222940 	call	22294 <OV8865_write_cmos_sensor_8>
		OV8865_write_cmos_sensor_8(pConfig,0x3836, 2);
   226c8:	e13ffe17 	ldw	r4,-8(fp)
   226cc:	014e0d84 	movi	r5,14390
   226d0:	01800084 	movi	r6,2
   226d4:	00222940 	call	22294 <OV8865_write_cmos_sensor_8>
	}
    usleep(10000);
   226d8:	0109c404 	movi	r4,10000
   226dc:	00322500 	call	32250 <usleep>
//	// use hardware standby for sync multi-Camera!
//    IOWR(MIPI_PWDN_N_BASE, 0x00, 0x00);
//    usleep(1000);
//    IOWR(MIPI_PWDN_N_BASE, 0x00, 0xFF);

	oc_i2c_uninit(pConfig->camera_i2c_base);  // Release I2C bus , due to two I2C master shared!
   226e0:	e0bffe17 	ldw	r2,-8(fp)
   226e4:	10800117 	ldw	r2,4(r2)
   226e8:	1009883a 	mov	r4,r2
   226ec:	00204d00 	call	204d0 <oc_i2c_uninit>

}
   226f0:	e037883a 	mov	sp,fp
   226f4:	dfc00117 	ldw	ra,4(sp)
   226f8:	df000017 	ldw	fp,0(sp)
   226fc:	dec00204 	addi	sp,sp,8
   22700:	f800283a 	ret

00022704 <MipiCameraInit>:



void MipiCameraInit(config_t *pConfig)
{
   22704:	defffa04 	addi	sp,sp,-24
   22708:	dfc00515 	stw	ra,20(sp)
   2270c:	df000415 	stw	fp,16(sp)
   22710:	df000404 	addi	fp,sp,16
   22714:	e13fff15 	stw	r4,-4(fp)

    int i, num;
    int bSuccess;

    Focus_Released(pConfig); // waiting for VCM release I2C bus
   22718:	e13fff17 	ldw	r4,-4(fp)
   2271c:	00213bc0 	call	213bc <Focus_Released>


		bSuccess = oc_i2c_init_ex(pConfig->camera_i2c_base, 50*1000*1000,100*1000); //I2C: 100K
   22720:	e0bfff17 	ldw	r2,-4(fp)
   22724:	10800117 	ldw	r2,4(r2)
   22728:	1009883a 	mov	r4,r2
   2272c:	0140bef4 	movhi	r5,763
   22730:	297c2004 	addi	r5,r5,-3968
   22734:	018000b4 	movhi	r6,2
   22738:	31a1a804 	addi	r6,r6,-31072
   2273c:	00203940 	call	20394 <oc_i2c_init_ex>
   22740:	e0bffd15 	stw	r2,-12(fp)
		if (!bSuccess)
   22744:	e0bffd17 	ldw	r2,-12(fp)
   22748:	1000031e 	bne	r2,zero,22758 <MipiCameraInit+0x54>
			printf("failed to init MIPI- Camera\r\n");
   2274c:	010000f4 	movhi	r4,3
   22750:	21129d04 	addi	r4,r4,19060
   22754:	0025f0c0 	call	25f0c <puts>
//        usleep(10000);
//    }
//


	 OV8865DB("\n[%s]: Start MipiCameraInit -OV8865!\r\n",pConfig->str);
   22758:	e0bfff17 	ldw	r2,-4(fp)
   2275c:	10800544 	addi	r2,r2,21
   22760:	010000f4 	movhi	r4,3
   22764:	2112a504 	addi	r4,r4,19092
   22768:	100b883a 	mov	r5,r2
   2276c:	0025df80 	call	25df8 <printf>
	 OV8865DB("Write Read Test!\n");
   22770:	010000f4 	movhi	r4,3
   22774:	2112af04 	addi	r4,r4,19132
   22778:	0025f0c0 	call	25f0c <puts>

	    for(i=0;i<10;i++){
   2277c:	e03ffc15 	stw	zero,-16(fp)
   22780:	00001606 	br	227dc <MipiCameraInit+0xd8>
	       OV8865_write_cmos_sensor_8(pConfig,0x3809,i);
   22784:	e0bffc17 	ldw	r2,-16(fp)
   22788:	10803fcc 	andi	r2,r2,255
   2278c:	e13fff17 	ldw	r4,-4(fp)
   22790:	014e0244 	movi	r5,14345
   22794:	100d883a 	mov	r6,r2
   22798:	00222940 	call	22294 <OV8865_write_cmos_sensor_8>
	      usleep(100);
   2279c:	01001904 	movi	r4,100
   227a0:	00322500 	call	32250 <usleep>
	        printf("%d (%d)\n",OV8865_read_cmos_sensor_8(pConfig,0x3809),i);
   227a4:	e13fff17 	ldw	r4,-4(fp)
   227a8:	014e0244 	movi	r5,14345
   227ac:	00222300 	call	22230 <OV8865_read_cmos_sensor_8>
   227b0:	10803fcc 	andi	r2,r2,255
   227b4:	010000f4 	movhi	r4,3
   227b8:	2112b404 	addi	r4,r4,19152
   227bc:	100b883a 	mov	r5,r2
   227c0:	e1bffc17 	ldw	r6,-16(fp)
   227c4:	0025df80 	call	25df8 <printf>
	      usleep(100);
   227c8:	01001904 	movi	r4,100
   227cc:	00322500 	call	32250 <usleep>


	 OV8865DB("\n[%s]: Start MipiCameraInit -OV8865!\r\n",pConfig->str);
	 OV8865DB("Write Read Test!\n");

	    for(i=0;i<10;i++){
   227d0:	e0bffc17 	ldw	r2,-16(fp)
   227d4:	10800044 	addi	r2,r2,1
   227d8:	e0bffc15 	stw	r2,-16(fp)
   227dc:	e0bffc17 	ldw	r2,-16(fp)
   227e0:	10800290 	cmplti	r2,r2,10
   227e4:	103fe71e 	bne	r2,zero,22784 <__alt_data_end+0xfffe2784>
	       OV8865_write_cmos_sensor_8(pConfig,0x3809,i);
	      usleep(100);
	        printf("%d (%d)\n",OV8865_read_cmos_sensor_8(pConfig,0x3809),i);
	      usleep(100);
	    }
	 num = sizeof(MipiCameraReg)/sizeof(MipiCameraReg[0]);
   227e8:	00804ec4 	movi	r2,315
   227ec:	e0bffe15 	stw	r2,-8(fp)
     for(i=0;i<num;i++){
   227f0:	e03ffc15 	stw	zero,-16(fp)
   227f4:	00003d06 	br	228ec <MipiCameraInit+0x1e8>

    	 if (MipiCameraReg[i].Type == TIME_DELAY)   usleep(MipiCameraReg[i].Data*100);
   227f8:	008000f4 	movhi	r2,3
   227fc:	10939c04 	addi	r2,r2,20080
   22800:	e0fffc17 	ldw	r3,-16(fp)
   22804:	18c001a4 	muli	r3,r3,6
   22808:	10c5883a 	add	r2,r2,r3
   2280c:	10800003 	ldbu	r2,0(r2)
   22810:	10803fcc 	andi	r2,r2,255
   22814:	108000d8 	cmpnei	r2,r2,3
   22818:	10000c1e 	bne	r2,zero,2284c <MipiCameraInit+0x148>
   2281c:	008000f4 	movhi	r2,3
   22820:	10939c04 	addi	r2,r2,20080
   22824:	e0fffc17 	ldw	r3,-16(fp)
   22828:	18c001a4 	muli	r3,r3,6
   2282c:	10c5883a 	add	r2,r2,r3
   22830:	10800104 	addi	r2,r2,4
   22834:	10800003 	ldbu	r2,0(r2)
   22838:	10803fcc 	andi	r2,r2,255
   2283c:	10801924 	muli	r2,r2,100
   22840:	1009883a 	mov	r4,r2
   22844:	00322500 	call	32250 <usleep>
   22848:	00002506 	br	228e0 <MipiCameraInit+0x1dc>
    	 else if(MipiCameraReg[i].Type == END_OF_SCRIPT)   break;
   2284c:	008000f4 	movhi	r2,3
   22850:	10939c04 	addi	r2,r2,20080
   22854:	e0fffc17 	ldw	r3,-16(fp)
   22858:	18c001a4 	muli	r3,r3,6
   2285c:	10c5883a 	add	r2,r2,r3
   22860:	10800003 	ldbu	r2,0(r2)
   22864:	10803fcc 	andi	r2,r2,255
   22868:	10800118 	cmpnei	r2,r2,4
   2286c:	1000011e 	bne	r2,zero,22874 <MipiCameraInit+0x170>
   22870:	00002106 	br	228f8 <MipiCameraInit+0x1f4>
    	 else if(MipiCameraReg[i].Type == 0x6c)   OV8865_write_cmos_sensor_8(pConfig,MipiCameraReg[i].Addr, MipiCameraReg[i].Data);
   22874:	008000f4 	movhi	r2,3
   22878:	10939c04 	addi	r2,r2,20080
   2287c:	e0fffc17 	ldw	r3,-16(fp)
   22880:	18c001a4 	muli	r3,r3,6
   22884:	10c5883a 	add	r2,r2,r3
   22888:	10800003 	ldbu	r2,0(r2)
   2288c:	10803fcc 	andi	r2,r2,255
   22890:	10801b18 	cmpnei	r2,r2,108
   22894:	1000121e 	bne	r2,zero,228e0 <MipiCameraInit+0x1dc>
   22898:	008000f4 	movhi	r2,3
   2289c:	10939c04 	addi	r2,r2,20080
   228a0:	e0fffc17 	ldw	r3,-16(fp)
   228a4:	18c001a4 	muli	r3,r3,6
   228a8:	10c5883a 	add	r2,r2,r3
   228ac:	1080008b 	ldhu	r2,2(r2)
   228b0:	117fffcc 	andi	r5,r2,65535
   228b4:	008000f4 	movhi	r2,3
   228b8:	10939c04 	addi	r2,r2,20080
   228bc:	e0fffc17 	ldw	r3,-16(fp)
   228c0:	18c001a4 	muli	r3,r3,6
   228c4:	10c5883a 	add	r2,r2,r3
   228c8:	10800104 	addi	r2,r2,4
   228cc:	10800003 	ldbu	r2,0(r2)
   228d0:	10803fcc 	andi	r2,r2,255
   228d4:	e13fff17 	ldw	r4,-4(fp)
   228d8:	100d883a 	mov	r6,r2
   228dc:	00222940 	call	22294 <OV8865_write_cmos_sensor_8>
	      usleep(100);
	        printf("%d (%d)\n",OV8865_read_cmos_sensor_8(pConfig,0x3809),i);
	      usleep(100);
	    }
	 num = sizeof(MipiCameraReg)/sizeof(MipiCameraReg[0]);
     for(i=0;i<num;i++){
   228e0:	e0bffc17 	ldw	r2,-16(fp)
   228e4:	10800044 	addi	r2,r2,1
   228e8:	e0bffc15 	stw	r2,-16(fp)
   228ec:	e0fffc17 	ldw	r3,-16(fp)
   228f0:	e0bffe17 	ldw	r2,-8(fp)
   228f4:	18bfc016 	blt	r3,r2,227f8 <__alt_data_end+0xfffe27f8>
    	 else if(MipiCameraReg[i].Type == END_OF_SCRIPT)   break;
    	 else if(MipiCameraReg[i].Type == 0x6c)   OV8865_write_cmos_sensor_8(pConfig,MipiCameraReg[i].Addr, MipiCameraReg[i].Data);
     }


 	oc_i2c_uninit(pConfig->camera_i2c_base);  // Release I2C bus , due to two I2C master shared!
   228f8:	e0bfff17 	ldw	r2,-4(fp)
   228fc:	10800117 	ldw	r2,4(r2)
   22900:	1009883a 	mov	r4,r2
   22904:	00204d00 	call	204d0 <oc_i2c_uninit>



	 OV8865DB("\n[%s]: End MipiCameraInit! -OV8865!\r\n\n",pConfig->str);
   22908:	e0bfff17 	ldw	r2,-4(fp)
   2290c:	10800544 	addi	r2,r2,21
   22910:	010000f4 	movhi	r4,3
   22914:	2112b704 	addi	r4,r4,19164
   22918:	100b883a 	mov	r5,r2
   2291c:	0025df80 	call	25df8 <printf>

}
   22920:	e037883a 	mov	sp,fp
   22924:	dfc00117 	ldw	ra,4(sp)
   22928:	df000017 	ldw	fp,0(sp)
   2292c:	dec00204 	addi	sp,sp,8
   22930:	f800283a 	ret

00022934 <mixerii_go>:

#include <stdio.h>
#include "terasic_includes.h"


void mixerii_go(int go){
   22934:	defffe04 	addi	sp,sp,-8
   22938:	df000115 	stw	fp,4(sp)
   2293c:	df000104 	addi	fp,sp,4
   22940:	e13fff15 	stw	r4,-4(fp)
	if(go==0) IOWR(ALT_VIP_CL_MIXER_0_BASE,0,0);
   22944:	e0bfff17 	ldw	r2,-4(fp)
   22948:	1000051e 	bne	r2,zero,22960 <mixerii_go+0x2c>
   2294c:	0007883a 	mov	r3,zero
   22950:	00800134 	movhi	r2,4
   22954:	10850004 	addi	r2,r2,5120
   22958:	10c00035 	stwio	r3,0(r2)
   2295c:	00000406 	br	22970 <mixerii_go+0x3c>
	else      IOWR(ALT_VIP_CL_MIXER_0_BASE,0,1);
   22960:	00c00044 	movi	r3,1
   22964:	00800134 	movhi	r2,4
   22968:	10850004 	addi	r2,r2,5120
   2296c:	10c00035 	stwio	r3,0(r2)
}
   22970:	e037883a 	mov	sp,fp
   22974:	df000017 	ldw	fp,0(sp)
   22978:	dec00104 	addi	sp,sp,4
   2297c:	f800283a 	ret

00022980 <mixerii_background_config>:

void mixerii_background_config(alt_u32 width,alt_u32 height){
   22980:	defffd04 	addi	sp,sp,-12
   22984:	df000215 	stw	fp,8(sp)
   22988:	df000204 	addi	fp,sp,8
   2298c:	e13ffe15 	stw	r4,-8(fp)
   22990:	e17fff15 	stw	r5,-4(fp)
	 IOWR(ALT_VIP_CL_MIXER_0_BASE,23,height);
   22994:	e0ffff17 	ldw	r3,-4(fp)
   22998:	00800134 	movhi	r2,4
   2299c:	10851704 	addi	r2,r2,5212
   229a0:	10c00035 	stwio	r3,0(r2)
	 IOWR(ALT_VIP_CL_MIXER_0_BASE,24,width);
   229a4:	e0fffe17 	ldw	r3,-8(fp)
   229a8:	00800134 	movhi	r2,4
   229ac:	10851804 	addi	r2,r2,5216
   229b0:	10c00035 	stwio	r3,0(r2)
}
   229b4:	e037883a 	mov	sp,fp
   229b8:	df000017 	ldw	fp,0(sp)
   229bc:	dec00104 	addi	sp,sp,4
   229c0:	f800283a 	ret

000229c4 <mixerii_layer_enable>:

void mixerii_layer_enable(alt_u8 channel,alt_u8 enable){
   229c4:	defffd04 	addi	sp,sp,-12
   229c8:	df000215 	stw	fp,8(sp)
   229cc:	df000204 	addi	fp,sp,8
   229d0:	2007883a 	mov	r3,r4
   229d4:	2805883a 	mov	r2,r5
   229d8:	e0fffe05 	stb	r3,-8(fp)
   229dc:	e0bfff05 	stb	r2,-4(fp)
	if(channel >3) return;
   229e0:	e0bffe03 	ldbu	r2,-8(fp)
   229e4:	10800130 	cmpltui	r2,r2,4
   229e8:	1000011e 	bne	r2,zero,229f0 <mixerii_layer_enable+0x2c>
   229ec:	00001506 	br	22a44 <mixerii_layer_enable+0x80>
	if(enable==0) IOWR(ALT_VIP_CL_MIXER_0_BASE,(channel+1)*5,0);
   229f0:	e0bfff03 	ldbu	r2,-4(fp)
   229f4:	10000a1e 	bne	r2,zero,22a20 <mixerii_layer_enable+0x5c>
   229f8:	e0bffe03 	ldbu	r2,-8(fp)
   229fc:	10800044 	addi	r2,r2,1
   22a00:	10800524 	muli	r2,r2,20
   22a04:	1007883a 	mov	r3,r2
   22a08:	00800134 	movhi	r2,4
   22a0c:	10850004 	addi	r2,r2,5120
   22a10:	1885883a 	add	r2,r3,r2
   22a14:	0007883a 	mov	r3,zero
   22a18:	10c00035 	stwio	r3,0(r2)
   22a1c:	00000906 	br	22a44 <mixerii_layer_enable+0x80>
	else      IOWR(ALT_VIP_CL_MIXER_0_BASE,(channel+1)*5,1);
   22a20:	e0bffe03 	ldbu	r2,-8(fp)
   22a24:	10800044 	addi	r2,r2,1
   22a28:	10800524 	muli	r2,r2,20
   22a2c:	1007883a 	mov	r3,r2
   22a30:	00800134 	movhi	r2,4
   22a34:	10850004 	addi	r2,r2,5120
   22a38:	1885883a 	add	r2,r3,r2
   22a3c:	00c00044 	movi	r3,1
   22a40:	10c00035 	stwio	r3,0(r2)
}
   22a44:	e037883a 	mov	sp,fp
   22a48:	df000017 	ldw	fp,0(sp)
   22a4c:	dec00104 	addi	sp,sp,4
   22a50:	f800283a 	ret

00022a54 <mixerii_layer_position>:

void mixerii_layer_position(alt_u8 channel,alt_u32 x_offset,alt_u32 y_offset){
   22a54:	defffb04 	addi	sp,sp,-20
   22a58:	dfc00415 	stw	ra,16(sp)
   22a5c:	df000315 	stw	fp,12(sp)
   22a60:	df000304 	addi	fp,sp,12
   22a64:	2005883a 	mov	r2,r4
   22a68:	e17ffe15 	stw	r5,-8(fp)
   22a6c:	e1bfff15 	stw	r6,-4(fp)
   22a70:	e0bffd05 	stb	r2,-12(fp)
	if(channel >3) return;
   22a74:	e0bffd03 	ldbu	r2,-12(fp)
   22a78:	10800130 	cmpltui	r2,r2,4
   22a7c:	1000011e 	bne	r2,zero,22a84 <mixerii_layer_position+0x30>
   22a80:	00001606 	br	22adc <mixerii_layer_position+0x88>

	mixerii_go(0);
   22a84:	0009883a 	mov	r4,zero
   22a88:	00229340 	call	22934 <mixerii_go>

	// x offset from left
	IOWR(ALT_VIP_CL_MIXER_0_BASE,channel*5+3,x_offset);
   22a8c:	e0bffd03 	ldbu	r2,-12(fp)
   22a90:	10800524 	muli	r2,r2,20
   22a94:	10800304 	addi	r2,r2,12
   22a98:	1007883a 	mov	r3,r2
   22a9c:	00800134 	movhi	r2,4
   22aa0:	10850004 	addi	r2,r2,5120
   22aa4:	1885883a 	add	r2,r3,r2
   22aa8:	e0fffe17 	ldw	r3,-8(fp)
   22aac:	10c00035 	stwio	r3,0(r2)
	// y offset from top
	IOWR(ALT_VIP_CL_MIXER_0_BASE,channel*5+4,y_offset);
   22ab0:	e0bffd03 	ldbu	r2,-12(fp)
   22ab4:	10800524 	muli	r2,r2,20
   22ab8:	10800404 	addi	r2,r2,16
   22abc:	1007883a 	mov	r3,r2
   22ac0:	00800134 	movhi	r2,4
   22ac4:	10850004 	addi	r2,r2,5120
   22ac8:	1885883a 	add	r2,r3,r2
   22acc:	e0ffff17 	ldw	r3,-4(fp)
   22ad0:	10c00035 	stwio	r3,0(r2)

	mixerii_go(1);
   22ad4:	01000044 	movi	r4,1
   22ad8:	00229340 	call	22934 <mixerii_go>

}
   22adc:	e037883a 	mov	sp,fp
   22ae0:	dfc00117 	ldw	ra,4(sp)
   22ae4:	df000017 	ldw	fp,0(sp)
   22ae8:	dec00204 	addi	sp,sp,8
   22aec:	f800283a 	ret

00022af0 <camera_out_of_range>:

video_t camera0;
video_t camera1;
//////////////////////////////////////////////////////////
// local functions
int camera_out_of_range(int x,int y,int factor){
   22af0:	defffc04 	addi	sp,sp,-16
   22af4:	df000315 	stw	fp,12(sp)
   22af8:	df000304 	addi	fp,sp,12
   22afc:	e13ffd15 	stw	r4,-12(fp)
   22b00:	e17ffe15 	stw	r5,-8(fp)
   22b04:	e1bfff15 	stw	r6,-4(fp)

	if(factor<2)return 1;
   22b08:	e0bfff17 	ldw	r2,-4(fp)
   22b0c:	10800088 	cmpgei	r2,r2,2
   22b10:	1000021e 	bne	r2,zero,22b1c <camera_out_of_range+0x2c>
   22b14:	00800044 	movi	r2,1
   22b18:	00002406 	br	22bac <camera_out_of_range+0xbc>
	if(factor > CAMERA_WIDTH/VIDEO_WIDTH_FACTOR) return 1;
   22b1c:	e0bfff17 	ldw	r2,-4(fp)
   22b20:	10802850 	cmplti	r2,r2,161
   22b24:	1000021e 	bne	r2,zero,22b30 <camera_out_of_range+0x40>
   22b28:	00800044 	movi	r2,1
   22b2c:	00001f06 	br	22bac <camera_out_of_range+0xbc>

	if(x<H_START) return 1;
   22b30:	e0bffd17 	ldw	r2,-12(fp)
   22b34:	10800348 	cmpgei	r2,r2,13
   22b38:	1000021e 	bne	r2,zero,22b44 <camera_out_of_range+0x54>
   22b3c:	00800044 	movi	r2,1
   22b40:	00001a06 	br	22bac <camera_out_of_range+0xbc>
	if((x+factor*VIDEO_WIDTH_FACTOR)> (MIXERII_WIDTH - H_END)) return 1;
   22b44:	e0bfff17 	ldw	r2,-4(fp)
   22b48:	1085883a 	add	r2,r2,r2
   22b4c:	1085883a 	add	r2,r2,r2
   22b50:	1007883a 	mov	r3,r2
   22b54:	e0bffd17 	ldw	r2,-12(fp)
   22b58:	1885883a 	add	r2,r3,r2
   22b5c:	1080c510 	cmplti	r2,r2,788
   22b60:	1000021e 	bne	r2,zero,22b6c <camera_out_of_range+0x7c>
   22b64:	00800044 	movi	r2,1
   22b68:	00001006 	br	22bac <camera_out_of_range+0xbc>

	if(y<V_START) return 1;
   22b6c:	e0bffe17 	ldw	r2,-8(fp)
   22b70:	10800248 	cmpgei	r2,r2,9
   22b74:	1000021e 	bne	r2,zero,22b80 <camera_out_of_range+0x90>
   22b78:	00800044 	movi	r2,1
   22b7c:	00000b06 	br	22bac <camera_out_of_range+0xbc>
	if((y+factor*VIDEO_HEIGHT_FACTOR)> (MIXERII_HEIGHT - V_END)) return 1;
   22b80:	e0ffff17 	ldw	r3,-4(fp)
   22b84:	1805883a 	mov	r2,r3
   22b88:	1085883a 	add	r2,r2,r2
   22b8c:	10c7883a 	add	r3,r2,r3
   22b90:	e0bffe17 	ldw	r2,-8(fp)
   22b94:	1885883a 	add	r2,r3,r2
   22b98:	10809410 	cmplti	r2,r2,592
   22b9c:	1000021e 	bne	r2,zero,22ba8 <camera_out_of_range+0xb8>
   22ba0:	00800044 	movi	r2,1
   22ba4:	00000106 	br	22bac <camera_out_of_range+0xbc>

   return 0;
   22ba8:	0005883a 	mov	r2,zero
}
   22bac:	e037883a 	mov	sp,fp
   22bb0:	df000017 	ldw	fp,0(sp)
   22bb4:	dec00104 	addi	sp,sp,4
   22bb8:	f800283a 	ret

00022bbc <camera_scale_down>:

int camera_scale_down(int camera0_factor,int camera1_factor){
   22bbc:	defffb04 	addi	sp,sp,-20
   22bc0:	df000415 	stw	fp,16(sp)
   22bc4:	df000404 	addi	fp,sp,16
   22bc8:	e13ffe15 	stw	r4,-8(fp)
   22bcc:	e17fff15 	stw	r5,-4(fp)
	// if return 1  scale camera0 first else camera1
	int diff_camera0,diff_camera1;

	diff_camera0 = camera0_factor - camera0.scalered_factor;
   22bd0:	00800134 	movhi	r2,4
   22bd4:	10a50b04 	addi	r2,r2,-27604
   22bd8:	1080018b 	ldhu	r2,6(r2)
   22bdc:	10bfffcc 	andi	r2,r2,65535
   22be0:	e0fffe17 	ldw	r3,-8(fp)
   22be4:	1885c83a 	sub	r2,r3,r2
   22be8:	e0bffc15 	stw	r2,-16(fp)
	diff_camera1 = camera1_factor - camera1.scalered_factor;
   22bec:	00800134 	movhi	r2,4
   22bf0:	10a50e04 	addi	r2,r2,-27592
   22bf4:	1080018b 	ldhu	r2,6(r2)
   22bf8:	10bfffcc 	andi	r2,r2,65535
   22bfc:	e0ffff17 	ldw	r3,-4(fp)
   22c00:	1885c83a 	sub	r2,r3,r2
   22c04:	e0bffd15 	stw	r2,-12(fp)

	if(diff_camera0 < diff_camera1)return 1;
   22c08:	e0fffc17 	ldw	r3,-16(fp)
   22c0c:	e0bffd17 	ldw	r2,-12(fp)
   22c10:	1880020e 	bge	r3,r2,22c1c <camera_scale_down+0x60>
   22c14:	00800044 	movi	r2,1
   22c18:	00000106 	br	22c20 <camera_scale_down+0x64>
	return 0;
   22c1c:	0005883a 	mov	r2,zero
}
   22c20:	e037883a 	mov	sp,fp
   22c24:	df000017 	ldw	fp,0(sp)
   22c28:	dec00104 	addi	sp,sp,4
   22c2c:	f800283a 	ret

00022c30 <PinP_position_set>:
void PinP_position_set(alt_u8 channel,alt_u16 x,alt_u16 y,alt_u16 factor){
   22c30:	defffa04 	addi	sp,sp,-24
   22c34:	df000515 	stw	fp,20(sp)
   22c38:	df000504 	addi	fp,sp,20
   22c3c:	2011883a 	mov	r8,r4
   22c40:	2809883a 	mov	r4,r5
   22c44:	3007883a 	mov	r3,r6
   22c48:	3805883a 	mov	r2,r7
   22c4c:	e23ffc05 	stb	r8,-16(fp)
   22c50:	e13ffd0d 	sth	r4,-12(fp)
   22c54:	e0fffe0d 	sth	r3,-8(fp)
   22c58:	e0bfff0d 	sth	r2,-4(fp)

	alt_u16 update_x,update_y;

	if((x+factor*VIDEO_WIDTH_FACTOR)>= (MIXERII_WIDTH - H_END))
   22c5c:	e0fffd0b 	ldhu	r3,-12(fp)
   22c60:	e0bfff0b 	ldhu	r2,-4(fp)
   22c64:	1085883a 	add	r2,r2,r2
   22c68:	1085883a 	add	r2,r2,r2
   22c6c:	1885883a 	add	r2,r3,r2
   22c70:	1080c4d0 	cmplti	r2,r2,787
   22c74:	1000081e 	bne	r2,zero,22c98 <PinP_position_set+0x68>
		 update_x = MIXERII_WIDTH - factor*VIDEO_WIDTH_FACTOR - H_END;
   22c78:	e0bfff0b 	ldhu	r2,-4(fp)
   22c7c:	00c03204 	movi	r3,200
   22c80:	1885c83a 	sub	r2,r3,r2
   22c84:	1085883a 	add	r2,r2,r2
   22c88:	1085883a 	add	r2,r2,r2
   22c8c:	10bffcc4 	addi	r2,r2,-13
   22c90:	e0bffb0d 	sth	r2,-20(fp)
   22c94:	00000806 	br	22cb8 <PinP_position_set+0x88>
	else if(x<H_START) update_x = H_START;
   22c98:	e0bffd0b 	ldhu	r2,-12(fp)
   22c9c:	10800368 	cmpgeui	r2,r2,13
   22ca0:	1000031e 	bne	r2,zero,22cb0 <PinP_position_set+0x80>
   22ca4:	00800344 	movi	r2,13
   22ca8:	e0bffb0d 	sth	r2,-20(fp)
   22cac:	00000206 	br	22cb8 <PinP_position_set+0x88>
	else   update_x = x;
   22cb0:	e0bffd0b 	ldhu	r2,-12(fp)
   22cb4:	e0bffb0d 	sth	r2,-20(fp)

	if((y+factor*VIDEO_HEIGHT_FACTOR)>= (MIXERII_HEIGHT - V_END))
   22cb8:	e13ffe0b 	ldhu	r4,-8(fp)
   22cbc:	e0ffff0b 	ldhu	r3,-4(fp)
   22cc0:	1805883a 	mov	r2,r3
   22cc4:	1085883a 	add	r2,r2,r2
   22cc8:	10c5883a 	add	r2,r2,r3
   22ccc:	2085883a 	add	r2,r4,r2
   22cd0:	108093d0 	cmplti	r2,r2,591
   22cd4:	1000051e 	bne	r2,zero,22cec <PinP_position_set+0xbc>
		 update_y = MIXERII_HEIGHT - factor*VIDEO_HEIGHT_FACTOR - V_END;
   22cd8:	e0bfff0b 	ldhu	r2,-4(fp)
   22cdc:	10bfff64 	muli	r2,r2,-3
   22ce0:	108093c4 	addi	r2,r2,591
   22ce4:	e0bffb8d 	sth	r2,-18(fp)
   22ce8:	00000806 	br	22d0c <PinP_position_set+0xdc>
	else if(y<H_START) update_y = V_START;
   22cec:	e0bffe0b 	ldhu	r2,-8(fp)
   22cf0:	10800368 	cmpgeui	r2,r2,13
   22cf4:	1000031e 	bne	r2,zero,22d04 <PinP_position_set+0xd4>
   22cf8:	00800244 	movi	r2,9
   22cfc:	e0bffb8d 	sth	r2,-18(fp)
   22d00:	00000206 	br	22d0c <PinP_position_set+0xdc>
	else update_y = y;
   22d04:	e0bffe0b 	ldhu	r2,-8(fp)
   22d08:	e0bffb8d 	sth	r2,-18(fp)

	// x offset from left
	IOWR(ALT_VIP_CL_MIXER_0_BASE,channel*5+3,update_x);
   22d0c:	e0bffc03 	ldbu	r2,-16(fp)
   22d10:	10800524 	muli	r2,r2,20
   22d14:	10800304 	addi	r2,r2,12
   22d18:	1007883a 	mov	r3,r2
   22d1c:	00800134 	movhi	r2,4
   22d20:	10850004 	addi	r2,r2,5120
   22d24:	1885883a 	add	r2,r3,r2
   22d28:	e0fffb0b 	ldhu	r3,-20(fp)
   22d2c:	10c00035 	stwio	r3,0(r2)
	// y offset from top
	IOWR(ALT_VIP_CL_MIXER_0_BASE,channel*5+4,update_y);
   22d30:	e0bffc03 	ldbu	r2,-16(fp)
   22d34:	10800524 	muli	r2,r2,20
   22d38:	10800404 	addi	r2,r2,16
   22d3c:	1007883a 	mov	r3,r2
   22d40:	00800134 	movhi	r2,4
   22d44:	10850004 	addi	r2,r2,5120
   22d48:	1885883a 	add	r2,r3,r2
   22d4c:	e0fffb8b 	ldhu	r3,-18(fp)
   22d50:	10c00035 	stwio	r3,0(r2)
}
   22d54:	e037883a 	mov	sp,fp
   22d58:	df000017 	ldw	fp,0(sp)
   22d5c:	dec00104 	addi	sp,sp,4
   22d60:	f800283a 	ret

00022d64 <PinP_init>:
////////////////////////////////////////////////////////////////////////
//////////////////////////
// Major
//
////////////////////////////////////////////////////////////////////////
void PinP_init(void){
   22d64:	defffe04 	addi	sp,sp,-8
   22d68:	dfc00115 	stw	ra,4(sp)
   22d6c:	df000015 	stw	fp,0(sp)
   22d70:	d839883a 	mov	fp,sp

    mixerii_background_config(MIXERII_WIDTH,MIXERII_HEIGHT);
   22d74:	0100c804 	movi	r4,800
   22d78:	01409604 	movi	r5,600
   22d7c:	00229800 	call	22980 <mixerii_background_config>

   // camera 0 init
	camera0.mixerii_x = H_START;
   22d80:	00800134 	movhi	r2,4
   22d84:	10a50b04 	addi	r2,r2,-27604
   22d88:	00c00344 	movi	r3,13
   22d8c:	10c0000d 	sth	r3,0(r2)
	camera0.mixerii_y = V_START;
   22d90:	00800134 	movhi	r2,4
   22d94:	10a50b04 	addi	r2,r2,-27604
   22d98:	00c00244 	movi	r3,9
   22d9c:	10c0008d 	sth	r3,2(r2)
	camera0.mixerii_channel = 0;
   22da0:	00800134 	movhi	r2,4
   22da4:	10a50b04 	addi	r2,r2,-27604
   22da8:	10000105 	stb	zero,4(r2)

	camera0.scalered_factor = FACTOR_SUM_MAX/2;
   22dac:	00800134 	movhi	r2,4
   22db0:	10a50b04 	addi	r2,r2,-27604
   22db4:	00c01804 	movi	r3,96
   22db8:	10c0018d 	sth	r3,6(r2)
    camera0.pConfig         = &camera0_config;
   22dbc:	00800134 	movhi	r2,4
   22dc0:	10a50b04 	addi	r2,r2,-27604
   22dc4:	00c00134 	movhi	r3,4
   22dc8:	18e4fd04 	addi	r3,r3,-27660
   22dcc:	10c00215 	stw	r3,8(r2)
	// position: do not move to close to boarder of mixerii, eg: position(0,0) may be no video image.
    mixerii_layer_position(camera0.mixerii_channel,camera0.mixerii_x,camera0.mixerii_y);
   22dd0:	00800134 	movhi	r2,4
   22dd4:	10a50b04 	addi	r2,r2,-27604
   22dd8:	10800103 	ldbu	r2,4(r2)
   22ddc:	11003fcc 	andi	r4,r2,255
   22de0:	00800134 	movhi	r2,4
   22de4:	10a50b04 	addi	r2,r2,-27604
   22de8:	1080000b 	ldhu	r2,0(r2)
   22dec:	10ffffcc 	andi	r3,r2,65535
   22df0:	00800134 	movhi	r2,4
   22df4:	10a50b04 	addi	r2,r2,-27604
   22df8:	1080008b 	ldhu	r2,2(r2)
   22dfc:	10bfffcc 	andi	r2,r2,65535
   22e00:	180b883a 	mov	r5,r3
   22e04:	100d883a 	mov	r6,r2
   22e08:	0022a540 	call	22a54 <mixerii_layer_position>
	scalerii_scale(camera0.pConfig,camera0.scalered_factor);
   22e0c:	00800134 	movhi	r2,4
   22e10:	10a50b04 	addi	r2,r2,-27604
   22e14:	10c00217 	ldw	r3,8(r2)
   22e18:	00800134 	movhi	r2,4
   22e1c:	10a50b04 	addi	r2,r2,-27604
   22e20:	1080018b 	ldhu	r2,6(r2)
   22e24:	10bfffcc 	andi	r2,r2,65535
   22e28:	1809883a 	mov	r4,r3
   22e2c:	100b883a 	mov	r5,r2
   22e30:	0023c840 	call	23c84 <scalerii_scale>

   // camera 1 init
	camera1.mixerii_x = H_START+VIDEO_WIDTH_FACTOR*FACTOR_SUM_MAX/2+H_MIDDLE_ADD;
   22e34:	00800134 	movhi	r2,4
   22e38:	10a50e04 	addi	r2,r2,-27592
   22e3c:	00c064c4 	movi	r3,403
   22e40:	10c0000d 	sth	r3,0(r2)
	camera1.mixerii_y = V_START;
   22e44:	00800134 	movhi	r2,4
   22e48:	10a50e04 	addi	r2,r2,-27592
   22e4c:	00c00244 	movi	r3,9
   22e50:	10c0008d 	sth	r3,2(r2)
	camera1.mixerii_channel = 1;
   22e54:	00800134 	movhi	r2,4
   22e58:	10a50e04 	addi	r2,r2,-27592
   22e5c:	00c00044 	movi	r3,1
   22e60:	10c00105 	stb	r3,4(r2)

	camera1.scalered_factor = FACTOR_SUM_MAX/2;
   22e64:	00800134 	movhi	r2,4
   22e68:	10a50e04 	addi	r2,r2,-27592
   22e6c:	00c01804 	movi	r3,96
   22e70:	10c0018d 	sth	r3,6(r2)
    camera1.pConfig         = &camera1_config;
   22e74:	00800134 	movhi	r2,4
   22e78:	10a50e04 	addi	r2,r2,-27592
   22e7c:	00c00134 	movhi	r3,4
   22e80:	18e4ef04 	addi	r3,r3,-27716
   22e84:	10c00215 	stw	r3,8(r2)

    mixerii_layer_position(camera1.mixerii_channel,camera1.mixerii_x,camera1.mixerii_y);
   22e88:	00800134 	movhi	r2,4
   22e8c:	10a50e04 	addi	r2,r2,-27592
   22e90:	10800103 	ldbu	r2,4(r2)
   22e94:	11003fcc 	andi	r4,r2,255
   22e98:	00800134 	movhi	r2,4
   22e9c:	10a50e04 	addi	r2,r2,-27592
   22ea0:	1080000b 	ldhu	r2,0(r2)
   22ea4:	10ffffcc 	andi	r3,r2,65535
   22ea8:	00800134 	movhi	r2,4
   22eac:	10a50e04 	addi	r2,r2,-27592
   22eb0:	1080008b 	ldhu	r2,2(r2)
   22eb4:	10bfffcc 	andi	r2,r2,65535
   22eb8:	180b883a 	mov	r5,r3
   22ebc:	100d883a 	mov	r6,r2
   22ec0:	0022a540 	call	22a54 <mixerii_layer_position>
	scalerii_scale(camera1.pConfig,camera1.scalered_factor);
   22ec4:	00800134 	movhi	r2,4
   22ec8:	10a50e04 	addi	r2,r2,-27592
   22ecc:	10c00217 	ldw	r3,8(r2)
   22ed0:	00800134 	movhi	r2,4
   22ed4:	10a50e04 	addi	r2,r2,-27592
   22ed8:	1080018b 	ldhu	r2,6(r2)
   22edc:	10bfffcc 	andi	r2,r2,65535
   22ee0:	1809883a 	mov	r4,r3
   22ee4:	100b883a 	mov	r5,r2
   22ee8:	0023c840 	call	23c84 <scalerii_scale>

	mixerii_layer_enable(camera0.mixerii_channel,1);
   22eec:	00800134 	movhi	r2,4
   22ef0:	10a50b04 	addi	r2,r2,-27604
   22ef4:	10800103 	ldbu	r2,4(r2)
   22ef8:	10803fcc 	andi	r2,r2,255
   22efc:	1009883a 	mov	r4,r2
   22f00:	01400044 	movi	r5,1
   22f04:	00229c40 	call	229c4 <mixerii_layer_enable>
	mixerii_layer_enable(camera1.mixerii_channel,1);
   22f08:	00800134 	movhi	r2,4
   22f0c:	10a50e04 	addi	r2,r2,-27592
   22f10:	10800103 	ldbu	r2,4(r2)
   22f14:	10803fcc 	andi	r2,r2,255
   22f18:	1009883a 	mov	r4,r2
   22f1c:	01400044 	movi	r5,1
   22f20:	00229c40 	call	229c4 <mixerii_layer_enable>

}
   22f24:	e037883a 	mov	sp,fp
   22f28:	dfc00117 	ldw	ra,4(sp)
   22f2c:	df000017 	ldw	fp,0(sp)
   22f30:	dec00204 	addi	sp,sp,8
   22f34:	f800283a 	ret

00022f38 <PinP_mode>:



void PinP_mode(int mode){
   22f38:	defffb04 	addi	sp,sp,-20
   22f3c:	dfc00415 	stw	ra,16(sp)
   22f40:	df000315 	stw	fp,12(sp)
   22f44:	df000304 	addi	fp,sp,12
   22f48:	e13fff15 	stw	r4,-4(fp)

	alt_u16 temp_x,temp_y;
	alt_u16 camera0_factor,camera1_factor;

	printf("mode:%d\n",mode);
   22f4c:	010000f4 	movhi	r4,3
   22f50:	2112c104 	addi	r4,r4,19204
   22f54:	e17fff17 	ldw	r5,-4(fp)
   22f58:	0025df80 	call	25df8 <printf>

	// Due to bandwidth of SDRAM
	// Please make sure first scale down ,then scale up

	switch(mode){
   22f5c:	e0bfff17 	ldw	r2,-4(fp)
   22f60:	10c00060 	cmpeqi	r3,r2,1
   22f64:	1800351e 	bne	r3,zero,2303c <PinP_mode+0x104>
   22f68:	10c00088 	cmpgei	r3,r2,2
   22f6c:	1800021e 	bne	r3,zero,22f78 <PinP_mode+0x40>
   22f70:	10000626 	beq	r2,zero,22f8c <PinP_mode+0x54>
	        }

	    break;
		}

	default: break;
   22f74:	0000b906 	br	2325c <PinP_mode+0x324>
	printf("mode:%d\n",mode);

	// Due to bandwidth of SDRAM
	// Please make sure first scale down ,then scale up

	switch(mode){
   22f78:	10c000a0 	cmpeqi	r3,r2,2
   22f7c:	18005d1e 	bne	r3,zero,230f4 <PinP_mode+0x1bc>
   22f80:	108000e0 	cmpeqi	r2,r2,3
   22f84:	1000891e 	bne	r2,zero,231ac <PinP_mode+0x274>
	        }

	    break;
		}

	default: break;
   22f88:	0000b406 	br	2325c <PinP_mode+0x324>
	       //		                          //
	       //            blank                //
	       //                                 //
	       /////////////////////////////////////

		   temp_x= H_START+VIDEO_WIDTH_FACTOR*FACTOR_SUM_MAX/2+H_MIDDLE_ADD;
   22f8c:	008064c4 	movi	r2,403
   22f90:	e0bffd0d 	sth	r2,-12(fp)
		   camera0_factor = FACTOR_SUM_MAX/2;
   22f94:	00801804 	movi	r2,96
   22f98:	e0bffd8d 	sth	r2,-10(fp)
		   camera1_factor = FACTOR_SUM_MAX/2;
   22f9c:	00801804 	movi	r2,96
   22fa0:	e0bffe0d 	sth	r2,-8(fp)

		   // Due to bandwidth of SDRAM
		   	// Please make sure first scale down ,then scale up
           if(camera_scale_down(camera0_factor,camera1_factor)){
   22fa4:	e0fffd8b 	ldhu	r3,-10(fp)
   22fa8:	e0bffe0b 	ldhu	r2,-8(fp)
   22fac:	1809883a 	mov	r4,r3
   22fb0:	100b883a 	mov	r5,r2
   22fb4:	0022bbc0 	call	22bbc <camera_scale_down>
   22fb8:	10001026 	beq	r2,zero,22ffc <PinP_mode+0xc4>
   			    PinP_video_change(&camera0,temp_x,V_START,camera0_factor);
   22fbc:	e0fffd0b 	ldhu	r3,-12(fp)
   22fc0:	e0bffd8b 	ldhu	r2,-10(fp)
   22fc4:	01000134 	movhi	r4,4
   22fc8:	21250b04 	addi	r4,r4,-27604
   22fcc:	180b883a 	mov	r5,r3
   22fd0:	01800244 	movi	r6,9
   22fd4:	100f883a 	mov	r7,r2
   22fd8:	00232700 	call	23270 <PinP_video_change>
		    	PinP_video_change(&camera1,H_START,V_START,camera1_factor);
   22fdc:	e0bffe0b 	ldhu	r2,-8(fp)
   22fe0:	01000134 	movhi	r4,4
   22fe4:	21250e04 	addi	r4,r4,-27592
   22fe8:	01400344 	movi	r5,13
   22fec:	01800244 	movi	r6,9
   22ff0:	100f883a 	mov	r7,r2
   22ff4:	00232700 	call	23270 <PinP_video_change>
           }else{
            	PinP_video_change(&camera1,H_START,V_START,camera1_factor);
			    PinP_video_change(&camera0,temp_x,V_START,camera0_factor);
           }

		break;
   22ff8:	00009806 	br	2325c <PinP_mode+0x324>
		   	// Please make sure first scale down ,then scale up
           if(camera_scale_down(camera0_factor,camera1_factor)){
   			    PinP_video_change(&camera0,temp_x,V_START,camera0_factor);
		    	PinP_video_change(&camera1,H_START,V_START,camera1_factor);
           }else{
            	PinP_video_change(&camera1,H_START,V_START,camera1_factor);
   22ffc:	e0bffe0b 	ldhu	r2,-8(fp)
   23000:	01000134 	movhi	r4,4
   23004:	21250e04 	addi	r4,r4,-27592
   23008:	01400344 	movi	r5,13
   2300c:	01800244 	movi	r6,9
   23010:	100f883a 	mov	r7,r2
   23014:	00232700 	call	23270 <PinP_video_change>
			    PinP_video_change(&camera0,temp_x,V_START,camera0_factor);
   23018:	e0fffd0b 	ldhu	r3,-12(fp)
   2301c:	e0bffd8b 	ldhu	r2,-10(fp)
   23020:	01000134 	movhi	r4,4
   23024:	21250b04 	addi	r4,r4,-27604
   23028:	180b883a 	mov	r5,r3
   2302c:	01800244 	movi	r6,9
   23030:	100f883a 	mov	r7,r2
   23034:	00232700 	call	23270 <PinP_video_change>
           }

		break;
   23038:	00008806 	br	2325c <PinP_mode+0x324>
       //            //                    //
       //		     //                    //
       //            //      camera1       //
       //            //                    //
       //////////////////////////////////////
		temp_x = H_START+VIDEO_WIDTH_FACTOR*(FACTOR_SUM_MAX-CAMERA_WIDTH/VIDEO_WIDTH_FACTOR)+H_MIDDLE_ADD;
   2303c:	008024c4 	movi	r2,147
   23040:	e0bffd0d 	sth	r2,-12(fp)
		temp_y = V_START+VIDEO_HEIGHT_FACTOR*(FACTOR_SUM_MAX-CAMERA_WIDTH/VIDEO_WIDTH_FACTOR)+V_MIDDLE_ADD;
   23044:	00801bc4 	movi	r2,111
   23048:	e0bffe8d 	sth	r2,-6(fp)
		camera0_factor = FACTOR_SUM_MAX-CAMERA_WIDTH/VIDEO_WIDTH_FACTOR;
   2304c:	00800804 	movi	r2,32
   23050:	e0bffd8d 	sth	r2,-10(fp)
		camera1_factor = CAMERA_WIDTH/VIDEO_WIDTH_FACTOR;
   23054:	00802804 	movi	r2,160
   23058:	e0bffe0d 	sth	r2,-8(fp)

        if(camera_scale_down(camera0_factor,camera1_factor)){
   2305c:	e0fffd8b 	ldhu	r3,-10(fp)
   23060:	e0bffe0b 	ldhu	r2,-8(fp)
   23064:	1809883a 	mov	r4,r3
   23068:	100b883a 	mov	r5,r2
   2306c:	0022bbc0 	call	22bbc <camera_scale_down>
   23070:	10001026 	beq	r2,zero,230b4 <PinP_mode+0x17c>
        	PinP_video_change(&camera0,H_START,V_START,camera0_factor);
   23074:	e0bffd8b 	ldhu	r2,-10(fp)
   23078:	01000134 	movhi	r4,4
   2307c:	21250b04 	addi	r4,r4,-27604
   23080:	01400344 	movi	r5,13
   23084:	01800244 	movi	r6,9
   23088:	100f883a 	mov	r7,r2
   2308c:	00232700 	call	23270 <PinP_video_change>
	    	PinP_video_change(&camera1,temp_x,temp_y,  camera1_factor);
   23090:	e17ffd0b 	ldhu	r5,-12(fp)
   23094:	e0fffe8b 	ldhu	r3,-6(fp)
   23098:	e0bffe0b 	ldhu	r2,-8(fp)
   2309c:	01000134 	movhi	r4,4
   230a0:	21250e04 	addi	r4,r4,-27592
   230a4:	180d883a 	mov	r6,r3
   230a8:	100f883a 	mov	r7,r2
   230ac:	00232700 	call	23270 <PinP_video_change>
        }else{
	    	PinP_video_change(&camera1,temp_x,temp_y,  camera1_factor);
	    	PinP_video_change(&camera0,H_START,V_START,camera0_factor);
        }

	break;
   230b0:	00006a06 	br	2325c <PinP_mode+0x324>

        if(camera_scale_down(camera0_factor,camera1_factor)){
        	PinP_video_change(&camera0,H_START,V_START,camera0_factor);
	    	PinP_video_change(&camera1,temp_x,temp_y,  camera1_factor);
        }else{
	    	PinP_video_change(&camera1,temp_x,temp_y,  camera1_factor);
   230b4:	e17ffd0b 	ldhu	r5,-12(fp)
   230b8:	e0fffe8b 	ldhu	r3,-6(fp)
   230bc:	e0bffe0b 	ldhu	r2,-8(fp)
   230c0:	01000134 	movhi	r4,4
   230c4:	21250e04 	addi	r4,r4,-27592
   230c8:	180d883a 	mov	r6,r3
   230cc:	100f883a 	mov	r7,r2
   230d0:	00232700 	call	23270 <PinP_video_change>
	    	PinP_video_change(&camera0,H_START,V_START,camera0_factor);
   230d4:	e0bffd8b 	ldhu	r2,-10(fp)
   230d8:	01000134 	movhi	r4,4
   230dc:	21250b04 	addi	r4,r4,-27604
   230e0:	01400344 	movi	r5,13
   230e4:	01800244 	movi	r6,9
   230e8:	100f883a 	mov	r7,r2
   230ec:	00232700 	call	23270 <PinP_video_change>
        }

	break;
   230f0:	00005a06 	br	2325c <PinP_mode+0x324>
       /////////////////////   //////////////
       //                     //		   //
       //                     // camera1   //
       //////////////////////////////////////

		temp_x = H_START+VIDEO_WIDTH_FACTOR*(FACTOR_SUM_MAX-CAMERA_WIDTH/VIDEO_WIDTH_FACTOR)+H_MIDDLE_ADD;
   230f4:	008024c4 	movi	r2,147
   230f8:	e0bffd0d 	sth	r2,-12(fp)
		temp_y = V_START+VIDEO_HEIGHT_FACTOR*(FACTOR_SUM_MAX-CAMERA_WIDTH/VIDEO_WIDTH_FACTOR)+V_MIDDLE_ADD;
   230fc:	00801bc4 	movi	r2,111
   23100:	e0bffe8d 	sth	r2,-6(fp)
		camera0_factor = CAMERA_WIDTH/VIDEO_WIDTH_FACTOR;
   23104:	00802804 	movi	r2,160
   23108:	e0bffd8d 	sth	r2,-10(fp)
		camera1_factor = FACTOR_SUM_MAX-CAMERA_WIDTH/VIDEO_WIDTH_FACTOR;
   2310c:	00800804 	movi	r2,32
   23110:	e0bffe0d 	sth	r2,-8(fp)

        if(camera_scale_down(camera0_factor,camera1_factor)){
   23114:	e0fffd8b 	ldhu	r3,-10(fp)
   23118:	e0bffe0b 	ldhu	r2,-8(fp)
   2311c:	1809883a 	mov	r4,r3
   23120:	100b883a 	mov	r5,r2
   23124:	0022bbc0 	call	22bbc <camera_scale_down>
   23128:	10001026 	beq	r2,zero,2316c <PinP_mode+0x234>
        	PinP_video_change(&camera0,temp_x,temp_y,  camera0_factor);
   2312c:	e17ffd0b 	ldhu	r5,-12(fp)
   23130:	e0fffe8b 	ldhu	r3,-6(fp)
   23134:	e0bffd8b 	ldhu	r2,-10(fp)
   23138:	01000134 	movhi	r4,4
   2313c:	21250b04 	addi	r4,r4,-27604
   23140:	180d883a 	mov	r6,r3
   23144:	100f883a 	mov	r7,r2
   23148:	00232700 	call	23270 <PinP_video_change>
    		PinP_video_change(&camera1,H_START,V_START,camera1_factor);
   2314c:	e0bffe0b 	ldhu	r2,-8(fp)
   23150:	01000134 	movhi	r4,4
   23154:	21250e04 	addi	r4,r4,-27592
   23158:	01400344 	movi	r5,13
   2315c:	01800244 	movi	r6,9
   23160:	100f883a 	mov	r7,r2
   23164:	00232700 	call	23270 <PinP_video_change>
    		PinP_video_change(&camera1,H_START,V_START,camera1_factor);
    		PinP_video_change(&camera0,temp_x,temp_y,  camera0_factor);
        }


	break;
   23168:	00003c06 	br	2325c <PinP_mode+0x324>

        if(camera_scale_down(camera0_factor,camera1_factor)){
        	PinP_video_change(&camera0,temp_x,temp_y,  camera0_factor);
    		PinP_video_change(&camera1,H_START,V_START,camera1_factor);
        }else{
    		PinP_video_change(&camera1,H_START,V_START,camera1_factor);
   2316c:	e0bffe0b 	ldhu	r2,-8(fp)
   23170:	01000134 	movhi	r4,4
   23174:	21250e04 	addi	r4,r4,-27592
   23178:	01400344 	movi	r5,13
   2317c:	01800244 	movi	r6,9
   23180:	100f883a 	mov	r7,r2
   23184:	00232700 	call	23270 <PinP_video_change>
    		PinP_video_change(&camera0,temp_x,temp_y,  camera0_factor);
   23188:	e17ffd0b 	ldhu	r5,-12(fp)
   2318c:	e0fffe8b 	ldhu	r3,-6(fp)
   23190:	e0bffd8b 	ldhu	r2,-10(fp)
   23194:	01000134 	movhi	r4,4
   23198:	21250b04 	addi	r4,r4,-27604
   2319c:	180d883a 	mov	r6,r3
   231a0:	100f883a 	mov	r7,r2
   231a4:	00232700 	call	23270 <PinP_video_change>
        }


	break;
   231a8:	00002c06 	br	2325c <PinP_mode+0x324>
	       //		                          //
	       //            blank                //
	       //                                 //
	       /////////////////////////////////////

		    temp_x= H_START+VIDEO_WIDTH_FACTOR*FACTOR_SUM_MAX/2+H_MIDDLE_ADD;
   231ac:	008064c4 	movi	r2,403
   231b0:	e0bffd0d 	sth	r2,-12(fp)
			camera0_factor = FACTOR_SUM_MAX/2;
   231b4:	00801804 	movi	r2,96
   231b8:	e0bffd8d 	sth	r2,-10(fp)
			camera1_factor = FACTOR_SUM_MAX/2;
   231bc:	00801804 	movi	r2,96
   231c0:	e0bffe0d 	sth	r2,-8(fp)

	        if(camera_scale_down(camera0_factor,camera1_factor)){
   231c4:	e0fffd8b 	ldhu	r3,-10(fp)
   231c8:	e0bffe0b 	ldhu	r2,-8(fp)
   231cc:	1809883a 	mov	r4,r3
   231d0:	100b883a 	mov	r5,r2
   231d4:	0022bbc0 	call	22bbc <camera_scale_down>
   231d8:	10001026 	beq	r2,zero,2321c <PinP_mode+0x2e4>
				PinP_video_change(&camera0,H_START,V_START,camera0_factor);
   231dc:	e0bffd8b 	ldhu	r2,-10(fp)
   231e0:	01000134 	movhi	r4,4
   231e4:	21250b04 	addi	r4,r4,-27604
   231e8:	01400344 	movi	r5,13
   231ec:	01800244 	movi	r6,9
   231f0:	100f883a 	mov	r7,r2
   231f4:	00232700 	call	23270 <PinP_video_change>
				PinP_video_change(&camera1,temp_x,V_START, camera1_factor);
   231f8:	e0fffd0b 	ldhu	r3,-12(fp)
   231fc:	e0bffe0b 	ldhu	r2,-8(fp)
   23200:	01000134 	movhi	r4,4
   23204:	21250e04 	addi	r4,r4,-27592
   23208:	180b883a 	mov	r5,r3
   2320c:	01800244 	movi	r6,9
   23210:	100f883a 	mov	r7,r2
   23214:	00232700 	call	23270 <PinP_video_change>
	        }else{
				PinP_video_change(&camera1,temp_x,V_START, camera1_factor);
				PinP_video_change(&camera0,H_START,V_START,camera0_factor);
	        }

	    break;
   23218:	00000f06 	br	23258 <PinP_mode+0x320>

	        if(camera_scale_down(camera0_factor,camera1_factor)){
				PinP_video_change(&camera0,H_START,V_START,camera0_factor);
				PinP_video_change(&camera1,temp_x,V_START, camera1_factor);
	        }else{
				PinP_video_change(&camera1,temp_x,V_START, camera1_factor);
   2321c:	e0fffd0b 	ldhu	r3,-12(fp)
   23220:	e0bffe0b 	ldhu	r2,-8(fp)
   23224:	01000134 	movhi	r4,4
   23228:	21250e04 	addi	r4,r4,-27592
   2322c:	180b883a 	mov	r5,r3
   23230:	01800244 	movi	r6,9
   23234:	100f883a 	mov	r7,r2
   23238:	00232700 	call	23270 <PinP_video_change>
				PinP_video_change(&camera0,H_START,V_START,camera0_factor);
   2323c:	e0bffd8b 	ldhu	r2,-10(fp)
   23240:	01000134 	movhi	r4,4
   23244:	21250b04 	addi	r4,r4,-27604
   23248:	01400344 	movi	r5,13
   2324c:	01800244 	movi	r6,9
   23250:	100f883a 	mov	r7,r2
   23254:	00232700 	call	23270 <PinP_video_change>
	        }

	    break;
   23258:	0001883a 	nop
		}

	default: break;
	}

}
   2325c:	e037883a 	mov	sp,fp
   23260:	dfc00117 	ldw	ra,4(sp)
   23264:	df000017 	ldw	fp,0(sp)
   23268:	dec00204 	addi	sp,sp,8
   2326c:	f800283a 	ret

00023270 <PinP_video_change>:

void PinP_video_change(video_t *pCamera,alt_u16 x,alt_u16 y,alt_u16 factor){
   23270:	defff304 	addi	sp,sp,-52
   23274:	dfc00c15 	stw	ra,48(sp)
   23278:	df000b15 	stw	fp,44(sp)
   2327c:	dc000a15 	stw	r16,40(sp)
   23280:	df000b04 	addi	fp,sp,44
   23284:	e13ffb15 	stw	r4,-20(fp)
   23288:	2809883a 	mov	r4,r5
   2328c:	3007883a 	mov	r3,r6
   23290:	3805883a 	mov	r2,r7
   23294:	e13ffc0d 	sth	r4,-16(fp)
   23298:	e0fffd0d 	sth	r3,-12(fp)
   2329c:	e0bffe0d 	sth	r2,-8(fp)

#if 1 // Smoothly move&scale to destination
	alt_u16 step = 4;
   232a0:	00800104 	movi	r2,4
   232a4:	e0bff58d 	sth	r2,-42(fp)
	alt_u16 i;

	float delta_x,delta_y,delta_factor;
	alt_u16 temp_x, temp_y,temp_factor;

    delta_factor = (float)(factor - pCamera->scalered_factor)/(float)step;
   232a8:	e0fffe0b 	ldhu	r3,-8(fp)
   232ac:	e0bffb17 	ldw	r2,-20(fp)
   232b0:	1080018b 	ldhu	r2,6(r2)
   232b4:	10bfffcc 	andi	r2,r2,65535
   232b8:	1885c83a 	sub	r2,r3,r2
   232bc:	1009883a 	mov	r4,r2
   232c0:	00252300 	call	25230 <__floatsisf>
   232c4:	1021883a 	mov	r16,r2
   232c8:	e0bff58b 	ldhu	r2,-42(fp)
   232cc:	1009883a 	mov	r4,r2
   232d0:	00253640 	call	25364 <__floatunsisf>
   232d4:	1007883a 	mov	r3,r2
   232d8:	8009883a 	mov	r4,r16
   232dc:	180b883a 	mov	r5,r3
   232e0:	00243900 	call	24390 <__divsf3>
   232e4:	1007883a 	mov	r3,r2
   232e8:	e0fff615 	stw	r3,-40(fp)
	delta_x      = (float)(x - pCamera->mixerii_x)/(float)step;
   232ec:	e0fffc0b 	ldhu	r3,-16(fp)
   232f0:	e0bffb17 	ldw	r2,-20(fp)
   232f4:	1080000b 	ldhu	r2,0(r2)
   232f8:	10bfffcc 	andi	r2,r2,65535
   232fc:	1885c83a 	sub	r2,r3,r2
   23300:	1009883a 	mov	r4,r2
   23304:	00252300 	call	25230 <__floatsisf>
   23308:	1021883a 	mov	r16,r2
   2330c:	e0bff58b 	ldhu	r2,-42(fp)
   23310:	1009883a 	mov	r4,r2
   23314:	00253640 	call	25364 <__floatunsisf>
   23318:	1007883a 	mov	r3,r2
   2331c:	8009883a 	mov	r4,r16
   23320:	180b883a 	mov	r5,r3
   23324:	00243900 	call	24390 <__divsf3>
   23328:	1007883a 	mov	r3,r2
   2332c:	e0fff715 	stw	r3,-36(fp)
	delta_y      = (float)(y - pCamera->mixerii_y)/(float)step;
   23330:	e0fffd0b 	ldhu	r3,-12(fp)
   23334:	e0bffb17 	ldw	r2,-20(fp)
   23338:	1080008b 	ldhu	r2,2(r2)
   2333c:	10bfffcc 	andi	r2,r2,65535
   23340:	1885c83a 	sub	r2,r3,r2
   23344:	1009883a 	mov	r4,r2
   23348:	00252300 	call	25230 <__floatsisf>
   2334c:	1021883a 	mov	r16,r2
   23350:	e0bff58b 	ldhu	r2,-42(fp)
   23354:	1009883a 	mov	r4,r2
   23358:	00253640 	call	25364 <__floatunsisf>
   2335c:	1007883a 	mov	r3,r2
   23360:	8009883a 	mov	r4,r16
   23364:	180b883a 	mov	r5,r3
   23368:	00243900 	call	24390 <__divsf3>
   2336c:	1007883a 	mov	r3,r2
   23370:	e0fff815 	stw	r3,-32(fp)

    for(i= 1; i< step;i++ ){
   23374:	00800044 	movi	r2,1
   23378:	e0bff50d 	sth	r2,-44(fp)
   2337c:	00007d06 	br	23574 <PinP_video_change+0x304>

      temp_x = (alt_u16)(pCamera->mixerii_x + delta_x*i);
   23380:	e0bffb17 	ldw	r2,-20(fp)
   23384:	1080000b 	ldhu	r2,0(r2)
   23388:	10bfffcc 	andi	r2,r2,65535
   2338c:	1009883a 	mov	r4,r2
   23390:	00252300 	call	25230 <__floatsisf>
   23394:	1021883a 	mov	r16,r2
   23398:	e0bff50b 	ldhu	r2,-44(fp)
   2339c:	1009883a 	mov	r4,r2
   233a0:	00252300 	call	25230 <__floatsisf>
   233a4:	1007883a 	mov	r3,r2
   233a8:	1809883a 	mov	r4,r3
   233ac:	e17ff717 	ldw	r5,-36(fp)
   233b0:	00248980 	call	24898 <__mulsf3>
   233b4:	1007883a 	mov	r3,r2
   233b8:	1805883a 	mov	r2,r3
   233bc:	8009883a 	mov	r4,r16
   233c0:	100b883a 	mov	r5,r2
   233c4:	0023eb00 	call	23eb0 <__addsf3>
   233c8:	1007883a 	mov	r3,r2
   233cc:	1805883a 	mov	r2,r3
   233d0:	1009883a 	mov	r4,r2
   233d4:	0023d240 	call	23d24 <__fixunssfsi>
   233d8:	e0bff90d 	sth	r2,-28(fp)
   	  temp_y = (alt_u16)(pCamera->mixerii_y + delta_y*i);
   233dc:	e0bffb17 	ldw	r2,-20(fp)
   233e0:	1080008b 	ldhu	r2,2(r2)
   233e4:	10bfffcc 	andi	r2,r2,65535
   233e8:	1009883a 	mov	r4,r2
   233ec:	00252300 	call	25230 <__floatsisf>
   233f0:	1021883a 	mov	r16,r2
   233f4:	e0bff50b 	ldhu	r2,-44(fp)
   233f8:	1009883a 	mov	r4,r2
   233fc:	00252300 	call	25230 <__floatsisf>
   23400:	1007883a 	mov	r3,r2
   23404:	1809883a 	mov	r4,r3
   23408:	e17ff817 	ldw	r5,-32(fp)
   2340c:	00248980 	call	24898 <__mulsf3>
   23410:	1007883a 	mov	r3,r2
   23414:	1805883a 	mov	r2,r3
   23418:	8009883a 	mov	r4,r16
   2341c:	100b883a 	mov	r5,r2
   23420:	0023eb00 	call	23eb0 <__addsf3>
   23424:	1007883a 	mov	r3,r2
   23428:	1805883a 	mov	r2,r3
   2342c:	1009883a 	mov	r4,r2
   23430:	0023d240 	call	23d24 <__fixunssfsi>
   23434:	e0bff98d 	sth	r2,-26(fp)
      temp_factor = (int)(pCamera->scalered_factor+i*delta_factor);
   23438:	e0bffb17 	ldw	r2,-20(fp)
   2343c:	1080018b 	ldhu	r2,6(r2)
   23440:	10bfffcc 	andi	r2,r2,65535
   23444:	1009883a 	mov	r4,r2
   23448:	00252300 	call	25230 <__floatsisf>
   2344c:	1021883a 	mov	r16,r2
   23450:	e0bff50b 	ldhu	r2,-44(fp)
   23454:	1009883a 	mov	r4,r2
   23458:	00252300 	call	25230 <__floatsisf>
   2345c:	1007883a 	mov	r3,r2
   23460:	1809883a 	mov	r4,r3
   23464:	e17ff617 	ldw	r5,-40(fp)
   23468:	00248980 	call	24898 <__mulsf3>
   2346c:	1007883a 	mov	r3,r2
   23470:	1805883a 	mov	r2,r3
   23474:	8009883a 	mov	r4,r16
   23478:	100b883a 	mov	r5,r2
   2347c:	0023eb00 	call	23eb0 <__addsf3>
   23480:	1007883a 	mov	r3,r2
   23484:	1805883a 	mov	r2,r3
   23488:	1009883a 	mov	r4,r2
   2348c:	00251b80 	call	251b8 <__fixsfsi>
   23490:	e0bffa0d 	sth	r2,-24(fp)
      if(camera_out_of_range(temp_x,temp_y,temp_factor)){
   23494:	e13ff90b 	ldhu	r4,-28(fp)
   23498:	e0fff98b 	ldhu	r3,-26(fp)
   2349c:	e0bffa0b 	ldhu	r2,-24(fp)
   234a0:	180b883a 	mov	r5,r3
   234a4:	100d883a 	mov	r6,r2
   234a8:	0022af00 	call	22af0 <camera_out_of_range>
   234ac:	10000626 	beq	r2,zero,234c8 <PinP_video_change+0x258>
        printf("step %d out of range\n",i);
   234b0:	e0bff50b 	ldhu	r2,-44(fp)
   234b4:	010000f4 	movhi	r4,3
   234b8:	2112c404 	addi	r4,r4,19216
   234bc:	100b883a 	mov	r5,r2
   234c0:	0025df80 	call	25df8 <printf>
        continue;
   234c4:	00002806 	br	23568 <PinP_video_change+0x2f8>
      }

      if(factor < pCamera->scalered_factor){
   234c8:	e0bffb17 	ldw	r2,-20(fp)
   234cc:	1080018b 	ldhu	r2,6(r2)
   234d0:	10bfffcc 	andi	r2,r2,65535
   234d4:	e0fffe0b 	ldhu	r3,-8(fp)
   234d8:	1880122e 	bgeu	r3,r2,23524 <PinP_video_change+0x2b4>
  		scalerii_scale(pCamera->pConfig,temp_factor);
   234dc:	e0bffb17 	ldw	r2,-20(fp)
   234e0:	10c00217 	ldw	r3,8(r2)
   234e4:	e0bffa0b 	ldhu	r2,-24(fp)
   234e8:	1809883a 	mov	r4,r3
   234ec:	100b883a 	mov	r5,r2
   234f0:	0023c840 	call	23c84 <scalerii_scale>
  		usleep(PinP_TIME_DELAY);
   234f4:	01271014 	movui	r4,40000
   234f8:	00322500 	call	32250 <usleep>
  		PinP_position_set(pCamera->mixerii_channel,temp_x,temp_y,temp_factor);
   234fc:	e0bffb17 	ldw	r2,-20(fp)
   23500:	10800103 	ldbu	r2,4(r2)
   23504:	11003fcc 	andi	r4,r2,255
   23508:	e17ff90b 	ldhu	r5,-28(fp)
   2350c:	e0fff98b 	ldhu	r3,-26(fp)
   23510:	e0bffa0b 	ldhu	r2,-24(fp)
   23514:	180d883a 	mov	r6,r3
   23518:	100f883a 	mov	r7,r2
   2351c:	0022c300 	call	22c30 <PinP_position_set>
   23520:	00001106 	br	23568 <PinP_video_change+0x2f8>
      }
      else{
  		PinP_position_set(pCamera->mixerii_channel,temp_x,temp_y,temp_factor);
   23524:	e0bffb17 	ldw	r2,-20(fp)
   23528:	10800103 	ldbu	r2,4(r2)
   2352c:	11003fcc 	andi	r4,r2,255
   23530:	e17ff90b 	ldhu	r5,-28(fp)
   23534:	e0fff98b 	ldhu	r3,-26(fp)
   23538:	e0bffa0b 	ldhu	r2,-24(fp)
   2353c:	180d883a 	mov	r6,r3
   23540:	100f883a 	mov	r7,r2
   23544:	0022c300 	call	22c30 <PinP_position_set>
  	    usleep(PinP_TIME_DELAY);
   23548:	01271014 	movui	r4,40000
   2354c:	00322500 	call	32250 <usleep>
  		scalerii_scale(pCamera->pConfig,temp_factor);
   23550:	e0bffb17 	ldw	r2,-20(fp)
   23554:	10c00217 	ldw	r3,8(r2)
   23558:	e0bffa0b 	ldhu	r2,-24(fp)
   2355c:	1809883a 	mov	r4,r3
   23560:	100b883a 	mov	r5,r2
   23564:	0023c840 	call	23c84 <scalerii_scale>

    delta_factor = (float)(factor - pCamera->scalered_factor)/(float)step;
	delta_x      = (float)(x - pCamera->mixerii_x)/(float)step;
	delta_y      = (float)(y - pCamera->mixerii_y)/(float)step;

    for(i= 1; i< step;i++ ){
   23568:	e0bff50b 	ldhu	r2,-44(fp)
   2356c:	10800044 	addi	r2,r2,1
   23570:	e0bff50d 	sth	r2,-44(fp)
   23574:	e0fff50b 	ldhu	r3,-44(fp)
   23578:	e0bff58b 	ldhu	r2,-42(fp)
   2357c:	18bf8036 	bltu	r3,r2,23380 <__alt_data_end+0xfffe3380>

   	}
#endif


    if(factor < pCamera->scalered_factor){
   23580:	e0bffb17 	ldw	r2,-20(fp)
   23584:	1080018b 	ldhu	r2,6(r2)
   23588:	10bfffcc 	andi	r2,r2,65535
   2358c:	e0fffe0b 	ldhu	r3,-8(fp)
   23590:	1880122e 	bgeu	r3,r2,235dc <PinP_video_change+0x36c>
		scalerii_scale(pCamera->pConfig,factor);
   23594:	e0bffb17 	ldw	r2,-20(fp)
   23598:	10c00217 	ldw	r3,8(r2)
   2359c:	e0bffe0b 	ldhu	r2,-8(fp)
   235a0:	1809883a 	mov	r4,r3
   235a4:	100b883a 	mov	r5,r2
   235a8:	0023c840 	call	23c84 <scalerii_scale>
		usleep(PinP_TIME_DELAY);
   235ac:	01271014 	movui	r4,40000
   235b0:	00322500 	call	32250 <usleep>
		PinP_position_set(pCamera->mixerii_channel,x,y,factor);
   235b4:	e0bffb17 	ldw	r2,-20(fp)
   235b8:	10800103 	ldbu	r2,4(r2)
   235bc:	11003fcc 	andi	r4,r2,255
   235c0:	e17ffc0b 	ldhu	r5,-16(fp)
   235c4:	e0fffd0b 	ldhu	r3,-12(fp)
   235c8:	e0bffe0b 	ldhu	r2,-8(fp)
   235cc:	180d883a 	mov	r6,r3
   235d0:	100f883a 	mov	r7,r2
   235d4:	0022c300 	call	22c30 <PinP_position_set>
   235d8:	00001106 	br	23620 <PinP_video_change+0x3b0>
    }
    else{
		PinP_position_set(pCamera->mixerii_channel,x,y,factor);
   235dc:	e0bffb17 	ldw	r2,-20(fp)
   235e0:	10800103 	ldbu	r2,4(r2)
   235e4:	11003fcc 	andi	r4,r2,255
   235e8:	e17ffc0b 	ldhu	r5,-16(fp)
   235ec:	e0fffd0b 	ldhu	r3,-12(fp)
   235f0:	e0bffe0b 	ldhu	r2,-8(fp)
   235f4:	180d883a 	mov	r6,r3
   235f8:	100f883a 	mov	r7,r2
   235fc:	0022c300 	call	22c30 <PinP_position_set>
	    usleep(PinP_TIME_DELAY);
   23600:	01271014 	movui	r4,40000
   23604:	00322500 	call	32250 <usleep>
		scalerii_scale(pCamera->pConfig,factor);
   23608:	e0bffb17 	ldw	r2,-20(fp)
   2360c:	10c00217 	ldw	r3,8(r2)
   23610:	e0bffe0b 	ldhu	r2,-8(fp)
   23614:	1809883a 	mov	r4,r3
   23618:	100b883a 	mov	r5,r2
   2361c:	0023c840 	call	23c84 <scalerii_scale>
   }

	pCamera->mixerii_x = x;
   23620:	e0bffb17 	ldw	r2,-20(fp)
   23624:	e0fffc0b 	ldhu	r3,-16(fp)
   23628:	10c0000d 	sth	r3,0(r2)
	pCamera->mixerii_y = y;
   2362c:	e0bffb17 	ldw	r2,-20(fp)
   23630:	e0fffd0b 	ldhu	r3,-12(fp)
   23634:	10c0008d 	sth	r3,2(r2)
	pCamera->scalered_factor = factor;
   23638:	e0bffb17 	ldw	r2,-20(fp)
   2363c:	e0fffe0b 	ldhu	r3,-8(fp)
   23640:	10c0018d 	sth	r3,6(r2)
}
   23644:	e6ffff04 	addi	sp,fp,-4
   23648:	dfc00217 	ldw	ra,8(sp)
   2364c:	df000117 	ldw	fp,4(sp)
   23650:	dc000017 	ldw	r16,0(sp)
   23654:	dec00304 	addi	sp,sp,12
   23658:	f800283a 	ret

0002365c <PinP_2camera_ajust>:


void PinP_2camera_ajust(int add_or_minus){
   2365c:	defff604 	addi	sp,sp,-40
   23660:	dfc00915 	stw	ra,36(sp)
   23664:	df000815 	stw	fp,32(sp)
   23668:	df000804 	addi	fp,sp,32
   2366c:	e13fff15 	stw	r4,-4(fp)

   int factor_step_unit;
   int CmaeraL_factor,CmaeraR_factor;
   int CmaeraR_x,CmaeraR_y;

   factor_step_unit = add_or_minus ? (1):(-1);
   23670:	e0bfff17 	ldw	r2,-4(fp)
   23674:	10000226 	beq	r2,zero,23680 <PinP_2camera_ajust+0x24>
   23678:	00800044 	movi	r2,1
   2367c:	00000106 	br	23684 <PinP_2camera_ajust+0x28>
   23680:	00bfffc4 	movi	r2,-1
   23684:	e0bffc15 	stw	r2,-16(fp)

   // judge which camera video displayed on left.
   if(camera0.mixerii_x > camera1.mixerii_x){
   23688:	00800134 	movhi	r2,4
   2368c:	10a50b04 	addi	r2,r2,-27604
   23690:	1100000b 	ldhu	r4,0(r2)
   23694:	00800134 	movhi	r2,4
   23698:	10a50e04 	addi	r2,r2,-27592
   2369c:	10c0000b 	ldhu	r3,0(r2)
   236a0:	20bfffcc 	andi	r2,r4,65535
   236a4:	18ffffcc 	andi	r3,r3,65535
   236a8:	1880072e 	bgeu	r3,r2,236c8 <PinP_2camera_ajust+0x6c>
	   pCameraL = &camera1;
   236ac:	00800134 	movhi	r2,4
   236b0:	10a50e04 	addi	r2,r2,-27592
   236b4:	e0bff815 	stw	r2,-32(fp)
	   pCameraR = &camera0;
   236b8:	00800134 	movhi	r2,4
   236bc:	10a50b04 	addi	r2,r2,-27604
   236c0:	e0bff915 	stw	r2,-28(fp)
   236c4:	00000606 	br	236e0 <PinP_2camera_ajust+0x84>
   }else{
	   pCameraL = &camera0;
   236c8:	00800134 	movhi	r2,4
   236cc:	10a50b04 	addi	r2,r2,-27604
   236d0:	e0bff815 	stw	r2,-32(fp)
	   pCameraR = &camera1;
   236d4:	00800134 	movhi	r2,4
   236d8:	10a50e04 	addi	r2,r2,-27592
   236dc:	e0bff915 	stw	r2,-28(fp)
   }

   CmaeraL_factor = (alt_u16)((int)pCameraL->scalered_factor + factor_step_unit);
   236e0:	e0bff817 	ldw	r2,-32(fp)
   236e4:	1080018b 	ldhu	r2,6(r2)
   236e8:	e0fffc17 	ldw	r3,-16(fp)
   236ec:	10c5883a 	add	r2,r2,r3
   236f0:	10bfffcc 	andi	r2,r2,65535
   236f4:	e0bffd15 	stw	r2,-12(fp)
   CmaeraR_factor = (alt_u16)((int)pCameraR->scalered_factor - factor_step_unit);
   236f8:	e0bff917 	ldw	r2,-28(fp)
   236fc:	1080018b 	ldhu	r2,6(r2)
   23700:	e0fffc17 	ldw	r3,-16(fp)
   23704:	10c5c83a 	sub	r2,r2,r3
   23708:	10bfffcc 	andi	r2,r2,65535
   2370c:	e0bffe15 	stw	r2,-8(fp)

   if(pCameraL->mixerii_x == pCameraR->mixerii_x)
   23710:	e0bff817 	ldw	r2,-32(fp)
   23714:	10c0000b 	ldhu	r3,0(r2)
   23718:	e0bff917 	ldw	r2,-28(fp)
   2371c:	1080000b 	ldhu	r2,0(r2)
   23720:	18ffffcc 	andi	r3,r3,65535
   23724:	10bfffcc 	andi	r2,r2,65535
   23728:	1880051e 	bne	r3,r2,23740 <PinP_2camera_ajust+0xe4>
	    CmaeraR_x = pCameraR->mixerii_x;
   2372c:	e0bff917 	ldw	r2,-28(fp)
   23730:	1080000b 	ldhu	r2,0(r2)
   23734:	10bfffcc 	andi	r2,r2,65535
   23738:	e0bffa15 	stw	r2,-24(fp)
   2373c:	00000806 	br	23760 <PinP_2camera_ajust+0x104>
   else	CmaeraR_x = pCameraR->mixerii_x + factor_step_unit*VIDEO_WIDTH_FACTOR;
   23740:	e0bff917 	ldw	r2,-28(fp)
   23744:	1080000b 	ldhu	r2,0(r2)
   23748:	10ffffcc 	andi	r3,r2,65535
   2374c:	e0bffc17 	ldw	r2,-16(fp)
   23750:	1085883a 	add	r2,r2,r2
   23754:	1085883a 	add	r2,r2,r2
   23758:	1885883a 	add	r2,r3,r2
   2375c:	e0bffa15 	stw	r2,-24(fp)

   if(pCameraL->mixerii_y == pCameraR->mixerii_y)
   23760:	e0bff817 	ldw	r2,-32(fp)
   23764:	10c0008b 	ldhu	r3,2(r2)
   23768:	e0bff917 	ldw	r2,-28(fp)
   2376c:	1080008b 	ldhu	r2,2(r2)
   23770:	18ffffcc 	andi	r3,r3,65535
   23774:	10bfffcc 	andi	r2,r2,65535
   23778:	1880051e 	bne	r3,r2,23790 <PinP_2camera_ajust+0x134>
	    CmaeraR_y = pCameraR->mixerii_y;
   2377c:	e0bff917 	ldw	r2,-28(fp)
   23780:	1080008b 	ldhu	r2,2(r2)
   23784:	10bfffcc 	andi	r2,r2,65535
   23788:	e0bffb15 	stw	r2,-20(fp)
   2378c:	00000906 	br	237b4 <PinP_2camera_ajust+0x158>
   else	CmaeraR_y = pCameraR->mixerii_y + factor_step_unit*VIDEO_HEIGHT_FACTOR;
   23790:	e0bff917 	ldw	r2,-28(fp)
   23794:	1080008b 	ldhu	r2,2(r2)
   23798:	113fffcc 	andi	r4,r2,65535
   2379c:	e0fffc17 	ldw	r3,-16(fp)
   237a0:	1805883a 	mov	r2,r3
   237a4:	1085883a 	add	r2,r2,r2
   237a8:	10c5883a 	add	r2,r2,r3
   237ac:	2085883a 	add	r2,r4,r2
   237b0:	e0bffb15 	stw	r2,-20(fp)

//   printf("fL=%d,xL=%d,yL=%d,fR=%d,xR=%d,yR=%d\n",CmaeraL_factor,pCameraL->mixerii_x,pCameraL->mixerii_y,CmaeraR_factor,CmaeraR_x,CmaeraR_y);

   if(camera_out_of_range(pCameraL->mixerii_x,pCameraL->mixerii_y,CmaeraL_factor)){
   237b4:	e0bff817 	ldw	r2,-32(fp)
   237b8:	1080000b 	ldhu	r2,0(r2)
   237bc:	10ffffcc 	andi	r3,r2,65535
   237c0:	e0bff817 	ldw	r2,-32(fp)
   237c4:	1080008b 	ldhu	r2,2(r2)
   237c8:	10bfffcc 	andi	r2,r2,65535
   237cc:	1809883a 	mov	r4,r3
   237d0:	100b883a 	mov	r5,r2
   237d4:	e1bffd17 	ldw	r6,-12(fp)
   237d8:	0022af00 	call	22af0 <camera_out_of_range>
   237dc:	10000126 	beq	r2,zero,237e4 <PinP_2camera_ajust+0x188>
//	   printf("Left Video out of range!\n");
	   return;}
   237e0:	00004d06 	br	23918 <PinP_2camera_ajust+0x2bc>
   if(camera_out_of_range(CmaeraR_x,CmaeraR_y,CmaeraR_factor)){
   237e4:	e13ffa17 	ldw	r4,-24(fp)
   237e8:	e17ffb17 	ldw	r5,-20(fp)
   237ec:	e1bffe17 	ldw	r6,-8(fp)
   237f0:	0022af00 	call	22af0 <camera_out_of_range>
   237f4:	10000126 	beq	r2,zero,237fc <PinP_2camera_ajust+0x1a0>
//	   printf("Right Video out of range!\n");
	   return;}
   237f8:	00004706 	br	23918 <PinP_2camera_ajust+0x2bc>

    // scale down before move
    if(add_or_minus){
   237fc:	e0bfff17 	ldw	r2,-4(fp)
   23800:	10001b26 	beq	r2,zero,23870 <PinP_2camera_ajust+0x214>
		scalerii_scale(pCameraR->pConfig,CmaeraR_factor);
   23804:	e0bff917 	ldw	r2,-28(fp)
   23808:	10c00217 	ldw	r3,8(r2)
   2380c:	e0bffe17 	ldw	r2,-8(fp)
   23810:	1809883a 	mov	r4,r3
   23814:	100b883a 	mov	r5,r2
   23818:	0023c840 	call	23c84 <scalerii_scale>
		usleep(PinP_TIME_DELAY);
   2381c:	01271014 	movui	r4,40000
   23820:	00322500 	call	32250 <usleep>
		PinP_position_set(pCameraR->mixerii_channel,CmaeraR_x,CmaeraR_y,CmaeraR_factor);
   23824:	e0bff917 	ldw	r2,-28(fp)
   23828:	10800103 	ldbu	r2,4(r2)
   2382c:	11003fcc 	andi	r4,r2,255
   23830:	e0bffa17 	ldw	r2,-24(fp)
   23834:	117fffcc 	andi	r5,r2,65535
   23838:	e0bffb17 	ldw	r2,-20(fp)
   2383c:	10ffffcc 	andi	r3,r2,65535
   23840:	e0bffe17 	ldw	r2,-8(fp)
   23844:	10bfffcc 	andi	r2,r2,65535
   23848:	180d883a 	mov	r6,r3
   2384c:	100f883a 	mov	r7,r2
   23850:	0022c300 	call	22c30 <PinP_position_set>
    	scalerii_scale(pCameraL->pConfig,CmaeraL_factor);
   23854:	e0bff817 	ldw	r2,-32(fp)
   23858:	10c00217 	ldw	r3,8(r2)
   2385c:	e0bffd17 	ldw	r2,-12(fp)
   23860:	1809883a 	mov	r4,r3
   23864:	100b883a 	mov	r5,r2
   23868:	0023c840 	call	23c84 <scalerii_scale>
   2386c:	00001a06 	br	238d8 <PinP_2camera_ajust+0x27c>
    }
    else{
	    PinP_position_set(pCameraR->mixerii_channel,CmaeraR_x,CmaeraR_y,CmaeraR_factor);
   23870:	e0bff917 	ldw	r2,-28(fp)
   23874:	10800103 	ldbu	r2,4(r2)
   23878:	11003fcc 	andi	r4,r2,255
   2387c:	e0bffa17 	ldw	r2,-24(fp)
   23880:	117fffcc 	andi	r5,r2,65535
   23884:	e0bffb17 	ldw	r2,-20(fp)
   23888:	10ffffcc 	andi	r3,r2,65535
   2388c:	e0bffe17 	ldw	r2,-8(fp)
   23890:	10bfffcc 	andi	r2,r2,65535
   23894:	180d883a 	mov	r6,r3
   23898:	100f883a 	mov	r7,r2
   2389c:	0022c300 	call	22c30 <PinP_position_set>
        scalerii_scale(pCameraL->pConfig,CmaeraL_factor);
   238a0:	e0bff817 	ldw	r2,-32(fp)
   238a4:	10c00217 	ldw	r3,8(r2)
   238a8:	e0bffd17 	ldw	r2,-12(fp)
   238ac:	1809883a 	mov	r4,r3
   238b0:	100b883a 	mov	r5,r2
   238b4:	0023c840 	call	23c84 <scalerii_scale>
	    usleep(PinP_TIME_DELAY);
   238b8:	01271014 	movui	r4,40000
   238bc:	00322500 	call	32250 <usleep>
    	scalerii_scale(pCameraR->pConfig,CmaeraR_factor);
   238c0:	e0bff917 	ldw	r2,-28(fp)
   238c4:	10c00217 	ldw	r3,8(r2)
   238c8:	e0bffe17 	ldw	r2,-8(fp)
   238cc:	1809883a 	mov	r4,r3
   238d0:	100b883a 	mov	r5,r2
   238d4:	0023c840 	call	23c84 <scalerii_scale>
   }


    pCameraL->scalered_factor = CmaeraL_factor;
   238d8:	e0bffd17 	ldw	r2,-12(fp)
   238dc:	1007883a 	mov	r3,r2
   238e0:	e0bff817 	ldw	r2,-32(fp)
   238e4:	10c0018d 	sth	r3,6(r2)

    pCameraR->mixerii_x = CmaeraR_x;
   238e8:	e0bffa17 	ldw	r2,-24(fp)
   238ec:	1007883a 	mov	r3,r2
   238f0:	e0bff917 	ldw	r2,-28(fp)
   238f4:	10c0000d 	sth	r3,0(r2)
    pCameraR->mixerii_y = CmaeraR_y;
   238f8:	e0bffb17 	ldw	r2,-20(fp)
   238fc:	1007883a 	mov	r3,r2
   23900:	e0bff917 	ldw	r2,-28(fp)
   23904:	10c0008d 	sth	r3,2(r2)
    pCameraR->scalered_factor = CmaeraR_factor;
   23908:	e0bffe17 	ldw	r2,-8(fp)
   2390c:	1007883a 	mov	r3,r2
   23910:	e0bff917 	ldw	r2,-28(fp)
   23914:	10c0018d 	sth	r3,6(r2)

}
   23918:	e037883a 	mov	sp,fp
   2391c:	dfc00117 	ldw	ra,4(sp)
   23920:	df000017 	ldw	fp,0(sp)
   23924:	dec00204 	addi	sp,sp,8
   23928:	f800283a 	ret

0002392c <QUEUE_New>:
#include "queue.h"




QUEUE_STRUCT* QUEUE_New(int nQueueNum){
   2392c:	defffb04 	addi	sp,sp,-20
   23930:	dfc00415 	stw	ra,16(sp)
   23934:	df000315 	stw	fp,12(sp)
   23938:	df000304 	addi	fp,sp,12
   2393c:	e13fff15 	stw	r4,-4(fp)
    int nSize;
    QUEUE_STRUCT *pQueue;
    nSize = sizeof(QUEUE_STRUCT)+nQueueNum*sizeof(alt_u32);
   23940:	e0bfff17 	ldw	r2,-4(fp)
   23944:	10800144 	addi	r2,r2,5
   23948:	1085883a 	add	r2,r2,r2
   2394c:	1085883a 	add	r2,r2,r2
   23950:	e0bffd15 	stw	r2,-12(fp)
    pQueue = (QUEUE_STRUCT *)malloc(nSize);
   23954:	e0bffd17 	ldw	r2,-12(fp)
   23958:	1009883a 	mov	r4,r2
   2395c:	00254d80 	call	254d8 <malloc>
   23960:	e0bffe15 	stw	r2,-8(fp)
    memset((void *)pQueue, 0, nSize);
   23964:	e0bffd17 	ldw	r2,-12(fp)
   23968:	e13ffe17 	ldw	r4,-8(fp)
   2396c:	000b883a 	mov	r5,zero
   23970:	100d883a 	mov	r6,r2
   23974:	0025ca80 	call	25ca8 <memset>
    pQueue->num = nQueueNum;
   23978:	e0ffff17 	ldw	r3,-4(fp)
   2397c:	e0bffe17 	ldw	r2,-8(fp)
   23980:	10c00015 	stw	r3,0(r2)
    return pQueue;
   23984:	e0bffe17 	ldw	r2,-8(fp)
}
   23988:	e037883a 	mov	sp,fp
   2398c:	dfc00117 	ldw	ra,4(sp)
   23990:	df000017 	ldw	fp,0(sp)
   23994:	dec00204 	addi	sp,sp,8
   23998:	f800283a 	ret

0002399c <QUEUE_Delete>:

void QUEUE_Delete(QUEUE_STRUCT *pQueue){
   2399c:	defffd04 	addi	sp,sp,-12
   239a0:	dfc00215 	stw	ra,8(sp)
   239a4:	df000115 	stw	fp,4(sp)
   239a8:	df000104 	addi	fp,sp,4
   239ac:	e13fff15 	stw	r4,-4(fp)
    free(pQueue);
   239b0:	e13fff17 	ldw	r4,-4(fp)
   239b4:	00254ec0 	call	254ec <free>
}
   239b8:	e037883a 	mov	sp,fp
   239bc:	dfc00117 	ldw	ra,4(sp)
   239c0:	df000017 	ldw	fp,0(sp)
   239c4:	dec00204 	addi	sp,sp,8
   239c8:	f800283a 	ret

000239cc <QUEUE_IsEmpty>:

bool QUEUE_IsEmpty(QUEUE_STRUCT *pQueue){
   239cc:	defffe04 	addi	sp,sp,-8
   239d0:	df000115 	stw	fp,4(sp)
   239d4:	df000104 	addi	fp,sp,4
   239d8:	e13fff15 	stw	r4,-4(fp)
    if (pQueue->front == pQueue->rear)
   239dc:	e0bfff17 	ldw	r2,-4(fp)
   239e0:	10c00117 	ldw	r3,4(r2)
   239e4:	e0bfff17 	ldw	r2,-4(fp)
   239e8:	10800217 	ldw	r2,8(r2)
   239ec:	1880021e 	bne	r3,r2,239f8 <QUEUE_IsEmpty+0x2c>
        return TRUE;
   239f0:	00800044 	movi	r2,1
   239f4:	00000106 	br	239fc <QUEUE_IsEmpty+0x30>
    return FALSE;
   239f8:	0005883a 	mov	r2,zero
}
   239fc:	e037883a 	mov	sp,fp
   23a00:	df000017 	ldw	fp,0(sp)
   23a04:	dec00104 	addi	sp,sp,4
   23a08:	f800283a 	ret

00023a0c <QUEUE_IsFull>:

bool QUEUE_IsFull(QUEUE_STRUCT *pQueue){
   23a0c:	defffd04 	addi	sp,sp,-12
   23a10:	dfc00215 	stw	ra,8(sp)
   23a14:	df000115 	stw	fp,4(sp)
   23a18:	df000104 	addi	fp,sp,4
   23a1c:	e13fff15 	stw	r4,-4(fp)
    if (((pQueue->front+1)%pQueue->num) == pQueue->rear)
   23a20:	e0bfff17 	ldw	r2,-4(fp)
   23a24:	10800117 	ldw	r2,4(r2)
   23a28:	10c00044 	addi	r3,r2,1
   23a2c:	e0bfff17 	ldw	r2,-4(fp)
   23a30:	10800017 	ldw	r2,0(r2)
   23a34:	1809883a 	mov	r4,r3
   23a38:	100b883a 	mov	r5,r2
   23a3c:	0023ea80 	call	23ea8 <__umodsi3>
   23a40:	1007883a 	mov	r3,r2
   23a44:	e0bfff17 	ldw	r2,-4(fp)
   23a48:	10800217 	ldw	r2,8(r2)
   23a4c:	1880021e 	bne	r3,r2,23a58 <QUEUE_IsFull+0x4c>
        return TRUE;
   23a50:	00800044 	movi	r2,1
   23a54:	00000106 	br	23a5c <QUEUE_IsFull+0x50>
    return FALSE;
   23a58:	0005883a 	mov	r2,zero
}
   23a5c:	e037883a 	mov	sp,fp
   23a60:	dfc00117 	ldw	ra,4(sp)
   23a64:	df000017 	ldw	fp,0(sp)
   23a68:	dec00204 	addi	sp,sp,8
   23a6c:	f800283a 	ret

00023a70 <QUEUE_Push>:

bool QUEUE_Push(QUEUE_STRUCT *pQueue, alt_u32 data32){
   23a70:	defffc04 	addi	sp,sp,-16
   23a74:	dfc00315 	stw	ra,12(sp)
   23a78:	df000215 	stw	fp,8(sp)
   23a7c:	df000204 	addi	fp,sp,8
   23a80:	e13ffe15 	stw	r4,-8(fp)
   23a84:	e17fff15 	stw	r5,-4(fp)
    if (QUEUE_IsFull(pQueue))
   23a88:	e13ffe17 	ldw	r4,-8(fp)
   23a8c:	0023a0c0 	call	23a0c <QUEUE_IsFull>
   23a90:	10000226 	beq	r2,zero,23a9c <QUEUE_Push+0x2c>
        return FALSE;
   23a94:	0005883a 	mov	r2,zero
   23a98:	00001506 	br	23af0 <QUEUE_Push+0x80>
    pQueue->data[pQueue->front] = data32;
   23a9c:	e0bffe17 	ldw	r2,-8(fp)
   23aa0:	10800117 	ldw	r2,4(r2)
   23aa4:	e0fffe17 	ldw	r3,-8(fp)
   23aa8:	108000c4 	addi	r2,r2,3
   23aac:	1085883a 	add	r2,r2,r2
   23ab0:	1085883a 	add	r2,r2,r2
   23ab4:	1885883a 	add	r2,r3,r2
   23ab8:	e0ffff17 	ldw	r3,-4(fp)
   23abc:	10c00015 	stw	r3,0(r2)
    pQueue->front = (pQueue->front+1)%pQueue->num;        
   23ac0:	e0bffe17 	ldw	r2,-8(fp)
   23ac4:	10800117 	ldw	r2,4(r2)
   23ac8:	10c00044 	addi	r3,r2,1
   23acc:	e0bffe17 	ldw	r2,-8(fp)
   23ad0:	10800017 	ldw	r2,0(r2)
   23ad4:	1809883a 	mov	r4,r3
   23ad8:	100b883a 	mov	r5,r2
   23adc:	0023ea80 	call	23ea8 <__umodsi3>
   23ae0:	1007883a 	mov	r3,r2
   23ae4:	e0bffe17 	ldw	r2,-8(fp)
   23ae8:	10c00115 	stw	r3,4(r2)
    return TRUE;
   23aec:	00800044 	movi	r2,1
}
   23af0:	e037883a 	mov	sp,fp
   23af4:	dfc00117 	ldw	ra,4(sp)
   23af8:	df000017 	ldw	fp,0(sp)
   23afc:	dec00204 	addi	sp,sp,8
   23b00:	f800283a 	ret

00023b04 <QUEUE_Pop>:

alt_u32 QUEUE_Pop(QUEUE_STRUCT *pQueue){
   23b04:	defffc04 	addi	sp,sp,-16
   23b08:	dfc00315 	stw	ra,12(sp)
   23b0c:	df000215 	stw	fp,8(sp)
   23b10:	df000204 	addi	fp,sp,8
   23b14:	e13fff15 	stw	r4,-4(fp)
    alt_u32 data32;
    if (QUEUE_IsEmpty(pQueue))
   23b18:	e13fff17 	ldw	r4,-4(fp)
   23b1c:	00239cc0 	call	239cc <QUEUE_IsEmpty>
   23b20:	10000226 	beq	r2,zero,23b2c <QUEUE_Pop+0x28>
        return 0;
   23b24:	0005883a 	mov	r2,zero
   23b28:	00001506 	br	23b80 <QUEUE_Pop+0x7c>
    data32 = pQueue->data[pQueue->rear];
   23b2c:	e0bfff17 	ldw	r2,-4(fp)
   23b30:	10800217 	ldw	r2,8(r2)
   23b34:	e0ffff17 	ldw	r3,-4(fp)
   23b38:	108000c4 	addi	r2,r2,3
   23b3c:	1085883a 	add	r2,r2,r2
   23b40:	1085883a 	add	r2,r2,r2
   23b44:	1885883a 	add	r2,r3,r2
   23b48:	10800017 	ldw	r2,0(r2)
   23b4c:	e0bffe15 	stw	r2,-8(fp)
    pQueue->rear = (pQueue->rear+1)%pQueue->num;        
   23b50:	e0bfff17 	ldw	r2,-4(fp)
   23b54:	10800217 	ldw	r2,8(r2)
   23b58:	10c00044 	addi	r3,r2,1
   23b5c:	e0bfff17 	ldw	r2,-4(fp)
   23b60:	10800017 	ldw	r2,0(r2)
   23b64:	1809883a 	mov	r4,r3
   23b68:	100b883a 	mov	r5,r2
   23b6c:	0023ea80 	call	23ea8 <__umodsi3>
   23b70:	1007883a 	mov	r3,r2
   23b74:	e0bfff17 	ldw	r2,-4(fp)
   23b78:	10c00215 	stw	r3,8(r2)
    return data32;
   23b7c:	e0bffe17 	ldw	r2,-8(fp)
}
   23b80:	e037883a 	mov	sp,fp
   23b84:	dfc00117 	ldw	ra,4(sp)
   23b88:	df000017 	ldw	fp,0(sp)
   23b8c:	dec00204 	addi	sp,sp,8
   23b90:	f800283a 	ret

00023b94 <QUEUE_Empty>:

void QUEUE_Empty(QUEUE_STRUCT *pQueue){
   23b94:	defffe04 	addi	sp,sp,-8
   23b98:	df000115 	stw	fp,4(sp)
   23b9c:	df000104 	addi	fp,sp,4
   23ba0:	e13fff15 	stw	r4,-4(fp)
    pQueue->front = 0;
   23ba4:	e0bfff17 	ldw	r2,-4(fp)
   23ba8:	10000115 	stw	zero,4(r2)
    pQueue->rear = 0;
   23bac:	e0bfff17 	ldw	r2,-4(fp)
   23bb0:	10000215 	stw	zero,8(r2)
}
   23bb4:	e037883a 	mov	sp,fp
   23bb8:	df000017 	ldw	fp,0(sp)
   23bbc:	dec00104 	addi	sp,sp,4
   23bc0:	f800283a 	ret

00023bc4 <scalerii_go>:

#include <stdio.h>
#include "terasic_includes.h"
#include "video_parameter.h"

void scalerii_go(config_t *pConfig ,int go){
   23bc4:	defffd04 	addi	sp,sp,-12
   23bc8:	df000215 	stw	fp,8(sp)
   23bcc:	df000204 	addi	fp,sp,8
   23bd0:	e13ffe15 	stw	r4,-8(fp)
   23bd4:	e17fff15 	stw	r5,-4(fp)
	if(go==0){
   23bd8:	e0bfff17 	ldw	r2,-4(fp)
   23bdc:	1000071e 	bne	r2,zero,23bfc <scalerii_go+0x38>
		IOWR(pConfig->scalerii_base,0,0);
   23be0:	e0bffe17 	ldw	r2,-8(fp)
   23be4:	10800317 	ldw	r2,12(r2)
   23be8:	0007883a 	mov	r3,zero
   23bec:	10c00035 	stwio	r3,0(r2)
		pConfig->scalerii_run = 0;
   23bf0:	e0bffe17 	ldw	r2,-8(fp)
   23bf4:	10000505 	stb	zero,20(r2)
   23bf8:	00000806 	br	23c1c <scalerii_go+0x58>
	}else{
		IOWR(pConfig->scalerii_base,0,1);
   23bfc:	e0bffe17 	ldw	r2,-8(fp)
   23c00:	10800317 	ldw	r2,12(r2)
   23c04:	1007883a 	mov	r3,r2
   23c08:	00800044 	movi	r2,1
   23c0c:	18800035 	stwio	r2,0(r3)
		pConfig->scalerii_run = 1;
   23c10:	e0bffe17 	ldw	r2,-8(fp)
   23c14:	00c00044 	movi	r3,1
   23c18:	10c00505 	stb	r3,20(r2)
	}
}
   23c1c:	e037883a 	mov	sp,fp
   23c20:	df000017 	ldw	fp,0(sp)
   23c24:	dec00104 	addi	sp,sp,4
   23c28:	f800283a 	ret

00023c2c <scalerii_output_size>:

void scalerii_output_size(config_t *pConfig ,alt_u32 width,alt_u32 height){
   23c2c:	defffc04 	addi	sp,sp,-16
   23c30:	df000315 	stw	fp,12(sp)
   23c34:	df000304 	addi	fp,sp,12
   23c38:	e13ffd15 	stw	r4,-12(fp)
   23c3c:	e17ffe15 	stw	r5,-8(fp)
   23c40:	e1bfff15 	stw	r6,-4(fp)
	 IOWR(pConfig->scalerii_base,3,width);
   23c44:	e0bffd17 	ldw	r2,-12(fp)
   23c48:	10800317 	ldw	r2,12(r2)
   23c4c:	10800304 	addi	r2,r2,12
   23c50:	1007883a 	mov	r3,r2
   23c54:	e0bffe17 	ldw	r2,-8(fp)
   23c58:	18800035 	stwio	r2,0(r3)
	 IOWR(pConfig->scalerii_base,4,height);
   23c5c:	e0bffd17 	ldw	r2,-12(fp)
   23c60:	10800317 	ldw	r2,12(r2)
   23c64:	10800404 	addi	r2,r2,16
   23c68:	1007883a 	mov	r3,r2
   23c6c:	e0bfff17 	ldw	r2,-4(fp)
   23c70:	18800035 	stwio	r2,0(r3)
}
   23c74:	e037883a 	mov	sp,fp
   23c78:	df000017 	ldw	fp,0(sp)
   23c7c:	dec00104 	addi	sp,sp,4
   23c80:	f800283a 	ret

00023c84 <scalerii_scale>:

void scalerii_scale(config_t *pConfig ,alt_u32 factor){
   23c84:	defffc04 	addi	sp,sp,-16
   23c88:	dfc00315 	stw	ra,12(sp)
   23c8c:	df000215 	stw	fp,8(sp)
   23c90:	df000204 	addi	fp,sp,8
   23c94:	e13ffe15 	stw	r4,-8(fp)
   23c98:	e17fff15 	stw	r5,-4(fp)
	if(VIDEO_WIDTH_FACTOR*factor > CAMERA_WIDTH){
   23c9c:	e0bfff17 	ldw	r2,-4(fp)
   23ca0:	1085883a 	add	r2,r2,r2
   23ca4:	1085883a 	add	r2,r2,r2
   23ca8:	1080a070 	cmpltui	r2,r2,641
   23cac:	1000071e 	bne	r2,zero,23ccc <scalerii_scale+0x48>
	  printf("[%s]:Scalerii out of range\n",pConfig->str);
   23cb0:	e0bffe17 	ldw	r2,-8(fp)
   23cb4:	10800544 	addi	r2,r2,21
   23cb8:	010000f4 	movhi	r4,3
   23cbc:	2112ca04 	addi	r4,r4,19240
   23cc0:	100b883a 	mov	r5,r2
   23cc4:	0025df80 	call	25df8 <printf>
	  return;
   23cc8:	00001106 	br	23d10 <scalerii_scale+0x8c>
	}
    scalerii_go(pConfig ,0);
   23ccc:	e13ffe17 	ldw	r4,-8(fp)
   23cd0:	000b883a 	mov	r5,zero
   23cd4:	0023bc40 	call	23bc4 <scalerii_go>
    scalerii_output_size(pConfig, VIDEO_WIDTH_FACTOR*factor,VIDEO_HEIGHT_FACTOR*factor);//4*160,3*160 640x480 max
   23cd8:	e0bfff17 	ldw	r2,-4(fp)
   23cdc:	1085883a 	add	r2,r2,r2
   23ce0:	1085883a 	add	r2,r2,r2
   23ce4:	100b883a 	mov	r5,r2
   23ce8:	e0ffff17 	ldw	r3,-4(fp)
   23cec:	1805883a 	mov	r2,r3
   23cf0:	1085883a 	add	r2,r2,r2
   23cf4:	10c5883a 	add	r2,r2,r3
   23cf8:	e13ffe17 	ldw	r4,-8(fp)
   23cfc:	100d883a 	mov	r6,r2
   23d00:	0023c2c0 	call	23c2c <scalerii_output_size>
    scalerii_go(pConfig ,1);
   23d04:	e13ffe17 	ldw	r4,-8(fp)
   23d08:	01400044 	movi	r5,1
   23d0c:	0023bc40 	call	23bc4 <scalerii_go>
}
   23d10:	e037883a 	mov	sp,fp
   23d14:	dfc00117 	ldw	ra,4(sp)
   23d18:	df000017 	ldw	fp,0(sp)
   23d1c:	dec00204 	addi	sp,sp,8
   23d20:	f800283a 	ret

00023d24 <__fixunssfsi>:
   23d24:	defffd04 	addi	sp,sp,-12
   23d28:	dc000015 	stw	r16,0(sp)
   23d2c:	0413c034 	movhi	r16,20224
   23d30:	800b883a 	mov	r5,r16
   23d34:	dc400115 	stw	r17,4(sp)
   23d38:	dfc00215 	stw	ra,8(sp)
   23d3c:	2023883a 	mov	r17,r4
   23d40:	00247e00 	call	247e0 <__gesf2>
   23d44:	1000070e 	bge	r2,zero,23d64 <__fixunssfsi+0x40>
   23d48:	8809883a 	mov	r4,r17
   23d4c:	00251b80 	call	251b8 <__fixsfsi>
   23d50:	dfc00217 	ldw	ra,8(sp)
   23d54:	dc400117 	ldw	r17,4(sp)
   23d58:	dc000017 	ldw	r16,0(sp)
   23d5c:	dec00304 	addi	sp,sp,12
   23d60:	f800283a 	ret
   23d64:	800b883a 	mov	r5,r16
   23d68:	8809883a 	mov	r4,r17
   23d6c:	0024cbc0 	call	24cbc <__subsf3>
   23d70:	1009883a 	mov	r4,r2
   23d74:	00251b80 	call	251b8 <__fixsfsi>
   23d78:	00e00034 	movhi	r3,32768
   23d7c:	10c5883a 	add	r2,r2,r3
   23d80:	003ff306 	br	23d50 <__alt_data_end+0xfffe3d50>

00023d84 <udivmodsi4>:
   23d84:	2900182e 	bgeu	r5,r4,23de8 <udivmodsi4+0x64>
   23d88:	28001716 	blt	r5,zero,23de8 <udivmodsi4+0x64>
   23d8c:	00800804 	movi	r2,32
   23d90:	00c00044 	movi	r3,1
   23d94:	00000206 	br	23da0 <udivmodsi4+0x1c>
   23d98:	10001126 	beq	r2,zero,23de0 <udivmodsi4+0x5c>
   23d9c:	28000516 	blt	r5,zero,23db4 <udivmodsi4+0x30>
   23da0:	294b883a 	add	r5,r5,r5
   23da4:	10bfffc4 	addi	r2,r2,-1
   23da8:	18c7883a 	add	r3,r3,r3
   23dac:	293ffa36 	bltu	r5,r4,23d98 <__alt_data_end+0xfffe3d98>
   23db0:	18000b26 	beq	r3,zero,23de0 <udivmodsi4+0x5c>
   23db4:	0005883a 	mov	r2,zero
   23db8:	21400236 	bltu	r4,r5,23dc4 <udivmodsi4+0x40>
   23dbc:	2149c83a 	sub	r4,r4,r5
   23dc0:	10c4b03a 	or	r2,r2,r3
   23dc4:	1806d07a 	srli	r3,r3,1
   23dc8:	280ad07a 	srli	r5,r5,1
   23dcc:	183ffa1e 	bne	r3,zero,23db8 <__alt_data_end+0xfffe3db8>
   23dd0:	3000011e 	bne	r6,zero,23dd8 <udivmodsi4+0x54>
   23dd4:	f800283a 	ret
   23dd8:	2005883a 	mov	r2,r4
   23ddc:	f800283a 	ret
   23de0:	0005883a 	mov	r2,zero
   23de4:	003ffa06 	br	23dd0 <__alt_data_end+0xfffe3dd0>
   23de8:	00c00044 	movi	r3,1
   23dec:	003ff106 	br	23db4 <__alt_data_end+0xfffe3db4>

00023df0 <__divsi3>:
   23df0:	defffe04 	addi	sp,sp,-8
   23df4:	dfc00115 	stw	ra,4(sp)
   23df8:	dc000015 	stw	r16,0(sp)
   23dfc:	20000b16 	blt	r4,zero,23e2c <__divsi3+0x3c>
   23e00:	0021883a 	mov	r16,zero
   23e04:	28000c16 	blt	r5,zero,23e38 <__divsi3+0x48>
   23e08:	000d883a 	mov	r6,zero
   23e0c:	0023d840 	call	23d84 <udivmodsi4>
   23e10:	0407c83a 	sub	r3,zero,r16
   23e14:	1884f03a 	xor	r2,r3,r2
   23e18:	1405883a 	add	r2,r2,r16
   23e1c:	dfc00117 	ldw	ra,4(sp)
   23e20:	dc000017 	ldw	r16,0(sp)
   23e24:	dec00204 	addi	sp,sp,8
   23e28:	f800283a 	ret
   23e2c:	0109c83a 	sub	r4,zero,r4
   23e30:	04000044 	movi	r16,1
   23e34:	283ff40e 	bge	r5,zero,23e08 <__alt_data_end+0xfffe3e08>
   23e38:	014bc83a 	sub	r5,zero,r5
   23e3c:	8400005c 	xori	r16,r16,1
   23e40:	003ff106 	br	23e08 <__alt_data_end+0xfffe3e08>

00023e44 <__modsi3>:
   23e44:	defffd04 	addi	sp,sp,-12
   23e48:	dfc00215 	stw	ra,8(sp)
   23e4c:	dc400115 	stw	r17,4(sp)
   23e50:	dc000015 	stw	r16,0(sp)
   23e54:	20000c16 	blt	r4,zero,23e88 <__modsi3+0x44>
   23e58:	0023883a 	mov	r17,zero
   23e5c:	0021883a 	mov	r16,zero
   23e60:	28000d16 	blt	r5,zero,23e98 <__modsi3+0x54>
   23e64:	01800044 	movi	r6,1
   23e68:	0023d840 	call	23d84 <udivmodsi4>
   23e6c:	1404f03a 	xor	r2,r2,r16
   23e70:	8885883a 	add	r2,r17,r2
   23e74:	dfc00217 	ldw	ra,8(sp)
   23e78:	dc400117 	ldw	r17,4(sp)
   23e7c:	dc000017 	ldw	r16,0(sp)
   23e80:	dec00304 	addi	sp,sp,12
   23e84:	f800283a 	ret
   23e88:	0109c83a 	sub	r4,zero,r4
   23e8c:	04400044 	movi	r17,1
   23e90:	043fffc4 	movi	r16,-1
   23e94:	283ff30e 	bge	r5,zero,23e64 <__alt_data_end+0xfffe3e64>
   23e98:	014bc83a 	sub	r5,zero,r5
   23e9c:	003ff106 	br	23e64 <__alt_data_end+0xfffe3e64>

00023ea0 <__udivsi3>:
   23ea0:	000d883a 	mov	r6,zero
   23ea4:	0023d841 	jmpi	23d84 <udivmodsi4>

00023ea8 <__umodsi3>:
   23ea8:	01800044 	movi	r6,1
   23eac:	0023d841 	jmpi	23d84 <udivmodsi4>

00023eb0 <__addsf3>:
   23eb0:	defffc04 	addi	sp,sp,-16
   23eb4:	2004d7fa 	srli	r2,r4,31
   23eb8:	280ed5fa 	srli	r7,r5,23
   23ebc:	dc000015 	stw	r16,0(sp)
   23ec0:	01802034 	movhi	r6,128
   23ec4:	2020d5fa 	srli	r16,r4,23
   23ec8:	31bfffc4 	addi	r6,r6,-1
   23ecc:	2810d7fa 	srli	r8,r5,31
   23ed0:	3108703a 	and	r4,r6,r4
   23ed4:	dc800215 	stw	r18,8(sp)
   23ed8:	314c703a 	and	r6,r6,r5
   23edc:	84003fcc 	andi	r16,r16,255
   23ee0:	200690fa 	slli	r3,r4,3
   23ee4:	dfc00315 	stw	ra,12(sp)
   23ee8:	39003fcc 	andi	r4,r7,255
   23eec:	dc400115 	stw	r17,4(sp)
   23ef0:	14803fcc 	andi	r18,r2,255
   23ef4:	300c90fa 	slli	r6,r6,3
   23ef8:	810bc83a 	sub	r5,r16,r4
   23efc:	92004826 	beq	r18,r8,24020 <__addsf3+0x170>
   23f00:	01406c0e 	bge	zero,r5,240b4 <__addsf3+0x204>
   23f04:	20001e1e 	bne	r4,zero,23f80 <__addsf3+0xd0>
   23f08:	3000611e 	bne	r6,zero,24090 <__addsf3+0x1e0>
   23f0c:	188001cc 	andi	r2,r3,7
   23f10:	10000426 	beq	r2,zero,23f24 <__addsf3+0x74>
   23f14:	190003cc 	andi	r4,r3,15
   23f18:	00800104 	movi	r2,4
   23f1c:	20800126 	beq	r4,r2,23f24 <__addsf3+0x74>
   23f20:	18c00104 	addi	r3,r3,4
   23f24:	1901002c 	andhi	r4,r3,1024
   23f28:	9005883a 	mov	r2,r18
   23f2c:	20003426 	beq	r4,zero,24000 <__addsf3+0x150>
   23f30:	81400044 	addi	r5,r16,1
   23f34:	01003fc4 	movi	r4,255
   23f38:	29006926 	beq	r5,r4,240e0 <__addsf3+0x230>
   23f3c:	180691ba 	slli	r3,r3,6
   23f40:	1808d27a 	srli	r4,r3,9
   23f44:	29403fcc 	andi	r5,r5,255
   23f48:	280a95fa 	slli	r5,r5,23
   23f4c:	10803fcc 	andi	r2,r2,255
   23f50:	00c02034 	movhi	r3,128
   23f54:	100497fa 	slli	r2,r2,31
   23f58:	18ffffc4 	addi	r3,r3,-1
   23f5c:	20c6703a 	and	r3,r4,r3
   23f60:	1946b03a 	or	r3,r3,r5
   23f64:	1884b03a 	or	r2,r3,r2
   23f68:	dfc00317 	ldw	ra,12(sp)
   23f6c:	dc800217 	ldw	r18,8(sp)
   23f70:	dc400117 	ldw	r17,4(sp)
   23f74:	dc000017 	ldw	r16,0(sp)
   23f78:	dec00404 	addi	sp,sp,16
   23f7c:	f800283a 	ret
   23f80:	00803fc4 	movi	r2,255
   23f84:	80bfe126 	beq	r16,r2,23f0c <__alt_data_end+0xfffe3f0c>
   23f88:	31810034 	orhi	r6,r6,1024
   23f8c:	008006c4 	movi	r2,27
   23f90:	11405b0e 	bge	r2,r5,24100 <__addsf3+0x250>
   23f94:	01400044 	movi	r5,1
   23f98:	1947c83a 	sub	r3,r3,r5
   23f9c:	1881002c 	andhi	r2,r3,1024
   23fa0:	10001426 	beq	r2,zero,23ff4 <__addsf3+0x144>
   23fa4:	04410034 	movhi	r17,1024
   23fa8:	8c7fffc4 	addi	r17,r17,-1
   23fac:	1c62703a 	and	r17,r3,r17
   23fb0:	8809883a 	mov	r4,r17
   23fb4:	00254740 	call	25474 <__clzsi2>
   23fb8:	10bffec4 	addi	r2,r2,-5
   23fbc:	88a2983a 	sll	r17,r17,r2
   23fc0:	14004a16 	blt	r2,r16,240ec <__addsf3+0x23c>
   23fc4:	140bc83a 	sub	r5,r2,r16
   23fc8:	00c007c4 	movi	r3,31
   23fcc:	1947c83a 	sub	r3,r3,r5
   23fd0:	88c6983a 	sll	r3,r17,r3
   23fd4:	29400044 	addi	r5,r5,1
   23fd8:	8962d83a 	srl	r17,r17,r5
   23fdc:	1806c03a 	cmpne	r3,r3,zero
   23fe0:	0021883a 	mov	r16,zero
   23fe4:	1c46b03a 	or	r3,r3,r17
   23fe8:	003fc806 	br	23f0c <__alt_data_end+0xfffe3f0c>
   23fec:	1000e526 	beq	r2,zero,24384 <__addsf3+0x4d4>
   23ff0:	1007883a 	mov	r3,r2
   23ff4:	188001cc 	andi	r2,r3,7
   23ff8:	103fc61e 	bne	r2,zero,23f14 <__alt_data_end+0xfffe3f14>
   23ffc:	9005883a 	mov	r2,r18
   24000:	01003fc4 	movi	r4,255
   24004:	1806d0fa 	srli	r3,r3,3
   24008:	81001a26 	beq	r16,r4,24074 <__addsf3+0x1c4>
   2400c:	01002034 	movhi	r4,128
   24010:	213fffc4 	addi	r4,r4,-1
   24014:	800b883a 	mov	r5,r16
   24018:	1908703a 	and	r4,r3,r4
   2401c:	003fc906 	br	23f44 <__alt_data_end+0xfffe3f44>
   24020:	01403e0e 	bge	zero,r5,2411c <__addsf3+0x26c>
   24024:	20001e26 	beq	r4,zero,240a0 <__addsf3+0x1f0>
   24028:	01003fc4 	movi	r4,255
   2402c:	813fb726 	beq	r16,r4,23f0c <__alt_data_end+0xfffe3f0c>
   24030:	31810034 	orhi	r6,r6,1024
   24034:	010006c4 	movi	r4,27
   24038:	2140570e 	bge	r4,r5,24198 <__addsf3+0x2e8>
   2403c:	01400044 	movi	r5,1
   24040:	1947883a 	add	r3,r3,r5
   24044:	1901002c 	andhi	r4,r3,1024
   24048:	203fea26 	beq	r4,zero,23ff4 <__alt_data_end+0xfffe3ff4>
   2404c:	84000044 	addi	r16,r16,1
   24050:	01003fc4 	movi	r4,255
   24054:	81007526 	beq	r16,r4,2422c <__addsf3+0x37c>
   24058:	00bf0034 	movhi	r2,64512
   2405c:	10bfffc4 	addi	r2,r2,-1
   24060:	1900004c 	andi	r4,r3,1
   24064:	1886703a 	and	r3,r3,r2
   24068:	1806d07a 	srli	r3,r3,1
   2406c:	1906b03a 	or	r3,r3,r4
   24070:	003fa606 	br	23f0c <__alt_data_end+0xfffe3f0c>
   24074:	18001a26 	beq	r3,zero,240e0 <__addsf3+0x230>
   24078:	19001034 	orhi	r4,r3,64
   2407c:	00c02034 	movhi	r3,128
   24080:	18ffffc4 	addi	r3,r3,-1
   24084:	017fffc4 	movi	r5,-1
   24088:	20c8703a 	and	r4,r4,r3
   2408c:	003fad06 	br	23f44 <__alt_data_end+0xfffe3f44>
   24090:	297fffc4 	addi	r5,r5,-1
   24094:	28002c1e 	bne	r5,zero,24148 <__addsf3+0x298>
   24098:	1987c83a 	sub	r3,r3,r6
   2409c:	003fbf06 	br	23f9c <__alt_data_end+0xfffe3f9c>
   240a0:	303f9a26 	beq	r6,zero,23f0c <__alt_data_end+0xfffe3f0c>
   240a4:	297fffc4 	addi	r5,r5,-1
   240a8:	28004b1e 	bne	r5,zero,241d8 <__addsf3+0x328>
   240ac:	1987883a 	add	r3,r3,r6
   240b0:	003fe406 	br	24044 <__alt_data_end+0xfffe4044>
   240b4:	2800271e 	bne	r5,zero,24154 <__addsf3+0x2a4>
   240b8:	80800044 	addi	r2,r16,1
   240bc:	10803fcc 	andi	r2,r2,255
   240c0:	01000044 	movi	r4,1
   240c4:	2080520e 	bge	r4,r2,24210 <__addsf3+0x360>
   240c8:	19a3c83a 	sub	r17,r3,r6
   240cc:	8881002c 	andhi	r2,r17,1024
   240d0:	10002c26 	beq	r2,zero,24184 <__addsf3+0x2d4>
   240d4:	30e3c83a 	sub	r17,r6,r3
   240d8:	4025883a 	mov	r18,r8
   240dc:	003fb406 	br	23fb0 <__alt_data_end+0xfffe3fb0>
   240e0:	017fffc4 	movi	r5,-1
   240e4:	0009883a 	mov	r4,zero
   240e8:	003f9606 	br	23f44 <__alt_data_end+0xfffe3f44>
   240ec:	00ff0034 	movhi	r3,64512
   240f0:	18ffffc4 	addi	r3,r3,-1
   240f4:	80a1c83a 	sub	r16,r16,r2
   240f8:	88c6703a 	and	r3,r17,r3
   240fc:	003f8306 	br	23f0c <__alt_data_end+0xfffe3f0c>
   24100:	00800804 	movi	r2,32
   24104:	1145c83a 	sub	r2,r2,r5
   24108:	3084983a 	sll	r2,r6,r2
   2410c:	314cd83a 	srl	r6,r6,r5
   24110:	100ac03a 	cmpne	r5,r2,zero
   24114:	298ab03a 	or	r5,r5,r6
   24118:	003f9f06 	br	23f98 <__alt_data_end+0xfffe3f98>
   2411c:	2800451e 	bne	r5,zero,24234 <__addsf3+0x384>
   24120:	81000044 	addi	r4,r16,1
   24124:	21c03fcc 	andi	r7,r4,255
   24128:	01400044 	movi	r5,1
   2412c:	29c02d0e 	bge	r5,r7,241e4 <__addsf3+0x334>
   24130:	01403fc4 	movi	r5,255
   24134:	21403c26 	beq	r4,r5,24228 <__addsf3+0x378>
   24138:	30c7883a 	add	r3,r6,r3
   2413c:	1806d07a 	srli	r3,r3,1
   24140:	2021883a 	mov	r16,r4
   24144:	003f7106 	br	23f0c <__alt_data_end+0xfffe3f0c>
   24148:	00803fc4 	movi	r2,255
   2414c:	80bf8f1e 	bne	r16,r2,23f8c <__alt_data_end+0xfffe3f8c>
   24150:	003f6e06 	br	23f0c <__alt_data_end+0xfffe3f0c>
   24154:	80001726 	beq	r16,zero,241b4 <__addsf3+0x304>
   24158:	00803fc4 	movi	r2,255
   2415c:	20801a26 	beq	r4,r2,241c8 <__addsf3+0x318>
   24160:	014bc83a 	sub	r5,zero,r5
   24164:	18c10034 	orhi	r3,r3,1024
   24168:	008006c4 	movi	r2,27
   2416c:	1140430e 	bge	r2,r5,2427c <__addsf3+0x3cc>
   24170:	00c00044 	movi	r3,1
   24174:	30c7c83a 	sub	r3,r6,r3
   24178:	2021883a 	mov	r16,r4
   2417c:	4025883a 	mov	r18,r8
   24180:	003f8606 	br	23f9c <__alt_data_end+0xfffe3f9c>
   24184:	883f8a1e 	bne	r17,zero,23fb0 <__alt_data_end+0xfffe3fb0>
   24188:	0007883a 	mov	r3,zero
   2418c:	0005883a 	mov	r2,zero
   24190:	0021883a 	mov	r16,zero
   24194:	003f9a06 	br	24000 <__alt_data_end+0xfffe4000>
   24198:	01000804 	movi	r4,32
   2419c:	2149c83a 	sub	r4,r4,r5
   241a0:	3108983a 	sll	r4,r6,r4
   241a4:	314cd83a 	srl	r6,r6,r5
   241a8:	200ac03a 	cmpne	r5,r4,zero
   241ac:	298ab03a 	or	r5,r5,r6
   241b0:	003fa306 	br	24040 <__alt_data_end+0xfffe4040>
   241b4:	18000426 	beq	r3,zero,241c8 <__addsf3+0x318>
   241b8:	014a303a 	nor	r5,zero,r5
   241bc:	283fed26 	beq	r5,zero,24174 <__alt_data_end+0xfffe4174>
   241c0:	00803fc4 	movi	r2,255
   241c4:	20bfe81e 	bne	r4,r2,24168 <__alt_data_end+0xfffe4168>
   241c8:	3007883a 	mov	r3,r6
   241cc:	2021883a 	mov	r16,r4
   241d0:	4025883a 	mov	r18,r8
   241d4:	003f4d06 	br	23f0c <__alt_data_end+0xfffe3f0c>
   241d8:	01003fc4 	movi	r4,255
   241dc:	813f951e 	bne	r16,r4,24034 <__alt_data_end+0xfffe4034>
   241e0:	003f4a06 	br	23f0c <__alt_data_end+0xfffe3f0c>
   241e4:	8000471e 	bne	r16,zero,24304 <__addsf3+0x454>
   241e8:	18006126 	beq	r3,zero,24370 <__addsf3+0x4c0>
   241ec:	303f4726 	beq	r6,zero,23f0c <__alt_data_end+0xfffe3f0c>
   241f0:	1987883a 	add	r3,r3,r6
   241f4:	1881002c 	andhi	r2,r3,1024
   241f8:	103f7e26 	beq	r2,zero,23ff4 <__alt_data_end+0xfffe3ff4>
   241fc:	00bf0034 	movhi	r2,64512
   24200:	10bfffc4 	addi	r2,r2,-1
   24204:	2821883a 	mov	r16,r5
   24208:	1886703a 	and	r3,r3,r2
   2420c:	003f3f06 	br	23f0c <__alt_data_end+0xfffe3f0c>
   24210:	8000141e 	bne	r16,zero,24264 <__addsf3+0x3b4>
   24214:	1800311e 	bne	r3,zero,242dc <__addsf3+0x42c>
   24218:	30004626 	beq	r6,zero,24334 <__addsf3+0x484>
   2421c:	3007883a 	mov	r3,r6
   24220:	4025883a 	mov	r18,r8
   24224:	003f3906 	br	23f0c <__alt_data_end+0xfffe3f0c>
   24228:	2021883a 	mov	r16,r4
   2422c:	0007883a 	mov	r3,zero
   24230:	003f7306 	br	24000 <__alt_data_end+0xfffe4000>
   24234:	8000181e 	bne	r16,zero,24298 <__addsf3+0x3e8>
   24238:	18002f26 	beq	r3,zero,242f8 <__addsf3+0x448>
   2423c:	014a303a 	nor	r5,zero,r5
   24240:	28000526 	beq	r5,zero,24258 <__addsf3+0x3a8>
   24244:	01c03fc4 	movi	r7,255
   24248:	21c02b26 	beq	r4,r7,242f8 <__addsf3+0x448>
   2424c:	01c006c4 	movi	r7,27
   24250:	3940400e 	bge	r7,r5,24354 <__addsf3+0x4a4>
   24254:	00c00044 	movi	r3,1
   24258:	1987883a 	add	r3,r3,r6
   2425c:	2021883a 	mov	r16,r4
   24260:	003f7806 	br	24044 <__alt_data_end+0xfffe4044>
   24264:	1800111e 	bne	r3,zero,242ac <__addsf3+0x3fc>
   24268:	30003526 	beq	r6,zero,24340 <__addsf3+0x490>
   2426c:	3007883a 	mov	r3,r6
   24270:	4025883a 	mov	r18,r8
   24274:	04003fc4 	movi	r16,255
   24278:	003f2406 	br	23f0c <__alt_data_end+0xfffe3f0c>
   2427c:	00800804 	movi	r2,32
   24280:	1145c83a 	sub	r2,r2,r5
   24284:	1884983a 	sll	r2,r3,r2
   24288:	194ad83a 	srl	r5,r3,r5
   2428c:	1006c03a 	cmpne	r3,r2,zero
   24290:	1946b03a 	or	r3,r3,r5
   24294:	003fb706 	br	24174 <__alt_data_end+0xfffe4174>
   24298:	01c03fc4 	movi	r7,255
   2429c:	21c01626 	beq	r4,r7,242f8 <__addsf3+0x448>
   242a0:	014bc83a 	sub	r5,zero,r5
   242a4:	18c10034 	orhi	r3,r3,1024
   242a8:	003fe806 	br	2424c <__alt_data_end+0xfffe424c>
   242ac:	30001f26 	beq	r6,zero,2432c <__addsf3+0x47c>
   242b0:	1806d0fa 	srli	r3,r3,3
   242b4:	1880102c 	andhi	r2,r3,64
   242b8:	10000526 	beq	r2,zero,242d0 <__addsf3+0x420>
   242bc:	300cd0fa 	srli	r6,r6,3
   242c0:	3080102c 	andhi	r2,r6,64
   242c4:	1000021e 	bne	r2,zero,242d0 <__addsf3+0x420>
   242c8:	3007883a 	mov	r3,r6
   242cc:	4025883a 	mov	r18,r8
   242d0:	180690fa 	slli	r3,r3,3
   242d4:	04003fc4 	movi	r16,255
   242d8:	003f0c06 	br	23f0c <__alt_data_end+0xfffe3f0c>
   242dc:	303f0b26 	beq	r6,zero,23f0c <__alt_data_end+0xfffe3f0c>
   242e0:	1985c83a 	sub	r2,r3,r6
   242e4:	1101002c 	andhi	r4,r2,1024
   242e8:	203f4026 	beq	r4,zero,23fec <__alt_data_end+0xfffe3fec>
   242ec:	30c7c83a 	sub	r3,r6,r3
   242f0:	4025883a 	mov	r18,r8
   242f4:	003f0506 	br	23f0c <__alt_data_end+0xfffe3f0c>
   242f8:	3007883a 	mov	r3,r6
   242fc:	2021883a 	mov	r16,r4
   24300:	003f0206 	br	23f0c <__alt_data_end+0xfffe3f0c>
   24304:	18001c26 	beq	r3,zero,24378 <__addsf3+0x4c8>
   24308:	30000826 	beq	r6,zero,2432c <__addsf3+0x47c>
   2430c:	1806d0fa 	srli	r3,r3,3
   24310:	1880102c 	andhi	r2,r3,64
   24314:	103fee26 	beq	r2,zero,242d0 <__alt_data_end+0xfffe42d0>
   24318:	300cd0fa 	srli	r6,r6,3
   2431c:	3080102c 	andhi	r2,r6,64
   24320:	103feb1e 	bne	r2,zero,242d0 <__alt_data_end+0xfffe42d0>
   24324:	3007883a 	mov	r3,r6
   24328:	003fe906 	br	242d0 <__alt_data_end+0xfffe42d0>
   2432c:	04003fc4 	movi	r16,255
   24330:	003ef606 	br	23f0c <__alt_data_end+0xfffe3f0c>
   24334:	8007883a 	mov	r3,r16
   24338:	0005883a 	mov	r2,zero
   2433c:	003f3006 	br	24000 <__alt_data_end+0xfffe4000>
   24340:	00c10034 	movhi	r3,1024
   24344:	0005883a 	mov	r2,zero
   24348:	18fffe04 	addi	r3,r3,-8
   2434c:	04003fc4 	movi	r16,255
