
Camera_Test.elf:     file format elf32-littlenios2
Camera_Test.elf
architecture: nios2:r1, flags 0x00000112:
EXEC_P, HAS_SYMS, D_PAGED
start address 0x00020240

Program Header:
    LOAD off    0x00001000 vaddr 0x00020000 paddr 0x00020000 align 2**12
         filesz 0x00000020 memsz 0x00000020 flags r-x
    LOAD off    0x00001020 vaddr 0x00020020 paddr 0x00020020 align 2**12
         filesz 0x00014e1c memsz 0x00014e1c flags r-x
    LOAD off    0x00015e3c vaddr 0x00034e3c paddr 0x000370cc align 2**12
         filesz 0x00002290 memsz 0x00002290 flags rw-
    LOAD off    0x0001835c vaddr 0x0003935c paddr 0x0003935c align 2**12
         filesz 0x00000000 memsz 0x000001e8 flags rw-

Sections:
Idx Name          Size      VMA       LMA       File off  Algn
  0 .entry        00000020  00020000  00020000  00001000  2**5
                  CONTENTS, ALLOC, LOAD, READONLY, CODE
  1 .exceptions   00000220  00020020  00020020  00001020  2**2
                  CONTENTS, ALLOC, LOAD, READONLY, CODE
  2 .text         00014014  00020240  00020240  00001240  2**2
                  CONTENTS, ALLOC, LOAD, READONLY, CODE
  3 .rodata       00000be8  00034254  00034254  00015254  2**2
                  CONTENTS, ALLOC, LOAD, READONLY, DATA
  4 .rwdata       00002290  00034e3c  000370cc  00015e3c  2**2
                  CONTENTS, ALLOC, LOAD, DATA, SMALL_DATA
  5 .bss          000001e8  0003935c  0003935c  0001835c  2**2
                  ALLOC, SMALL_DATA
  6 .onchip_memory2_0 00000000  00039544  00039544  000180cc  2**0
                  CONTENTS
  7 .comment      00000023  00000000  00000000  000180cc  2**0
                  CONTENTS, READONLY
  8 .debug_aranges 00000fb0  00000000  00000000  000180f0  2**3
                  CONTENTS, READONLY, DEBUGGING
  9 .debug_info   000283fb  00000000  00000000  000190a0  2**0
                  CONTENTS, READONLY, DEBUGGING
 10 .debug_abbrev 0000a972  00000000  00000000  0004149b  2**0
                  CONTENTS, READONLY, DEBUGGING
 11 .debug_line   0000cf64  00000000  00000000  0004be0d  2**0
                  CONTENTS, READONLY, DEBUGGING
 12 .debug_frame  00002bf4  00000000  00000000  00058d74  2**2
                  CONTENTS, READONLY, DEBUGGING
 13 .debug_str    0000403b  00000000  00000000  0005b968  2**0
                  CONTENTS, READONLY, DEBUGGING
 14 .debug_loc    00019da5  00000000  00000000  0005f9a3  2**0
                  CONTENTS, READONLY, DEBUGGING
 15 .debug_alt_sim_info 00000060  00000000  00000000  00079748  2**2
                  CONTENTS, READONLY, DEBUGGING
 16 .debug_ranges 00001850  00000000  00000000  000797a8  2**3
                  CONTENTS, READONLY, DEBUGGING
 17 .thread_model 00000003  00000000  00000000  0007ed42  2**0
                  CONTENTS, READONLY
 18 .cpu          0000000a  00000000  00000000  0007ed45  2**0
                  CONTENTS, READONLY
 19 .qsys         00000001  00000000  00000000  0007ed4f  2**0
                  CONTENTS, READONLY
 20 .simulation_enabled 00000001  00000000  00000000  0007ed50  2**0
                  CONTENTS, READONLY
 21 .sysid_hash   00000004  00000000  00000000  0007ed51  2**0
                  CONTENTS, READONLY
 22 .sysid_base   00000004  00000000  00000000  0007ed55  2**0
                  CONTENTS, READONLY
 23 .sysid_time   00000004  00000000  00000000  0007ed59  2**0
                  CONTENTS, READONLY
 24 .stderr_dev   00000009  00000000  00000000  0007ed5d  2**0
                  CONTENTS, READONLY
 25 .stdin_dev    00000009  00000000  00000000  0007ed66  2**0
                  CONTENTS, READONLY
 26 .stdout_dev   00000009  00000000  00000000  0007ed6f  2**0
                  CONTENTS, READONLY
 27 .sopc_system_name 00000004  00000000  00000000  0007ed78  2**0
                  CONTENTS, READONLY
 28 .quartus_project_dir 00000033  00000000  00000000  0007ed7c  2**0
                  CONTENTS, READONLY
 29 .jdi          00004cc9  00000000  00000000  0007edaf  2**0
                  CONTENTS, READONLY
 30 .sopcinfo     000ebd70  00000000  00000000  00083a78  2**0
                  CONTENTS, READONLY
SYMBOL TABLE:
00020000 l    d  .entry	00000000 .entry
00020020 l    d  .exceptions	00000000 .exceptions
00020240 l    d  .text	00000000 .text
00034254 l    d  .rodata	00000000 .rodata
00034e3c l    d  .rwdata	00000000 .rwdata
0003935c l    d  .bss	00000000 .bss
00039544 l    d  .onchip_memory2_0	00000000 .onchip_memory2_0
00000000 l    d  .comment	00000000 .comment
00000000 l    d  .debug_aranges	00000000 .debug_aranges
00000000 l    d  .debug_info	00000000 .debug_info
00000000 l    d  .debug_abbrev	00000000 .debug_abbrev
00000000 l    d  .debug_line	00000000 .debug_line
00000000 l    d  .debug_frame	00000000 .debug_frame
00000000 l    d  .debug_str	00000000 .debug_str
00000000 l    d  .debug_loc	00000000 .debug_loc
00000000 l    d  .debug_alt_sim_info	00000000 .debug_alt_sim_info
00000000 l    d  .debug_ranges	00000000 .debug_ranges
00000000 l    df *ABS*	00000000 ../Camera_Test_bsp//obj/HAL/src/crt0.o
00020288 l       .text	00000000 alt_after_alt_main
00000000 l    df *ABS*	00000000 alt_irq_handler.c
00000000 l    df *ABS*	00000000 alt_instruction_exception_entry.c
00000000 l    df *ABS*	00000000 I2C_core.c
00000000 l    df *ABS*	00000000 auto_focus.c
00000000 l    df *ABS*	00000000 main.c
00000000 l    df *ABS*	00000000 mipi_bridge_config.c
00034e3c l     O .rwdata	00000034 MipiBridgeReg
00000000 l    df *ABS*	00000000 mipi_camera_config.c
00034e70 l     O .rwdata	00000762 MipiCameraReg
00000000 l    df *ABS*	00000000 mixerii_config.c
00000000 l    df *ABS*	00000000 picture_in_picture.c
00000000 l    df *ABS*	00000000 queue.c
00000000 l    df *ABS*	00000000 scalerii_config.c
00000000 l    df *ABS*	00000000 libgcc2.c
00000000 l    df *ABS*	00000000 lib2-divmod.c
00023d84 l     F .text	0000006c udivmodsi4
00000000 l    df *ABS*	00000000 addsf3.c
00000000 l    df *ABS*	00000000 divsf3.c
00000000 l    df *ABS*	00000000 gesf2.c
00000000 l    df *ABS*	00000000 mulsf3.c
00000000 l    df *ABS*	00000000 subsf3.c
00000000 l    df *ABS*	00000000 fixsfsi.c
00000000 l    df *ABS*	00000000 floatsisf.c
00000000 l    df *ABS*	00000000 floatunsisf.c
00000000 l    df *ABS*	00000000 libgcc2.c
00000000 l    df *ABS*	00000000 libgcc2.c
00000000 l    df *ABS*	00000000 malloc.c
00000000 l    df *ABS*	00000000 mallocr.c
00000000 l    df *ABS*	00000000 memset.c
00000000 l    df *ABS*	00000000 printf.c
00000000 l    df *ABS*	00000000 putchar.c
00000000 l    df *ABS*	00000000 puts.c
00000000 l    df *ABS*	00000000 sbrkr.c
00000000 l    df *ABS*	00000000 strlen.c
00000000 l    df *ABS*	00000000 vfprintf.c
00034c8a l     O .rodata	00000010 zeroes.4181
00034c9a l     O .rodata	00000010 blanks.4180
00000000 l    df *ABS*	00000000 wsetup.c
00000000 l    df *ABS*	00000000 dtoa.c
0002815c l     F .text	00000200 quorem
00000000 l    df *ABS*	00000000 fflush.c
00000000 l    df *ABS*	00000000 findfp.c
00029cdc l     F .text	00000008 __fp_lock
00029ce4 l     F .text	00000008 __fp_unlock
00029cf8 l     F .text	000001a0 __sinit.part.1
00000000 l    df *ABS*	00000000 mallocr.c
00000000 l    df *ABS*	00000000 fvwrite.c
00000000 l    df *ABS*	00000000 fwalk.c
00000000 l    df *ABS*	00000000 impure.c
000359dc l     O .rwdata	00000424 impure_data
00000000 l    df *ABS*	00000000 int_errno.c
00000000 l    df *ABS*	00000000 locale.c
00035e20 l     O .rwdata	00000020 lc_ctype_charset
00035e00 l     O .rwdata	00000020 lc_message_charset
00035e40 l     O .rwdata	00000038 lconv
00000000 l    df *ABS*	00000000 makebuf.c
00000000 l    df *ABS*	00000000 memchr.c
00000000 l    df *ABS*	00000000 memcpy.c
00000000 l    df *ABS*	00000000 memmove.c
00000000 l    df *ABS*	00000000 mprec.c
00034ccc l     O .rodata	0000000c p05.2678
00000000 l    df *ABS*	00000000 putc.c
00000000 l    df *ABS*	00000000 mallocr.c
00000000 l    df *ABS*	00000000 s_fpclassify.c
00000000 l    df *ABS*	00000000 stdio.c
00000000 l    df *ABS*	00000000 strcmp.c
00000000 l    df *ABS*	00000000 vfprintf.c
0002c9a0 l     F .text	000000fc __sprint_r.part.0
00034e00 l     O .rodata	00000010 blanks.4125
00034df0 l     O .rodata	00000010 zeroes.4126
00000000 l    df *ABS*	00000000 wbuf.c
00000000 l    df *ABS*	00000000 writer.c
00000000 l    df *ABS*	00000000 closer.c
00000000 l    df *ABS*	00000000 mallocr.c
00000000 l    df *ABS*	00000000 fclose.c
00000000 l    df *ABS*	00000000 fputwc.c
00000000 l    df *ABS*	00000000 fstatr.c
00000000 l    df *ABS*	00000000 isattyr.c
00000000 l    df *ABS*	00000000 lseekr.c
00000000 l    df *ABS*	00000000 readr.c
00000000 l    df *ABS*	00000000 wcrtomb.c
00000000 l    df *ABS*	00000000 wctomb_r.c
00000000 l    df *ABS*	00000000 libgcc2.c
00000000 l    df *ABS*	00000000 libgcc2.c
00000000 l    df *ABS*	00000000 adddf3.c
00000000 l    df *ABS*	00000000 divdf3.c
00000000 l    df *ABS*	00000000 eqdf2.c
00000000 l    df *ABS*	00000000 gedf2.c
00000000 l    df *ABS*	00000000 ledf2.c
00000000 l    df *ABS*	00000000 muldf3.c
00000000 l    df *ABS*	00000000 subdf3.c
00000000 l    df *ABS*	00000000 fixdfsi.c
00000000 l    df *ABS*	00000000 floatsidf.c
00000000 l    df *ABS*	00000000 floatunsidf.c
00000000 l    df *ABS*	00000000 alt_close.c
00031858 l     F .text	00000050 alt_get_errno
00000000 l    df *ABS*	00000000 alt_dev.c
00031978 l     F .text	0000002c alt_dev_null_write
00000000 l    df *ABS*	00000000 alt_errno.c
00000000 l    df *ABS*	00000000 alt_fstat.c
000319a4 l     F .text	00000050 alt_get_errno
00000000 l    df *ABS*	00000000 alt_isatty.c
00031aa4 l     F .text	00000050 alt_get_errno
00000000 l    df *ABS*	00000000 alt_load.c
00031b98 l     F .text	00000064 alt_load_section
00000000 l    df *ABS*	00000000 alt_lseek.c
00031c7c l     F .text	00000050 alt_get_errno
00000000 l    df *ABS*	00000000 alt_main.c
00000000 l    df *ABS*	00000000 alt_malloc_lock.c
00000000 l    df *ABS*	00000000 alt_read.c
00031e58 l     F .text	00000050 alt_get_errno
00000000 l    df *ABS*	00000000 alt_release_fd.c
00000000 l    df *ABS*	00000000 alt_sbrk.c
000370bc l     O .rwdata	00000004 heap_end
00000000 l    df *ABS*	00000000 alt_tick.c
00000000 l    df *ABS*	00000000 alt_usleep.c
00000000 l    df *ABS*	00000000 alt_write.c
00032280 l     F .text	00000050 alt_get_errno
00000000 l    df *ABS*	00000000 alt_sys_init.c
000323c8 l     F .text	00000038 alt_dev_reg
00036020 l     O .rwdata	00001060 jtag_uart
00000000 l    df *ABS*	00000000 altera_avalon_jtag_uart_fd.c
00000000 l    df *ABS*	00000000 altera_avalon_jtag_uart_init.c
000326bc l     F .text	00000204 altera_avalon_jtag_uart_irq
000328c0 l     F .text	000000a8 altera_avalon_jtag_uart_timeout
00000000 l    df *ABS*	00000000 altera_avalon_jtag_uart_ioctl.c
00000000 l    df *ABS*	00000000 altera_avalon_jtag_uart_read.c
00000000 l    df *ABS*	00000000 altera_avalon_jtag_uart_write.c
00000000 l    df *ABS*	00000000 altera_avalon_timer_sc.c
00032ee0 l     F .text	00000074 alt_avalon_timer_sc_irq
00000000 l    df *ABS*	00000000 alt_alarm_start.c
00000000 l    df *ABS*	00000000 alt_busy_sleep.c
00000000 l    df *ABS*	00000000 alt_dcache_flush_all.c
00000000 l    df *ABS*	00000000 alt_dev_llist_insert.c
000332b8 l     F .text	00000050 alt_get_errno
00000000 l    df *ABS*	00000000 alt_do_ctors.c
00000000 l    df *ABS*	00000000 alt_do_dtors.c
00000000 l    df *ABS*	00000000 alt_icache_flush_all.c
00000000 l    df *ABS*	00000000 alt_iic.c
00000000 l    df *ABS*	00000000 alt_iic_isr_register.c
00000000 l    df *ABS*	00000000 alt_io_redirect.c
00033764 l     F .text	000000c0 alt_open_fd
00000000 l    df *ABS*	00000000 alt_irq_vars.c
00000000 l    df *ABS*	00000000 alt_open.c
0003389c l     F .text	00000050 alt_get_errno
000338ec l     F .text	000000cc alt_file_locked
00000000 l    df *ABS*	00000000 altera_nios2_gen2_irq.c
00000000 l    df *ABS*	00000000 alt_find_dev.c
00000000 l    df *ABS*	00000000 alt_find_file.c
00000000 l    df *ABS*	00000000 alt_get_fd.c
00000000 l    df *ABS*	00000000 alt_icache_flush.c
00000000 l    df *ABS*	00000000 atexit.c
00000000 l    df *ABS*	00000000 exit.c
00000000 l    df *ABS*	00000000 memcmp.c
00000000 l    df *ABS*	00000000 __atexit.c
00000000 l    df *ABS*	00000000 __call_atexit.c
00000000 l    df *ABS*	00000000 alt_exit.c
00039390 g     O .bss	00000004 alt_instruction_exception_handler
00025e3c g     F .text	00000018 putchar
0002becc g     F .text	00000074 _mprec_log10
0002bfb8 g     F .text	0000008c __any_on
0002e460 g     F .text	00000054 _isatty_r
00034cd8 g     O .rodata	00000028 __mprec_tinytens
00031da0 g     F .text	00000078 alt_main
00025e54 g     F .text	000000b8 _puts_r
00039444 g     O .bss	00000100 alt_irq
0002e4b4 g     F .text	0000005c _lseek_r
000213bc g     F .text	000000b4 Focus_Released
000205e0 g     F .text	00000060 ACK_check
000370cc g       *ABS*	00000000 __flash_rwdata_start
00020554 g     F .text	0000008c ACK_single_check
0003942c g     O .bss	0000000c camera0
00030424 g     F .text	00000084 .hidden __eqdf2
00021198 g     F .text	00000224 Focus_Window
000222fc g     F .text	00000068 OV8865_write_AF
00039544 g       *ABS*	00000000 __alt_heap_start
00023a0c g     F .text	00000064 QUEUE_IsFull
00025df8 g     F .text	0000003c printf
0002e56c g     F .text	0000009c _wcrtomb_r
0002c898 g     F .text	0000005c __sseek
0002a02c g     F .text	00000010 __sinit
0002de34 g     F .text	00000154 __swbuf_r
0002aaa4 g     F .text	0000007c _setlocale_r
00029e98 g     F .text	00000064 __sfmoreglue
00031e38 g     F .text	00000020 __malloc_unlock
00024390 g     F .text	00000450 .hidden __divsf3
00022934 g     F .text	0000004c mixerii_go
0002af5c g     F .text	0000015c memmove
00020640 g     F .text	00000200 OC_I2C_Write
0002a014 g     F .text	00000018 _cleanup
0002b0b8 g     F .text	000000a8 _Balloc
000251b8 g     F .text	00000078 .hidden __fixsfsi
00021038 g     F .text	00000160 Focus_Init
000304a8 g     F .text	000000e0 .hidden __gtdf2
00033b10 g     F .text	00000020 altera_nios2_gen2_irq_init
00000000  w      *UND*	00000000 __errno
00020000 g     F .entry	0000001c __reset
00020020 g       *ABS*	00000000 __flash_exceptions_start
0002e408 g     F .text	00000058 _fstat_r
00037088 g     O .rwdata	00000001 focus_scal
00039368 g     O .bss	00000004 errno
0002c814 g     F .text	00000008 __seofread
0003937c g     O .bss	00000004 alt_argv
0003f080 g       *ABS*	00000000 _gp
00032250 g     F .text	00000030 usleep
00024cbc g     F .text	000004fc .hidden __subsf3
00035ea0 g     O .rwdata	00000180 alt_fd_list
00025e34 g     F .text	00000008 _putchar_r
00033b30 g     F .text	00000090 alt_find_dev
0002ae24 g     F .text	00000138 memcpy
00020394 g     F .text	0000013c oc_i2c_init_ex
00029cec g     F .text	0000000c _cleanup_r
00022d64 g     F .text	000001d4 PinP_init
000316e4 g     F .text	000000d0 .hidden __floatsidf
00033824 g     F .text	00000078 alt_io_redirect
00030588 g     F .text	000000e0 .hidden __ltdf2
00034254 g       *ABS*	00000000 __DTOR_END__
00025f0c g     F .text	00000014 puts
00033e14 g     F .text	0000009c alt_exception_cause_generated_bad_addr
0002c74c g     F .text	00000074 __fpclassifyd
0002be28 g     F .text	000000a4 __ratio
0002de10 g     F .text	00000024 __vfiprintf_internal
000239cc g     F .text	00000040 QUEUE_IsEmpty
00032abc g     F .text	0000020c altera_avalon_jtag_uart_read
000254d8 g     F .text	00000014 malloc
00025dcc g     F .text	0000002c _printf_r
00020000 g       *ABS*	00000000 __alt_mem_onchip_memory2_0
00023ea0 g     F .text	00000008 .hidden __udivsi3
00031af4 g     F .text	000000a4 isatty
00021470 g     F .text	000001b4 camera_config_init
00034d28 g     O .rodata	000000c8 __mprec_tens
0002ab20 g     F .text	0000000c __locale_charset
00033d88 g     F .text	0000008c alt_icache_flush
00039364 g     O .bss	00000004 __malloc_top_pad
00023b94 g     F .text	00000030 QUEUE_Empty
000223e8 g     F .text	00000100 OV8865_FOCUS_Move_to
0003709c g     O .rwdata	00000004 __mb_cur_max
0002ab50 g     F .text	0000000c _localeconv_r
00023c2c g     F .text	00000058 scalerii_output_size
0002b4b8 g     F .text	0000003c __i2b
0002a490 g     F .text	000004a4 __sfvwrite_r
00023b04 g     F .text	00000090 QUEUE_Pop
00025f20 g     F .text	00000054 _sbrk_r
0002e510 g     F .text	0000005c _read_r
00037086 g     O .rwdata	00000002 focus_height
00023c84 g     F .text	000000a0 scalerii_scale
0002365c g     F .text	000002d0 PinP_2camera_ajust
000370b4 g     O .rwdata	00000004 alt_max_fd
0002e118 g     F .text	00000100 _fclose_r
00022294 g     F .text	00000068 OV8865_write_cmos_sensor_8
00029cac g     F .text	00000030 fflush
00039360 g     O .bss	00000004 __malloc_max_sbrked_mem
00022bbc g     F .text	00000074 camera_scale_down
0002f2bc g     F .text	0000089c .hidden __adddf3
0002bbd0 g     F .text	0000011c __b2d
0002ed2c g     F .text	00000590 .hidden __umoddi3
00031ccc g     F .text	000000d4 lseek
000229c4 g     F .text	00000090 mixerii_layer_enable
00037094 g     O .rwdata	00000004 _global_impure_ptr
0002c1ac g     F .text	000005a0 _realloc_r
00039544 g       *ABS*	00000000 __bss_end
00033674 g     F .text	000000f0 alt_iic_isr_register
0003214c g     F .text	00000104 alt_tick
0002e76c g     F .text	000005c0 .hidden __udivdi3
0002e22c g     F .text	00000184 _fputwc_r
00034d00 g     O .rodata	00000028 __mprec_bigtens
0002b29c g     F .text	00000104 __s2b
000317b4 g     F .text	000000a4 .hidden __floatunsidf
00037082 g     O .rwdata	00000002 video_h
0002b978 g     F .text	00000060 __mcmp
0002a04c g     F .text	00000018 __fp_lock_all
00033628 g     F .text	0000004c alt_ic_irq_enabled
00021f00 g     F .text	000000e8 mipi_clear_error
00020ba8 g     F .text	00000210 OC_I2CL_Write
000320b4 g     F .text	00000098 alt_alarm_stop
0003938c g     O .bss	00000004 alt_irq_active
00039438 g     O .bss	0000000c camera1
00020840 g     F .text	00000064 ACK_judge_for_read
000200fc g     F .exceptions	000000d0 alt_irq_handler
00035e78 g     O .rwdata	00000028 alt_dev_null
0002028c g     F .text	00000058 Write32_Data
00033274 g     F .text	00000044 alt_dcache_flush_all
0002b3a0 g     F .text	00000068 __hi0bits
0003165c g     F .text	00000088 .hidden __fixdfsi
00037089 g     O .rwdata	00000001 focus_scal_f
00023bc4 g     F .text	00000068 scalerii_go
000370cc g       *ABS*	00000000 __ram_rwdata_end
000370ac g     O .rwdata	00000008 alt_dev_list
000322d0 g     F .text	000000f8 write
0002c044 g     F .text	000000a0 _putc_r
000247e0 g     F .text	000000b8 .hidden __gtsf2
00034e3c g       *ABS*	00000000 __ram_rodata_end
000319f4 g     F .text	000000b0 fstat
00021624 g     F .text	0000017c D8Mx2_Init
00030588 g     F .text	000000e0 .hidden __ledf2
0002b6f0 g     F .text	00000140 __pow5mult
0002cab4 g     F .text	0000135c ___vfiprintf_internal_r
00039374 g     O .bss	00000004 __nlocale_changed
00023ea8 g     F .text	00000008 .hidden __umodsi3
00022088 g     F .text	000001a8 mipi_show_error_info_more
00039544 g       *ABS*	00000000 end
000325f8 g     F .text	000000c4 altera_avalon_jtag_uart_init
000201cc g     F .exceptions	00000074 alt_instruction_exception_entry
00034254 g       *ABS*	00000000 __CTOR_LIST__
00040000 g       *ABS*	00000000 __alt_stack_pointer
00032f54 g     F .text	00000088 alt_avalon_timer_sc_init
00025474 g     F .text	00000064 .hidden __clzsi2
00032cc8 g     F .text	00000218 altera_avalon_jtag_uart_write
0002a03c g     F .text	00000004 __sfp_lock_acquire
0002ad3c g     F .text	000000e8 memchr
0002600c g     F .text	00001ffc ___vfprintf_internal_r
0002a1a0 g     F .text	000002f0 _free_r
0002ab2c g     F .text	00000010 __locale_mb_cur_max
0003408c g     F .text	00000194 __call_exitprocs
00039370 g     O .bss	00000004 __mlocale_changed
0003708c g     O .rwdata	00000004 __malloc_sbrk_base
00020240 g     F .text	0000004c _start
00039384 g     O .bss	00000004 _alt_tick_rate
0002b830 g     F .text	00000148 __lshift
00023a70 g     F .text	00000094 QUEUE_Push
00039388 g     O .bss	00000004 _alt_nticks
00031ea8 g     F .text	000000fc read
00032434 g     F .text	00000060 alt_sys_init
00025230 g     F .text	00000134 .hidden __floatsisf
000393bc g     O .bss	00000038 camera1_config
00033f78 g     F .text	00000114 __register_exitproc
00022230 g     F .text	00000064 OV8865_read_cmos_sensor_8
0002b4f4 g     F .text	000001fc __multiply
00032968 g     F .text	00000068 altera_avalon_jtag_uart_close
00021c9c g     F .text	00000068 MipiBridgeRegWrite
00034e3c g       *ABS*	00000000 __ram_rwdata_start
00034254 g       *ABS*	00000000 __ram_rodata_start
00039394 g     O .bss	00000028 __malloc_current_mallinfo
0002bcec g     F .text	0000013c __d2b
000224e8 g     F .text	0000021c camera_bin_level
00032494 g     F .text	00000060 altera_avalon_jtag_uart_read_fd
00033cd4 g     F .text	000000b4 alt_get_fd
00022a54 g     F .text	0000009c mixerii_layer_position
0003311c g     F .text	00000158 alt_busy_sleep
0002e000 g     F .text	00000054 _close_r
000393f4 g     O .bss	00000038 camera0_config
00033efc g     F .text	0000007c memcmp
00032554 g     F .text	00000050 altera_avalon_jtag_uart_close_fd
00039544 g       *ABS*	00000000 __alt_stack_base
000325a4 g     F .text	00000054 altera_avalon_jtag_uart_ioctl_fd
0002802c g     F .text	00000130 __swsetup_r
0002033c g     F .text	00000058 oc_i2c_init
0002fb58 g     F .text	000008cc .hidden __divdf3
00029efc g     F .text	00000118 __sfp
0002bf40 g     F .text	00000078 __copybits
000355d4 g     O .rwdata	00000408 __malloc_av_
0002a048 g     F .text	00000004 __sinit_lock_release
00030668 g     F .text	00000724 .hidden __muldf3
0002c7c0 g     F .text	00000054 __sread
00033bc0 g     F .text	00000114 alt_find_file
00033308 g     F .text	000000a4 alt_dev_llist_insert
00031e18 g     F .text	00000020 __malloc_lock
00032004 g     F .text	000000b0 sbrk
00022704 g     F .text	00000230 MipiCameraInit
00021c50 g     F .text	0000004c nSWAP16
00029a84 g     F .text	00000228 _fflush_r
0002e054 g     F .text	000000c4 _calloc_r
0002392c g     F .text	00000070 QUEUE_New
0003935c g       *ABS*	00000000 __bss_start
00025ca8 g     F .text	00000124 memset
000217a0 g     F .text	000004b0 main
00039380 g     O .bss	00000004 alt_envp
0003935c g     O .bss	00000004 __malloc_max_total_mem
00022980 g     F .text	00000044 mixerii_background_config
000324f4 g     F .text	00000060 altera_avalon_jtag_uart_write_fd
0002df88 g     F .text	0000001c __swbuf
0002c8f4 g     F .text	00000008 __sclose
00040000 g       *ABS*	00000000 __alt_heap_limit
0002e218 g     F .text	00000014 fclose
0002835c g     F .text	00001728 _dtoa_r
00025500 g     F .text	000007a8 _malloc_r
0002e6e0 g     F .text	00000030 __ascii_wctomb
000370b8 g     O .rwdata	00000004 alt_errno
0002a934 g     F .text	000000b8 _fwalk
00022c30 g     F .text	00000134 PinP_position_set
0002c0e4 g     F .text	000000c8 putc
00023df0 g     F .text	00000054 .hidden __divsi3
000204d0 g     F .text	00000084 oc_i2c_uninit
0002a07c g     F .text	00000124 _malloc_trim_r
00034254 g       *ABS*	00000000 __CTOR_END__
00024898 g     F .text	00000424 .hidden __mulsf3
0002c8fc g     F .text	000000a4 strcmp
00034254 g       *ABS*	00000000 __flash_rodata_start
00034254 g       *ABS*	00000000 __DTOR_LIST__
00030424 g     F .text	00000084 .hidden __nedf2
00032400 g     F .text	00000034 alt_irq_init
00031fa4 g     F .text	00000060 alt_release_fd
00021d7c g     F .text	00000184 MipiBridgeInit
00034b44 g     O .rodata	00000100 .hidden __clz_tab
0003936c g     O .bss	00000004 _PathLocale
00033eb0 g     F .text	00000014 atexit
000247e0 g     F .text	000000b8 .hidden __gesf2
0002dfa4 g     F .text	0000005c _write_r
0002ab5c g     F .text	0000001c setlocale
00022f38 g     F .text	00000338 PinP_mode
00037098 g     O .rwdata	00000004 _impure_ptr
00039378 g     O .bss	00000004 alt_argc
00021d04 g     F .text	00000078 MipiBridgeRegRead
00033408 g     F .text	0000005c _do_dtors
0002ab48 g     F .text	00000008 __locale_cjk_lang
00022af0 g     F .text	000000cc camera_out_of_range
00037080 g     O .rwdata	00000002 video_w
00020020 g       .exceptions	00000000 alt_irq_entry
0002bb70 g     F .text	00000060 __ulp
0002a064 g     F .text	00000018 __fp_unlock_all
000370a4 g     O .rwdata	00000008 alt_fs_list
000202e4 g     F .text	00000058 Read32_Data
000208a4 g     F .text	000001cc OC_I2C_Read
00020020 g       *ABS*	00000000 __ram_exceptions_start
0002ab78 g     F .text	0000000c localeconv
00033494 g     F .text	00000050 alt_ic_isr_register
000370cc g       *ABS*	00000000 _edata
00039544 g       *ABS*	00000000 _end
00020240 g       *ABS*	00000000 __ram_exceptions_end
000329d0 g     F .text	000000ec altera_avalon_jtag_uart_ioctl
00033584 g     F .text	000000a4 alt_ic_irq_disable
0002c81c g     F .text	0000007c __swrite
00037090 g     O .rwdata	00000004 __malloc_trim_threshold
00020a70 g     F .text	00000138 OC_I2C_Read_Continue
0002ab3c g     F .text	0000000c __locale_msgcharset
00033ec4 g     F .text	00000038 exit
0003708a g     O .rwdata	00000001 focus_th
0002a9ec g     F .text	000000b8 _fwalk_reent
00025364 g     F .text	00000110 .hidden __floatunsisf
0002b9d8 g     F .text	00000198 __mdiff
00023e44 g     F .text	0000005c .hidden __modsi3
00040000 g       *ABS*	00000000 __alt_data_end
00020020 g     F .exceptions	00000000 alt_exception
0002a040 g     F .text	00000004 __sfp_lock_release
00021fe8 g     F .text	000000a0 mipi_show_error_info
0002399c g     F .text	00000030 QUEUE_Delete
00023d24 g     F .text	00000060 .hidden __fixunssfsi
00020db8 g     F .text	00000280 OC_I2CL_Read
00034220 g     F .text	00000034 _exit
00032fdc g     F .text	00000140 alt_alarm_start
0002ab84 g     F .text	000001b8 __smakebuf_r
00025f74 g     F .text	00000098 strlen
000339b8 g     F .text	00000158 open
000304a8 g     F .text	000000e0 .hidden __gedf2
000370a0 g     O .rwdata	00000004 __wctomb
0002ca9c g     F .text	00000018 __sprint_r
00033464 g     F .text	00000030 alt_icache_flush_all
000370c8 g     O .rwdata	00000004 alt_priority_mask
00037084 g     O .rwdata	00000002 focus_width
000334e4 g     F .text	000000a0 alt_ic_irq_enable
00028008 g     F .text	00000024 __vfprintf_internal
0002e710 g     F .text	0000005c _wctomb_r
00030d8c g     F .text	000008d0 .hidden __subdf3
0002b408 g     F .text	000000b0 __lo0bits
000370c0 g     O .rwdata	00000008 alt_alarm_list
000333ac g     F .text	0000005c _do_ctors
00023270 g     F .text	000003ec PinP_video_change
0002e608 g     F .text	000000d8 wcrtomb
000318a8 g     F .text	000000d0 close
00023eb0 g     F .text	000004e0 .hidden __addsf3
00022364 g     F .text	00000084 OV8865_read_AF
00031bfc g     F .text	00000080 alt_load
0002e3b0 g     F .text	00000058 fputwc
000254ec g     F .text	00000014 free
0002a044 g     F .text	00000004 __sinit_lock_acquire
0002b188 g     F .text	00000114 __multadd
0002b160 g     F .text	00000028 _Bfree



Disassembly of section .entry:

00020000 <__reset>:
#if NIOS2_ICACHE_SIZE > 0 && defined(ALT_ALLOW_CODE_AT_RESET) && (!defined(ALT_SIM_OPTIMIZE) || defined(NIOS2_ECC_PRESENT))
    /* Assume the instruction cache size is always a power of two. */
#if NIOS2_ICACHE_SIZE > 0x8000
    movhi r2, %hi(NIOS2_ICACHE_SIZE)
#else
    movui r2, NIOS2_ICACHE_SIZE
   20000:	00840014 	movui	r2,4096
#endif

0:
    initi r2
   20004:	1001483a 	initi	r2
    addi r2, r2, -NIOS2_ICACHE_LINE_SIZE
   20008:	10bff804 	addi	r2,r2,-32
    bgt r2, zero, 0b
   2000c:	00bffd16 	blt	zero,r2,20004 <__alt_data_end+0xfffe0004>
 * Jump to the _start entry point in the .text section if reset code
 * is allowed or if optimizing for RTL simulation.
 */
#if defined(ALT_ALLOW_CODE_AT_RESET) || defined(ALT_SIM_OPTIMIZE)
    /* Jump to the _start entry point in the .text section. */
    movhi r1, %hi(_start)
   20010:	004000b4 	movhi	at,2
    ori r1, r1, %lo(_start)
   20014:	08409014 	ori	at,at,576
    jmp r1
   20018:	0800683a 	jmp	at
   2001c:	00000000 	call	0 <__alt_mem_onchip_memory2_0-0x20000>

Disassembly of section .exceptions:

00020020 <alt_exception>:

#else /* ALT_EXCEPTION_STACK disabled */
        /* 
         * Reserve space on normal stack for registers about to be pushed.
         */
        addi  sp, sp, -76
   20020:	deffed04 	addi	sp,sp,-76
         * documentation for details).
         *
         * Leave a gap in the stack frame at 4(sp) for the muldiv handler to
         * store zero into.
         */
        stw   ra,  0(sp)
   20024:	dfc00015 	stw	ra,0(sp)
        stw   r1,   8(sp)
   20028:	d8400215 	stw	at,8(sp)
        stw   r2,  12(sp)
   2002c:	d8800315 	stw	r2,12(sp)
        stw   r3,  16(sp)
   20030:	d8c00415 	stw	r3,16(sp)
        stw   r4,  20(sp)
   20034:	d9000515 	stw	r4,20(sp)
        stw   r5,  24(sp)
   20038:	d9400615 	stw	r5,24(sp)
        stw   r6,  28(sp)
   2003c:	d9800715 	stw	r6,28(sp)
        stw   r7,  32(sp)
   20040:	d9c00815 	stw	r7,32(sp)
        rdctl r5, estatus   /* Read early to avoid usage stall */
   20044:	000b307a 	rdctl	r5,estatus
        stw   r8,  36(sp)
   20048:	da000915 	stw	r8,36(sp)
        stw   r9,  40(sp)
   2004c:	da400a15 	stw	r9,40(sp)
        stw   r10, 44(sp)
   20050:	da800b15 	stw	r10,44(sp)
        stw   r11, 48(sp)
   20054:	dac00c15 	stw	r11,48(sp)
        stw   r12, 52(sp)
   20058:	db000d15 	stw	r12,52(sp)
        stw   r13, 56(sp)
   2005c:	db400e15 	stw	r13,56(sp)
        stw   r14, 60(sp)
   20060:	db800f15 	stw	r14,60(sp)
        stw   r15, 64(sp)
   20064:	dbc01015 	stw	r15,64(sp)
        /*
         * ea-4 contains the address of the instruction being executed
         * when the exception occured. For interrupt exceptions, we will
         * will be re-issue the isntruction. Store it in 72(sp)
         */
        stw   r5,  68(sp)  /* estatus */
   20068:	d9401115 	stw	r5,68(sp)
        addi  r15, ea, -4  /* instruction that caused exception */
   2006c:	ebffff04 	addi	r15,ea,-4
        stw   r15,  72(sp)
   20070:	dbc01215 	stw	r15,72(sp)
#else
        /*
         * Test to see if the exception was a software exception or caused 
         * by an external interrupt, and vector accordingly.
         */
        rdctl r4, ipending
   20074:	0009313a 	rdctl	r4,ipending
        andi  r2, r5, 1
   20078:	2880004c 	andi	r2,r5,1
        beq   r2, zero, .Lnot_irq
   2007c:	10000326 	beq	r2,zero,2008c <alt_exception+0x6c>
        beq   r4, zero, .Lnot_irq
   20080:	20000226 	beq	r4,zero,2008c <alt_exception+0x6c>
        /*
         * Now that all necessary registers have been preserved, call 
         * alt_irq_handler() to process the interrupts.
         */

        call alt_irq_handler
   20084:	00200fc0 	call	200fc <alt_irq_handler>

        .section .exceptions.irqreturn, "xa"

        br    .Lexception_exit
   20088:	00000706 	br	200a8 <alt_exception+0x88>
         * upon completion, so we write ea (address of instruction *after*
         * the one where the exception occured) into 72(sp). The actual
         * instruction that caused the exception is written in r2, which these
         * handlers will utilize.
         */
        stw   ea,  72(sp)  /* Don't re-issue */
   2008c:	df401215 	stw	ea,72(sp)
        ldhu.n  r2, 0(r4)
        ldhu.n  r3, 2(r4)
        slli.n  r3, r3, 16
        or.n    r2, r2, r3 /* Instruction that caused exception */
#else
        ldw   r2, -4(ea)   /* Instruction that caused exception */
   20090:	e8bfff17 	ldw	r2,-4(ea)
         * debugger is present) or go into an infinite loop since the
         * handling behavior is undefined; in that case we will not return here.
         */

        /* Load exception-causing address as first argument (r4) */
        addi   r4, ea, -4
   20094:	e93fff04 	addi	r4,ea,-4

        /* Call the instruction-exception entry */
        call   alt_instruction_exception_entry
   20098:	00201cc0 	call	201cc <alt_instruction_exception_entry>
         * instruction
         *
         * Return code was 0: Skip. The instruction after the exception is
         * already stored in 72(sp).
         */
        bne   r2, r0, .Lexception_exit
   2009c:	1000021e 	bne	r2,zero,200a8 <alt_exception+0x88>

        /*
         * Otherwise, modify 72(sp) to re-issue the instruction that caused the
         * exception.
         */
        addi  r15, ea, -4  /* instruction that caused exception */
   200a0:	ebffff04 	addi	r15,ea,-4
        stw   r15,  72(sp)
   200a4:	dbc01215 	stw	r15,72(sp)
        /* 
         * Restore the saved registers, so that all general purpose registers 
         * have been restored to their state at the time the interrupt occured.
         */

        ldw   r5,  68(sp)
   200a8:	d9401117 	ldw	r5,68(sp)
        ldw   ea,  72(sp)  /* This becomes the PC once eret is executed */
   200ac:	df401217 	ldw	ea,72(sp)
        ldw   ra,   0(sp)
   200b0:	dfc00017 	ldw	ra,0(sp)

        wrctl estatus, r5
   200b4:	2801707a 	wrctl	estatus,r5

        ldw   r1,   8(sp)
   200b8:	d8400217 	ldw	at,8(sp)
        ldw   r2,  12(sp)
   200bc:	d8800317 	ldw	r2,12(sp)
        ldw   r3,  16(sp)
   200c0:	d8c00417 	ldw	r3,16(sp)
        ldw   r4,  20(sp)
   200c4:	d9000517 	ldw	r4,20(sp)
        ldw   r5,  24(sp)
   200c8:	d9400617 	ldw	r5,24(sp)
        ldw   r6,  28(sp)
   200cc:	d9800717 	ldw	r6,28(sp)
        ldw   r7,  32(sp)
   200d0:	d9c00817 	ldw	r7,32(sp)

#if defined(ALT_EXCEPTION_STACK) && defined(ALT_STACK_CHECK)
        ldw   et, %gprel(alt_exception_old_stack_limit)(gp)
#endif

        ldw   r8,  36(sp)
   200d4:	da000917 	ldw	r8,36(sp)
        ldw   r9,  40(sp)
   200d8:	da400a17 	ldw	r9,40(sp)
        ldw   r10, 44(sp)
   200dc:	da800b17 	ldw	r10,44(sp)
        ldw   r11, 48(sp)
   200e0:	dac00c17 	ldw	r11,48(sp)
        ldw   r12, 52(sp)
   200e4:	db000d17 	ldw	r12,52(sp)
        ldw   r13, 56(sp)
   200e8:	db400e17 	ldw	r13,56(sp)
        ldw   r14, 60(sp)
   200ec:	db800f17 	ldw	r14,60(sp)
        ldw   r15, 64(sp)
   200f0:	dbc01017 	ldw	r15,64(sp)
        stw   et, %gprel(alt_stack_limit_value)(gp)
        stw   zero, %gprel(alt_exception_old_stack_limit)(gp)
#endif /* ALT_STACK_CHECK */
        ldw   sp,  76(sp)
#else /* ALT_EXCEPTION_STACK disabled */
        addi  sp, sp, 76
   200f4:	dec01304 	addi	sp,sp,76

        /*
         * Return to the interrupted instruction.
         */

        eret
   200f8:	ef80083a 	eret

000200fc <alt_irq_handler>:
 * instruction is present if the macro ALT_CI_INTERRUPT_VECTOR defined.
 */

void alt_irq_handler (void) __attribute__ ((section (".exceptions")));
void alt_irq_handler (void)
{
   200fc:	defff904 	addi	sp,sp,-28
   20100:	dfc00615 	stw	ra,24(sp)
   20104:	df000515 	stw	fp,20(sp)
   20108:	df000504 	addi	fp,sp,20
  
  /*
   * Notify the operating system that we are at interrupt level.
   */ 
  
  ALT_OS_INT_ENTER();
   2010c:	0001883a 	nop
#ifndef NIOS2_EIC_PRESENT
static ALT_INLINE alt_u32 ALT_ALWAYS_INLINE alt_irq_pending (void)
{
  alt_u32 active;

  NIOS2_READ_IPENDING (active);
   20110:	0005313a 	rdctl	r2,ipending
   20114:	e0bffe15 	stw	r2,-8(fp)

  return active;
   20118:	e0bffe17 	ldw	r2,-8(fp)
   * Consider the case where the high priority interupt is asserted during
   * the interrupt entry sequence for a lower priority interrupt to see why
   * this is the case.
   */

  active = alt_irq_pending ();
   2011c:	e0bffb15 	stw	r2,-20(fp)

  do
  {
    i = 0;
   20120:	e03ffd15 	stw	zero,-12(fp)
    mask = 1;
   20124:	00800044 	movi	r2,1
   20128:	e0bffc15 	stw	r2,-16(fp)
     * called to clear the interrupt condition.
     */

    do
    {
      if (active & mask)
   2012c:	e0fffb17 	ldw	r3,-20(fp)
   20130:	e0bffc17 	ldw	r2,-16(fp)
   20134:	1884703a 	and	r2,r3,r2
   20138:	10001426 	beq	r2,zero,2018c <alt_irq_handler+0x90>
      { 
#ifdef ALT_ENHANCED_INTERRUPT_API_PRESENT
        alt_irq[i].handler(alt_irq[i].context); 
   2013c:	00800134 	movhi	r2,4
   20140:	10a51104 	addi	r2,r2,-27580
   20144:	e0fffd17 	ldw	r3,-12(fp)
   20148:	180690fa 	slli	r3,r3,3
   2014c:	10c5883a 	add	r2,r2,r3
   20150:	10c00017 	ldw	r3,0(r2)
   20154:	00800134 	movhi	r2,4
   20158:	10a51104 	addi	r2,r2,-27580
   2015c:	e13ffd17 	ldw	r4,-12(fp)
   20160:	200890fa 	slli	r4,r4,3
   20164:	1105883a 	add	r2,r2,r4
   20168:	10800104 	addi	r2,r2,4
   2016c:	10800017 	ldw	r2,0(r2)
   20170:	1009883a 	mov	r4,r2
   20174:	183ee83a 	callr	r3
#else
        alt_irq[i].handler(alt_irq[i].context, i); 
#endif
        break;
   20178:	0001883a 	nop
#ifndef NIOS2_EIC_PRESENT
static ALT_INLINE alt_u32 ALT_ALWAYS_INLINE alt_irq_pending (void)
{
  alt_u32 active;

  NIOS2_READ_IPENDING (active);
   2017c:	0005313a 	rdctl	r2,ipending
   20180:	e0bfff15 	stw	r2,-4(fp)

  return active;
   20184:	e0bfff17 	ldw	r2,-4(fp)
   20188:	00000706 	br	201a8 <alt_irq_handler+0xac>
      }
      mask <<= 1;
   2018c:	e0bffc17 	ldw	r2,-16(fp)
   20190:	1085883a 	add	r2,r2,r2
   20194:	e0bffc15 	stw	r2,-16(fp)
      i++;
   20198:	e0bffd17 	ldw	r2,-12(fp)
   2019c:	10800044 	addi	r2,r2,1
   201a0:	e0bffd15 	stw	r2,-12(fp)

    } while (1);
   201a4:	003fe106 	br	2012c <__alt_data_end+0xfffe012c>

    active = alt_irq_pending ();
   201a8:	e0bffb15 	stw	r2,-20(fp)
    
  } while (active);
   201ac:	e0bffb17 	ldw	r2,-20(fp)
   201b0:	103fdb1e 	bne	r2,zero,20120 <__alt_data_end+0xfffe0120>

  /*
   * Notify the operating system that interrupt processing is complete.
   */ 

  ALT_OS_INT_EXIT();
   201b4:	0001883a 	nop
}
   201b8:	e037883a 	mov	sp,fp
   201bc:	dfc00117 	ldw	ra,4(sp)
   201c0:	df000017 	ldw	fp,0(sp)
   201c4:	dec00204 	addi	sp,sp,8
   201c8:	f800283a 	ret

000201cc <alt_instruction_exception_entry>:
 * that handler if it has been registered. Absent a handler, it will
 * break break or hang as discussed below.
 */
int 
alt_instruction_exception_entry (alt_u32 exception_pc)
{
   201cc:	defffb04 	addi	sp,sp,-20
   201d0:	dfc00415 	stw	ra,16(sp)
   201d4:	df000315 	stw	fp,12(sp)
   201d8:	df000304 	addi	fp,sp,12
   201dc:	e13fff15 	stw	r4,-4(fp)
 * NIOS2_EXCEPTION_CAUSE_NOT_PRESENT. Your handling routine should
 * check the validity of the cause argument before proceeding.
 */
#ifdef NIOS2_HAS_EXTRA_EXCEPTION_INFO
  /* Get exception cause & "badaddr" */
  NIOS2_READ_EXCEPTION(cause);
   201e0:	000531fa 	rdctl	r2,exception
   201e4:	e0bffd15 	stw	r2,-12(fp)
  cause = ( (cause & NIOS2_EXCEPTION_REG_CAUSE_MASK) >>
   201e8:	e0bffd17 	ldw	r2,-12(fp)
   201ec:	10801f0c 	andi	r2,r2,124
   201f0:	1004d0ba 	srli	r2,r2,2
   201f4:	e0bffd15 	stw	r2,-12(fp)
              NIOS2_EXCEPTION_REG_CAUSE_OFST );

  NIOS2_READ_BADADDR(badaddr);
   201f8:	0005333a 	rdctl	r2,badaddr
   201fc:	e0bffe15 	stw	r2,-8(fp)
#else
  cause = NIOS2_EXCEPTION_CAUSE_NOT_PRESENT;
  badaddr = 0;
#endif /* NIOS2_HAS_EXTRA_EXCEPTION_INFO */

  if(alt_instruction_exception_handler) {
   20200:	d0a8c417 	ldw	r2,-23792(gp)
   20204:	10000726 	beq	r2,zero,20224 <alt_instruction_exception_entry+0x58>
     * Call handler. Its return value indicates whether the exception-causing
     * instruction should be re-issued. The code that called us,
     * alt_eceptions_entry.S, will look at this value and adjust the ea
     * register as necessary
     */
    return alt_instruction_exception_handler(cause, exception_pc, badaddr);
   20208:	d0a8c417 	ldw	r2,-23792(gp)
   2020c:	e0fffd17 	ldw	r3,-12(fp)
   20210:	1809883a 	mov	r4,r3
   20214:	e17fff17 	ldw	r5,-4(fp)
   20218:	e1bffe17 	ldw	r6,-8(fp)
   2021c:	103ee83a 	callr	r2
   20220:	00000206 	br	2022c <alt_instruction_exception_entry+0x60>
   *    (a peripheral which negates its interrupt output before its
   *    interrupt handler has been executed will cause spurious interrupts)
   */
  else {
#ifdef NIOS2_HAS_DEBUG_STUB
    NIOS2_BREAK();
   20224:	003da03a 	break	0
      ;
#endif /* NIOS2_HAS_DEBUG_STUB */
  }

  /* We should not get here. Remove compiler warning. */
  return NIOS2_EXCEPTION_RETURN_REISSUE_INST;
   20228:	0005883a 	mov	r2,zero
}
   2022c:	e037883a 	mov	sp,fp
   20230:	dfc00117 	ldw	ra,4(sp)
   20234:	df000017 	ldw	fp,0(sp)
   20238:	dec00204 	addi	sp,sp,8
   2023c:	f800283a 	ret

Disassembly of section .text:

00020240 <_start>:

    /* Assume the data cache size is always a power of two. */
#if NIOS2_DCACHE_SIZE > 0x8000
    movhi r2, %hi(NIOS2_DCACHE_SIZE)
#else
    movui r2, NIOS2_DCACHE_SIZE
   20240:	00820014 	movui	r2,2048
#endif

0:
    initd 0(r2)
   20244:	10000033 	initd	0(r2)
#ifdef NIOS2_ECC_PRESENT
    addi r2, r2, -4
#else
    addi r2, r2, -NIOS2_DCACHE_LINE_SIZE
   20248:	10bff804 	addi	r2,r2,-32
#endif
    bgt r2, zero, 0b
   2024c:	00bffd16 	blt	zero,r2,20244 <__alt_data_end+0xfffe0244>

    /*
     * Now that the caches are initialized, set up the stack pointer and global pointer.
     * The values provided by the linker are assumed to be correctly aligned.
     */
    movhi sp, %hi(__alt_stack_pointer)
   20250:	06c00134 	movhi	sp,4
    ori sp, sp, %lo(__alt_stack_pointer)
   20254:	dec00014 	ori	sp,sp,0
    movhi gp, %hi(_gp)
   20258:	068000f4 	movhi	gp,3
    ori gp, gp, %lo(_gp)
   2025c:	d6bc2014 	ori	gp,gp,61568
 */
#ifndef ALT_SIM_OPTIMIZE
    /* Log that the BSS is about to be cleared. */
    ALT_LOG_PUTS(alt_log_msg_bss)

    movhi r2, %hi(__bss_start)
   20260:	008000f4 	movhi	r2,3
    ori r2, r2, %lo(__bss_start)
   20264:	10a4d714 	ori	r2,r2,37724

    movhi r3, %hi(__bss_end)
   20268:	00c000f4 	movhi	r3,3
    ori r3, r3, %lo(__bss_end)
   2026c:	18e55114 	ori	r3,r3,38212

    beq r2, r3, 1f
   20270:	10c00326 	beq	r2,r3,20280 <_start+0x40>

0:
    stw zero, (r2)
   20274:	10000015 	stw	zero,0(r2)
    addi r2, r2, 4
   20278:	10800104 	addi	r2,r2,4
    bltu r2, r3, 0b
   2027c:	10fffd36 	bltu	r2,r3,20274 <__alt_data_end+0xfffe0274>
     * section aren't defined until alt_load() has been called).
     */
    mov   et, zero
#endif

    call alt_load
   20280:	0031bfc0 	call	31bfc <alt_load>

    /* Log that alt_main is about to be called. */
    ALT_LOG_PUTS(alt_log_msg_alt_main)

    /* Call the C entry point. It should never return. */
    call alt_main
   20284:	0031da00 	call	31da0 <alt_main>

00020288 <alt_after_alt_main>:

    /* Wait in infinite loop in case alt_main does return. */
alt_after_alt_main:
    br alt_after_alt_main
   20288:	003fff06 	br	20288 <__alt_data_end+0xfffe0288>

0002028c <Write32_Data>:
#define SLEEP_TIME 250  //us
#define ACK_SLEEP_TIME 250 //us
#define TRUE 1
#define FALSE 0

bool Write32_Data(alt_32 base_address, alt_32 offset_address, alt_32 Data){
   2028c:	defffb04 	addi	sp,sp,-20
   20290:	df000415 	stw	fp,16(sp)
   20294:	df000404 	addi	fp,sp,16
   20298:	e13ffd15 	stw	r4,-12(fp)
   2029c:	e17ffe15 	stw	r5,-8(fp)
   202a0:	e1bfff15 	stw	r6,-4(fp)
	bool bPass;
    IOWR(base_address, offset_address,Data);
   202a4:	e0bffe17 	ldw	r2,-8(fp)
   202a8:	1085883a 	add	r2,r2,r2
   202ac:	1085883a 	add	r2,r2,r2
   202b0:	1007883a 	mov	r3,r2
   202b4:	e0bffd17 	ldw	r2,-12(fp)
   202b8:	1885883a 	add	r2,r3,r2
   202bc:	1007883a 	mov	r3,r2
   202c0:	e0bfff17 	ldw	r2,-4(fp)
   202c4:	18800035 	stwio	r2,0(r3)
    bPass=TRUE;
   202c8:	00800044 	movi	r2,1
   202cc:	e0bffc15 	stw	r2,-16(fp)
    return bPass;
   202d0:	e0bffc17 	ldw	r2,-16(fp)
}
   202d4:	e037883a 	mov	sp,fp
   202d8:	df000017 	ldw	fp,0(sp)
   202dc:	dec00104 	addi	sp,sp,4
   202e0:	f800283a 	ret

000202e4 <Read32_Data>:



bool  Read32_Data(alt_32 base_address, alt_32 offset_address, alt_32 *pData32){
   202e4:	defffb04 	addi	sp,sp,-20
   202e8:	df000415 	stw	fp,16(sp)
   202ec:	df000404 	addi	fp,sp,16
   202f0:	e13ffd15 	stw	r4,-12(fp)
   202f4:	e17ffe15 	stw	r5,-8(fp)
   202f8:	e1bfff15 	stw	r6,-4(fp)
	bool bPass;
	*pData32 =IORD(base_address ,offset_address  );
   202fc:	e0bffe17 	ldw	r2,-8(fp)
   20300:	1085883a 	add	r2,r2,r2
   20304:	1085883a 	add	r2,r2,r2
   20308:	1007883a 	mov	r3,r2
   2030c:	e0bffd17 	ldw	r2,-12(fp)
   20310:	1885883a 	add	r2,r3,r2
   20314:	10c00037 	ldwio	r3,0(r2)
   20318:	e0bfff17 	ldw	r2,-4(fp)
   2031c:	10c00015 	stw	r3,0(r2)
	bPass=TRUE;
   20320:	00800044 	movi	r2,1
   20324:	e0bffc15 	stw	r2,-16(fp)
    return bPass;
   20328:	e0bffc17 	ldw	r2,-16(fp)
}
   2032c:	e037883a 	mov	sp,fp
   20330:	df000017 	ldw	fp,0(sp)
   20334:	dec00104 	addi	sp,sp,4
   20338:	f800283a 	ret

0002033c <oc_i2c_init>:

bool oc_i2c_init(alt_32 i2c_base){
   2033c:	defffa04 	addi	sp,sp,-24
   20340:	dfc00515 	stw	ra,20(sp)
   20344:	df000415 	stw	fp,16(sp)
   20348:	df000404 	addi	fp,sp,16
   2034c:	e13fff15 	stw	r4,-4(fp)
	bool bSuccess;
	const alt_32 ref_clk = 50*1000*1000; // 50MHz
   20350:	0080bef4 	movhi	r2,763
   20354:	10bc2004 	addi	r2,r2,-3968
   20358:	e0bffc15 	stw	r2,-16(fp)
	const alt_32 i2c_clk = 400*1000; // 400KHz
   2035c:	008001b4 	movhi	r2,6
   20360:	1086a004 	addi	r2,r2,6784
   20364:	e0bffd15 	stw	r2,-12(fp)

	bSuccess = oc_i2c_init_ex(i2c_base, ref_clk, i2c_clk);
   20368:	e13fff17 	ldw	r4,-4(fp)
   2036c:	e17ffc17 	ldw	r5,-16(fp)
   20370:	e1bffd17 	ldw	r6,-12(fp)
   20374:	00203940 	call	20394 <oc_i2c_init_ex>
   20378:	e0bffe15 	stw	r2,-8(fp)

	return bSuccess;
   2037c:	e0bffe17 	ldw	r2,-8(fp)
}
   20380:	e037883a 	mov	sp,fp
   20384:	dfc00117 	ldw	ra,4(sp)
   20388:	df000017 	ldw	fp,0(sp)
   2038c:	dec00204 	addi	sp,sp,8
   20390:	f800283a 	ret

00020394 <oc_i2c_init_ex>:

bool  oc_i2c_init_ex(alt_32 i2c_base, alt_32 ref_clk, alt_32 i2c_clk)
{
   20394:	defff604 	addi	sp,sp,-40
   20398:	dfc00915 	stw	ra,36(sp)
   2039c:	df000815 	stw	fp,32(sp)
   203a0:	df000804 	addi	fp,sp,32
   203a4:	e13ffd15 	stw	r4,-12(fp)
   203a8:	e17ffe15 	stw	r5,-8(fp)
   203ac:	e1bfff15 	stw	r6,-4(fp)
	bool bSuccess=TRUE;
   203b0:	00800044 	movi	r2,1
   203b4:	e0bff815 	stw	r2,-32(fp)
	alt_32 read_data;
	alt_32 prescale;
	alt_u8 prescale_high;
	alt_u8 prescale_low;
	const alt_u8 ControlValue = 0x80;
   203b8:	00bfe004 	movi	r2,-128
   203bc:	e0bff905 	stb	r2,-28(fp)

    // I2c sysclock =50M hz
	// i2c scl max 400k
	//scl =sysclock/(prescale*5)
	prescale = (ref_clk/(5*i2c_clk))-1;
   203c0:	e0bfff17 	ldw	r2,-4(fp)
   203c4:	10800164 	muli	r2,r2,5
   203c8:	e13ffe17 	ldw	r4,-8(fp)
   203cc:	100b883a 	mov	r5,r2
   203d0:	0023df00 	call	23df0 <__divsi3>
   203d4:	10bfffc4 	addi	r2,r2,-1
   203d8:	e0bffa15 	stw	r2,-24(fp)
	prescale_low = prescale & 0xFF;
   203dc:	e0bffa17 	ldw	r2,-24(fp)
   203e0:	e0bffb05 	stb	r2,-20(fp)
	prescale_high = (prescale >> 8) & 0xFF;
   203e4:	e0bffa17 	ldw	r2,-24(fp)
   203e8:	1005d23a 	srai	r2,r2,8
   203ec:	e0bffb45 	stb	r2,-19(fp)

   IOWR(i2c_base, 0, prescale_low);//write low byte of  prescale (reg 0)
   203f0:	e0bffd17 	ldw	r2,-12(fp)
   203f4:	e0fffb03 	ldbu	r3,-20(fp)
   203f8:	10c00035 	stwio	r3,0(r2)
   IOWR(i2c_base, 1, prescale_high);//write high byte of prescale (reg 1)
   203fc:	e0bffd17 	ldw	r2,-12(fp)
   20400:	10800104 	addi	r2,r2,4
   20404:	1007883a 	mov	r3,r2
   20408:	e0bffb43 	ldbu	r2,-19(fp)
   2040c:	18800035 	stwio	r2,0(r3)

   //enable the I2C core, but disable the IRQ
   IOWR( i2c_base, 2, ControlValue);
   20410:	e0bffd17 	ldw	r2,-12(fp)
   20414:	10800204 	addi	r2,r2,8
   20418:	1007883a 	mov	r3,r2
   2041c:	e0bff903 	ldbu	r2,-28(fp)
   20420:	18800035 	stwio	r2,0(r3)


    // check prescale low byte
    if (bSuccess){
   20424:	e0bff817 	ldw	r2,-32(fp)
   20428:	10000826 	beq	r2,zero,2044c <oc_i2c_init_ex+0xb8>
    	read_data =IORD(i2c_base, 0);
   2042c:	e0bffd17 	ldw	r2,-12(fp)
   20430:	10800037 	ldwio	r2,0(r2)
   20434:	e0bffc15 	stw	r2,-16(fp)
        if( (read_data & 0x00ff) != prescale_low ){
   20438:	e0bffc17 	ldw	r2,-16(fp)
   2043c:	10c03fcc 	andi	r3,r2,255
   20440:	e0bffb03 	ldbu	r2,-20(fp)
   20444:	18800126 	beq	r3,r2,2044c <oc_i2c_init_ex+0xb8>
            bSuccess = FALSE;
   20448:	e03ff815 	stw	zero,-32(fp)
        }
    }

    // check prescale high byte
    if (bSuccess){
   2044c:	e0bff817 	ldw	r2,-32(fp)
   20450:	10000926 	beq	r2,zero,20478 <oc_i2c_init_ex+0xe4>
    	read_data =IORD(i2c_base, 1);
   20454:	e0bffd17 	ldw	r2,-12(fp)
   20458:	10800104 	addi	r2,r2,4
   2045c:	10800037 	ldwio	r2,0(r2)
   20460:	e0bffc15 	stw	r2,-16(fp)
        if( (read_data & 0x00ff) != prescale_high ){
   20464:	e0bffc17 	ldw	r2,-16(fp)
   20468:	10c03fcc 	andi	r3,r2,255
   2046c:	e0bffb43 	ldbu	r2,-19(fp)
   20470:	18800126 	beq	r3,r2,20478 <oc_i2c_init_ex+0xe4>
            bSuccess = FALSE;
   20474:	e03ff815 	stw	zero,-32(fp)
        }
    }

    // check control
    if (bSuccess){
   20478:	e0bff817 	ldw	r2,-32(fp)
   2047c:	10000926 	beq	r2,zero,204a4 <oc_i2c_init_ex+0x110>
    	read_data =IORD(i2c_base, 2);
   20480:	e0bffd17 	ldw	r2,-12(fp)
   20484:	10800204 	addi	r2,r2,8
   20488:	10800037 	ldwio	r2,0(r2)
   2048c:	e0bffc15 	stw	r2,-16(fp)
        if( (read_data & 0x00ff) != ControlValue ){
   20490:	e0bffc17 	ldw	r2,-16(fp)
   20494:	10c03fcc 	andi	r3,r2,255
   20498:	e0bff903 	ldbu	r2,-28(fp)
   2049c:	18800126 	beq	r3,r2,204a4 <oc_i2c_init_ex+0x110>
            bSuccess = FALSE;
   204a0:	e03ff815 	stw	zero,-32(fp)
        }
    }

   if (bSuccess){
   204a4:	e0bff817 	ldw	r2,-32(fp)
   204a8:	1000031e 	bne	r2,zero,204b8 <oc_i2c_init_ex+0x124>
//       printf("\nI2C core is enabled! \r\n");
   }
   else
       printf("\nI2C core is not enabled successfully! \r\n");
   204ac:	010000f4 	movhi	r4,3
   204b0:	21109504 	addi	r4,r4,16980
   204b4:	0025f0c0 	call	25f0c <puts>

   return bSuccess;
   204b8:	e0bff817 	ldw	r2,-32(fp)

}
   204bc:	e037883a 	mov	sp,fp
   204c0:	dfc00117 	ldw	ra,4(sp)
   204c4:	df000017 	ldw	fp,0(sp)
   204c8:	dec00204 	addi	sp,sp,8
   204cc:	f800283a 	ret

000204d0 <oc_i2c_uninit>:

bool oc_i2c_uninit(alt_32 i2c_base)
{
   204d0:	defffa04 	addi	sp,sp,-24
   204d4:	dfc00515 	stw	ra,20(sp)
   204d8:	df000415 	stw	fp,16(sp)
   204dc:	df000404 	addi	fp,sp,16
   204e0:	e13fff15 	stw	r4,-4(fp)
	bool bSuccess=TRUE;
   204e4:	00800044 	movi	r2,1
   204e8:	e0bffc15 	stw	r2,-16(fp)
	alt_32 read_data;
	const alt_u8 ControlValue = 0x00;
   204ec:	e03ffd05 	stb	zero,-12(fp)

    IOWR( i2c_base, 2, ControlValue);
   204f0:	e0bfff17 	ldw	r2,-4(fp)
   204f4:	10800204 	addi	r2,r2,8
   204f8:	1007883a 	mov	r3,r2
   204fc:	e0bffd03 	ldbu	r2,-12(fp)
   20500:	18800035 	stwio	r2,0(r3)
   	read_data =IORD(i2c_base, 2);
   20504:	e0bfff17 	ldw	r2,-4(fp)
   20508:	10800204 	addi	r2,r2,8
   2050c:	10800037 	ldwio	r2,0(r2)
   20510:	e0bffe15 	stw	r2,-8(fp)
	if( (read_data & 0x00ff) != ControlValue ){
   20514:	e0bffe17 	ldw	r2,-8(fp)
   20518:	10c03fcc 	andi	r3,r2,255
   2051c:	e0bffd03 	ldbu	r2,-12(fp)
   20520:	18800126 	beq	r3,r2,20528 <oc_i2c_uninit+0x58>
            bSuccess = FALSE;
   20524:	e03ffc15 	stw	zero,-16(fp)
    }

   if (bSuccess){
   20528:	e0bffc17 	ldw	r2,-16(fp)
   2052c:	1000031e 	bne	r2,zero,2053c <oc_i2c_uninit+0x6c>
//       printf("\I2C core  is disabled! \r\n");
   }
   else
       printf("\I2C core is failed to disable! \r\n");
   20530:	010000f4 	movhi	r4,3
   20534:	2110a004 	addi	r4,r4,17024
   20538:	0025f0c0 	call	25f0c <puts>

   return bSuccess;
   2053c:	e0bffc17 	ldw	r2,-16(fp)

}
   20540:	e037883a 	mov	sp,fp
   20544:	dfc00117 	ldw	ra,4(sp)
   20548:	df000017 	ldw	fp,0(sp)
   2054c:	dec00204 	addi	sp,sp,8
   20550:	f800283a 	ret

00020554 <ACK_single_check>:




bool  ACK_single_check(alt_32 i2c_base)
{
   20554:	defffb04 	addi	sp,sp,-20
   20558:	dfc00415 	stw	ra,16(sp)
   2055c:	df000315 	stw	fp,12(sp)
   20560:	df000304 	addi	fp,sp,12
   20564:	e13fff15 	stw	r4,-4(fp)
	bool bSuccess=TRUE;
   20568:	00800044 	movi	r2,1
   2056c:	e0bffd15 	stw	r2,-12(fp)
	alt_32 read_data;

    usleep(ACK_SLEEP_TIME);
   20570:	01003e84 	movi	r4,250
   20574:	00322500 	call	32250 <usleep>
    read_data =IORD(i2c_base, 4);
   20578:	e0bfff17 	ldw	r2,-4(fp)
   2057c:	10800404 	addi	r2,r2,16
   20580:	10800037 	ldwio	r2,0(r2)
   20584:	e0bffe15 	stw	r2,-8(fp)
    if(read_data & 0x02)
   20588:	e0bffe17 	ldw	r2,-8(fp)
   2058c:	1080008c 	andi	r2,r2,2
   20590:	10000126 	beq	r2,zero,20598 <ACK_single_check+0x44>
            bSuccess = FALSE;
   20594:	e03ffd15 	stw	zero,-12(fp)
     if (bSuccess){
   20598:	e0bffd17 	ldw	r2,-12(fp)
   2059c:	10000a26 	beq	r2,zero,205c8 <ACK_single_check+0x74>
            usleep(ACK_SLEEP_TIME);
   205a0:	01003e84 	movi	r4,250
   205a4:	00322500 	call	32250 <usleep>
            read_data =IORD(i2c_base, 4);
   205a8:	e0bfff17 	ldw	r2,-4(fp)
   205ac:	10800404 	addi	r2,r2,16
   205b0:	10800037 	ldwio	r2,0(r2)
   205b4:	e0bffe15 	stw	r2,-8(fp)
                if(read_data & 0x80)
   205b8:	e0bffe17 	ldw	r2,-8(fp)
   205bc:	1080200c 	andi	r2,r2,128
   205c0:	10000126 	beq	r2,zero,205c8 <ACK_single_check+0x74>
                    bSuccess = FALSE;
   205c4:	e03ffd15 	stw	zero,-12(fp)
     }
    return bSuccess;
   205c8:	e0bffd17 	ldw	r2,-12(fp)
}
   205cc:	e037883a 	mov	sp,fp
   205d0:	dfc00117 	ldw	ra,4(sp)
   205d4:	df000017 	ldw	fp,0(sp)
   205d8:	dec00204 	addi	sp,sp,8
   205dc:	f800283a 	ret

000205e0 <ACK_check>:


bool  ACK_check(alt_32 i2c_base){
   205e0:	defffb04 	addi	sp,sp,-20
   205e4:	dfc00415 	stw	ra,16(sp)
   205e8:	df000315 	stw	fp,12(sp)
   205ec:	df000304 	addi	fp,sp,12
   205f0:	e13fff15 	stw	r4,-4(fp)
    bool bSuccess = FALSE;
   205f4:	e03ffd15 	stw	zero,-12(fp)
    int i=0;
   205f8:	e03ffe15 	stw	zero,-8(fp)

    while(!bSuccess && i++ < 10){
   205fc:	00000306 	br	2060c <ACK_check+0x2c>
        bSuccess = ACK_single_check(i2c_base);
   20600:	e13fff17 	ldw	r4,-4(fp)
   20604:	00205540 	call	20554 <ACK_single_check>
   20608:	e0bffd15 	stw	r2,-12(fp)

bool  ACK_check(alt_32 i2c_base){
    bool bSuccess = FALSE;
    int i=0;

    while(!bSuccess && i++ < 10){
   2060c:	e0bffd17 	ldw	r2,-12(fp)
   20610:	1000051e 	bne	r2,zero,20628 <ACK_check+0x48>
   20614:	e0bffe17 	ldw	r2,-8(fp)
   20618:	10c00044 	addi	r3,r2,1
   2061c:	e0fffe15 	stw	r3,-8(fp)
   20620:	10800290 	cmplti	r2,r2,10
   20624:	103ff61e 	bne	r2,zero,20600 <__alt_data_end+0xfffe0600>
        bSuccess = ACK_single_check(i2c_base);
    }

    return bSuccess;
   20628:	e0bffd17 	ldw	r2,-12(fp)
}
   2062c:	e037883a 	mov	sp,fp
   20630:	dfc00117 	ldw	ra,4(sp)
   20634:	df000017 	ldw	fp,0(sp)
   20638:	dec00204 	addi	sp,sp,8
   2063c:	f800283a 	ret

00020640 <OC_I2C_Write>:

bool  OC_I2C_Write(alt_32 i2c_base,alt_u8 device_address,alt_u8 sub_address, alt_u8 *pData, int nWriteLength)
{
   20640:	defff904 	addi	sp,sp,-28
   20644:	dfc00615 	stw	ra,24(sp)
   20648:	df000515 	stw	fp,20(sp)
   2064c:	df000504 	addi	fp,sp,20
   20650:	e13ffc15 	stw	r4,-16(fp)
   20654:	2807883a 	mov	r3,r5
   20658:	3005883a 	mov	r2,r6
   2065c:	e1ffff15 	stw	r7,-4(fp)
   20660:	e0fffd05 	stb	r3,-12(fp)
   20664:	e0bffe05 	stb	r2,-8(fp)
    //DWORD reg_data = 0x0;
    int i;

   //set the tx reg audio chip dev address with write bit
   if (!Write32_Data( i2c_base, 3,device_address)){
   20668:	e0bffd03 	ldbu	r2,-12(fp)
   2066c:	e13ffc17 	ldw	r4,-16(fp)
   20670:	014000c4 	movi	r5,3
   20674:	100d883a 	mov	r6,r2
   20678:	002028c0 	call	2028c <Write32_Data>
   2067c:	1000051e 	bne	r2,zero,20694 <OC_I2C_Write+0x54>
       printf("OC_I2C_Write error[0]\r\n");
   20680:	010000f4 	movhi	r4,3
   20684:	2110a904 	addi	r4,r4,17060
   20688:	0025f0c0 	call	25f0c <puts>
       return FALSE;
   2068c:	0005883a 	mov	r2,zero
   20690:	00006606 	br	2082c <OC_I2C_Write+0x1ec>
   }
   //set STA and WR bits(bit7 and bit4)
   if (!Write32_Data( i2c_base, 4,0x90)){
   20694:	e13ffc17 	ldw	r4,-16(fp)
   20698:	01400104 	movi	r5,4
   2069c:	01802404 	movi	r6,144
   206a0:	002028c0 	call	2028c <Write32_Data>
   206a4:	1000051e 	bne	r2,zero,206bc <OC_I2C_Write+0x7c>
       printf("OC_I2C_Write error[1]\r\n");
   206a8:	010000f4 	movhi	r4,3
   206ac:	2110af04 	addi	r4,r4,17084
   206b0:	0025f0c0 	call	25f0c <puts>
       return FALSE;
   206b4:	0005883a 	mov	r2,zero
   206b8:	00005c06 	br	2082c <OC_I2C_Write+0x1ec>
   }

   //wait TIP bit go to 0 to end Tx
    if(!ACK_check( i2c_base)){
   206bc:	e13ffc17 	ldw	r4,-16(fp)
   206c0:	00205e00 	call	205e0 <ACK_check>
   206c4:	1000051e 	bne	r2,zero,206dc <OC_I2C_Write+0x9c>
        printf("OC_I2C_Write error[2]\r\n");
   206c8:	010000f4 	movhi	r4,3
   206cc:	2110b504 	addi	r4,r4,17108
   206d0:	0025f0c0 	call	25f0c <puts>
        return FALSE;
   206d4:	0005883a 	mov	r2,zero
   206d8:	00005406 	br	2082c <OC_I2C_Write+0x1ec>
    }
  // printf("\n receive ACK-device address! \n");

   //set the txr reg data with reg address + 1 data MSB
   if (!Write32_Data( i2c_base, 3,sub_address)){
   206dc:	e0bffe03 	ldbu	r2,-8(fp)
   206e0:	e13ffc17 	ldw	r4,-16(fp)
   206e4:	014000c4 	movi	r5,3
   206e8:	100d883a 	mov	r6,r2
   206ec:	002028c0 	call	2028c <Write32_Data>
   206f0:	1000051e 	bne	r2,zero,20708 <OC_I2C_Write+0xc8>
       printf("OC_I2C_Write error[3]\r\n");
   206f4:	010000f4 	movhi	r4,3
   206f8:	2110bb04 	addi	r4,r4,17132
   206fc:	0025f0c0 	call	25f0c <puts>
       return FALSE;
   20700:	0005883a 	mov	r2,zero
   20704:	00004906 	br	2082c <OC_I2C_Write+0x1ec>
   }

   //set WR bits(bit4)
    if (!Write32_Data( i2c_base, 4,0x10)){
   20708:	e13ffc17 	ldw	r4,-16(fp)
   2070c:	01400104 	movi	r5,4
   20710:	01800404 	movi	r6,16
   20714:	002028c0 	call	2028c <Write32_Data>
   20718:	1000051e 	bne	r2,zero,20730 <OC_I2C_Write+0xf0>
        printf("OC_I2C_Write error[4]\r\n");
   2071c:	010000f4 	movhi	r4,3
   20720:	2110c104 	addi	r4,r4,17156
   20724:	0025f0c0 	call	25f0c <puts>
        return FALSE;
   20728:	0005883a 	mov	r2,zero
   2072c:	00003f06 	br	2082c <OC_I2C_Write+0x1ec>
    }

   //wait TIP bit go to 0 to end Tx
    if(!ACK_check( i2c_base)){
   20730:	e13ffc17 	ldw	r4,-16(fp)
   20734:	00205e00 	call	205e0 <ACK_check>
   20738:	1000051e 	bne	r2,zero,20750 <OC_I2C_Write+0x110>
        printf("OC_I2C_Write error[5]\r\n");
   2073c:	010000f4 	movhi	r4,3
   20740:	2110c704 	addi	r4,r4,17180
   20744:	0025f0c0 	call	25f0c <puts>
        return FALSE;
   20748:	0005883a 	mov	r2,zero
   2074c:	00003706 	br	2082c <OC_I2C_Write+0x1ec>
    }
 //  printf("\n receive ACK-reg address! \n");

#if 1
        for( i=nWriteLength-1;i>=0;i--){
   20750:	e0800217 	ldw	r2,8(fp)
   20754:	10bfffc4 	addi	r2,r2,-1
   20758:	e0bffb15 	stw	r2,-20(fp)
   2075c:	00002406 	br	207f0 <OC_I2C_Write+0x1b0>
        //set the txr reg data with the data
          if (!Write32_Data( i2c_base, 3,*(pData+i))){
   20760:	e0bffb17 	ldw	r2,-20(fp)
   20764:	e0ffff17 	ldw	r3,-4(fp)
   20768:	1885883a 	add	r2,r3,r2
   2076c:	10800003 	ldbu	r2,0(r2)
   20770:	10803fcc 	andi	r2,r2,255
   20774:	e13ffc17 	ldw	r4,-16(fp)
   20778:	014000c4 	movi	r5,3
   2077c:	100d883a 	mov	r6,r2
   20780:	002028c0 	call	2028c <Write32_Data>
   20784:	1000051e 	bne	r2,zero,2079c <OC_I2C_Write+0x15c>
              printf("OC_I2C_Write error[6]\r\n");
   20788:	010000f4 	movhi	r4,3
   2078c:	2110cd04 	addi	r4,r4,17204
   20790:	0025f0c0 	call	25f0c <puts>
              return FALSE;
   20794:	0005883a 	mov	r2,zero
   20798:	00002406 	br	2082c <OC_I2C_Write+0x1ec>
          }

        //set STO and WR bits(bit7 and bit4)
         if (!Write32_Data( i2c_base, 4,0x10)){
   2079c:	e13ffc17 	ldw	r4,-16(fp)
   207a0:	01400104 	movi	r5,4
   207a4:	01800404 	movi	r6,16
   207a8:	002028c0 	call	2028c <Write32_Data>
   207ac:	1000051e 	bne	r2,zero,207c4 <OC_I2C_Write+0x184>
             printf("OC_I2C_Write error[7]\r\n");
   207b0:	010000f4 	movhi	r4,3
   207b4:	2110d304 	addi	r4,r4,17228
   207b8:	0025f0c0 	call	25f0c <puts>
              return FALSE;
   207bc:	0005883a 	mov	r2,zero
   207c0:	00001a06 	br	2082c <OC_I2C_Write+0x1ec>
         }

         //wait TIP bit go to 0 to end Tx
          if(!ACK_check( i2c_base)){
   207c4:	e13ffc17 	ldw	r4,-16(fp)
   207c8:	00205e00 	call	205e0 <ACK_check>
   207cc:	1000051e 	bne	r2,zero,207e4 <OC_I2C_Write+0x1a4>
              printf("OC_I2C_Write error[8]\r\n");
   207d0:	010000f4 	movhi	r4,3
   207d4:	2110d904 	addi	r4,r4,17252
   207d8:	0025f0c0 	call	25f0c <puts>
              return FALSE;
   207dc:	0005883a 	mov	r2,zero
   207e0:	00001206 	br	2082c <OC_I2C_Write+0x1ec>
        return FALSE;
    }
 //  printf("\n receive ACK-reg address! \n");

#if 1
        for( i=nWriteLength-1;i>=0;i--){
   207e4:	e0bffb17 	ldw	r2,-20(fp)
   207e8:	10bfffc4 	addi	r2,r2,-1
   207ec:	e0bffb15 	stw	r2,-20(fp)
   207f0:	e0bffb17 	ldw	r2,-20(fp)
   207f4:	103fda0e 	bge	r2,zero,20760 <__alt_data_end+0xfffe0760>
   //wait TIP bit go to 0 to end Tx
    if(!ACK_check( i2c_base))
        return false;
#endif

     if (!Write32_Data( i2c_base, 4,0x40)){
   207f8:	e13ffc17 	ldw	r4,-16(fp)
   207fc:	01400104 	movi	r5,4
   20800:	01801004 	movi	r6,64
   20804:	002028c0 	call	2028c <Write32_Data>
   20808:	1000051e 	bne	r2,zero,20820 <OC_I2C_Write+0x1e0>
         printf("OC_I2C_Write error[9]\r\n");
   2080c:	010000f4 	movhi	r4,3
   20810:	2110df04 	addi	r4,r4,17276
   20814:	0025f0c0 	call	25f0c <puts>
         return FALSE;
   20818:	0005883a 	mov	r2,zero
   2081c:	00000306 	br	2082c <OC_I2C_Write+0x1ec>
     }
         //Sleep(10);
     //OS_msleep(1);
     usleep(SLEEP_TIME);
   20820:	01003e84 	movi	r4,250
   20824:	00322500 	call	32250 <usleep>

  // printf("\n receive ACK-data! \n");

     return TRUE;
   20828:	00800044 	movi	r2,1

}
   2082c:	e037883a 	mov	sp,fp
   20830:	dfc00117 	ldw	ra,4(sp)
   20834:	df000017 	ldw	fp,0(sp)
   20838:	dec00204 	addi	sp,sp,8
   2083c:	f800283a 	ret

00020840 <ACK_judge_for_read>:


bool ACK_judge_for_read(alt_32 i2c_base)
{
   20840:	defffb04 	addi	sp,sp,-20
   20844:	dfc00415 	stw	ra,16(sp)
   20848:	df000315 	stw	fp,12(sp)
   2084c:	df000304 	addi	fp,sp,12
   20850:	e13fff15 	stw	r4,-4(fp)
	bool bSuccess;
    alt_32 this_data;

   // OS_msleep( SLEEP_TIME );
     usleep(ACK_SLEEP_TIME);
   20854:	01003e84 	movi	r4,250
   20858:	00322500 	call	32250 <usleep>
    //   while(this_data & 0x02)
//   {
//      this_data =  Read32_Data ( hPCIe, i2c_base, 4);
//   }
    bSuccess =  Read32_Data ( i2c_base, 4, &this_data);
   2085c:	e0bffe04 	addi	r2,fp,-8
   20860:	e13fff17 	ldw	r4,-4(fp)
   20864:	01400104 	movi	r5,4
   20868:	100d883a 	mov	r6,r2
   2086c:	00202e40 	call	202e4 <Read32_Data>
   20870:	e0bffd15 	stw	r2,-12(fp)
    if (bSuccess){
   20874:	e0bffd17 	ldw	r2,-12(fp)
   20878:	10000426 	beq	r2,zero,2088c <ACK_judge_for_read+0x4c>
        if(this_data & 0x02)
   2087c:	e0bffe17 	ldw	r2,-8(fp)
   20880:	1080008c 	andi	r2,r2,2
   20884:	10000126 	beq	r2,zero,2088c <ACK_judge_for_read+0x4c>
            bSuccess = FALSE;
   20888:	e03ffd15 	stw	zero,-12(fp)
    }
   //wait the rx ACK signal 0-valid

    return bSuccess;
   2088c:	e0bffd17 	ldw	r2,-12(fp)

}
   20890:	e037883a 	mov	sp,fp
   20894:	dfc00117 	ldw	ra,4(sp)
   20898:	df000017 	ldw	fp,0(sp)
   2089c:	dec00204 	addi	sp,sp,8
   208a0:	f800283a 	ret

000208a4 <OC_I2C_Read>:

bool  OC_I2C_Read(alt_32 i2c_base,alt_u8 device_address,alt_u8 sub_address, alt_u8 *pData8, int nReadLength){
   208a4:	defff804 	addi	sp,sp,-32
   208a8:	dfc00715 	stw	ra,28(sp)
   208ac:	df000615 	stw	fp,24(sp)
   208b0:	df000604 	addi	fp,sp,24
   208b4:	e13ffc15 	stw	r4,-16(fp)
   208b8:	2807883a 	mov	r3,r5
   208bc:	3005883a 	mov	r2,r6
   208c0:	e1ffff15 	stw	r7,-4(fp)
   208c4:	e0fffd05 	stb	r3,-12(fp)
   208c8:	e0bffe05 	stb	r2,-8(fp)
    //BYTE data = 0x0;
    alt_32 Data32;
    int i;

   //set the tx reg audio chip dev address with write bit
   IOWR( i2c_base, 3,device_address);
   208cc:	e0bffc17 	ldw	r2,-16(fp)
   208d0:	10800304 	addi	r2,r2,12
   208d4:	1007883a 	mov	r3,r2
   208d8:	e0bffd03 	ldbu	r2,-12(fp)
   208dc:	18800035 	stwio	r2,0(r3)
   //set STA and WR bits(bit7 and bit4)
   IOWR( i2c_base, 4,0x90);
   208e0:	e0bffc17 	ldw	r2,-16(fp)
   208e4:	10800404 	addi	r2,r2,16
   208e8:	1007883a 	mov	r3,r2
   208ec:	00802404 	movi	r2,144
   208f0:	18800035 	stwio	r2,0(r3)
   //wait TIP bit go to 0 to end Tx
   if (!ACK_check( i2c_base)){
   208f4:	e13ffc17 	ldw	r4,-16(fp)
   208f8:	00205e00 	call	205e0 <ACK_check>
   208fc:	1000051e 	bne	r2,zero,20914 <OC_I2C_Read+0x70>
       printf("OC_I2C_Read error[2]\r\n");
   20900:	010000f4 	movhi	r4,3
   20904:	2110e504 	addi	r4,r4,17300
   20908:	0025f0c0 	call	25f0c <puts>
       return FALSE;
   2090c:	0005883a 	mov	r2,zero
   20910:	00005206 	br	20a5c <OC_I2C_Read+0x1b8>
   }
   IOWR(i2c_base, 3,sub_address);
   20914:	e0bffc17 	ldw	r2,-16(fp)
   20918:	10800304 	addi	r2,r2,12
   2091c:	1007883a 	mov	r3,r2
   20920:	e0bffe03 	ldbu	r2,-8(fp)
   20924:	18800035 	stwio	r2,0(r3)

   //set WR bits(bit4)
   IOWR( i2c_base, 4,0x10);
   20928:	e0bffc17 	ldw	r2,-16(fp)
   2092c:	10800404 	addi	r2,r2,16
   20930:	1007883a 	mov	r3,r2
   20934:	00800404 	movi	r2,16
   20938:	18800035 	stwio	r2,0(r3)
   //wait TIP bit go to 0 to end Tx
    if (!ACK_check( i2c_base)){
   2093c:	e13ffc17 	ldw	r4,-16(fp)
   20940:	00205e00 	call	205e0 <ACK_check>
   20944:	1000051e 	bne	r2,zero,2095c <OC_I2C_Read+0xb8>
        printf("OC_I2C_Read error[5]\r\n");
   20948:	010000f4 	movhi	r4,3
   2094c:	2110eb04 	addi	r4,r4,17324
   20950:	0025f0c0 	call	25f0c <puts>
        return FALSE;
   20954:	0005883a 	mov	r2,zero
   20958:	00004006 	br	20a5c <OC_I2C_Read+0x1b8>
  // printf("\n read receive ACK-reg address! \n");

   //read
    //set the tx reg audio chip dev address with read bit 1

    IOWR(i2c_base, 3,device_address|0x01);
   2095c:	e0bffc17 	ldw	r2,-16(fp)
   20960:	10800304 	addi	r2,r2,12
   20964:	1007883a 	mov	r3,r2
   20968:	e0bffd03 	ldbu	r2,-12(fp)
   2096c:	10800054 	ori	r2,r2,1
   20970:	10803fcc 	andi	r2,r2,255
   20974:	18800035 	stwio	r2,0(r3)

   //set STA and WR bits(bit7 and bit4)
    IOWR( i2c_base, 4,0x90);
   20978:	e0bffc17 	ldw	r2,-16(fp)
   2097c:	10800404 	addi	r2,r2,16
   20980:	1007883a 	mov	r3,r2
   20984:	00802404 	movi	r2,144
   20988:	18800035 	stwio	r2,0(r3)

   //wait TIP bit go to 0 to end Tx
    if (!ACK_check( i2c_base)){
   2098c:	e13ffc17 	ldw	r4,-16(fp)
   20990:	00205e00 	call	205e0 <ACK_check>
   20994:	1000051e 	bne	r2,zero,209ac <OC_I2C_Read+0x108>
        printf("OC_I2C_Read error[8]\r\n");
   20998:	010000f4 	movhi	r4,3
   2099c:	2110f104 	addi	r4,r4,17348
   209a0:	0025f0c0 	call	25f0c <puts>
        return FALSE;
   209a4:	0005883a 	mov	r2,zero
   209a8:	00002c06 	br	20a5c <OC_I2C_Read+0x1b8>
    }

    for(i=0;i<nReadLength;i++){
   209ac:	e03ffa15 	stw	zero,-24(fp)
   209b0:	00001f06 	br	20a30 <OC_I2C_Read+0x18c>
  // printf("\n read receive ACK-device address(read)! \n");
   //set the RD and ACK bit(bit5 and bit3)
    	IOWR( i2c_base, 4,((i+1) == nReadLength)?0x28:0x20);
   209b4:	e0bffc17 	ldw	r2,-16(fp)
   209b8:	10800404 	addi	r2,r2,16
   209bc:	1009883a 	mov	r4,r2
   209c0:	e0bffa17 	ldw	r2,-24(fp)
   209c4:	10c00044 	addi	r3,r2,1
   209c8:	e0800217 	ldw	r2,8(fp)
   209cc:	1880021e 	bne	r3,r2,209d8 <OC_I2C_Read+0x134>
   209d0:	00800a04 	movi	r2,40
   209d4:	00000106 	br	209dc <OC_I2C_Read+0x138>
   209d8:	00800804 	movi	r2,32
   209dc:	20800035 	stwio	r2,0(r4)

        if (!ACK_judge_for_read( i2c_base)){
   209e0:	e13ffc17 	ldw	r4,-16(fp)
   209e4:	00208400 	call	20840 <ACK_judge_for_read>
   209e8:	1000051e 	bne	r2,zero,20a00 <OC_I2C_Read+0x15c>
            printf("OC_I2C_Read error[10]\r\n");
   209ec:	010000f4 	movhi	r4,3
   209f0:	2110f704 	addi	r4,r4,17372
   209f4:	0025f0c0 	call	25f0c <puts>
            return FALSE;
   209f8:	0005883a 	mov	r2,zero
   209fc:	00001706 	br	20a5c <OC_I2C_Read+0x1b8>
        }
   // printf("\n read receive ACK-device address(read)! \n");

        Data32=IORD( i2c_base, 3);
   20a00:	e0bffc17 	ldw	r2,-16(fp)
   20a04:	10800304 	addi	r2,r2,12
   20a08:	10800037 	ldwio	r2,0(r2)
   20a0c:	e0bffb15 	stw	r2,-20(fp)
        *(pData8+i) =  Data32 & 0xff;
   20a10:	e0bffa17 	ldw	r2,-24(fp)
   20a14:	e0ffff17 	ldw	r3,-4(fp)
   20a18:	1885883a 	add	r2,r3,r2
   20a1c:	e0fffb17 	ldw	r3,-20(fp)
   20a20:	10c00005 	stb	r3,0(r2)
    if (!ACK_check( i2c_base)){
        printf("OC_I2C_Read error[8]\r\n");
        return FALSE;
    }

    for(i=0;i<nReadLength;i++){
   20a24:	e0bffa17 	ldw	r2,-24(fp)
   20a28:	10800044 	addi	r2,r2,1
   20a2c:	e0bffa15 	stw	r2,-24(fp)
   20a30:	e0fffa17 	ldw	r3,-24(fp)
   20a34:	e0800217 	ldw	r2,8(fp)
   20a38:	18bfde16 	blt	r3,r2,209b4 <__alt_data_end+0xfffe09b4>

        Data32=IORD( i2c_base, 3);
        *(pData8+i) =  Data32 & 0xff;
    }

    IOWR( i2c_base, 4,0x40);
   20a3c:	e0bffc17 	ldw	r2,-16(fp)
   20a40:	10800404 	addi	r2,r2,16
   20a44:	1007883a 	mov	r3,r2
   20a48:	00801004 	movi	r2,64
   20a4c:	18800035 	stwio	r2,0(r3)

  // Sleep(10);
   //OS_msleep(1);
    usleep(SLEEP_TIME);
   20a50:	01003e84 	movi	r4,250
   20a54:	00322500 	call	32250 <usleep>
 //  printf(" Read  [%02X] = %02Xh\r\n", sub_address, data);


   return TRUE;
   20a58:	00800044 	movi	r2,1

}
   20a5c:	e037883a 	mov	sp,fp
   20a60:	dfc00117 	ldw	ra,4(sp)
   20a64:	df000017 	ldw	fp,0(sp)
   20a68:	dec00204 	addi	sp,sp,8
   20a6c:	f800283a 	ret

00020a70 <OC_I2C_Read_Continue>:


bool  OC_I2C_Read_Continue(alt_32 i2c_base,alt_u8 device_address, alt_u8 *pData8, int nReadLength){
   20a70:	defff804 	addi	sp,sp,-32
   20a74:	dfc00715 	stw	ra,28(sp)
   20a78:	df000615 	stw	fp,24(sp)
   20a7c:	df000604 	addi	fp,sp,24
   20a80:	e13ffc15 	stw	r4,-16(fp)
   20a84:	2805883a 	mov	r2,r5
   20a88:	e1bffe15 	stw	r6,-8(fp)
   20a8c:	e1ffff15 	stw	r7,-4(fp)
   20a90:	e0bffd05 	stb	r2,-12(fp)
	int i;
	alt_u32 Data32;

    IOWR(i2c_base, 3,device_address|0x01);
   20a94:	e0bffc17 	ldw	r2,-16(fp)
   20a98:	10800304 	addi	r2,r2,12
   20a9c:	1007883a 	mov	r3,r2
   20aa0:	e0bffd03 	ldbu	r2,-12(fp)
   20aa4:	10800054 	ori	r2,r2,1
   20aa8:	10803fcc 	andi	r2,r2,255
   20aac:	18800035 	stwio	r2,0(r3)

   //set STA and WR bits(bit7 and bit4)
    IOWR( i2c_base, 4,0x90);
   20ab0:	e0bffc17 	ldw	r2,-16(fp)
   20ab4:	10800404 	addi	r2,r2,16
   20ab8:	1007883a 	mov	r3,r2
   20abc:	00802404 	movi	r2,144
   20ac0:	18800035 	stwio	r2,0(r3)
//usleep(5*1000);
   //wait TIP bit go to 0 to end Tx
    if (!ACK_check( i2c_base)){
   20ac4:	e13ffc17 	ldw	r4,-16(fp)
   20ac8:	00205e00 	call	205e0 <ACK_check>
   20acc:	1000051e 	bne	r2,zero,20ae4 <OC_I2C_Read_Continue+0x74>
        printf("OC_I2C_Read error[8]\r\n");
   20ad0:	010000f4 	movhi	r4,3
   20ad4:	2110f104 	addi	r4,r4,17348
   20ad8:	0025f0c0 	call	25f0c <puts>
        return FALSE;
   20adc:	0005883a 	mov	r2,zero
   20ae0:	00002c06 	br	20b94 <OC_I2C_Read_Continue+0x124>
    }

    for(i=0;i<nReadLength;i++){
   20ae4:	e03ffa15 	stw	zero,-24(fp)
   20ae8:	00001f06 	br	20b68 <OC_I2C_Read_Continue+0xf8>
  // printf("\n read receive ACK-device address(read)! \n");
   //set the RD and ACK bit(bit5 and bit3)
    	IOWR( i2c_base, 4,((i+1) == nReadLength)?0x28:0x20);
   20aec:	e0bffc17 	ldw	r2,-16(fp)
   20af0:	10800404 	addi	r2,r2,16
   20af4:	1009883a 	mov	r4,r2
   20af8:	e0bffa17 	ldw	r2,-24(fp)
   20afc:	10c00044 	addi	r3,r2,1
   20b00:	e0bfff17 	ldw	r2,-4(fp)
   20b04:	1880021e 	bne	r3,r2,20b10 <OC_I2C_Read_Continue+0xa0>
   20b08:	00800a04 	movi	r2,40
   20b0c:	00000106 	br	20b14 <OC_I2C_Read_Continue+0xa4>
   20b10:	00800804 	movi	r2,32
   20b14:	20800035 	stwio	r2,0(r4)

        if (!ACK_judge_for_read( i2c_base)){
   20b18:	e13ffc17 	ldw	r4,-16(fp)
   20b1c:	00208400 	call	20840 <ACK_judge_for_read>
   20b20:	1000051e 	bne	r2,zero,20b38 <OC_I2C_Read_Continue+0xc8>
            printf("OC_I2C_Read error[10]\r\n");
   20b24:	010000f4 	movhi	r4,3
   20b28:	2110f704 	addi	r4,r4,17372
   20b2c:	0025f0c0 	call	25f0c <puts>
            return FALSE;
   20b30:	0005883a 	mov	r2,zero
   20b34:	00001706 	br	20b94 <OC_I2C_Read_Continue+0x124>
        }
   // printf("\n read receive ACK-device address(read)! \n");

        Data32=IORD( i2c_base, 3);
   20b38:	e0bffc17 	ldw	r2,-16(fp)
   20b3c:	10800304 	addi	r2,r2,12
   20b40:	10800037 	ldwio	r2,0(r2)
   20b44:	e0bffb15 	stw	r2,-20(fp)
        *(pData8+i) =  Data32 & 0xff;
   20b48:	e0bffa17 	ldw	r2,-24(fp)
   20b4c:	e0fffe17 	ldw	r3,-8(fp)
   20b50:	1885883a 	add	r2,r3,r2
   20b54:	e0fffb17 	ldw	r3,-20(fp)
   20b58:	10c00005 	stb	r3,0(r2)
    if (!ACK_check( i2c_base)){
        printf("OC_I2C_Read error[8]\r\n");
        return FALSE;
    }

    for(i=0;i<nReadLength;i++){
   20b5c:	e0bffa17 	ldw	r2,-24(fp)
   20b60:	10800044 	addi	r2,r2,1
   20b64:	e0bffa15 	stw	r2,-24(fp)
   20b68:	e0fffa17 	ldw	r3,-24(fp)
   20b6c:	e0bfff17 	ldw	r2,-4(fp)
   20b70:	18bfde16 	blt	r3,r2,20aec <__alt_data_end+0xfffe0aec>

        Data32=IORD( i2c_base, 3);
        *(pData8+i) =  Data32 & 0xff;
    }

    IOWR( i2c_base, 4,0x40);
   20b74:	e0bffc17 	ldw	r2,-16(fp)
   20b78:	10800404 	addi	r2,r2,16
   20b7c:	1007883a 	mov	r3,r2
   20b80:	00801004 	movi	r2,64
   20b84:	18800035 	stwio	r2,0(r3)

  // Sleep(10);
   //OS_msleep(1);
    usleep(SLEEP_TIME);
   20b88:	01003e84 	movi	r4,250
   20b8c:	00322500 	call	32250 <usleep>
 //  printf(" Read  [%02X] = %02Xh\r\n", sub_address, data);


   return TRUE;
   20b90:	00800044 	movi	r2,1

}
   20b94:	e037883a 	mov	sp,fp
   20b98:	dfc00117 	ldw	ra,4(sp)
   20b9c:	df000017 	ldw	fp,0(sp)
   20ba0:	dec00204 	addi	sp,sp,8
   20ba4:	f800283a 	ret

00020ba8 <OC_I2CL_Write>:


//  size > 2Kb
bool  OC_I2CL_Write(alt_32 i2c_base,alt_u8 device_address,alt_u16 sub_address,alt_u8 *pData, int nWriteLength)
    {
   20ba8:	defff804 	addi	sp,sp,-32
   20bac:	dfc00715 	stw	ra,28(sp)
   20bb0:	df000615 	stw	fp,24(sp)
   20bb4:	df000604 	addi	fp,sp,24
   20bb8:	e13ffc15 	stw	r4,-16(fp)
   20bbc:	2807883a 	mov	r3,r5
   20bc0:	3005883a 	mov	r2,r6
   20bc4:	e1ffff15 	stw	r7,-4(fp)
   20bc8:	e0fffd05 	stb	r3,-12(fp)
   20bcc:	e0bffe0d 	sth	r2,-8(fp)
    //DWORD reg_data = 0x0;
	alt_u8 AddrHigh, AddrLow;
    //int count= 0;

    AddrHigh = (sub_address >> 8) & 0xFF;
   20bd0:	e0bffe0b 	ldhu	r2,-8(fp)
   20bd4:	1004d23a 	srli	r2,r2,8
   20bd8:	e0bffb05 	stb	r2,-20(fp)
    AddrLow  = sub_address & 0xFF;
   20bdc:	e0bffe0b 	ldhu	r2,-8(fp)
   20be0:	e0bffb45 	stb	r2,-19(fp)

    int i;

    //set the tx reg audio chip dev address with write bit
   if (!Write32_Data( i2c_base, 3,device_address))
   20be4:	e0bffd03 	ldbu	r2,-12(fp)
   20be8:	e13ffc17 	ldw	r4,-16(fp)
   20bec:	014000c4 	movi	r5,3
   20bf0:	100d883a 	mov	r6,r2
   20bf4:	002028c0 	call	2028c <Write32_Data>
   20bf8:	1000021e 	bne	r2,zero,20c04 <OC_I2CL_Write+0x5c>
       return FALSE;
   20bfc:	0005883a 	mov	r2,zero
   20c00:	00006806 	br	20da4 <OC_I2CL_Write+0x1fc>
   //set STA and WR bits(bit7 and bit4)
   if (!Write32_Data( i2c_base, 4,0x90))//0x90
   20c04:	e13ffc17 	ldw	r4,-16(fp)
   20c08:	01400104 	movi	r5,4
   20c0c:	01802404 	movi	r6,144
   20c10:	002028c0 	call	2028c <Write32_Data>
   20c14:	1000021e 	bne	r2,zero,20c20 <OC_I2CL_Write+0x78>
       return FALSE;
   20c18:	0005883a 	mov	r2,zero
   20c1c:	00006106 	br	20da4 <OC_I2CL_Write+0x1fc>

   //wait TIP bit go to 0 to end Tx
    if(!ACK_check( i2c_base)){
   20c20:	e13ffc17 	ldw	r4,-16(fp)
   20c24:	00205e00 	call	205e0 <ACK_check>
   20c28:	1000051e 	bne	r2,zero,20c40 <OC_I2CL_Write+0x98>
        printf("OC_I2CL_Write error[0]\r\n");
   20c2c:	010000f4 	movhi	r4,3
   20c30:	2110fd04 	addi	r4,r4,17396
   20c34:	0025f0c0 	call	25f0c <puts>
        return FALSE;
   20c38:	0005883a 	mov	r2,zero
   20c3c:	00005906 	br	20da4 <OC_I2CL_Write+0x1fc>
  // printf("\n receive ACK-device address! \n");

   //set the txr reg data with reg address + 1 data MSB
 //  reg_data  = (sub_address << 1) & 0xFE;
   //reg_data |= ((data >> 8) & 0x01);
   if (!Write32_Data( i2c_base, 3,AddrHigh))//reg_data&0xff);
   20c40:	e0bffb03 	ldbu	r2,-20(fp)
   20c44:	e13ffc17 	ldw	r4,-16(fp)
   20c48:	014000c4 	movi	r5,3
   20c4c:	100d883a 	mov	r6,r2
   20c50:	002028c0 	call	2028c <Write32_Data>
   20c54:	1000021e 	bne	r2,zero,20c60 <OC_I2CL_Write+0xb8>
       return FALSE;
   20c58:	0005883a 	mov	r2,zero
   20c5c:	00005106 	br	20da4 <OC_I2CL_Write+0x1fc>

   //set WR bits(bit4)
    if (!Write32_Data( i2c_base, 4,0x10))
   20c60:	e13ffc17 	ldw	r4,-16(fp)
   20c64:	01400104 	movi	r5,4
   20c68:	01800404 	movi	r6,16
   20c6c:	002028c0 	call	2028c <Write32_Data>
   20c70:	1000021e 	bne	r2,zero,20c7c <OC_I2CL_Write+0xd4>
        return FALSE;
   20c74:	0005883a 	mov	r2,zero
   20c78:	00004a06 	br	20da4 <OC_I2CL_Write+0x1fc>

   //wait TIP bit go to 0 to end Tx
    if(!ACK_check( i2c_base)){
   20c7c:	e13ffc17 	ldw	r4,-16(fp)
   20c80:	00205e00 	call	205e0 <ACK_check>
   20c84:	1000051e 	bne	r2,zero,20c9c <OC_I2CL_Write+0xf4>
        printf("OC_I2CL_Write error[1]\r\n");
   20c88:	010000f4 	movhi	r4,3
   20c8c:	21110304 	addi	r4,r4,17420
   20c90:	0025f0c0 	call	25f0c <puts>
        return FALSE;
   20c94:	0005883a 	mov	r2,zero
   20c98:	00004206 	br	20da4 <OC_I2CL_Write+0x1fc>
    }
  // printf("\n receive ACK-reg high address! \n");

   //set the txr reg data with reg address + 1 data MSB
   if (!Write32_Data( i2c_base, 3,AddrLow))//reg_data&0xff);
   20c9c:	e0bffb43 	ldbu	r2,-19(fp)
   20ca0:	e13ffc17 	ldw	r4,-16(fp)
   20ca4:	014000c4 	movi	r5,3
   20ca8:	100d883a 	mov	r6,r2
   20cac:	002028c0 	call	2028c <Write32_Data>
   20cb0:	1000021e 	bne	r2,zero,20cbc <OC_I2CL_Write+0x114>
       return FALSE;
   20cb4:	0005883a 	mov	r2,zero
   20cb8:	00003a06 	br	20da4 <OC_I2CL_Write+0x1fc>

   //set WR bits(bit4)
    Write32_Data( i2c_base, 4,0x10);
   20cbc:	e13ffc17 	ldw	r4,-16(fp)
   20cc0:	01400104 	movi	r5,4
   20cc4:	01800404 	movi	r6,16
   20cc8:	002028c0 	call	2028c <Write32_Data>

   //wait TIP bit go to 0 to end Tx
    if(!ACK_check( i2c_base)){
   20ccc:	e13ffc17 	ldw	r4,-16(fp)
   20cd0:	00205e00 	call	205e0 <ACK_check>
   20cd4:	1000051e 	bne	r2,zero,20cec <OC_I2CL_Write+0x144>
        printf("OC_I2CL_Write error[2]\r\n");
   20cd8:	010000f4 	movhi	r4,3
   20cdc:	21110904 	addi	r4,r4,17444
   20ce0:	0025f0c0 	call	25f0c <puts>
        return FALSE;
   20ce4:	0005883a 	mov	r2,zero
   20ce8:	00002e06 	br	20da4 <OC_I2CL_Write+0x1fc>
    }
  //  printf("\n receive ACK-reg low address! \n");

#if 1
    for( i=nWriteLength-1;i>=0;i--){
   20cec:	e0800217 	ldw	r2,8(fp)
   20cf0:	10bfffc4 	addi	r2,r2,-1
   20cf4:	e0bffa15 	stw	r2,-24(fp)
   20cf8:	00001e06 	br	20d74 <OC_I2CL_Write+0x1cc>
        //set the txr reg data with the other data 8 bit LSB
        if (!Write32_Data( i2c_base, 3,*(pData+i)))
   20cfc:	e0bffa17 	ldw	r2,-24(fp)
   20d00:	e0ffff17 	ldw	r3,-4(fp)
   20d04:	1885883a 	add	r2,r3,r2
   20d08:	10800003 	ldbu	r2,0(r2)
   20d0c:	10803fcc 	andi	r2,r2,255
   20d10:	e13ffc17 	ldw	r4,-16(fp)
   20d14:	014000c4 	movi	r5,3
   20d18:	100d883a 	mov	r6,r2
   20d1c:	002028c0 	call	2028c <Write32_Data>
   20d20:	1000021e 	bne	r2,zero,20d2c <OC_I2CL_Write+0x184>
            return FALSE;
   20d24:	0005883a 	mov	r2,zero
   20d28:	00001e06 	br	20da4 <OC_I2CL_Write+0x1fc>

       //set STO and WR bits(bit7 and bit4)
        if (!Write32_Data( i2c_base, 4,0x10))
   20d2c:	e13ffc17 	ldw	r4,-16(fp)
   20d30:	01400104 	movi	r5,4
   20d34:	01800404 	movi	r6,16
   20d38:	002028c0 	call	2028c <Write32_Data>
   20d3c:	1000021e 	bne	r2,zero,20d48 <OC_I2CL_Write+0x1a0>
            return FALSE;
   20d40:	0005883a 	mov	r2,zero
   20d44:	00001706 	br	20da4 <OC_I2CL_Write+0x1fc>

        //wait TIP bit go to 0 to end Tx
         if(!ACK_check( i2c_base)){
   20d48:	e13ffc17 	ldw	r4,-16(fp)
   20d4c:	00205e00 	call	205e0 <ACK_check>
   20d50:	1000051e 	bne	r2,zero,20d68 <OC_I2CL_Write+0x1c0>
             printf("OC_I2CL_Write error[3]\r\n");
   20d54:	010000f4 	movhi	r4,3
   20d58:	21110f04 	addi	r4,r4,17468
   20d5c:	0025f0c0 	call	25f0c <puts>
             return FALSE;
   20d60:	0005883a 	mov	r2,zero
   20d64:	00000f06 	br	20da4 <OC_I2CL_Write+0x1fc>
        return FALSE;
    }
  //  printf("\n receive ACK-reg low address! \n");

#if 1
    for( i=nWriteLength-1;i>=0;i--){
   20d68:	e0bffa17 	ldw	r2,-24(fp)
   20d6c:	10bfffc4 	addi	r2,r2,-1
   20d70:	e0bffa15 	stw	r2,-24(fp)
   20d74:	e0bffa17 	ldw	r2,-24(fp)
   20d78:	103fe00e 	bge	r2,zero,20cfc <__alt_data_end+0xfffe0cfc>
   //wait TIP bit go to 0 to end Tx
    if(!ACK_check( i2c_base))
        return FALSE;

#endif
    if (!Write32_Data( i2c_base, 4,0x40))
   20d7c:	e13ffc17 	ldw	r4,-16(fp)
   20d80:	01400104 	movi	r5,4
   20d84:	01801004 	movi	r6,64
   20d88:	002028c0 	call	2028c <Write32_Data>
   20d8c:	1000021e 	bne	r2,zero,20d98 <OC_I2CL_Write+0x1f0>
         return FALSE;
   20d90:	0005883a 	mov	r2,zero
   20d94:	00000306 	br	20da4 <OC_I2CL_Write+0x1fc>

     //OS_msleep(1);
      usleep(SLEEP_TIME);
   20d98:	01003e84 	movi	r4,250
   20d9c:	00322500 	call	32250 <usleep>
  //  printf("\n receive ACK-data! \n");

     return TRUE;
   20da0:	00800044 	movi	r2,1
}
   20da4:	e037883a 	mov	sp,fp
   20da8:	dfc00117 	ldw	ra,4(sp)
   20dac:	df000017 	ldw	fp,0(sp)
   20db0:	dec00204 	addi	sp,sp,8
   20db4:	f800283a 	ret

00020db8 <OC_I2CL_Read>:

   return TRUE;

} */

bool  OC_I2CL_Read(alt_32 i2c_base,alt_u8 device_address, alt_u16 sub_address, alt_u8 *pData8, int nReadLength){
   20db8:	defff704 	addi	sp,sp,-36
   20dbc:	dfc00815 	stw	ra,32(sp)
   20dc0:	df000715 	stw	fp,28(sp)
   20dc4:	df000704 	addi	fp,sp,28
   20dc8:	e13ffc15 	stw	r4,-16(fp)
   20dcc:	2807883a 	mov	r3,r5
   20dd0:	3005883a 	mov	r2,r6
   20dd4:	e1ffff15 	stw	r7,-4(fp)
   20dd8:	e0fffd05 	stb	r3,-12(fp)
   20ddc:	e0bffe0d 	sth	r2,-8(fp)
    int i;

    alt_u8 AddrHigh, AddrLow;
    alt_u8 DataHigh, DataLow;

    AddrHigh = (sub_address >> 8) & 0xFF;
   20de0:	e0bffe0b 	ldhu	r2,-8(fp)
   20de4:	1004d23a 	srli	r2,r2,8
   20de8:	e0bffa05 	stb	r2,-24(fp)
    AddrLow  = sub_address & 0xFF;
   20dec:	e0bffe0b 	ldhu	r2,-8(fp)
   20df0:	e0bffa45 	stb	r2,-23(fp)


   //set the tx reg audio chip dev address with write bit
   if (!Write32_Data( i2c_base, 3,device_address))
   20df4:	e0bffd03 	ldbu	r2,-12(fp)
   20df8:	e13ffc17 	ldw	r4,-16(fp)
   20dfc:	014000c4 	movi	r5,3
   20e00:	100d883a 	mov	r6,r2
   20e04:	002028c0 	call	2028c <Write32_Data>
   20e08:	1000021e 	bne	r2,zero,20e14 <OC_I2CL_Read+0x5c>
       return FALSE;
   20e0c:	0005883a 	mov	r2,zero
   20e10:	00008406 	br	21024 <OC_I2CL_Read+0x26c>

   //set STA and WR bits(bit7 and bit4)
   if (!Write32_Data( i2c_base, 4,0x90))
   20e14:	e13ffc17 	ldw	r4,-16(fp)
   20e18:	01400104 	movi	r5,4
   20e1c:	01802404 	movi	r6,144
   20e20:	002028c0 	call	2028c <Write32_Data>
   20e24:	1000021e 	bne	r2,zero,20e30 <OC_I2CL_Read+0x78>
       return FALSE;
   20e28:	0005883a 	mov	r2,zero
   20e2c:	00007d06 	br	21024 <OC_I2CL_Read+0x26c>

   //wait TIP bit go to 0 to end Tx
    if(!ACK_check( i2c_base)){
   20e30:	e13ffc17 	ldw	r4,-16(fp)
   20e34:	00205e00 	call	205e0 <ACK_check>
   20e38:	1000051e 	bne	r2,zero,20e50 <OC_I2CL_Read+0x98>
        printf("OC_I2CL_Read error[0]\r\n");
   20e3c:	010000f4 	movhi	r4,3
   20e40:	21111504 	addi	r4,r4,17492
   20e44:	0025f0c0 	call	25f0c <puts>
        return FALSE;
   20e48:	0005883a 	mov	r2,zero
   20e4c:	00007506 	br	21024 <OC_I2CL_Read+0x26c>
 //  printf("\n receive ACK-device address! \n");


   //set the txr reg data with reg address + 0

   if (!Write32_Data( i2c_base, 3,AddrHigh))//reg_data&0xff);
   20e50:	e0bffa03 	ldbu	r2,-24(fp)
   20e54:	e13ffc17 	ldw	r4,-16(fp)
   20e58:	014000c4 	movi	r5,3
   20e5c:	100d883a 	mov	r6,r2
   20e60:	002028c0 	call	2028c <Write32_Data>
   20e64:	1000021e 	bne	r2,zero,20e70 <OC_I2CL_Read+0xb8>
       return FALSE;
   20e68:	0005883a 	mov	r2,zero
   20e6c:	00006d06 	br	21024 <OC_I2CL_Read+0x26c>

   //set WR bits(bit4)
    if (!Write32_Data( i2c_base, 4,0x10))
   20e70:	e13ffc17 	ldw	r4,-16(fp)
   20e74:	01400104 	movi	r5,4
   20e78:	01800404 	movi	r6,16
   20e7c:	002028c0 	call	2028c <Write32_Data>
   20e80:	1000021e 	bne	r2,zero,20e8c <OC_I2CL_Read+0xd4>
        return FALSE;
   20e84:	0005883a 	mov	r2,zero
   20e88:	00006606 	br	21024 <OC_I2CL_Read+0x26c>

   //wait TIP bit go to 0 to end Tx
    if(!ACK_check( i2c_base)){
   20e8c:	e13ffc17 	ldw	r4,-16(fp)
   20e90:	00205e00 	call	205e0 <ACK_check>
   20e94:	1000051e 	bne	r2,zero,20eac <OC_I2CL_Read+0xf4>
        printf("OC_I2CL_Read error[1]\r\n");
   20e98:	010000f4 	movhi	r4,3
   20e9c:	21111b04 	addi	r4,r4,17516
   20ea0:	0025f0c0 	call	25f0c <puts>
        return FALSE;
   20ea4:	0005883a 	mov	r2,zero
   20ea8:	00005e06 	br	21024 <OC_I2CL_Read+0x26c>
    }
//   printf("\n read receive ACK-reg High address! \n");

     //set the txr reg data with reg address + 0
   if (!Write32_Data( i2c_base, 3,AddrLow)) //;//reg_data&0xff);
   20eac:	e0bffa43 	ldbu	r2,-23(fp)
   20eb0:	e13ffc17 	ldw	r4,-16(fp)
   20eb4:	014000c4 	movi	r5,3
   20eb8:	100d883a 	mov	r6,r2
   20ebc:	002028c0 	call	2028c <Write32_Data>
   20ec0:	1000021e 	bne	r2,zero,20ecc <OC_I2CL_Read+0x114>
       return FALSE;
   20ec4:	0005883a 	mov	r2,zero
   20ec8:	00005606 	br	21024 <OC_I2CL_Read+0x26c>
   //set WR bits(bit4)
    if (!Write32_Data( i2c_base, 4,0x10))
   20ecc:	e13ffc17 	ldw	r4,-16(fp)
   20ed0:	01400104 	movi	r5,4
   20ed4:	01800404 	movi	r6,16
   20ed8:	002028c0 	call	2028c <Write32_Data>
   20edc:	1000021e 	bne	r2,zero,20ee8 <OC_I2CL_Read+0x130>
        return FALSE;
   20ee0:	0005883a 	mov	r2,zero
   20ee4:	00004f06 	br	21024 <OC_I2CL_Read+0x26c>

   //wait TIP bit go to 0 to end Tx
    if(!ACK_check( i2c_base)){
   20ee8:	e13ffc17 	ldw	r4,-16(fp)
   20eec:	00205e00 	call	205e0 <ACK_check>
   20ef0:	1000051e 	bne	r2,zero,20f08 <OC_I2CL_Read+0x150>
        printf("OC_I2CL_Read error[2]\r\n");
   20ef4:	010000f4 	movhi	r4,3
   20ef8:	21112104 	addi	r4,r4,17540
   20efc:	0025f0c0 	call	25f0c <puts>
        return FALSE;
   20f00:	0005883a 	mov	r2,zero
   20f04:	00004706 	br	21024 <OC_I2CL_Read+0x26c>

 //  printf("\n read receive ACK-reg Low address! \n");

   //read
    //set the tx reg audio chip dev address with read bit 1
     if (!Write32_Data( i2c_base, 3,device_address|0x01))
   20f08:	e0bffd03 	ldbu	r2,-12(fp)
   20f0c:	10800054 	ori	r2,r2,1
   20f10:	10803fcc 	andi	r2,r2,255
   20f14:	e13ffc17 	ldw	r4,-16(fp)
   20f18:	014000c4 	movi	r5,3
   20f1c:	100d883a 	mov	r6,r2
   20f20:	002028c0 	call	2028c <Write32_Data>
   20f24:	1000021e 	bne	r2,zero,20f30 <OC_I2CL_Read+0x178>
         return FALSE;
   20f28:	0005883a 	mov	r2,zero
   20f2c:	00003d06 	br	21024 <OC_I2CL_Read+0x26c>

   //set STA and WR bits(bit7 and bit4)
     if (!Write32_Data( i2c_base, 4,0x90))
   20f30:	e13ffc17 	ldw	r4,-16(fp)
   20f34:	01400104 	movi	r5,4
   20f38:	01802404 	movi	r6,144
   20f3c:	002028c0 	call	2028c <Write32_Data>
   20f40:	1000021e 	bne	r2,zero,20f4c <OC_I2CL_Read+0x194>
         return FALSE;
   20f44:	0005883a 	mov	r2,zero
   20f48:	00003606 	br	21024 <OC_I2CL_Read+0x26c>

   //wait TIP bit go to 0 to end Tx
    if(!ACK_check( i2c_base)){
   20f4c:	e13ffc17 	ldw	r4,-16(fp)
   20f50:	00205e00 	call	205e0 <ACK_check>
   20f54:	1000051e 	bne	r2,zero,20f6c <OC_I2CL_Read+0x1b4>
        printf("OC_I2CL_Read error[3]\r\n");
   20f58:	010000f4 	movhi	r4,3
   20f5c:	21112704 	addi	r4,r4,17564
   20f60:	0025f0c0 	call	25f0c <puts>
        return FALSE;
   20f64:	0005883a 	mov	r2,zero
   20f68:	00002e06 	br	21024 <OC_I2CL_Read+0x26c>
//   printf("\n read receive ACK-device address(read)! \n");

       //read the rxr data

#if 1
    for(i=0;i<nReadLength;i++){
   20f6c:	e03ff915 	stw	zero,-28(fp)
   20f70:	00001f06 	br	20ff0 <OC_I2CL_Read+0x238>
  // printf("\n read receive ACK-device address(read)! \n");
   //set the RD and ACK bit(bit5 and bit3)
    	IOWR( i2c_base, 4,((i+1) == nReadLength)?0x28:0x20);
   20f74:	e0bffc17 	ldw	r2,-16(fp)
   20f78:	10800404 	addi	r2,r2,16
   20f7c:	1009883a 	mov	r4,r2
   20f80:	e0bff917 	ldw	r2,-28(fp)
   20f84:	10c00044 	addi	r3,r2,1
   20f88:	e0800217 	ldw	r2,8(fp)
   20f8c:	1880021e 	bne	r3,r2,20f98 <OC_I2CL_Read+0x1e0>
   20f90:	00800a04 	movi	r2,40
   20f94:	00000106 	br	20f9c <OC_I2CL_Read+0x1e4>
   20f98:	00800804 	movi	r2,32
   20f9c:	20800035 	stwio	r2,0(r4)

        if (!ACK_judge_for_read( i2c_base)){
   20fa0:	e13ffc17 	ldw	r4,-16(fp)
   20fa4:	00208400 	call	20840 <ACK_judge_for_read>
   20fa8:	1000051e 	bne	r2,zero,20fc0 <OC_I2CL_Read+0x208>
            printf("OC_I2CL_Read error[4]\r\n");
   20fac:	010000f4 	movhi	r4,3
   20fb0:	21112d04 	addi	r4,r4,17588
   20fb4:	0025f0c0 	call	25f0c <puts>
            return FALSE;
   20fb8:	0005883a 	mov	r2,zero
   20fbc:	00001906 	br	21024 <OC_I2CL_Read+0x26c>
        }
   // printf("\n read receive ACK-device address(read)! \n");

        Data32=IORD( i2c_base, 3);
   20fc0:	e0bffc17 	ldw	r2,-16(fp)
   20fc4:	10800304 	addi	r2,r2,12
   20fc8:	10800037 	ldwio	r2,0(r2)
   20fcc:	e0bffb15 	stw	r2,-20(fp)
        *(pData8+i) =  Data32 & 0xff;
   20fd0:	e0bff917 	ldw	r2,-28(fp)
   20fd4:	e0ffff17 	ldw	r3,-4(fp)
   20fd8:	1885883a 	add	r2,r3,r2
   20fdc:	e0fffb17 	ldw	r3,-20(fp)
   20fe0:	10c00005 	stb	r3,0(r2)
//   printf("\n read receive ACK-device address(read)! \n");

       //read the rxr data

#if 1
    for(i=0;i<nReadLength;i++){
   20fe4:	e0bff917 	ldw	r2,-28(fp)
   20fe8:	10800044 	addi	r2,r2,1
   20fec:	e0bff915 	stw	r2,-28(fp)
   20ff0:	e0fff917 	ldw	r3,-28(fp)
   20ff4:	e0800217 	ldw	r2,8(fp)
   20ff8:	18bfde16 	blt	r3,r2,20f74 <__alt_data_end+0xfffe0f74>
    DataLow =  Data32 & 0xff;

    pData16 = (DataHigh << 8) | DataLow;
#endif

   if (!Write32_Data( i2c_base, 4,0x40))
   20ffc:	e13ffc17 	ldw	r4,-16(fp)
   21000:	01400104 	movi	r5,4
   21004:	01801004 	movi	r6,64
   21008:	002028c0 	call	2028c <Write32_Data>
   2100c:	1000021e 	bne	r2,zero,21018 <OC_I2CL_Read+0x260>
       return FALSE;
   21010:	0005883a 	mov	r2,zero
   21014:	00000306 	br	21024 <OC_I2CL_Read+0x26c>

   //OS_msleep(1);
    usleep(SLEEP_TIME);
   21018:	01003e84 	movi	r4,250
   2101c:	00322500 	call	32250 <usleep>

   return TRUE;
   21020:	00800044 	movi	r2,1

}
   21024:	e037883a 	mov	sp,fp
   21028:	dfc00117 	ldw	ra,4(sp)
   2102c:	df000017 	ldw	fp,0(sp)
   21030:	dec00204 	addi	sp,sp,8
   21034:	f800283a 	ret

00021038 <Focus_Init>:
// please observe focus performance when change the scal ,scal_f. or when change camera frame rate
alt_u8  focus_scal   =   4;  // scan 0 -> 1023 , step: SCAL , to find STEP_UP
alt_u8  focus_scal_f =   1;  //  scan STEP_UP + - SCAL/2 , step: SCAL_F
alt_u8  focus_th     =   20;

void Focus_Init(config_t *pConfig){
   21038:	defffd04 	addi	sp,sp,-12
   2103c:	dfc00215 	stw	ra,8(sp)
   21040:	df000115 	stw	fp,4(sp)
   21044:	df000104 	addi	fp,sp,4
   21048:	e13fff15 	stw	r4,-4(fp)
  // please look at TERASIC_AUTO_FOCUS IP to see register's detail.
  IOWR(pConfig->focus_ip_base,REG_CTRL, 0);// focus mode : 1: window-screen, 0: full-screen
   2104c:	e0bfff17 	ldw	r2,-4(fp)
   21050:	10800217 	ldw	r2,8(r2)
   21054:	10800104 	addi	r2,r2,4
   21058:	0007883a 	mov	r3,zero
   2105c:	10c00035 	stwio	r3,0(r2)
  IOWR(pConfig->focus_ip_base,REG_FOCUS_W, focus_width);// focus_width
   21060:	e0bfff17 	ldw	r2,-4(fp)
   21064:	10800217 	ldw	r2,8(r2)
   21068:	10800204 	addi	r2,r2,8
   2106c:	1007883a 	mov	r3,r2
   21070:	d0a0010b 	ldhu	r2,-32764(gp)
   21074:	10bfffcc 	andi	r2,r2,65535
   21078:	18800035 	stwio	r2,0(r3)
  IOWR(pConfig->focus_ip_base,REG_FOCUS_H, focus_height);// focus_height
   2107c:	e0bfff17 	ldw	r2,-4(fp)
   21080:	10800217 	ldw	r2,8(r2)
   21084:	10800304 	addi	r2,r2,12
   21088:	1007883a 	mov	r3,r2
   2108c:	d0a0018b 	ldhu	r2,-32762(gp)
   21090:	10bfffcc 	andi	r2,r2,65535
   21094:	18800035 	stwio	r2,0(r3)
  IOWR(pConfig->focus_ip_base,REG_FOCUS_X_START, video_w/2-focus_width/2);//x_start
   21098:	e0bfff17 	ldw	r2,-4(fp)
   2109c:	10800217 	ldw	r2,8(r2)
   210a0:	10800404 	addi	r2,r2,16
   210a4:	1009883a 	mov	r4,r2
   210a8:	d0a0000b 	ldhu	r2,-32768(gp)
   210ac:	10bfffcc 	andi	r2,r2,65535
   210b0:	1004d07a 	srli	r2,r2,1
   210b4:	10ffffcc 	andi	r3,r2,65535
   210b8:	d0a0010b 	ldhu	r2,-32764(gp)
   210bc:	10bfffcc 	andi	r2,r2,65535
   210c0:	1004d07a 	srli	r2,r2,1
   210c4:	10bfffcc 	andi	r2,r2,65535
   210c8:	1885c83a 	sub	r2,r3,r2
   210cc:	20800035 	stwio	r2,0(r4)
  IOWR(pConfig->focus_ip_base,REG_FOCUS_Y_START, video_h/2-focus_height/2);// y_start
   210d0:	e0bfff17 	ldw	r2,-4(fp)
   210d4:	10800217 	ldw	r2,8(r2)
   210d8:	10800504 	addi	r2,r2,20
   210dc:	1009883a 	mov	r4,r2
   210e0:	d0a0008b 	ldhu	r2,-32766(gp)
   210e4:	10bfffcc 	andi	r2,r2,65535
   210e8:	1004d07a 	srli	r2,r2,1
   210ec:	10ffffcc 	andi	r3,r2,65535
   210f0:	d0a0018b 	ldhu	r2,-32762(gp)
   210f4:	10bfffcc 	andi	r2,r2,65535
   210f8:	1004d07a 	srli	r2,r2,1
   210fc:	10bfffcc 	andi	r2,r2,65535
   21100:	1885c83a 	sub	r2,r3,r2
   21104:	20800035 	stwio	r2,0(r4)

  IOWR(pConfig->focus_ip_base,REG_SCAL, focus_scal*256 + focus_scal_f); // scan 0 -> 1023 , step: SCAL , to find STEP_UP
   21108:	e0bfff17 	ldw	r2,-4(fp)
   2110c:	10800217 	ldw	r2,8(r2)
   21110:	10800604 	addi	r2,r2,24
   21114:	1009883a 	mov	r4,r2
   21118:	d0a00203 	ldbu	r2,-32760(gp)
   2111c:	10803fcc 	andi	r2,r2,255
   21120:	1006923a 	slli	r3,r2,8
   21124:	d0a00243 	ldbu	r2,-32759(gp)
   21128:	10803fcc 	andi	r2,r2,255
   2112c:	1885883a 	add	r2,r3,r2
   21130:	20800035 	stwio	r2,0(r4)
                                                                          //  scan STEP_UP + - SCAL/2 , step: SCAL_F
  IOWR(pConfig->focus_ip_base,REG_TH, focus_th);
   21134:	e0bfff17 	ldw	r2,-4(fp)
   21138:	10800217 	ldw	r2,8(r2)
   2113c:	10800704 	addi	r2,r2,28
   21140:	1007883a 	mov	r3,r2
   21144:	d0a00283 	ldbu	r2,-32758(gp)
   21148:	10803fcc 	andi	r2,r2,255
   2114c:	18800035 	stwio	r2,0(r3)

  //////////// focus at initial time
  usleep(100);
   21150:	01001904 	movi	r4,100
   21154:	00322500 	call	32250 <usleep>
  IOWR(pConfig->focus_ip_base,REG_GO, 1);
   21158:	e0bfff17 	ldw	r2,-4(fp)
   2115c:	10800217 	ldw	r2,8(r2)
   21160:	1007883a 	mov	r3,r2
   21164:	00800044 	movi	r2,1
   21168:	18800035 	stwio	r2,0(r3)
  usleep(2);
   2116c:	01000084 	movi	r4,2
   21170:	00322500 	call	32250 <usleep>
  IOWR(pConfig->focus_ip_base,REG_GO, 0);
   21174:	e0bfff17 	ldw	r2,-4(fp)
   21178:	10800217 	ldw	r2,8(r2)
   2117c:	0007883a 	mov	r3,zero
   21180:	10c00035 	stwio	r3,0(r2)
}
   21184:	e037883a 	mov	sp,fp
   21188:	dfc00117 	ldw	ra,4(sp)
   2118c:	df000017 	ldw	fp,0(sp)
   21190:	dec00204 	addi	sp,sp,8
   21194:	f800283a 	ret

00021198 <Focus_Window>:

alt_u16 Focus_Window(config_t *pConfig,int x,int y){
   21198:	defff904 	addi	sp,sp,-28
   2119c:	dfc00615 	stw	ra,24(sp)
   211a0:	df000515 	stw	fp,20(sp)
   211a4:	df000504 	addi	fp,sp,20
   211a8:	e13ffd15 	stw	r4,-12(fp)
   211ac:	e17ffe15 	stw	r5,-8(fp)
   211b0:	e1bfff15 	stw	r6,-4(fp)
   alt_u16 x_start,y_start;
   alt_u16 end_focus = 300;
   211b4:	00804b04 	movi	r2,300
   211b8:	e0bffc0d 	sth	r2,-16(fp)

   if(Focus_Released(pConfig)) { // pre focus done
   211bc:	e13ffd17 	ldw	r4,-12(fp)
   211c0:	00213bc0 	call	213bc <Focus_Released>
   211c4:	10007726 	beq	r2,zero,213a4 <Focus_Window+0x20c>
	   IOWR(pConfig->focus_ip_base,REG_CTRL, 1);// focus mode : 1: window-screen, 0: full-screen
   211c8:	e0bffd17 	ldw	r2,-12(fp)
   211cc:	10800217 	ldw	r2,8(r2)
   211d0:	10800104 	addi	r2,r2,4
   211d4:	1007883a 	mov	r3,r2
   211d8:	00800044 	movi	r2,1
   211dc:	18800035 	stwio	r2,0(r3)

	   if(( x -  focus_width/2) < 0 ) x_start = 0;
   211e0:	d0a0010b 	ldhu	r2,-32764(gp)
   211e4:	10bfffcc 	andi	r2,r2,65535
   211e8:	1004d07a 	srli	r2,r2,1
   211ec:	10bfffcc 	andi	r2,r2,65535
   211f0:	e0fffe17 	ldw	r3,-8(fp)
   211f4:	1885c83a 	sub	r2,r3,r2
   211f8:	1000020e 	bge	r2,zero,21204 <Focus_Window+0x6c>
   211fc:	e03ffb0d 	sth	zero,-20(fp)
   21200:	00001606 	br	2125c <Focus_Window+0xc4>
	   else if(( x + focus_width/2 ) > video_w )  x_start = video_w -1 -focus_width;
   21204:	d0a0010b 	ldhu	r2,-32764(gp)
   21208:	10bfffcc 	andi	r2,r2,65535
   2120c:	1004d07a 	srli	r2,r2,1
   21210:	10ffffcc 	andi	r3,r2,65535
   21214:	e0bffe17 	ldw	r2,-8(fp)
   21218:	1885883a 	add	r2,r3,r2
   2121c:	d0e0000b 	ldhu	r3,-32768(gp)
   21220:	18ffffcc 	andi	r3,r3,65535
   21224:	1880060e 	bge	r3,r2,21240 <Focus_Window+0xa8>
   21228:	d0e0000b 	ldhu	r3,-32768(gp)
   2122c:	d0a0010b 	ldhu	r2,-32764(gp)
   21230:	1885c83a 	sub	r2,r3,r2
   21234:	10bfffc4 	addi	r2,r2,-1
   21238:	e0bffb0d 	sth	r2,-20(fp)
   2123c:	00000706 	br	2125c <Focus_Window+0xc4>
	   else x_start = x - focus_width/2;
   21240:	e0bffe17 	ldw	r2,-8(fp)
   21244:	1007883a 	mov	r3,r2
   21248:	d0a0010b 	ldhu	r2,-32764(gp)
   2124c:	10bfffcc 	andi	r2,r2,65535
   21250:	1004d07a 	srli	r2,r2,1
   21254:	1885c83a 	sub	r2,r3,r2
   21258:	e0bffb0d 	sth	r2,-20(fp)

	   if(( y -  focus_height/2) < 0 ) y_start = 0;
   2125c:	d0a0018b 	ldhu	r2,-32762(gp)
   21260:	10bfffcc 	andi	r2,r2,65535
   21264:	1004d07a 	srli	r2,r2,1
   21268:	10bfffcc 	andi	r2,r2,65535
   2126c:	e0ffff17 	ldw	r3,-4(fp)
   21270:	1885c83a 	sub	r2,r3,r2
   21274:	1000020e 	bge	r2,zero,21280 <Focus_Window+0xe8>
   21278:	e03ffb8d 	sth	zero,-18(fp)
   2127c:	00001606 	br	212d8 <Focus_Window+0x140>
	   else if(( y + focus_height/2 ) > video_h )  y_start = video_h -1 -focus_height;
   21280:	d0a0018b 	ldhu	r2,-32762(gp)
   21284:	10bfffcc 	andi	r2,r2,65535
   21288:	1004d07a 	srli	r2,r2,1
   2128c:	10ffffcc 	andi	r3,r2,65535
   21290:	e0bfff17 	ldw	r2,-4(fp)
   21294:	1885883a 	add	r2,r3,r2
   21298:	d0e0008b 	ldhu	r3,-32766(gp)
   2129c:	18ffffcc 	andi	r3,r3,65535
   212a0:	1880060e 	bge	r3,r2,212bc <Focus_Window+0x124>
   212a4:	d0e0008b 	ldhu	r3,-32766(gp)
   212a8:	d0a0018b 	ldhu	r2,-32762(gp)
   212ac:	1885c83a 	sub	r2,r3,r2
   212b0:	10bfffc4 	addi	r2,r2,-1
   212b4:	e0bffb8d 	sth	r2,-18(fp)
   212b8:	00000706 	br	212d8 <Focus_Window+0x140>
	   else y_start = y - focus_height/2;
   212bc:	e0bfff17 	ldw	r2,-4(fp)
   212c0:	1007883a 	mov	r3,r2
   212c4:	d0a0018b 	ldhu	r2,-32762(gp)
   212c8:	10bfffcc 	andi	r2,r2,65535
   212cc:	1004d07a 	srli	r2,r2,1
   212d0:	1885c83a 	sub	r2,r3,r2
   212d4:	e0bffb8d 	sth	r2,-18(fp)

	   printf("[%s]: x_start= %d,y_start= %d\n",pConfig->str,x_start,y_start);
   212d8:	e0bffd17 	ldw	r2,-12(fp)
   212dc:	11400544 	addi	r5,r2,21
   212e0:	e0fffb0b 	ldhu	r3,-20(fp)
   212e4:	e0bffb8b 	ldhu	r2,-18(fp)
   212e8:	010000f4 	movhi	r4,3
   212ec:	21113304 	addi	r4,r4,17612
   212f0:	180d883a 	mov	r6,r3
   212f4:	100f883a 	mov	r7,r2
   212f8:	0025df80 	call	25df8 <printf>

	   IOWR(pConfig->focus_ip_base,REG_FOCUS_X_START, x_start);//x_start
   212fc:	e0bffd17 	ldw	r2,-12(fp)
   21300:	10800217 	ldw	r2,8(r2)
   21304:	10800404 	addi	r2,r2,16
   21308:	1007883a 	mov	r3,r2
   2130c:	e0bffb0b 	ldhu	r2,-20(fp)
   21310:	18800035 	stwio	r2,0(r3)
	   IOWR(pConfig->focus_ip_base,REG_FOCUS_Y_START, y_start);//y_start
   21314:	e0bffd17 	ldw	r2,-12(fp)
   21318:	10800217 	ldw	r2,8(r2)
   2131c:	10800504 	addi	r2,r2,20
   21320:	1007883a 	mov	r3,r2
   21324:	e0bffb8b 	ldhu	r2,-18(fp)
   21328:	18800035 	stwio	r2,0(r3)

	   usleep(10);
   2132c:	01000284 	movi	r4,10
   21330:	00322500 	call	32250 <usleep>

	   IOWR(pConfig->focus_ip_base,REG_GO, 1);
   21334:	e0bffd17 	ldw	r2,-12(fp)
   21338:	10800217 	ldw	r2,8(r2)
   2133c:	1007883a 	mov	r3,r2
   21340:	00800044 	movi	r2,1
   21344:	18800035 	stwio	r2,0(r3)
	   usleep(10);
   21348:	01000284 	movi	r4,10
   2134c:	00322500 	call	32250 <usleep>
	   IOWR(pConfig->focus_ip_base,REG_GO, 0);
   21350:	e0bffd17 	ldw	r2,-12(fp)
   21354:	10800217 	ldw	r2,8(r2)
   21358:	0007883a 	mov	r3,zero
   2135c:	10c00035 	stwio	r3,0(r2)
	   Focus_Released(pConfig);
   21360:	e13ffd17 	ldw	r4,-12(fp)
   21364:	00213bc0 	call	213bc <Focus_Released>

	   end_focus = IORD(pConfig->focus_ip_base,REG_STATUS)&0x0FFF;
   21368:	e0bffd17 	ldw	r2,-12(fp)
   2136c:	10800217 	ldw	r2,8(r2)
   21370:	10800037 	ldwio	r2,0(r2)
   21374:	1083ffcc 	andi	r2,r2,4095
   21378:	e0bffc0d 	sth	r2,-16(fp)
	   printf("[%s]: end_focus = %d \n",pConfig->str,end_focus);
   2137c:	e0bffd17 	ldw	r2,-12(fp)
   21380:	10c00544 	addi	r3,r2,21
   21384:	e0bffc0b 	ldhu	r2,-16(fp)
   21388:	010000f4 	movhi	r4,3
   2138c:	21113b04 	addi	r4,r4,17644
   21390:	180b883a 	mov	r5,r3
   21394:	100d883a 	mov	r6,r2
   21398:	0025df80 	call	25df8 <printf>

	   return end_focus;
   2139c:	e0bffc0b 	ldhu	r2,-16(fp)
   213a0:	00000106 	br	213a8 <Focus_Window+0x210>

   }
   return end_focus;
   213a4:	e0bffc0b 	ldhu	r2,-16(fp)

}
   213a8:	e037883a 	mov	sp,fp
   213ac:	dfc00117 	ldw	ra,4(sp)
   213b0:	df000017 	ldw	fp,0(sp)
   213b4:	dec00204 	addi	sp,sp,8
   213b8:	f800283a 	ret

000213bc <Focus_Released>:

int Focus_Released(config_t *pConfig){
   213bc:	defffb04 	addi	sp,sp,-20
   213c0:	dfc00415 	stw	ra,16(sp)
   213c4:	df000315 	stw	fp,12(sp)
   213c8:	df000304 	addi	fp,sp,12
   213cc:	e13fff15 	stw	r4,-4(fp)
  int Released = FALSE;
   213d0:	e03ffd15 	stw	zero,-12(fp)
 * alt_nticks() returns the elapsed number of system clock ticks since reset.
 */

static ALT_INLINE alt_u32 ALT_ALWAYS_INLINE alt_nticks (void)
{
  return _alt_nticks;
   213d4:	00800134 	movhi	r2,4
   213d8:	10a4e204 	addi	r2,r2,-27768
   213dc:	10c00017 	ldw	r3,0(r2)
 * Obtain the system clock rate in ticks/s. 
 */

static ALT_INLINE alt_u32 ALT_ALWAYS_INLINE alt_ticks_per_second (void)
{
  return _alt_tick_rate;
   213e0:	00800134 	movhi	r2,4
   213e4:	10a4e104 	addi	r2,r2,-27772
   213e8:	10800017 	ldw	r2,0(r2)
  alt_u32 TimeOut;

  TimeOut = alt_nticks() + alt_ticks_per_second()*8;
   213ec:	100490fa 	slli	r2,r2,3
   213f0:	1885883a 	add	r2,r3,r2
   213f4:	e0bffe15 	stw	r2,-8(fp)

  while((IORD(pConfig->focus_ip_base,REG_STATUS)&0x8000) ==0 && alt_nticks() < TimeOut ); // waiting for VCM release I2C bus
   213f8:	0001883a 	nop
   213fc:	e0bfff17 	ldw	r2,-4(fp)
   21400:	10800217 	ldw	r2,8(r2)
   21404:	10800037 	ldwio	r2,0(r2)
   21408:	10a0000c 	andi	r2,r2,32768
   2140c:	1000051e 	bne	r2,zero,21424 <Focus_Released+0x68>
 * alt_nticks() returns the elapsed number of system clock ticks since reset.
 */

static ALT_INLINE alt_u32 ALT_ALWAYS_INLINE alt_nticks (void)
{
  return _alt_nticks;
   21410:	00800134 	movhi	r2,4
   21414:	10a4e204 	addi	r2,r2,-27768
   21418:	10c00017 	ldw	r3,0(r2)
   2141c:	e0bffe17 	ldw	r2,-8(fp)
   21420:	18bff636 	bltu	r3,r2,213fc <__alt_data_end+0xfffe13fc>
   21424:	00800134 	movhi	r2,4
   21428:	10a4e204 	addi	r2,r2,-27768
   2142c:	10c00017 	ldw	r3,0(r2)

  if(alt_nticks() < TimeOut ) Released = TRUE;
   21430:	e0bffe17 	ldw	r2,-8(fp)
   21434:	1880032e 	bgeu	r3,r2,21444 <Focus_Released+0x88>
   21438:	00800044 	movi	r2,1
   2143c:	e0bffd15 	stw	r2,-12(fp)
   21440:	00000306 	br	21450 <Focus_Released+0x94>
  else printf("\n =>Released check TimeOut!\n");
   21444:	010000f4 	movhi	r4,3
   21448:	21114104 	addi	r4,r4,17668
   2144c:	0025f0c0 	call	25f0c <puts>

  usleep(100);
   21450:	01001904 	movi	r4,100
   21454:	00322500 	call	32250 <usleep>

  return Released;
   21458:	e0bffd17 	ldw	r2,-12(fp)
}
   2145c:	e037883a 	mov	sp,fp
   21460:	dfc00117 	ldw	ra,4(sp)
   21464:	df000017 	ldw	fp,0(sp)
   21468:	dec00204 	addi	sp,sp,8
   2146c:	f800283a 	ret

00021470 <camera_config_init>:
#define DEFAULT_FOCUS 300

config_t camera0_config;
config_t camera1_config;

void camera_config_init(void){
   21470:	deffff04 	addi	sp,sp,-4
   21474:	df000015 	stw	fp,0(sp)
   21478:	d839883a 	mov	fp,sp

	camera0_config.bridge_i2c_base = I2C_OPENCORES_MIPI_BASE;
   2147c:	00800134 	movhi	r2,4
   21480:	10a4fd04 	addi	r2,r2,-27660
   21484:	00c00134 	movhi	r3,4
   21488:	18c57004 	addi	r3,r3,5568
   2148c:	10c00015 	stw	r3,0(r2)
	camera0_config.camera_i2c_base = I2C_OPENCORES_CAMERA_BASE;
   21490:	00800134 	movhi	r2,4
   21494:	10a4fd04 	addi	r2,r2,-27660
   21498:	00c00134 	movhi	r3,4
   2149c:	18c56804 	addi	r3,r3,5536
   214a0:	10c00115 	stw	r3,4(r2)
	camera0_config.focus_ip_base   = TERASIC_AUTO_FOCUS_0_BASE;
   214a4:	00800134 	movhi	r2,4
   214a8:	10a4fd04 	addi	r2,r2,-27660
   214ac:	00c00134 	movhi	r3,4
   214b0:	18c54804 	addi	r3,r3,5408
   214b4:	10c00215 	stw	r3,8(r2)
	camera0_config.scalerii_base = ALT_VIP_CL_SCL_0_BASE;
   214b8:	00800134 	movhi	r2,4
   214bc:	10a4fd04 	addi	r2,r2,-27660
   214c0:	00c00134 	movhi	r3,4
   214c4:	18c48004 	addi	r3,r3,4608
   214c8:	10c00315 	stw	r3,12(r2)
	camera0_config.zoom_level      = DEFAULT_LEVEL;
   214cc:	00800134 	movhi	r2,4
   214d0:	10a4fd04 	addi	r2,r2,-27660
   214d4:	00c00084 	movi	r3,2
   214d8:	10c00405 	stb	r3,16(r2)
	camera0_config.focus_level     = DEFAULT_FOCUS;
   214dc:	00800134 	movhi	r2,4
   214e0:	10a4fd04 	addi	r2,r2,-27660
   214e4:	00c04b04 	movi	r3,300
   214e8:	10c0048d 	sth	r3,18(r2)
	camera0_config.scalerii_run          = 1;
   214ec:	00800134 	movhi	r2,4
   214f0:	10a4fd04 	addi	r2,r2,-27660
   214f4:	00c00044 	movi	r3,1
   214f8:	10c00505 	stb	r3,20(r2)
	strcpy(camera0_config.str,"Camera 0");
   214fc:	00800134 	movhi	r2,4
   21500:	10a50244 	addi	r2,r2,-27639
   21504:	00c010c4 	movi	r3,67
   21508:	10c00005 	stb	r3,0(r2)
   2150c:	00c01844 	movi	r3,97
   21510:	10c00045 	stb	r3,1(r2)
   21514:	00c01b44 	movi	r3,109
   21518:	10c00085 	stb	r3,2(r2)
   2151c:	00c01944 	movi	r3,101
   21520:	10c000c5 	stb	r3,3(r2)
   21524:	00c01c84 	movi	r3,114
   21528:	10c00105 	stb	r3,4(r2)
   2152c:	00c01844 	movi	r3,97
   21530:	10c00145 	stb	r3,5(r2)
   21534:	00c00804 	movi	r3,32
   21538:	10c00185 	stb	r3,6(r2)
   2153c:	00c00c04 	movi	r3,48
   21540:	10c001c5 	stb	r3,7(r2)
   21544:	10000205 	stb	zero,8(r2)

	camera1_config.bridge_i2c_base = I2C_OPENCORES_MIPI_1_BASE;
   21548:	00800134 	movhi	r2,4
   2154c:	10a4ef04 	addi	r2,r2,-27716
   21550:	00c00134 	movhi	r3,4
   21554:	18c56004 	addi	r3,r3,5504
   21558:	10c00015 	stw	r3,0(r2)
	camera1_config.camera_i2c_base = I2C_OPENCORES_CAMERA_1_BASE;
   2155c:	00800134 	movhi	r2,4
   21560:	10a4ef04 	addi	r2,r2,-27716
   21564:	00c00134 	movhi	r3,4
   21568:	18c55804 	addi	r3,r3,5472
   2156c:	10c00115 	stw	r3,4(r2)
	camera1_config.focus_ip_base   = TERASIC_AUTO_FOCUS_1_BASE;
   21570:	00800134 	movhi	r2,4
   21574:	10a4ef04 	addi	r2,r2,-27716
   21578:	00c00134 	movhi	r3,4
   2157c:	18c55004 	addi	r3,r3,5440
   21580:	10c00215 	stw	r3,8(r2)
	camera1_config.scalerii_base = ALT_VIP_CL_SCL_1_BASE;
   21584:	00800134 	movhi	r2,4
   21588:	10a4ef04 	addi	r2,r2,-27716
   2158c:	00c00134 	movhi	r3,4
   21590:	18c40004 	addi	r3,r3,4096
   21594:	10c00315 	stw	r3,12(r2)
	camera1_config.zoom_level      = DEFAULT_LEVEL;
   21598:	00800134 	movhi	r2,4
   2159c:	10a4ef04 	addi	r2,r2,-27716
   215a0:	00c00084 	movi	r3,2
   215a4:	10c00405 	stb	r3,16(r2)
	camera1_config.focus_level     = DEFAULT_FOCUS;
   215a8:	00800134 	movhi	r2,4
   215ac:	10a4ef04 	addi	r2,r2,-27716
   215b0:	00c04b04 	movi	r3,300
   215b4:	10c0048d 	sth	r3,18(r2)
	camera1_config.scalerii_run          = 1;
   215b8:	00800134 	movhi	r2,4
   215bc:	10a4ef04 	addi	r2,r2,-27716
   215c0:	00c00044 	movi	r3,1
   215c4:	10c00505 	stb	r3,20(r2)
	strcpy(camera1_config.str,"Camera 1");
   215c8:	00800134 	movhi	r2,4
   215cc:	10a4f444 	addi	r2,r2,-27695
   215d0:	00c010c4 	movi	r3,67
   215d4:	10c00005 	stb	r3,0(r2)
   215d8:	00c01844 	movi	r3,97
   215dc:	10c00045 	stb	r3,1(r2)
   215e0:	00c01b44 	movi	r3,109
   215e4:	10c00085 	stb	r3,2(r2)
   215e8:	00c01944 	movi	r3,101
   215ec:	10c000c5 	stb	r3,3(r2)
   215f0:	00c01c84 	movi	r3,114
   215f4:	10c00105 	stb	r3,4(r2)
   215f8:	00c01844 	movi	r3,97
   215fc:	10c00145 	stb	r3,5(r2)
   21600:	00c00804 	movi	r3,32
   21604:	10c00185 	stb	r3,6(r2)
   21608:	00c00c44 	movi	r3,49
   2160c:	10c001c5 	stb	r3,7(r2)
   21610:	10000205 	stb	zero,8(r2)

}
   21614:	e037883a 	mov	sp,fp
   21618:	df000017 	ldw	fp,0(sp)
   2161c:	dec00104 	addi	sp,sp,4
   21620:	f800283a 	ret

00021624 <D8Mx2_Init>:

void D8Mx2_Init(void){
   21624:	defffe04 	addi	sp,sp,-8
   21628:	dfc00115 	stw	ra,4(sp)
   2162c:	df000015 	stw	fp,0(sp)
   21630:	d839883a 	mov	fp,sp


    IOWR(MIPI_PWDN_N_BASE, 0x00, 0x00);
   21634:	0007883a 	mov	r3,zero
   21638:	00800134 	movhi	r2,4
   2163c:	10857804 	addi	r2,r2,5600
   21640:	10c00035 	stwio	r3,0(r2)
    IOWR(MIPI_RESET_N_BASE, 0x00, 0x00);
   21644:	0007883a 	mov	r3,zero
   21648:	00800134 	movhi	r2,4
   2164c:	10857c04 	addi	r2,r2,5616
   21650:	10c00035 	stwio	r3,0(r2)
    usleep(200);
   21654:	01003204 	movi	r4,200
   21658:	00322500 	call	32250 <usleep>
    IOWR(MIPI_PWDN_N_BASE, 0x00, 0xFF);
   2165c:	00c03fc4 	movi	r3,255
   21660:	00800134 	movhi	r2,4
   21664:	10857804 	addi	r2,r2,5600
   21668:	10c00035 	stwio	r3,0(r2)
    usleep(200);
   2166c:	01003204 	movi	r4,200
   21670:	00322500 	call	32250 <usleep>
    IOWR(MIPI_RESET_N_BASE, 0x00, 0xFF);
   21674:	00c03fc4 	movi	r3,255
   21678:	00800134 	movhi	r2,4
   2167c:	10857c04 	addi	r2,r2,5616
   21680:	10c00035 	stwio	r3,0(r2)


    usleep(50*1000);
   21684:	0130d414 	movui	r4,50000
   21688:	00322500 	call	32250 <usleep>
    MipiBridgeInit(&camera0_config);
   2168c:	01000134 	movhi	r4,4
   21690:	2124fd04 	addi	r4,r4,-27660
   21694:	0021d7c0 	call	21d7c <MipiBridgeInit>
    MipiBridgeInit(&camera1_config);
   21698:	01000134 	movhi	r4,4
   2169c:	2124ef04 	addi	r4,r4,-27716
   216a0:	0021d7c0 	call	21d7c <MipiBridgeInit>

    usleep(500*1000);
   216a4:	01000234 	movhi	r4,8
   216a8:	21284804 	addi	r4,r4,-24288
   216ac:	00322500 	call	32250 <usleep>
    MipiCameraInit(&camera0_config);
   216b0:	01000134 	movhi	r4,4
   216b4:	2124fd04 	addi	r4,r4,-27660
   216b8:	00227040 	call	22704 <MipiCameraInit>
    MipiCameraInit(&camera1_config);
   216bc:	01000134 	movhi	r4,4
   216c0:	2124ef04 	addi	r4,r4,-27716
   216c4:	00227040 	call	22704 <MipiCameraInit>

    camera_bin_level(&camera0_config,DEFAULT_LEVEL);
   216c8:	01000134 	movhi	r4,4
   216cc:	2124fd04 	addi	r4,r4,-27660
   216d0:	01400084 	movi	r5,2
   216d4:	00224e80 	call	224e8 <camera_bin_level>
    camera_bin_level(&camera1_config,DEFAULT_LEVEL);
   216d8:	01000134 	movhi	r4,4
   216dc:	2124ef04 	addi	r4,r4,-27716
   216e0:	01400084 	movi	r5,2
   216e4:	00224e80 	call	224e8 <camera_bin_level>
 	usleep(1000);
   216e8:	0100fa04 	movi	r4,1000
   216ec:	00322500 	call	32250 <usleep>


    // status check
 	    mipi_clear_error(&camera0_config);
   216f0:	01000134 	movhi	r4,4
   216f4:	2124fd04 	addi	r4,r4,-27660
   216f8:	0021f000 	call	21f00 <mipi_clear_error>
		mipi_clear_error(&camera1_config);
   216fc:	01000134 	movhi	r4,4
   21700:	2124ef04 	addi	r4,r4,-27716
   21704:	0021f000 	call	21f00 <mipi_clear_error>
		usleep(50*1000);
   21708:	0130d414 	movui	r4,50000
   2170c:	00322500 	call	32250 <usleep>
 	    mipi_clear_error(&camera0_config);
   21710:	01000134 	movhi	r4,4
   21714:	2124fd04 	addi	r4,r4,-27660
   21718:	0021f000 	call	21f00 <mipi_clear_error>
		mipi_clear_error(&camera1_config);
   2171c:	01000134 	movhi	r4,4
   21720:	2124ef04 	addi	r4,r4,-27716
   21724:	0021f000 	call	21f00 <mipi_clear_error>

	 	usleep(1000*1000); // wait 1s
   21728:	010003f4 	movhi	r4,15
   2172c:	21109004 	addi	r4,r4,16960
   21730:	00322500 	call	32250 <usleep>

        printf("\r\nCamera 0 status:\r\n");
   21734:	010000f4 	movhi	r4,3
   21738:	21114904 	addi	r4,r4,17700
   2173c:	0025f0c0 	call	25f0c <puts>
	    mipi_show_error_info(&camera0_config);
   21740:	01000134 	movhi	r4,4
   21744:	2124fd04 	addi	r4,r4,-27660
   21748:	0021fe80 	call	21fe8 <mipi_show_error_info>
//	    mipi_show_error_info_more(I2C_OPENCORES_MIPI_BASE);
	    printf("\n");
   2174c:	01000284 	movi	r4,10
   21750:	0025e3c0 	call	25e3c <putchar>

		printf("\r\nCamera 1 status:\r\n");
   21754:	010000f4 	movhi	r4,3
   21758:	21114e04 	addi	r4,r4,17720
   2175c:	0025f0c0 	call	25f0c <puts>
		mipi_show_error_info(&camera1_config);
   21760:	01000134 	movhi	r4,4
   21764:	2124ef04 	addi	r4,r4,-27716
   21768:	0021fe80 	call	21fe8 <mipi_show_error_info>
//	    mipi_show_error_info_more(I2C_OPENCORES_MIPI_1_BASE);
	    printf("\n");
   2176c:	01000284 	movi	r4,10
   21770:	0025e3c0 	call	25e3c <putchar>

	    Focus_Init(&camera0_config);
   21774:	01000134 	movhi	r4,4
   21778:	2124fd04 	addi	r4,r4,-27660
   2177c:	00210380 	call	21038 <Focus_Init>
	    Focus_Init(&camera1_config);
   21780:	01000134 	movhi	r4,4
   21784:	2124ef04 	addi	r4,r4,-27716
   21788:	00210380 	call	21038 <Focus_Init>


}
   2178c:	e037883a 	mov	sp,fp
   21790:	dfc00117 	ldw	ra,4(sp)
   21794:	df000017 	ldw	fp,0(sp)
   21798:	dec00204 	addi	sp,sp,8
   2179c:	f800283a 	ret

000217a0 <main>:



int main()
{
   217a0:	defffb04 	addi	sp,sp,-20
   217a4:	dfc00415 	stw	ra,16(sp)
   217a8:	df000315 	stw	fp,12(sp)
   217ac:	df000304 	addi	fp,sp,12
    alt_u16 ii = 0;
   217b0:	e03ffd0d 	sth	zero,-12(fp)

    printf("DE1-SoC two D8M Demo\n");
   217b4:	010000f4 	movhi	r4,3
   217b8:	21115304 	addi	r4,r4,17740
   217bc:	0025f0c0 	call	25f0c <puts>
    printf("Camera original resolution is %d x %d\n",CAMERA_WIDTH,CAMERA_HEIGHT);
   217c0:	010000f4 	movhi	r4,3
   217c4:	21115904 	addi	r4,r4,17764
   217c8:	0140a004 	movi	r5,640
   217cc:	01807804 	movi	r6,480
   217d0:	0025df80 	call	25df8 <printf>
    printf("BackGround(Mixerii) resolution is %d x %d\n",MIXERII_WIDTH,MIXERII_HEIGHT);
   217d4:	010000f4 	movhi	r4,3
   217d8:	21116304 	addi	r4,r4,17804
   217dc:	0140c804 	movi	r5,800
   217e0:	01809604 	movi	r6,600
   217e4:	0025df80 	call	25df8 <printf>

	camera_config_init();
   217e8:	00214700 	call	21470 <camera_config_init>

    PinP_init();
   217ec:	0022d640 	call	22d64 <PinP_init>

    D8Mx2_Init();
   217f0:	00216240 	call	21624 <D8Mx2_Init>



    printf("After two Camera Configured! PWDN_n low for hardware standby two camera  \n");
   217f4:	010000f4 	movhi	r4,3
   217f8:	21116e04 	addi	r4,r4,17848
   217fc:	0025f0c0 	call	25f0c <puts>
    IOWR(MIPI_PWDN_N_BASE, 0x00, 0x00);
   21800:	0007883a 	mov	r3,zero
   21804:	00800134 	movhi	r2,4
   21808:	10857804 	addi	r2,r2,5600
   2180c:	10c00035 	stwio	r3,0(r2)
    usleep(1000);
   21810:	0100fa04 	movi	r4,1000
   21814:	00322500 	call	32250 <usleep>
    IOWR(MIPI_PWDN_N_BASE, 0x00, 0xFF);
   21818:	00c03fc4 	movi	r3,255
   2181c:	00800134 	movhi	r2,4
   21820:	10857804 	addi	r2,r2,5600
   21824:	10c00035 	stwio	r3,0(r2)
    printf("Then resume for sync two camera!  \n\n\n");
   21828:	010000f4 	movhi	r4,3
   2182c:	21118104 	addi	r4,r4,17924
   21830:	0025f0c0 	call	25f0c <puts>



    printf("SW and KEY functions:\n\n");
   21834:	010000f4 	movhi	r4,3
   21838:	21118b04 	addi	r4,r4,17964
   2183c:	0025f0c0 	call	25f0c <puts>
    printf("SW1 high: Mixerii functions\n");
   21840:	010000f4 	movhi	r4,3
   21844:	21119104 	addi	r4,r4,17988
   21848:	0025f0c0 	call	25f0c <puts>
    printf("  KEY0: Mixerii display mode change\n");
   2184c:	010000f4 	movhi	r4,3
   21850:	21119804 	addi	r4,r4,18016
   21854:	0025f0c0 	call	25f0c <puts>
    printf("  KEY1: Scale camera video to right/bottom\n");
   21858:	010000f4 	movhi	r4,3
   2185c:	2111a104 	addi	r4,r4,18052
   21860:	0025f0c0 	call	25f0c <puts>
    printf("  KEY2: Scale camera video to left/top\n");
   21864:	010000f4 	movhi	r4,3
   21868:	2111ac04 	addi	r4,r4,18096
   2186c:	0025f0c0 	call	25f0c <puts>
    printf("  KEY3: Stop/Run camera0/1\n");
   21870:	010000f4 	movhi	r4,3
   21874:	2111b604 	addi	r4,r4,18136
   21878:	0025f0c0 	call	25f0c <puts>
    printf("   (Control camera0 when SW0=low, camera1 when SW0=high)\n\n");
   2187c:	010000f4 	movhi	r4,3
   21880:	2111bd04 	addi	r4,r4,18164
   21884:	0025f0c0 	call	25f0c <puts>
    printf("SW1 low: Camera focus&Zoom function\n");
   21888:	010000f4 	movhi	r4,3
   2188c:	2111cc04 	addi	r4,r4,18224
   21890:	0025f0c0 	call	25f0c <puts>
    printf("(Control camera0 when SW0=low, camera1 when SW0=high)\n");
   21894:	010000f4 	movhi	r4,3
   21898:	2111d504 	addi	r4,r4,18260
   2189c:	0025f0c0 	call	25f0c <puts>
    printf("  KEY0: Auto Focus\n");
   218a0:	010000f4 	movhi	r4,3
   218a4:	2111e304 	addi	r4,r4,18316
   218a8:	0025f0c0 	call	25f0c <puts>
    printf("  KEY1: Manual Focus -\n");
   218ac:	010000f4 	movhi	r4,3
   218b0:	2111e804 	addi	r4,r4,18336
   218b4:	0025f0c0 	call	25f0c <puts>
    printf("  KEY2: Manual Focus +\n");
   218b8:	010000f4 	movhi	r4,3
   218bc:	2111ee04 	addi	r4,r4,18360
   218c0:	0025f0c0 	call	25f0c <puts>
    printf("  KEY3: Zoom mode \n\n\n");
   218c4:	010000f4 	movhi	r4,3
   218c8:	2111f404 	addi	r4,r4,18384
   218cc:	0025f0c0 	call	25f0c <puts>



		     //////////////////////////////////////////////////////////
		     // for focus settings
		     alt_u8   manual_focus_step = 10;
   218d0:	00800284 	movi	r2,10
   218d4:	e0bfff05 	stb	r2,-4(fp)
		     config_t *pConfig;

		     while(1){

		    	 if(IORD(SW_BASE,0)&0x2){ //SW1 high -> Mixerii functions
   218d8:	00800134 	movhi	r2,4
   218dc:	10858404 	addi	r2,r2,5648
   218e0:	10800037 	ldwio	r2,0(r2)
   218e4:	1080008c 	andi	r2,r2,2
   218e8:	10004126 	beq	r2,zero,219f0 <main+0x250>

		    	  // touch KEY0 to trigger mixer mode change
		          if((IORD(KEY_BASE,0)&0x0F) == 0x0E){
   218ec:	00800134 	movhi	r2,4
   218f0:	10858004 	addi	r2,r2,5632
   218f4:	10800037 	ldwio	r2,0(r2)
   218f8:	108003cc 	andi	r2,r2,15
   218fc:	10800398 	cmpnei	r2,r2,14
   21900:	10000a1e 	bne	r2,zero,2192c <main+0x18c>
		        	 ii++;
   21904:	e0bffd0b 	ldhu	r2,-12(fp)
   21908:	10800044 	addi	r2,r2,1
   2190c:	e0bffd0d 	sth	r2,-12(fp)
			    	 PinP_mode(ii%4);
   21910:	e0bffd0b 	ldhu	r2,-12(fp)
   21914:	108000cc 	andi	r2,r2,3
   21918:	1009883a 	mov	r4,r2
   2191c:	0022f380 	call	22f38 <PinP_mode>
		             usleep(500000);
   21920:	01000234 	movhi	r4,8
   21924:	21284804 	addi	r4,r4,-24288
   21928:	00322500 	call	32250 <usleep>
		           }

		          // touch KEY1 to trigger scale to right/bottom
		          if((IORD(KEY_BASE,0)&0x0F) == 0x0D) PinP_2camera_ajust(1);
   2192c:	00800134 	movhi	r2,4
   21930:	10858004 	addi	r2,r2,5632
   21934:	10800037 	ldwio	r2,0(r2)
   21938:	108003cc 	andi	r2,r2,15
   2193c:	10800358 	cmpnei	r2,r2,13
   21940:	1000021e 	bne	r2,zero,2194c <main+0x1ac>
   21944:	01000044 	movi	r4,1
   21948:	002365c0 	call	2365c <PinP_2camera_ajust>

		          // touch KEY2 to trigger scale to left/top
		          if((IORD(KEY_BASE,0)&0x0F) == 0x0B) PinP_2camera_ajust(0);
   2194c:	00800134 	movhi	r2,4
   21950:	10858004 	addi	r2,r2,5632
   21954:	10800037 	ldwio	r2,0(r2)
   21958:	108003cc 	andi	r2,r2,15
   2195c:	108002d8 	cmpnei	r2,r2,11
   21960:	1000021e 	bne	r2,zero,2196c <main+0x1cc>
   21964:	0009883a 	mov	r4,zero
   21968:	002365c0 	call	2365c <PinP_2camera_ajust>

		          // touch KEY3 to stop or run camera video
		          if((IORD(KEY_BASE,0)&0x0F) == 0x07){
   2196c:	00800134 	movhi	r2,4
   21970:	10858004 	addi	r2,r2,5632
   21974:	10800037 	ldwio	r2,0(r2)
   21978:	108003cc 	andi	r2,r2,15
   2197c:	108001d8 	cmpnei	r2,r2,7
   21980:	1000b21e 	bne	r2,zero,21c4c <main+0x4ac>

			    		 if(IORD(SW_BASE,0)&0x1){// SW0 high to set camera 1
   21984:	00800134 	movhi	r2,4
   21988:	10858404 	addi	r2,r2,5648
   2198c:	10800037 	ldwio	r2,0(r2)
   21990:	1080004c 	andi	r2,r2,1
   21994:	10000426 	beq	r2,zero,219a8 <main+0x208>
				    		pConfig     =  &camera1_config;
   21998:	00800134 	movhi	r2,4
   2199c:	10a4ef04 	addi	r2,r2,-27716
   219a0:	e0bffe15 	stw	r2,-8(fp)
   219a4:	00000306 	br	219b4 <main+0x214>
			    		 }else{// SW0 low  to set camera 0
			    		    pConfig     =  &camera0_config;
   219a8:	00800134 	movhi	r2,4
   219ac:	10a4fd04 	addi	r2,r2,-27660
   219b0:	e0bffe15 	stw	r2,-8(fp)
			    		 }
                         if(pConfig->scalerii_run == 0) scalerii_go(pConfig ,1);
   219b4:	e0bffe17 	ldw	r2,-8(fp)
   219b8:	10800503 	ldbu	r2,20(r2)
   219bc:	10803fcc 	andi	r2,r2,255
   219c0:	1000041e 	bne	r2,zero,219d4 <main+0x234>
   219c4:	e13ffe17 	ldw	r4,-8(fp)
   219c8:	01400044 	movi	r5,1
   219cc:	0023bc40 	call	23bc4 <scalerii_go>
   219d0:	00000306 	br	219e0 <main+0x240>
                         else                       	scalerii_go(pConfig ,0);
   219d4:	e13ffe17 	ldw	r4,-8(fp)
   219d8:	000b883a 	mov	r5,zero
   219dc:	0023bc40 	call	23bc4 <scalerii_go>
    		             usleep(500000);
   219e0:	01000234 	movhi	r4,8
   219e4:	21284804 	addi	r4,r4,-24288
   219e8:	00322500 	call	32250 <usleep>
   219ec:	003fba06 	br	218d8 <__alt_data_end+0xfffe18d8>
		          }


		    	 }else{ // SW1 low -> Camera settings functions

		    		 if(IORD(SW_BASE,0)&0x1){// SW0 high to set camera 1
   219f0:	00800134 	movhi	r2,4
   219f4:	10858404 	addi	r2,r2,5648
   219f8:	10800037 	ldwio	r2,0(r2)
   219fc:	1080004c 	andi	r2,r2,1
   21a00:	10000426 	beq	r2,zero,21a14 <main+0x274>
			    		pConfig     =  &camera1_config;
   21a04:	00800134 	movhi	r2,4
   21a08:	10a4ef04 	addi	r2,r2,-27716
   21a0c:	e0bffe15 	stw	r2,-8(fp)
   21a10:	00000306 	br	21a20 <main+0x280>
		    		 }else{// SW0 low  to set camera 0
		    		    pConfig     =  &camera0_config;
   21a14:	00800134 	movhi	r2,4
   21a18:	10a4fd04 	addi	r2,r2,-27660
   21a1c:	e0bffe15 	stw	r2,-8(fp)
		    		 }
                     if((IORD(KEY_BASE,0)&0x0F) != 0x0F){
   21a20:	00800134 	movhi	r2,4
   21a24:	10858004 	addi	r2,r2,5632
   21a28:	10800037 	ldwio	r2,0(r2)
   21a2c:	108003cc 	andi	r2,r2,15
   21a30:	108003e0 	cmpeqi	r2,r2,15
   21a34:	1000201e 	bne	r2,zero,21ab8 <main+0x318>
                    	 if(pConfig->scalerii_run == 0){
   21a38:	e0bffe17 	ldw	r2,-8(fp)
   21a3c:	10800503 	ldbu	r2,20(r2)
   21a40:	10803fcc 	andi	r2,r2,255
   21a44:	10001c1e 	bne	r2,zero,21ab8 <main+0x318>
                    		 printf("[%s]: Please running video frist!\n",pConfig->str);
   21a48:	e0bffe17 	ldw	r2,-8(fp)
   21a4c:	10800544 	addi	r2,r2,21
   21a50:	010000f4 	movhi	r4,3
   21a54:	2111fa04 	addi	r4,r4,18408
   21a58:	100b883a 	mov	r5,r2
   21a5c:	0025df80 	call	25df8 <printf>
                    		 printf("set SW1 high,set SW0 %s,then press KEY3 to running %s!\n\n",(pConfig->camera_i2c_base==camera0_config.camera_i2c_base)?"low":"high",pConfig->str);
   21a60:	e0bffe17 	ldw	r2,-8(fp)
   21a64:	10c00117 	ldw	r3,4(r2)
   21a68:	00800134 	movhi	r2,4
   21a6c:	10a4fd04 	addi	r2,r2,-27660
   21a70:	10800117 	ldw	r2,4(r2)
   21a74:	1880031e 	bne	r3,r2,21a84 <main+0x2e4>
   21a78:	008000f4 	movhi	r2,3
   21a7c:	10920304 	addi	r2,r2,18444
   21a80:	00000206 	br	21a8c <main+0x2ec>
   21a84:	008000f4 	movhi	r2,3
   21a88:	10920404 	addi	r2,r2,18448
   21a8c:	e0fffe17 	ldw	r3,-8(fp)
   21a90:	18c00544 	addi	r3,r3,21
   21a94:	010000f4 	movhi	r4,3
   21a98:	21120604 	addi	r4,r4,18456
   21a9c:	100b883a 	mov	r5,r2
   21aa0:	180d883a 	mov	r6,r3
   21aa4:	0025df80 	call	25df8 <printf>
        		             usleep(500000);
   21aa8:	01000234 	movhi	r4,8
   21aac:	21284804 	addi	r4,r4,-24288
   21ab0:	00322500 	call	32250 <usleep>
                    		 continue;
   21ab4:	00006506 	br	21c4c <main+0x4ac>
                    	 }
                     }

		    	       // touch KEY0 to trigger Auto focus
		    	       if((IORD(KEY_BASE,0)&0x0F) == 0x0E){
   21ab8:	00800134 	movhi	r2,4
   21abc:	10858004 	addi	r2,r2,5632
   21ac0:	10800037 	ldwio	r2,0(r2)
   21ac4:	108003cc 	andi	r2,r2,15
   21ac8:	10800398 	cmpnei	r2,r2,14
   21acc:	1000071e 	bne	r2,zero,21aec <main+0x34c>
		    	    	   pConfig->focus_level = Focus_Window(pConfig,CAMERA_WIDTH/2,CAMERA_HEIGHT/2);
   21ad0:	e13ffe17 	ldw	r4,-8(fp)
   21ad4:	01405004 	movi	r5,320
   21ad8:	01803c04 	movi	r6,240
   21adc:	00211980 	call	21198 <Focus_Window>
   21ae0:	1007883a 	mov	r3,r2
   21ae4:	e0bffe17 	ldw	r2,-8(fp)
   21ae8:	10c0048d 	sth	r3,18(r2)
		    	       }

		    	       // touch KEY1 to trigger Manual focus  - step
		    	       if((IORD(KEY_BASE,0)&0x0F) == 0x0D){
   21aec:	00800134 	movhi	r2,4
   21af0:	10858004 	addi	r2,r2,5632
   21af4:	10800037 	ldwio	r2,0(r2)
   21af8:	108003cc 	andi	r2,r2,15
   21afc:	10800358 	cmpnei	r2,r2,13
   21b00:	1000161e 	bne	r2,zero,21b5c <main+0x3bc>
		    	    	   if(pConfig->focus_level > manual_focus_step) pConfig->focus_level -= manual_focus_step;
   21b04:	e0bffe17 	ldw	r2,-8(fp)
   21b08:	1080048b 	ldhu	r2,18(r2)
   21b0c:	e0ffff03 	ldbu	r3,-4(fp)
   21b10:	10bfffcc 	andi	r2,r2,65535
   21b14:	18ffffcc 	andi	r3,r3,65535
   21b18:	1880082e 	bgeu	r3,r2,21b3c <main+0x39c>
   21b1c:	e0bffe17 	ldw	r2,-8(fp)
   21b20:	10c0048b 	ldhu	r3,18(r2)
   21b24:	e0bfff03 	ldbu	r2,-4(fp)
   21b28:	1885c83a 	sub	r2,r3,r2
   21b2c:	1007883a 	mov	r3,r2
   21b30:	e0bffe17 	ldw	r2,-8(fp)
   21b34:	10c0048d 	sth	r3,18(r2)
   21b38:	00000206 	br	21b44 <main+0x3a4>
		    	    	   else pConfig->focus_level = 0;
   21b3c:	e0bffe17 	ldw	r2,-8(fp)
   21b40:	1000048d 	sth	zero,18(r2)
		    	    	   OV8865_FOCUS_Move_to(pConfig,pConfig->focus_level);
   21b44:	e0bffe17 	ldw	r2,-8(fp)
   21b48:	1080048b 	ldhu	r2,18(r2)
   21b4c:	10bfffcc 	andi	r2,r2,65535
   21b50:	e13ffe17 	ldw	r4,-8(fp)
   21b54:	100b883a 	mov	r5,r2
   21b58:	00223e80 	call	223e8 <OV8865_FOCUS_Move_to>
		    	       }

		    	       // touch KEY2 to trigger Manual focus  + step
		    	       if((IORD(KEY_BASE,0)&0x0F) == 0x0B){
   21b5c:	00800134 	movhi	r2,4
   21b60:	10858004 	addi	r2,r2,5632
   21b64:	10800037 	ldwio	r2,0(r2)
   21b68:	108003cc 	andi	r2,r2,15
   21b6c:	108002d8 	cmpnei	r2,r2,11
   21b70:	1000151e 	bne	r2,zero,21bc8 <main+0x428>
		    	    	   pConfig->focus_level += manual_focus_step;
   21b74:	e0bffe17 	ldw	r2,-8(fp)
   21b78:	10c0048b 	ldhu	r3,18(r2)
   21b7c:	e0bfff03 	ldbu	r2,-4(fp)
   21b80:	1885883a 	add	r2,r3,r2
   21b84:	1007883a 	mov	r3,r2
   21b88:	e0bffe17 	ldw	r2,-8(fp)
   21b8c:	10c0048d 	sth	r3,18(r2)
		    	    	   if(pConfig->focus_level >1023) pConfig->focus_level = 1023;
   21b90:	e0bffe17 	ldw	r2,-8(fp)
   21b94:	1080048b 	ldhu	r2,18(r2)
   21b98:	10bfffcc 	andi	r2,r2,65535
   21b9c:	10810030 	cmpltui	r2,r2,1024
   21ba0:	1000031e 	bne	r2,zero,21bb0 <main+0x410>
   21ba4:	e0bffe17 	ldw	r2,-8(fp)
   21ba8:	00c0ffc4 	movi	r3,1023
   21bac:	10c0048d 	sth	r3,18(r2)
		    	    	   OV8865_FOCUS_Move_to(pConfig,pConfig->focus_level);
   21bb0:	e0bffe17 	ldw	r2,-8(fp)
   21bb4:	1080048b 	ldhu	r2,18(r2)
   21bb8:	10bfffcc 	andi	r2,r2,65535
   21bbc:	e13ffe17 	ldw	r4,-8(fp)
   21bc0:	100b883a 	mov	r5,r2
   21bc4:	00223e80 	call	223e8 <OV8865_FOCUS_Move_to>
		    	       }

		    	       // touch KEY3 to ZOOM
		    	       if((IORD(KEY_BASE,0)&0x0F) == 0x07){
   21bc8:	00800134 	movhi	r2,4
   21bcc:	10858004 	addi	r2,r2,5632
   21bd0:	10800037 	ldwio	r2,0(r2)
   21bd4:	108003cc 	andi	r2,r2,15
   21bd8:	108001d8 	cmpnei	r2,r2,7
   21bdc:	1000181e 	bne	r2,zero,21c40 <main+0x4a0>
		    	    	   if(pConfig->zoom_level == 3 )pConfig->zoom_level = 1;
   21be0:	e0bffe17 	ldw	r2,-8(fp)
   21be4:	10800403 	ldbu	r2,16(r2)
   21be8:	10803fcc 	andi	r2,r2,255
   21bec:	108000d8 	cmpnei	r2,r2,3
   21bf0:	1000041e 	bne	r2,zero,21c04 <main+0x464>
   21bf4:	e0bffe17 	ldw	r2,-8(fp)
   21bf8:	00c00044 	movi	r3,1
   21bfc:	10c00405 	stb	r3,16(r2)
   21c00:	00000606 	br	21c1c <main+0x47c>
		    	    	   else pConfig->zoom_level +=1;
   21c04:	e0bffe17 	ldw	r2,-8(fp)
   21c08:	10800403 	ldbu	r2,16(r2)
   21c0c:	10800044 	addi	r2,r2,1
   21c10:	1007883a 	mov	r3,r2
   21c14:	e0bffe17 	ldw	r2,-8(fp)
   21c18:	10c00405 	stb	r3,16(r2)
		    	    	   camera_bin_level(pConfig,pConfig->zoom_level);
   21c1c:	e0bffe17 	ldw	r2,-8(fp)
   21c20:	10800403 	ldbu	r2,16(r2)
   21c24:	10803fcc 	andi	r2,r2,255
   21c28:	e13ffe17 	ldw	r4,-8(fp)
   21c2c:	100b883a 	mov	r5,r2
   21c30:	00224e80 	call	224e8 <camera_bin_level>
		    	    	   usleep(500000);
   21c34:	01000234 	movhi	r4,8
   21c38:	21284804 	addi	r4,r4,-24288
   21c3c:	00322500 	call	32250 <usleep>
		    	       }

		    	       usleep(200000);
   21c40:	010000f4 	movhi	r4,3
   21c44:	21035004 	addi	r4,r4,3392
   21c48:	00322500 	call	32250 <usleep>
		    	 }// end if- SW1 select

//		          usleep(50000);

		      };
   21c4c:	003f2206 	br	218d8 <__alt_data_end+0xfffe18d8>

00021c50 <nSWAP16>:
	{0x0004,0x8047} // Configuration Control Register

};


alt_u16 nSWAP16(alt_u16 x){
   21c50:	defffd04 	addi	sp,sp,-12
   21c54:	df000215 	stw	fp,8(sp)
   21c58:	df000204 	addi	fp,sp,8
   21c5c:	2005883a 	mov	r2,r4
   21c60:	e0bfff0d 	sth	r2,-4(fp)
	alt_u16 y;
	//y =  (((x) >> 8) & 0xff) | (((x) & 0xff) << 8);

//	y = x;
	y = (x >> 8) & 0x00ff;
   21c64:	e0bfff0b 	ldhu	r2,-4(fp)
   21c68:	1004d23a 	srli	r2,r2,8
   21c6c:	e0bffe0d 	sth	r2,-8(fp)
	y |= (x << 8) & 0xff00;
   21c70:	e0bfff0b 	ldhu	r2,-4(fp)
   21c74:	1004923a 	slli	r2,r2,8
   21c78:	1007883a 	mov	r3,r2
   21c7c:	e0bffe0b 	ldhu	r2,-8(fp)
   21c80:	1884b03a 	or	r2,r3,r2
   21c84:	e0bffe0d 	sth	r2,-8(fp)
	return y;
   21c88:	e0bffe0b 	ldhu	r2,-8(fp)
}
   21c8c:	e037883a 	mov	sp,fp
   21c90:	df000017 	ldw	fp,0(sp)
   21c94:	dec00104 	addi	sp,sp,4
   21c98:	f800283a 	ret

00021c9c <MipiBridgeRegWrite>:


void MipiBridgeRegWrite(config_t *pConfig,alt_u16 Addr, alt_u16 Value){
   21c9c:	defff904 	addi	sp,sp,-28
   21ca0:	dfc00615 	stw	ra,24(sp)
   21ca4:	df000515 	stw	fp,20(sp)
   21ca8:	df000504 	addi	fp,sp,20
   21cac:	e13ffd15 	stw	r4,-12(fp)
   21cb0:	2807883a 	mov	r3,r5
   21cb4:	3005883a 	mov	r2,r6
   21cb8:	e0fffe0d 	sth	r3,-8(fp)
   21cbc:	e0bfff0d 	sth	r2,-4(fp)
	const alt_u8 device_address = MIPI_BRIDGE_I2C_ADDR;
   21cc0:	00800704 	movi	r2,28
   21cc4:	e0bffc05 	stb	r2,-16(fp)
	OC_I2CL_Write(pConfig->bridge_i2c_base, device_address, Addr, (alt_u8 *)&Value, sizeof(Value));
   21cc8:	e0bffd17 	ldw	r2,-12(fp)
   21ccc:	10800017 	ldw	r2,0(r2)
   21cd0:	1009883a 	mov	r4,r2
   21cd4:	e17ffc03 	ldbu	r5,-16(fp)
   21cd8:	e1bffe0b 	ldhu	r6,-8(fp)
   21cdc:	e0ffff04 	addi	r3,fp,-4
   21ce0:	00800084 	movi	r2,2
   21ce4:	d8800015 	stw	r2,0(sp)
   21ce8:	180f883a 	mov	r7,r3
   21cec:	0020ba80 	call	20ba8 <OC_I2CL_Write>
}
   21cf0:	e037883a 	mov	sp,fp
   21cf4:	dfc00117 	ldw	ra,4(sp)
   21cf8:	df000017 	ldw	fp,0(sp)
   21cfc:	dec00204 	addi	sp,sp,8
   21d00:	f800283a 	ret

00021d04 <MipiBridgeRegRead>:

alt_u16 MipiBridgeRegRead(config_t *pConfig,alt_u16 Addr){
   21d04:	defff904 	addi	sp,sp,-28
   21d08:	dfc00615 	stw	ra,24(sp)
   21d0c:	df000515 	stw	fp,20(sp)
   21d10:	df000504 	addi	fp,sp,20
   21d14:	e13ffe15 	stw	r4,-8(fp)
   21d18:	2805883a 	mov	r2,r5
   21d1c:	e0bfff0d 	sth	r2,-4(fp)
	alt_u16 Value,tValue;
	const alt_u8 device_address = MIPI_BRIDGE_I2C_ADDR;
   21d20:	00800704 	movi	r2,28
   21d24:	e0bffc05 	stb	r2,-16(fp)

	OC_I2CL_Read(pConfig->bridge_i2c_base,device_address, Addr,(alt_u8 *)&Value,sizeof(Value));
   21d28:	e0bffe17 	ldw	r2,-8(fp)
   21d2c:	10800017 	ldw	r2,0(r2)
   21d30:	1009883a 	mov	r4,r2
   21d34:	e17ffc03 	ldbu	r5,-16(fp)
   21d38:	e1bfff0b 	ldhu	r6,-4(fp)
   21d3c:	e0fffd04 	addi	r3,fp,-12
   21d40:	00800084 	movi	r2,2
   21d44:	d8800015 	stw	r2,0(sp)
   21d48:	180f883a 	mov	r7,r3
   21d4c:	0020db80 	call	20db8 <OC_I2CL_Read>

	tValue = nSWAP16(Value);
   21d50:	e0bffd0b 	ldhu	r2,-12(fp)
   21d54:	10bfffcc 	andi	r2,r2,65535
   21d58:	1009883a 	mov	r4,r2
   21d5c:	0021c500 	call	21c50 <nSWAP16>
   21d60:	e0bffc8d 	sth	r2,-14(fp)

	return (tValue);
   21d64:	e0bffc8b 	ldhu	r2,-14(fp)
}
   21d68:	e037883a 	mov	sp,fp
   21d6c:	dfc00117 	ldw	ra,4(sp)
   21d70:	df000017 	ldw	fp,0(sp)
   21d74:	dec00204 	addi	sp,sp,8
   21d78:	f800283a 	ret

00021d7c <MipiBridgeInit>:




bool MipiBridgeInit(config_t *pConfig){
   21d7c:	defff904 	addi	sp,sp,-28
   21d80:	dfc00615 	stw	ra,24(sp)
   21d84:	df000515 	stw	fp,20(sp)
   21d88:	df000504 	addi	fp,sp,20
   21d8c:	e13fff15 	stw	r4,-4(fp)

	alt_u16 data;
    int i, num;
	bool bSuccess;

	printf("\n[%s]: Start MipiBridgeInit!\n",pConfig->str);
   21d90:	e0bfff17 	ldw	r2,-4(fp)
   21d94:	10800544 	addi	r2,r2,21
   21d98:	010000f4 	movhi	r4,3
   21d9c:	21121504 	addi	r4,r4,18516
   21da0:	100b883a 	mov	r5,r2
   21da4:	0025df80 	call	25df8 <printf>

	bSuccess = oc_i2c_init_ex(pConfig->bridge_i2c_base, 50*1000*1000,100*1000); //I2C: 100K
   21da8:	e0bfff17 	ldw	r2,-4(fp)
   21dac:	10800017 	ldw	r2,0(r2)
   21db0:	1009883a 	mov	r4,r2
   21db4:	0140bef4 	movhi	r5,763
   21db8:	297c2004 	addi	r5,r5,-3968
   21dbc:	018000b4 	movhi	r6,2
   21dc0:	31a1a804 	addi	r6,r6,-31072
   21dc4:	00203940 	call	20394 <oc_i2c_init_ex>
   21dc8:	e0bffc15 	stw	r2,-16(fp)
	if (!bSuccess)
   21dcc:	e0bffc17 	ldw	r2,-16(fp)
   21dd0:	1000031e 	bne	r2,zero,21de0 <MipiBridgeInit+0x64>
		printf("failed to init MIPI- Bridge i2c\r\n");
   21dd4:	010000f4 	movhi	r4,3
   21dd8:	21121d04 	addi	r4,r4,18548
   21ddc:	0025f0c0 	call	25f0c <puts>

	data = MipiBridgeRegRead(pConfig,0x0000); // read chip and revision id;
   21de0:	e13fff17 	ldw	r4,-4(fp)
   21de4:	000b883a 	mov	r5,zero
   21de8:	0021d040 	call	21d04 <MipiBridgeRegRead>
   21dec:	e0bffd0d 	sth	r2,-12(fp)

	printf("Chip and Revision ID is 0x%04xh(expected: 0x4401);\n",data);
   21df0:	e0bffd0b 	ldhu	r2,-12(fp)
   21df4:	010000f4 	movhi	r4,3
   21df8:	21122604 	addi	r4,r4,18584
   21dfc:	100b883a 	mov	r5,r2
   21e00:	0025df80 	call	25df8 <printf>


    num = sizeof(MipiBridgeReg)/sizeof(MipiBridgeReg[0]);
   21e04:	00800344 	movi	r2,13
   21e08:	e0bffe15 	stw	r2,-8(fp)

    for(i=0;i<num;i++){
   21e0c:	e03ffb15 	stw	zero,-20(fp)
   21e10:	00002c06 	br	21ec4 <MipiBridgeInit+0x148>
   	 if (MipiBridgeReg[i].Addr == 0xFFFF)   usleep(MipiBridgeReg[i].Data*1000);
   21e14:	008000f4 	movhi	r2,3
   21e18:	10938f04 	addi	r2,r2,20028
   21e1c:	e0fffb17 	ldw	r3,-20(fp)
   21e20:	18c7883a 	add	r3,r3,r3
   21e24:	18c7883a 	add	r3,r3,r3
   21e28:	10c5883a 	add	r2,r2,r3
   21e2c:	1080000b 	ldhu	r2,0(r2)
   21e30:	10ffffcc 	andi	r3,r2,65535
   21e34:	00bfffd4 	movui	r2,65535
   21e38:	18800c1e 	bne	r3,r2,21e6c <MipiBridgeInit+0xf0>
   21e3c:	008000f4 	movhi	r2,3
   21e40:	10938f04 	addi	r2,r2,20028
   21e44:	e0fffb17 	ldw	r3,-20(fp)
   21e48:	18c7883a 	add	r3,r3,r3
   21e4c:	18c7883a 	add	r3,r3,r3
   21e50:	10c5883a 	add	r2,r2,r3
   21e54:	1080008b 	ldhu	r2,2(r2)
   21e58:	10bfffcc 	andi	r2,r2,65535
   21e5c:	1080fa24 	muli	r2,r2,1000
   21e60:	1009883a 	mov	r4,r2
   21e64:	00322500 	call	32250 <usleep>
   21e68:	00001306 	br	21eb8 <MipiBridgeInit+0x13c>
        else MipiBridgeRegWrite(pConfig,MipiBridgeReg[i].Addr,  MipiBridgeReg[i].Data);
   21e6c:	008000f4 	movhi	r2,3
   21e70:	10938f04 	addi	r2,r2,20028
   21e74:	e0fffb17 	ldw	r3,-20(fp)
   21e78:	18c7883a 	add	r3,r3,r3
   21e7c:	18c7883a 	add	r3,r3,r3
   21e80:	10c5883a 	add	r2,r2,r3
   21e84:	1080000b 	ldhu	r2,0(r2)
   21e88:	117fffcc 	andi	r5,r2,65535
   21e8c:	008000f4 	movhi	r2,3
   21e90:	10938f04 	addi	r2,r2,20028
   21e94:	e0fffb17 	ldw	r3,-20(fp)
   21e98:	18c7883a 	add	r3,r3,r3
   21e9c:	18c7883a 	add	r3,r3,r3
   21ea0:	10c5883a 	add	r2,r2,r3
   21ea4:	1080008b 	ldhu	r2,2(r2)
   21ea8:	10bfffcc 	andi	r2,r2,65535
   21eac:	e13fff17 	ldw	r4,-4(fp)
   21eb0:	100d883a 	mov	r6,r2
   21eb4:	0021c9c0 	call	21c9c <MipiBridgeRegWrite>
	printf("Chip and Revision ID is 0x%04xh(expected: 0x4401);\n",data);


    num = sizeof(MipiBridgeReg)/sizeof(MipiBridgeReg[0]);

    for(i=0;i<num;i++){
   21eb8:	e0bffb17 	ldw	r2,-20(fp)
   21ebc:	10800044 	addi	r2,r2,1
   21ec0:	e0bffb15 	stw	r2,-20(fp)
   21ec4:	e0fffb17 	ldw	r3,-20(fp)
   21ec8:	e0bffe17 	ldw	r2,-8(fp)
   21ecc:	18bfd116 	blt	r3,r2,21e14 <__alt_data_end+0xfffe1e14>
   	 if (MipiBridgeReg[i].Addr == 0xFFFF)   usleep(MipiBridgeReg[i].Data*1000);
        else MipiBridgeRegWrite(pConfig,MipiBridgeReg[i].Addr,  MipiBridgeReg[i].Data);
     }

    printf("[%s]: End MipiBridgeInit!\n\n",pConfig->str);
   21ed0:	e0bfff17 	ldw	r2,-4(fp)
   21ed4:	10800544 	addi	r2,r2,21
   21ed8:	010000f4 	movhi	r4,3
   21edc:	21123304 	addi	r4,r4,18636
   21ee0:	100b883a 	mov	r5,r2
   21ee4:	0025df80 	call	25df8 <printf>

    return bSuccess;
   21ee8:	e0bffc17 	ldw	r2,-16(fp)

}
   21eec:	e037883a 	mov	sp,fp
   21ef0:	dfc00117 	ldw	ra,4(sp)
   21ef4:	df000017 	ldw	fp,0(sp)
   21ef8:	dec00204 	addi	sp,sp,8
   21efc:	f800283a 	ret

00021f00 <mipi_clear_error>:


void mipi_clear_error(config_t *pConfig){
   21f00:	defffd04 	addi	sp,sp,-12
   21f04:	dfc00215 	stw	ra,8(sp)
   21f08:	df000115 	stw	fp,4(sp)
   21f0c:	df000104 	addi	fp,sp,4
   21f10:	e13fff15 	stw	r4,-4(fp)
	MipiBridgeRegWrite(pConfig,MIPI_REG_CSIStatus,0x01FF); // clear error
   21f14:	e13fff17 	ldw	r4,-4(fp)
   21f18:	01401904 	movi	r5,100
   21f1c:	01807fc4 	movi	r6,511
   21f20:	0021c9c0 	call	21c9c <MipiBridgeRegWrite>
	MipiBridgeRegWrite(pConfig,MIPI_REG_MDLSynErr,0x0000); // clear error
   21f24:	e13fff17 	ldw	r4,-4(fp)
   21f28:	01401a04 	movi	r5,104
   21f2c:	000d883a 	mov	r6,zero
   21f30:	0021c9c0 	call	21c9c <MipiBridgeRegWrite>
	MipiBridgeRegWrite(pConfig,MIPI_REG_FrmErrCnt,0x0000); // clear error
   21f34:	e13fff17 	ldw	r4,-4(fp)
   21f38:	01402004 	movi	r5,128
   21f3c:	000d883a 	mov	r6,zero
   21f40:	0021c9c0 	call	21c9c <MipiBridgeRegWrite>
	MipiBridgeRegWrite(pConfig,MIPI_REG_MDLErrCnt, 0x0000); // clear error
   21f44:	e13fff17 	ldw	r4,-4(fp)
   21f48:	01402404 	movi	r5,144
   21f4c:	000d883a 	mov	r6,zero
   21f50:	0021c9c0 	call	21c9c <MipiBridgeRegWrite>

  	MipiBridgeRegWrite(pConfig,0x0082,0x00);
   21f54:	e13fff17 	ldw	r4,-4(fp)
   21f58:	01402084 	movi	r5,130
   21f5c:	000d883a 	mov	r6,zero
   21f60:	0021c9c0 	call	21c9c <MipiBridgeRegWrite>
  	MipiBridgeRegWrite(pConfig,0x0084,0x00);
   21f64:	e13fff17 	ldw	r4,-4(fp)
   21f68:	01402104 	movi	r5,132
   21f6c:	000d883a 	mov	r6,zero
   21f70:	0021c9c0 	call	21c9c <MipiBridgeRegWrite>
  	MipiBridgeRegWrite(pConfig,0x0086,0x00);
   21f74:	e13fff17 	ldw	r4,-4(fp)
   21f78:	01402184 	movi	r5,134
   21f7c:	000d883a 	mov	r6,zero
   21f80:	0021c9c0 	call	21c9c <MipiBridgeRegWrite>
  	MipiBridgeRegWrite(pConfig,0x0088,0x00);
   21f84:	e13fff17 	ldw	r4,-4(fp)
   21f88:	01402204 	movi	r5,136
   21f8c:	000d883a 	mov	r6,zero
   21f90:	0021c9c0 	call	21c9c <MipiBridgeRegWrite>
  	MipiBridgeRegWrite(pConfig,0x008A,0x00);
   21f94:	e13fff17 	ldw	r4,-4(fp)
   21f98:	01402284 	movi	r5,138
   21f9c:	000d883a 	mov	r6,zero
   21fa0:	0021c9c0 	call	21c9c <MipiBridgeRegWrite>
  	MipiBridgeRegWrite(pConfig,0x008C,0x00);
   21fa4:	e13fff17 	ldw	r4,-4(fp)
   21fa8:	01402304 	movi	r5,140
   21fac:	000d883a 	mov	r6,zero
   21fb0:	0021c9c0 	call	21c9c <MipiBridgeRegWrite>
  	MipiBridgeRegWrite(pConfig,0x008E,0x00);
   21fb4:	e13fff17 	ldw	r4,-4(fp)
   21fb8:	01402384 	movi	r5,142
   21fbc:	000d883a 	mov	r6,zero
   21fc0:	0021c9c0 	call	21c9c <MipiBridgeRegWrite>
  	MipiBridgeRegWrite(pConfig,0x0090,0x00);
   21fc4:	e13fff17 	ldw	r4,-4(fp)
   21fc8:	01402404 	movi	r5,144
   21fcc:	000d883a 	mov	r6,zero
   21fd0:	0021c9c0 	call	21c9c <MipiBridgeRegWrite>
}
   21fd4:	e037883a 	mov	sp,fp
   21fd8:	dfc00117 	ldw	ra,4(sp)
   21fdc:	df000017 	ldw	fp,0(sp)
   21fe0:	dec00204 	addi	sp,sp,8
   21fe4:	f800283a 	ret

00021fe8 <mipi_show_error_info>:

void mipi_show_error_info(config_t *pConfig){
   21fe8:	defff804 	addi	sp,sp,-32
   21fec:	dfc00715 	stw	ra,28(sp)
   21ff0:	df000615 	stw	fp,24(sp)
   21ff4:	df000604 	addi	fp,sp,24
   21ff8:	e13fff15 	stw	r4,-4(fp)

	alt_u16 PHY_status, SCI_status, MDLSynErr, FrmErrCnt, MDLErrCnt;

	PHY_status = MipiBridgeRegRead(pConfig,MIPI_REG_PHYSta);
   21ffc:	e13fff17 	ldw	r4,-4(fp)
   22000:	01401884 	movi	r5,98
   22004:	0021d040 	call	21d04 <MipiBridgeRegRead>
   22008:	e0bffc0d 	sth	r2,-16(fp)
	SCI_status = MipiBridgeRegRead(pConfig,MIPI_REG_CSIStatus);
   2200c:	e13fff17 	ldw	r4,-4(fp)
   22010:	01401904 	movi	r5,100
   22014:	0021d040 	call	21d04 <MipiBridgeRegRead>
   22018:	e0bffc8d 	sth	r2,-14(fp)
	MDLSynErr = MipiBridgeRegRead(pConfig,MIPI_REG_MDLSynErr);
   2201c:	e13fff17 	ldw	r4,-4(fp)
   22020:	01401a04 	movi	r5,104
   22024:	0021d040 	call	21d04 <MipiBridgeRegRead>
   22028:	e0bffd0d 	sth	r2,-12(fp)
	FrmErrCnt = MipiBridgeRegRead(pConfig,MIPI_REG_FrmErrCnt);
   2202c:	e13fff17 	ldw	r4,-4(fp)
   22030:	01402004 	movi	r5,128
   22034:	0021d040 	call	21d04 <MipiBridgeRegRead>
   22038:	e0bffd8d 	sth	r2,-10(fp)
	MDLErrCnt = MipiBridgeRegRead(pConfig,MIPI_REG_MDLErrCnt);
   2203c:	e13fff17 	ldw	r4,-4(fp)
   22040:	01402404 	movi	r5,144
   22044:	0021d040 	call	21d04 <MipiBridgeRegRead>
   22048:	e0bffe0d 	sth	r2,-8(fp)
	printf("PHY_status=%xh, CSI_status=%xh, MDLSynErr=%xh, FrmErrCnt=%xh, MDLErrCnt=%xh\r\n", PHY_status, SCI_status, MDLSynErr,FrmErrCnt, MDLErrCnt);
   2204c:	e17ffc0b 	ldhu	r5,-16(fp)
   22050:	e1bffc8b 	ldhu	r6,-14(fp)
   22054:	e1fffd0b 	ldhu	r7,-12(fp)
   22058:	e0fffd8b 	ldhu	r3,-10(fp)
   2205c:	e0bffe0b 	ldhu	r2,-8(fp)
   22060:	d8c00015 	stw	r3,0(sp)
   22064:	d8800115 	stw	r2,4(sp)
   22068:	010000f4 	movhi	r4,3
   2206c:	21123a04 	addi	r4,r4,18664
   22070:	0025df80 	call	25df8 <printf>
}
   22074:	e037883a 	mov	sp,fp
   22078:	dfc00117 	ldw	ra,4(sp)
   2207c:	df000017 	ldw	fp,0(sp)
   22080:	dec00204 	addi	sp,sp,8
   22084:	f800283a 	ret

00022088 <mipi_show_error_info_more>:

void mipi_show_error_info_more(config_t *pConfig){
   22088:	defffd04 	addi	sp,sp,-12
   2208c:	dfc00215 	stw	ra,8(sp)
   22090:	df000115 	stw	fp,4(sp)
   22094:	df000104 	addi	fp,sp,4
   22098:	e13fff15 	stw	r4,-4(fp)
    printf("FrmErrCnt = %d\n",MipiBridgeRegRead(pConfig,0x0080));
   2209c:	e13fff17 	ldw	r4,-4(fp)
   220a0:	01402004 	movi	r5,128
   220a4:	0021d040 	call	21d04 <MipiBridgeRegRead>
   220a8:	10bfffcc 	andi	r2,r2,65535
   220ac:	010000f4 	movhi	r4,3
   220b0:	21124e04 	addi	r4,r4,18744
   220b4:	100b883a 	mov	r5,r2
   220b8:	0025df80 	call	25df8 <printf>
    printf("CRCErrCnt = %d\n",MipiBridgeRegRead(pConfig,0x0082));
   220bc:	e13fff17 	ldw	r4,-4(fp)
   220c0:	01402084 	movi	r5,130
   220c4:	0021d040 	call	21d04 <MipiBridgeRegRead>
   220c8:	10bfffcc 	andi	r2,r2,65535
   220cc:	010000f4 	movhi	r4,3
   220d0:	21125204 	addi	r4,r4,18760
   220d4:	100b883a 	mov	r5,r2
   220d8:	0025df80 	call	25df8 <printf>
    printf("CorErrCnt = %d\n",MipiBridgeRegRead(pConfig,0x0084));
   220dc:	e13fff17 	ldw	r4,-4(fp)
   220e0:	01402104 	movi	r5,132
   220e4:	0021d040 	call	21d04 <MipiBridgeRegRead>
   220e8:	10bfffcc 	andi	r2,r2,65535
   220ec:	010000f4 	movhi	r4,3
   220f0:	21125604 	addi	r4,r4,18776
   220f4:	100b883a 	mov	r5,r2
   220f8:	0025df80 	call	25df8 <printf>
    printf("HdrErrCnt = %d\n",MipiBridgeRegRead(pConfig,0x0086));
   220fc:	e13fff17 	ldw	r4,-4(fp)
   22100:	01402184 	movi	r5,134
   22104:	0021d040 	call	21d04 <MipiBridgeRegRead>
   22108:	10bfffcc 	andi	r2,r2,65535
   2210c:	010000f4 	movhi	r4,3
   22110:	21125a04 	addi	r4,r4,18792
   22114:	100b883a 	mov	r5,r2
   22118:	0025df80 	call	25df8 <printf>
    printf("EIDErrCnt = %d\n",MipiBridgeRegRead(pConfig,0x0088));
   2211c:	e13fff17 	ldw	r4,-4(fp)
   22120:	01402204 	movi	r5,136
   22124:	0021d040 	call	21d04 <MipiBridgeRegRead>
   22128:	10bfffcc 	andi	r2,r2,65535
   2212c:	010000f4 	movhi	r4,3
   22130:	21125e04 	addi	r4,r4,18808
   22134:	100b883a 	mov	r5,r2
   22138:	0025df80 	call	25df8 <printf>
    printf("CtlErrCnt = %d\n",MipiBridgeRegRead(pConfig,0x008A));
   2213c:	e13fff17 	ldw	r4,-4(fp)
   22140:	01402284 	movi	r5,138
   22144:	0021d040 	call	21d04 <MipiBridgeRegRead>
   22148:	10bfffcc 	andi	r2,r2,65535
   2214c:	010000f4 	movhi	r4,3
   22150:	21126204 	addi	r4,r4,18824
   22154:	100b883a 	mov	r5,r2
   22158:	0025df80 	call	25df8 <printf>
    printf("SoTErrCnt = %d\n",MipiBridgeRegRead(pConfig,0x008C));
   2215c:	e13fff17 	ldw	r4,-4(fp)
   22160:	01402304 	movi	r5,140
   22164:	0021d040 	call	21d04 <MipiBridgeRegRead>
   22168:	10bfffcc 	andi	r2,r2,65535
   2216c:	010000f4 	movhi	r4,3
   22170:	21126604 	addi	r4,r4,18840
   22174:	100b883a 	mov	r5,r2
   22178:	0025df80 	call	25df8 <printf>
    printf("SynErrCnt = %d\n",MipiBridgeRegRead(pConfig,0x008E));
   2217c:	e13fff17 	ldw	r4,-4(fp)
   22180:	01402384 	movi	r5,142
   22184:	0021d040 	call	21d04 <MipiBridgeRegRead>
   22188:	10bfffcc 	andi	r2,r2,65535
   2218c:	010000f4 	movhi	r4,3
   22190:	21126a04 	addi	r4,r4,18856
   22194:	100b883a 	mov	r5,r2
   22198:	0025df80 	call	25df8 <printf>
    printf("MDLErrCnt = %d\n",MipiBridgeRegRead(pConfig,0x0090));
   2219c:	e13fff17 	ldw	r4,-4(fp)
   221a0:	01402404 	movi	r5,144
   221a4:	0021d040 	call	21d04 <MipiBridgeRegRead>
   221a8:	10bfffcc 	andi	r2,r2,65535
   221ac:	010000f4 	movhi	r4,3
   221b0:	21126e04 	addi	r4,r4,18872
   221b4:	100b883a 	mov	r5,r2
   221b8:	0025df80 	call	25df8 <printf>
    printf("FIFOSTATUS = %d\n",MipiBridgeRegRead(pConfig,0x00F8));
   221bc:	e13fff17 	ldw	r4,-4(fp)
   221c0:	01403e04 	movi	r5,248
   221c4:	0021d040 	call	21d04 <MipiBridgeRegRead>
   221c8:	10bfffcc 	andi	r2,r2,65535
   221cc:	010000f4 	movhi	r4,3
   221d0:	21127204 	addi	r4,r4,18888
   221d4:	100b883a 	mov	r5,r2
   221d8:	0025df80 	call	25df8 <printf>
    printf("DataType = 0x%04x\n",MipiBridgeRegRead(pConfig,0x006A));
   221dc:	e13fff17 	ldw	r4,-4(fp)
   221e0:	01401a84 	movi	r5,106
   221e4:	0021d040 	call	21d04 <MipiBridgeRegRead>
   221e8:	10bfffcc 	andi	r2,r2,65535
   221ec:	010000f4 	movhi	r4,3
   221f0:	21127704 	addi	r4,r4,18908
   221f4:	100b883a 	mov	r5,r2
   221f8:	0025df80 	call	25df8 <printf>
    printf("CSIPktLen = %d\n",MipiBridgeRegRead(pConfig,0x006E));
   221fc:	e13fff17 	ldw	r4,-4(fp)
   22200:	01401b84 	movi	r5,110
   22204:	0021d040 	call	21d04 <MipiBridgeRegRead>
   22208:	10bfffcc 	andi	r2,r2,65535
   2220c:	010000f4 	movhi	r4,3
   22210:	21127c04 	addi	r4,r4,18928
   22214:	100b883a 	mov	r5,r2
   22218:	0025df80 	call	25df8 <printf>
}
   2221c:	e037883a 	mov	sp,fp
   22220:	dfc00117 	ldw	ra,4(sp)
   22224:	df000017 	ldw	fp,0(sp)
   22228:	dec00204 	addi	sp,sp,8
   2222c:	f800283a 	ret

00022230 <OV8865_read_cmos_sensor_8>:
   };




alt_u8 OV8865_read_cmos_sensor_8(config_t *pConfig,alt_u16 Addr){
   22230:	defffa04 	addi	sp,sp,-24
   22234:	dfc00515 	stw	ra,20(sp)
   22238:	df000415 	stw	fp,16(sp)
   2223c:	df000404 	addi	fp,sp,16
   22240:	e13ffe15 	stw	r4,-8(fp)
   22244:	2805883a 	mov	r2,r5
   22248:	e0bfff0d 	sth	r2,-4(fp)
	const alt_u8 device_address = MIPI_I2C_ADDR;
   2224c:	00801b04 	movi	r2,108
   22250:	e0bffd05 	stb	r2,-12(fp)
	alt_u8 Value;

	//OC_I2CL_Write(pConfig->camera_i2c_base, device_address, SWAP16(Addr), (alt_u8 *)&Value, sizeof(Value));
	OC_I2CL_Read(pConfig->camera_i2c_base, device_address, Addr, (alt_u8 *)&Value, sizeof(Value));
   22254:	e0bffe17 	ldw	r2,-8(fp)
   22258:	10800117 	ldw	r2,4(r2)
   2225c:	1009883a 	mov	r4,r2
   22260:	e17ffd03 	ldbu	r5,-12(fp)
   22264:	e1bfff0b 	ldhu	r6,-4(fp)
   22268:	e0fffd44 	addi	r3,fp,-11
   2226c:	00800044 	movi	r2,1
   22270:	d8800015 	stw	r2,0(sp)
   22274:	180f883a 	mov	r7,r3
   22278:	0020db80 	call	20db8 <OC_I2CL_Read>

	return (Value);
   2227c:	e0bffd43 	ldbu	r2,-11(fp)
}
   22280:	e037883a 	mov	sp,fp
   22284:	dfc00117 	ldw	ra,4(sp)
   22288:	df000017 	ldw	fp,0(sp)
   2228c:	dec00204 	addi	sp,sp,8
   22290:	f800283a 	ret

00022294 <OV8865_write_cmos_sensor_8>:


void OV8865_write_cmos_sensor_8(config_t *pConfig,alt_u16 Addr, alt_u8 Value){
   22294:	defff904 	addi	sp,sp,-28
   22298:	dfc00615 	stw	ra,24(sp)
   2229c:	df000515 	stw	fp,20(sp)
   222a0:	df000504 	addi	fp,sp,20
   222a4:	e13ffd15 	stw	r4,-12(fp)
   222a8:	2807883a 	mov	r3,r5
   222ac:	3005883a 	mov	r2,r6
   222b0:	e0fffe0d 	sth	r3,-8(fp)
   222b4:	e0bfff05 	stb	r2,-4(fp)
	const alt_u8 device_address = MIPI_I2C_ADDR;
   222b8:	00801b04 	movi	r2,108
   222bc:	e0bffc05 	stb	r2,-16(fp)
	//OC_I2CL_Write(pConfig->camera_i2c_base, device_address, SWAP16(Addr), (alt_u8 *)&Value, sizeof(Value));
	OC_I2CL_Write(pConfig->camera_i2c_base, device_address, Addr, (alt_u8 *)&Value, sizeof(Value));
   222c0:	e0bffd17 	ldw	r2,-12(fp)
   222c4:	10800117 	ldw	r2,4(r2)
   222c8:	1009883a 	mov	r4,r2
   222cc:	e17ffc03 	ldbu	r5,-16(fp)
   222d0:	e1bffe0b 	ldhu	r6,-8(fp)
   222d4:	e0ffff04 	addi	r3,fp,-4
   222d8:	00800044 	movi	r2,1
   222dc:	d8800015 	stw	r2,0(sp)
   222e0:	180f883a 	mov	r7,r3
   222e4:	0020ba80 	call	20ba8 <OC_I2CL_Write>
}
   222e8:	e037883a 	mov	sp,fp
   222ec:	dfc00117 	ldw	ra,4(sp)
   222f0:	df000017 	ldw	fp,0(sp)
   222f4:	dec00204 	addi	sp,sp,8
   222f8:	f800283a 	ret

000222fc <OV8865_write_AF>:


void OV8865_write_AF(config_t *pConfig,alt_u8 msb, alt_u8 lsb){
   222fc:	defff904 	addi	sp,sp,-28
   22300:	dfc00615 	stw	ra,24(sp)
   22304:	df000515 	stw	fp,20(sp)
   22308:	df000504 	addi	fp,sp,20
   2230c:	e13ffd15 	stw	r4,-12(fp)
   22310:	2807883a 	mov	r3,r5
   22314:	3005883a 	mov	r2,r6
   22318:	e0fffe05 	stb	r3,-8(fp)
   2231c:	e0bfff05 	stb	r2,-4(fp)
	// VCM149C
	const alt_u8 device_address = MIPI_AF_I2C_ADDR;
   22320:	00800604 	movi	r2,24
   22324:	e0bffc05 	stb	r2,-16(fp)
	OC_I2C_Write(pConfig->camera_i2c_base, device_address, msb, (alt_u8 *)&lsb, sizeof(lsb));
   22328:	e0bffd17 	ldw	r2,-12(fp)
   2232c:	10800117 	ldw	r2,4(r2)
   22330:	1009883a 	mov	r4,r2
   22334:	e17ffc03 	ldbu	r5,-16(fp)
   22338:	e1bffe03 	ldbu	r6,-8(fp)
   2233c:	e0ffff04 	addi	r3,fp,-4
   22340:	00800044 	movi	r2,1
   22344:	d8800015 	stw	r2,0(sp)
   22348:	180f883a 	mov	r7,r3
   2234c:	00206400 	call	20640 <OC_I2C_Write>
}
   22350:	e037883a 	mov	sp,fp
   22354:	dfc00117 	ldw	ra,4(sp)
   22358:	df000017 	ldw	fp,0(sp)
   2235c:	dec00204 	addi	sp,sp,8
   22360:	f800283a 	ret

00022364 <OV8865_read_AF>:

void OV8865_read_AF(config_t *pConfig){
   22364:	defffa04 	addi	sp,sp,-24
   22368:	dfc00515 	stw	ra,20(sp)
   2236c:	df000415 	stw	fp,16(sp)
   22370:	df000404 	addi	fp,sp,16
   22374:	e13fff15 	stw	r4,-4(fp)
	// VCM149C
	const alt_u8 device_address = MIPI_AF_I2C_ADDR;
   22378:	00800604 	movi	r2,24
   2237c:	e0bffc05 	stb	r2,-16(fp)
	alt_u8 szData8[2];
	bool bSuccess;

		bSuccess = OC_I2C_Read_Continue(pConfig->camera_i2c_base, device_address, szData8, sizeof(szData8));
   22380:	e0bfff17 	ldw	r2,-4(fp)
   22384:	10800117 	ldw	r2,4(r2)
   22388:	1009883a 	mov	r4,r2
   2238c:	e0fffc03 	ldbu	r3,-16(fp)
   22390:	e0bffe04 	addi	r2,fp,-8
   22394:	180b883a 	mov	r5,r3
   22398:	100d883a 	mov	r6,r2
   2239c:	01c00084 	movi	r7,2
   223a0:	0020a700 	call	20a70 <OC_I2C_Read_Continue>
   223a4:	e0bffd15 	stw	r2,-12(fp)
		if (bSuccess)
   223a8:	e0bffd17 	ldw	r2,-12(fp)
   223ac:	10000926 	beq	r2,zero,223d4 <OV8865_read_AF+0x70>
			printf("Read MSB=%xh, LSB=%xh\r\n", szData8[0], szData8[1]);
   223b0:	e0bffe03 	ldbu	r2,-8(fp)
   223b4:	10c03fcc 	andi	r3,r2,255
   223b8:	e0bffe43 	ldbu	r2,-7(fp)
   223bc:	10803fcc 	andi	r2,r2,255
   223c0:	010000f4 	movhi	r4,3
   223c4:	21128004 	addi	r4,r4,18944
   223c8:	180b883a 	mov	r5,r3
   223cc:	100d883a 	mov	r6,r2
   223d0:	0025df80 	call	25df8 <printf>
}
   223d4:	e037883a 	mov	sp,fp
   223d8:	dfc00117 	ldw	ra,4(sp)
   223dc:	df000017 	ldw	fp,0(sp)
   223e0:	dec00204 	addi	sp,sp,8
   223e4:	f800283a 	ret

000223e8 <OV8865_FOCUS_Move_to>:

void OV8865_FOCUS_Move_to(config_t *pConfig,alt_u16 a_u2MovePosition)
{
   223e8:	defffa04 	addi	sp,sp,-24
   223ec:	dfc00515 	stw	ra,20(sp)
   223f0:	df000415 	stw	fp,16(sp)
   223f4:	df000404 	addi	fp,sp,16
   223f8:	e13ffe15 	stw	r4,-8(fp)
   223fc:	2805883a 	mov	r2,r5
   22400:	e0bfff0d 	sth	r2,-4(fp)
  if (a_u2MovePosition > 1023)   {a_u2MovePosition = 1023;}
   22404:	e0bfff0b 	ldhu	r2,-4(fp)
   22408:	10810030 	cmpltui	r2,r2,1024
   2240c:	1000021e 	bne	r2,zero,22418 <OV8865_FOCUS_Move_to+0x30>
   22410:	0080ffc4 	movi	r2,1023
   22414:	e0bfff0d 	sth	r2,-4(fp)
  if (a_u2MovePosition < 0)     {a_u2MovePosition = 0;}
  int bSuccess;

  Focus_Released(pConfig); // waiting for VCM release I2C bus
   22418:	e13ffe17 	ldw	r4,-8(fp)
   2241c:	00213bc0 	call	213bc <Focus_Released>

	bSuccess = oc_i2c_init_ex(pConfig->camera_i2c_base, 50*1000*1000,100*1000); //I2C: 100K
   22420:	e0bffe17 	ldw	r2,-8(fp)
   22424:	10800117 	ldw	r2,4(r2)
   22428:	1009883a 	mov	r4,r2
   2242c:	0140bef4 	movhi	r5,763
   22430:	297c2004 	addi	r5,r5,-3968
   22434:	018000b4 	movhi	r6,2
   22438:	31a1a804 	addi	r6,r6,-31072
   2243c:	00203940 	call	20394 <oc_i2c_init_ex>
   22440:	e0bffc15 	stw	r2,-16(fp)
	if (!bSuccess)
   22444:	e0bffc17 	ldw	r2,-16(fp)
   22448:	1000031e 	bne	r2,zero,22458 <OV8865_FOCUS_Move_to+0x70>
		printf("failed to init MIPI- Camera i2c\r\n");
   2244c:	010000f4 	movhi	r4,3
   22450:	21128604 	addi	r4,r4,18968
   22454:	0025f0c0 	call	25f0c <puts>

	printf("[%s]: set focus to %d\r\n",pConfig->str,a_u2MovePosition);
   22458:	e0bffe17 	ldw	r2,-8(fp)
   2245c:	10c00544 	addi	r3,r2,21
   22460:	e0bfff0b 	ldhu	r2,-4(fp)
   22464:	010000f4 	movhi	r4,3
   22468:	21128f04 	addi	r4,r4,19004
   2246c:	180b883a 	mov	r5,r3
   22470:	100d883a 	mov	r6,r2
   22474:	0025df80 	call	25df8 <printf>
  alt_u8 msb,lsb;
  msb = (a_u2MovePosition >> 4)&0x00FF;
   22478:	e0bfff0b 	ldhu	r2,-4(fp)
   2247c:	1004d13a 	srli	r2,r2,4
   22480:	e0bffd05 	stb	r2,-12(fp)
  lsb = (a_u2MovePosition << 4 )&0x00F0;
   22484:	e0bfff0b 	ldhu	r2,-4(fp)
   22488:	1004913a 	slli	r2,r2,4
   2248c:	e0bffd45 	stb	r2,-11(fp)
  lsb += 0x06;
   22490:	e0bffd43 	ldbu	r2,-11(fp)
   22494:	10800184 	addi	r2,r2,6
   22498:	e0bffd45 	stb	r2,-11(fp)
//	printf("Write MSB=%xh, LSB=%xh\r\n", msb, lsb);
	OV8865_write_AF(pConfig,msb, lsb+0x6);
   2249c:	e0fffd03 	ldbu	r3,-12(fp)
   224a0:	e0bffd43 	ldbu	r2,-11(fp)
   224a4:	10800184 	addi	r2,r2,6
   224a8:	10803fcc 	andi	r2,r2,255
   224ac:	e13ffe17 	ldw	r4,-8(fp)
   224b0:	180b883a 	mov	r5,r3
   224b4:	100d883a 	mov	r6,r2
   224b8:	00222fc0 	call	222fc <OV8865_write_AF>
	usleep(1000);
   224bc:	0100fa04 	movi	r4,1000
   224c0:	00322500 	call	32250 <usleep>
//	OV8865_read_AF();
	oc_i2c_uninit(pConfig->camera_i2c_base);  // Release I2C bus , due to two I2C master shared!
   224c4:	e0bffe17 	ldw	r2,-8(fp)
   224c8:	10800117 	ldw	r2,4(r2)
   224cc:	1009883a 	mov	r4,r2
   224d0:	00204d00 	call	204d0 <oc_i2c_uninit>

}
   224d4:	e037883a 	mov	sp,fp
   224d8:	dfc00117 	ldw	ra,4(sp)
   224dc:	df000017 	ldw	fp,0(sp)
   224e0:	dec00204 	addi	sp,sp,8
   224e4:	f800283a 	ret

000224e8 <camera_bin_level>:




//ZOOM
void camera_bin_level(config_t *pConfig,alt_u8 level){
   224e8:	defffb04 	addi	sp,sp,-20
   224ec:	dfc00415 	stw	ra,16(sp)
   224f0:	df000315 	stw	fp,12(sp)
   224f4:	df000304 	addi	fp,sp,12
   224f8:	e13ffe15 	stw	r4,-8(fp)
   224fc:	2805883a 	mov	r2,r5
   22500:	e0bfff05 	stb	r2,-4(fp)
	if(level <= 1) level = 1;
   22504:	e0bfff03 	ldbu	r2,-4(fp)
   22508:	108000a8 	cmpgeui	r2,r2,2
   2250c:	1000021e 	bne	r2,zero,22518 <camera_bin_level+0x30>
   22510:	00800044 	movi	r2,1
   22514:	e0bfff05 	stb	r2,-4(fp)
	if(level >= 3) level = 3;
   22518:	e0bfff03 	ldbu	r2,-4(fp)
   2251c:	108000f0 	cmpltui	r2,r2,3
   22520:	1000021e 	bne	r2,zero,2252c <camera_bin_level+0x44>
   22524:	008000c4 	movi	r2,3
   22528:	e0bfff05 	stb	r2,-4(fp)

	  Focus_Released(pConfig); // waiting for VCM release I2C bus
   2252c:	e13ffe17 	ldw	r4,-8(fp)
   22530:	00213bc0 	call	213bc <Focus_Released>

	  int bSuccess;
		bSuccess = oc_i2c_init_ex(pConfig->camera_i2c_base, 50*1000*1000,100*1000); //I2C: 100K
   22534:	e0bffe17 	ldw	r2,-8(fp)
   22538:	10800117 	ldw	r2,4(r2)
   2253c:	1009883a 	mov	r4,r2
   22540:	0140bef4 	movhi	r5,763
   22544:	297c2004 	addi	r5,r5,-3968
   22548:	018000b4 	movhi	r6,2
   2254c:	31a1a804 	addi	r6,r6,-31072
   22550:	00203940 	call	20394 <oc_i2c_init_ex>
   22554:	e0bffd15 	stw	r2,-12(fp)
		if (!bSuccess)
   22558:	e0bffd17 	ldw	r2,-12(fp)
   2255c:	1000031e 	bne	r2,zero,2256c <camera_bin_level+0x84>
			printf("failed to init MIPI- Camera i2c\r\n");
   22560:	010000f4 	movhi	r4,3
   22564:	21128604 	addi	r4,r4,18968
   22568:	0025f0c0 	call	25f0c <puts>

	printf("[%s]: set zoom level to %d\r\n",pConfig->str,level);
   2256c:	e0bffe17 	ldw	r2,-8(fp)
   22570:	10c00544 	addi	r3,r2,21
   22574:	e0bfff03 	ldbu	r2,-4(fp)
   22578:	010000f4 	movhi	r4,3
   2257c:	21129504 	addi	r4,r4,19028
   22580:	180b883a 	mov	r5,r3
   22584:	100d883a 	mov	r6,r2
   22588:	0025df80 	call	25df8 <printf>

//	OV8865_write_cmos_sensor_8(pConfig,0x0100, 0x00);

	if(level == 1){
   2258c:	e0bfff03 	ldbu	r2,-4(fp)
   22590:	10800058 	cmpnei	r2,r2,1
   22594:	1000191e 	bne	r2,zero,225fc <camera_bin_level+0x114>
		OV8865_write_cmos_sensor_8(pConfig,0x3814, 0x01);
   22598:	e13ffe17 	ldw	r4,-8(fp)
   2259c:	014e0504 	movi	r5,14356
   225a0:	01800044 	movi	r6,1
   225a4:	00222940 	call	22294 <OV8865_write_cmos_sensor_8>
		OV8865_write_cmos_sensor_8(pConfig,0x3815, 0x01);
   225a8:	e13ffe17 	ldw	r4,-8(fp)
   225ac:	014e0544 	movi	r5,14357
   225b0:	01800044 	movi	r6,1
   225b4:	00222940 	call	22294 <OV8865_write_cmos_sensor_8>
		OV8865_write_cmos_sensor_8(pConfig,0x382a, 0x01);
   225b8:	e13ffe17 	ldw	r4,-8(fp)
   225bc:	014e0a84 	movi	r5,14378
   225c0:	01800044 	movi	r6,1
   225c4:	00222940 	call	22294 <OV8865_write_cmos_sensor_8>
		OV8865_write_cmos_sensor_8(pConfig,0x382b, 0x01);
   225c8:	e13ffe17 	ldw	r4,-8(fp)
   225cc:	014e0ac4 	movi	r5,14379
   225d0:	01800044 	movi	r6,1
   225d4:	00222940 	call	22294 <OV8865_write_cmos_sensor_8>

		OV8865_write_cmos_sensor_8(pConfig,0x3830, 8);
   225d8:	e13ffe17 	ldw	r4,-8(fp)
   225dc:	014e0c04 	movi	r5,14384
   225e0:	01800204 	movi	r6,8
   225e4:	00222940 	call	22294 <OV8865_write_cmos_sensor_8>
		OV8865_write_cmos_sensor_8(pConfig,0x3836, 2);
   225e8:	e13ffe17 	ldw	r4,-8(fp)
   225ec:	014e0d84 	movi	r5,14390
   225f0:	01800084 	movi	r6,2
   225f4:	00222940 	call	22294 <OV8865_write_cmos_sensor_8>
   225f8:	00003706 	br	226d8 <camera_bin_level+0x1f0>
	}
	else if(level == 2){
   225fc:	e0bfff03 	ldbu	r2,-4(fp)
   22600:	10800098 	cmpnei	r2,r2,2
   22604:	1000191e 	bne	r2,zero,2266c <camera_bin_level+0x184>
		OV8865_write_cmos_sensor_8(pConfig,0x3814, 0x03);
   22608:	e13ffe17 	ldw	r4,-8(fp)
   2260c:	014e0504 	movi	r5,14356
   22610:	018000c4 	movi	r6,3
   22614:	00222940 	call	22294 <OV8865_write_cmos_sensor_8>
		OV8865_write_cmos_sensor_8(pConfig,0x3815, 0x01);
   22618:	e13ffe17 	ldw	r4,-8(fp)
   2261c:	014e0544 	movi	r5,14357
   22620:	01800044 	movi	r6,1
   22624:	00222940 	call	22294 <OV8865_write_cmos_sensor_8>
		OV8865_write_cmos_sensor_8(pConfig,0x382a, 0x03);
   22628:	e13ffe17 	ldw	r4,-8(fp)
   2262c:	014e0a84 	movi	r5,14378
   22630:	018000c4 	movi	r6,3
   22634:	00222940 	call	22294 <OV8865_write_cmos_sensor_8>
		OV8865_write_cmos_sensor_8(pConfig,0x382b, 0x01);
   22638:	e13ffe17 	ldw	r4,-8(fp)
   2263c:	014e0ac4 	movi	r5,14379
   22640:	01800044 	movi	r6,1
   22644:	00222940 	call	22294 <OV8865_write_cmos_sensor_8>

		OV8865_write_cmos_sensor_8(pConfig,0x3830, 4);
   22648:	e13ffe17 	ldw	r4,-8(fp)
   2264c:	014e0c04 	movi	r5,14384
   22650:	01800104 	movi	r6,4
   22654:	00222940 	call	22294 <OV8865_write_cmos_sensor_8>
		OV8865_write_cmos_sensor_8(pConfig,0x3836, 1);
   22658:	e13ffe17 	ldw	r4,-8(fp)
   2265c:	014e0d84 	movi	r5,14390
   22660:	01800044 	movi	r6,1
   22664:	00222940 	call	22294 <OV8865_write_cmos_sensor_8>
   22668:	00001b06 	br	226d8 <camera_bin_level+0x1f0>

	}
	else if(level == 3){
   2266c:	e0bfff03 	ldbu	r2,-4(fp)
   22670:	108000d8 	cmpnei	r2,r2,3
   22674:	1000181e 	bne	r2,zero,226d8 <camera_bin_level+0x1f0>
		OV8865_write_cmos_sensor_8(pConfig,0x3814, 0x07);
   22678:	e13ffe17 	ldw	r4,-8(fp)
   2267c:	014e0504 	movi	r5,14356
   22680:	018001c4 	movi	r6,7
   22684:	00222940 	call	22294 <OV8865_write_cmos_sensor_8>
		OV8865_write_cmos_sensor_8(pConfig,0x3815, 0x01);
   22688:	e13ffe17 	ldw	r4,-8(fp)
   2268c:	014e0544 	movi	r5,14357
   22690:	01800044 	movi	r6,1
   22694:	00222940 	call	22294 <OV8865_write_cmos_sensor_8>
		OV8865_write_cmos_sensor_8(pConfig,0x382a, 0x07);
   22698:	e13ffe17 	ldw	r4,-8(fp)
   2269c:	014e0a84 	movi	r5,14378
   226a0:	018001c4 	movi	r6,7
   226a4:	00222940 	call	22294 <OV8865_write_cmos_sensor_8>
		OV8865_write_cmos_sensor_8(pConfig,0x382b, 0x01);
   226a8:	e13ffe17 	ldw	r4,-8(fp)
   226ac:	014e0ac4 	movi	r5,14379
   226b0:	01800044 	movi	r6,1
   226b4:	00222940 	call	22294 <OV8865_write_cmos_sensor_8>

		OV8865_write_cmos_sensor_8(pConfig,0x3830, 8);
   226b8:	e13ffe17 	ldw	r4,-8(fp)
   226bc:	014e0c04 	movi	r5,14384
   226c0:	01800204 	movi	r6,8
   226c4:	00222940 	call	22294 <OV8865_write_cmos_sensor_8>
		OV8865_write_cmos_sensor_8(pConfig,0x3836, 2);
   226c8:	e13ffe17 	ldw	r4,-8(fp)
   226cc:	014e0d84 	movi	r5,14390
   226d0:	01800084 	movi	r6,2
   226d4:	00222940 	call	22294 <OV8865_write_cmos_sensor_8>
	}
    usleep(10000);
   226d8:	0109c404 	movi	r4,10000
   226dc:	00322500 	call	32250 <usleep>
//	// use hardware standby for sync multi-Camera!
//    IOWR(MIPI_PWDN_N_BASE, 0x00, 0x00);
//    usleep(1000);
//    IOWR(MIPI_PWDN_N_BASE, 0x00, 0xFF);

	oc_i2c_uninit(pConfig->camera_i2c_base);  // Release I2C bus , due to two I2C master shared!
   226e0:	e0bffe17 	ldw	r2,-8(fp)
   226e4:	10800117 	ldw	r2,4(r2)
   226e8:	1009883a 	mov	r4,r2
   226ec:	00204d00 	call	204d0 <oc_i2c_uninit>

}
   226f0:	e037883a 	mov	sp,fp
   226f4:	dfc00117 	ldw	ra,4(sp)
   226f8:	df000017 	ldw	fp,0(sp)
   226fc:	dec00204 	addi	sp,sp,8
   22700:	f800283a 	ret

00022704 <MipiCameraInit>:



void MipiCameraInit(config_t *pConfig)
{
   22704:	defffa04 	addi	sp,sp,-24
   22708:	dfc00515 	stw	ra,20(sp)
   2270c:	df000415 	stw	fp,16(sp)
   22710:	df000404 	addi	fp,sp,16
   22714:	e13fff15 	stw	r4,-4(fp)

    int i, num;
    int bSuccess;

    Focus_Released(pConfig); // waiting for VCM release I2C bus
   22718:	e13fff17 	ldw	r4,-4(fp)
   2271c:	00213bc0 	call	213bc <Focus_Released>


		bSuccess = oc_i2c_init_ex(pConfig->camera_i2c_base, 50*1000*1000,100*1000); //I2C: 100K
   22720:	e0bfff17 	ldw	r2,-4(fp)
   22724:	10800117 	ldw	r2,4(r2)
   22728:	1009883a 	mov	r4,r2
   2272c:	0140bef4 	movhi	r5,763
   22730:	297c2004 	addi	r5,r5,-3968
   22734:	018000b4 	movhi	r6,2
   22738:	31a1a804 	addi	r6,r6,-31072
   2273c:	00203940 	call	20394 <oc_i2c_init_ex>
   22740:	e0bffd15 	stw	r2,-12(fp)
		if (!bSuccess)
   22744:	e0bffd17 	ldw	r2,-12(fp)
   22748:	1000031e 	bne	r2,zero,22758 <MipiCameraInit+0x54>
			printf("failed to init MIPI- Camera\r\n");
   2274c:	010000f4 	movhi	r4,3
   22750:	21129d04 	addi	r4,r4,19060
   22754:	0025f0c0 	call	25f0c <puts>
//        usleep(10000);
//    }
//


	 OV8865DB("\n[%s]: Start MipiCameraInit -OV8865!\r\n",pConfig->str);
   22758:	e0bfff17 	ldw	r2,-4(fp)
   2275c:	10800544 	addi	r2,r2,21
   22760:	010000f4 	movhi	r4,3
   22764:	2112a504 	addi	r4,r4,19092
   22768:	100b883a 	mov	r5,r2
   2276c:	0025df80 	call	25df8 <printf>
	 OV8865DB("Write Read Test!\n");
   22770:	010000f4 	movhi	r4,3
   22774:	2112af04 	addi	r4,r4,19132
   22778:	0025f0c0 	call	25f0c <puts>

	    for(i=0;i<10;i++){
   2277c:	e03ffc15 	stw	zero,-16(fp)
   22780:	00001606 	br	227dc <MipiCameraInit+0xd8>
	       OV8865_write_cmos_sensor_8(pConfig,0x3809,i);
   22784:	e0bffc17 	ldw	r2,-16(fp)
   22788:	10803fcc 	andi	r2,r2,255
   2278c:	e13fff17 	ldw	r4,-4(fp)
   22790:	014e0244 	movi	r5,14345
   22794:	100d883a 	mov	r6,r2
   22798:	00222940 	call	22294 <OV8865_write_cmos_sensor_8>
	      usleep(100);
   2279c:	01001904 	movi	r4,100
   227a0:	00322500 	call	32250 <usleep>
	        printf("%d (%d)\n",OV8865_read_cmos_sensor_8(pConfig,0x3809),i);
   227a4:	e13fff17 	ldw	r4,-4(fp)
   227a8:	014e0244 	movi	r5,14345
   227ac:	00222300 	call	22230 <OV8865_read_cmos_sensor_8>
   227b0:	10803fcc 	andi	r2,r2,255
   227b4:	010000f4 	movhi	r4,3
   227b8:	2112b404 	addi	r4,r4,19152
   227bc:	100b883a 	mov	r5,r2
   227c0:	e1bffc17 	ldw	r6,-16(fp)
   227c4:	0025df80 	call	25df8 <printf>
	      usleep(100);
   227c8:	01001904 	movi	r4,100
   227cc:	00322500 	call	32250 <usleep>


	 OV8865DB("\n[%s]: Start MipiCameraInit -OV8865!\r\n",pConfig->str);
	 OV8865DB("Write Read Test!\n");

	    for(i=0;i<10;i++){
   227d0:	e0bffc17 	ldw	r2,-16(fp)
   227d4:	10800044 	addi	r2,r2,1
   227d8:	e0bffc15 	stw	r2,-16(fp)
   227dc:	e0bffc17 	ldw	r2,-16(fp)
   227e0:	10800290 	cmplti	r2,r2,10
   227e4:	103fe71e 	bne	r2,zero,22784 <__alt_data_end+0xfffe2784>
	       OV8865_write_cmos_sensor_8(pConfig,0x3809,i);
	      usleep(100);
	        printf("%d (%d)\n",OV8865_read_cmos_sensor_8(pConfig,0x3809),i);
	      usleep(100);
	    }
	 num = sizeof(MipiCameraReg)/sizeof(MipiCameraReg[0]);
   227e8:	00804ec4 	movi	r2,315
   227ec:	e0bffe15 	stw	r2,-8(fp)
     for(i=0;i<num;i++){
   227f0:	e03ffc15 	stw	zero,-16(fp)
   227f4:	00003d06 	br	228ec <MipiCameraInit+0x1e8>

    	 if (MipiCameraReg[i].Type == TIME_DELAY)   usleep(MipiCameraReg[i].Data*100);
   227f8:	008000f4 	movhi	r2,3
   227fc:	10939c04 	addi	r2,r2,20080
   22800:	e0fffc17 	ldw	r3,-16(fp)
   22804:	18c001a4 	muli	r3,r3,6
   22808:	10c5883a 	add	r2,r2,r3
   2280c:	10800003 	ldbu	r2,0(r2)
   22810:	10803fcc 	andi	r2,r2,255
   22814:	108000d8 	cmpnei	r2,r2,3
   22818:	10000c1e 	bne	r2,zero,2284c <MipiCameraInit+0x148>
   2281c:	008000f4 	movhi	r2,3
   22820:	10939c04 	addi	r2,r2,20080
   22824:	e0fffc17 	ldw	r3,-16(fp)
   22828:	18c001a4 	muli	r3,r3,6
   2282c:	10c5883a 	add	r2,r2,r3
   22830:	10800104 	addi	r2,r2,4
   22834:	10800003 	ldbu	r2,0(r2)
   22838:	10803fcc 	andi	r2,r2,255
   2283c:	10801924 	muli	r2,r2,100
   22840:	1009883a 	mov	r4,r2
   22844:	00322500 	call	32250 <usleep>
   22848:	00002506 	br	228e0 <MipiCameraInit+0x1dc>
    	 else if(MipiCameraReg[i].Type == END_OF_SCRIPT)   break;
   2284c:	008000f4 	movhi	r2,3
   22850:	10939c04 	addi	r2,r2,20080
   22854:	e0fffc17 	ldw	r3,-16(fp)
   22858:	18c001a4 	muli	r3,r3,6
   2285c:	10c5883a 	add	r2,r2,r3
   22860:	10800003 	ldbu	r2,0(r2)
   22864:	10803fcc 	andi	r2,r2,255
   22868:	10800118 	cmpnei	r2,r2,4
   2286c:	1000011e 	bne	r2,zero,22874 <MipiCameraInit+0x170>
   22870:	00002106 	br	228f8 <MipiCameraInit+0x1f4>
    	 else if(MipiCameraReg[i].Type == 0x6c)   OV8865_write_cmos_sensor_8(pConfig,MipiCameraReg[i].Addr, MipiCameraReg[i].Data);
   22874:	008000f4 	movhi	r2,3
   22878:	10939c04 	addi	r2,r2,20080
   2287c:	e0fffc17 	ldw	r3,-16(fp)
   22880:	18c001a4 	muli	r3,r3,6
   22884:	10c5883a 	add	r2,r2,r3
   22888:	10800003 	ldbu	r2,0(r2)
   2288c:	10803fcc 	andi	r2,r2,255
   22890:	10801b18 	cmpnei	r2,r2,108
   22894:	1000121e 	bne	r2,zero,228e0 <MipiCameraInit+0x1dc>
   22898:	008000f4 	movhi	r2,3
   2289c:	10939c04 	addi	r2,r2,20080
   228a0:	e0fffc17 	ldw	r3,-16(fp)
   228a4:	18c001a4 	muli	r3,r3,6
   228a8:	10c5883a 	add	r2,r2,r3
   228ac:	1080008b 	ldhu	r2,2(r2)
   228b0:	117fffcc 	andi	r5,r2,65535
   228b4:	008000f4 	movhi	r2,3
   228b8:	10939c04 	addi	r2,r2,20080
   228bc:	e0fffc17 	ldw	r3,-16(fp)
   228c0:	18c001a4 	muli	r3,r3,6
   228c4:	10c5883a 	add	r2,r2,r3
   228c8:	10800104 	addi	r2,r2,4
   228cc:	10800003 	ldbu	r2,0(r2)
   228d0:	10803fcc 	andi	r2,r2,255
   228d4:	e13fff17 	ldw	r4,-4(fp)
   228d8:	100d883a 	mov	r6,r2
   228dc:	00222940 	call	22294 <OV8865_write_cmos_sensor_8>
	      usleep(100);
	        printf("%d (%d)\n",OV8865_read_cmos_sensor_8(pConfig,0x3809),i);
	      usleep(100);
	    }
	 num = sizeof(MipiCameraReg)/sizeof(MipiCameraReg[0]);
     for(i=0;i<num;i++){
   228e0:	e0bffc17 	ldw	r2,-16(fp)
   228e4:	10800044 	addi	r2,r2,1
   228e8:	e0bffc15 	stw	r2,-16(fp)
   228ec:	e0fffc17 	ldw	r3,-16(fp)
   228f0:	e0bffe17 	ldw	r2,-8(fp)
   228f4:	18bfc016 	blt	r3,r2,227f8 <__alt_data_end+0xfffe27f8>
    	 else if(MipiCameraReg[i].Type == END_OF_SCRIPT)   break;
    	 else if(MipiCameraReg[i].Type == 0x6c)   OV8865_write_cmos_sensor_8(pConfig,MipiCameraReg[i].Addr, MipiCameraReg[i].Data);
     }


 	oc_i2c_uninit(pConfig->camera_i2c_base);  // Release I2C bus , due to two I2C master shared!
   228f8:	e0bfff17 	ldw	r2,-4(fp)
   228fc:	10800117 	ldw	r2,4(r2)
   22900:	1009883a 	mov	r4,r2
   22904:	00204d00 	call	204d0 <oc_i2c_uninit>



	 OV8865DB("\n[%s]: End MipiCameraInit! -OV8865!\r\n\n",pConfig->str);
   22908:	e0bfff17 	ldw	r2,-4(fp)
   2290c:	10800544 	addi	r2,r2,21
   22910:	010000f4 	movhi	r4,3
   22914:	2112b704 	addi	r4,r4,19164
   22918:	100b883a 	mov	r5,r2
   2291c:	0025df80 	call	25df8 <printf>

}
   22920:	e037883a 	mov	sp,fp
   22924:	dfc00117 	ldw	ra,4(sp)
   22928:	df000017 	ldw	fp,0(sp)
   2292c:	dec00204 	addi	sp,sp,8
   22930:	f800283a 	ret

00022934 <mixerii_go>:

#include <stdio.h>
#include "terasic_includes.h"


void mixerii_go(int go){
   22934:	defffe04 	addi	sp,sp,-8
   22938:	df000115 	stw	fp,4(sp)
   2293c:	df000104 	addi	fp,sp,4
   22940:	e13fff15 	stw	r4,-4(fp)
	if(go==0) IOWR(ALT_VIP_CL_MIXER_0_BASE,0,0);
   22944:	e0bfff17 	ldw	r2,-4(fp)
   22948:	1000051e 	bne	r2,zero,22960 <mixerii_go+0x2c>
   2294c:	0007883a 	mov	r3,zero
   22950:	00800134 	movhi	r2,4
   22954:	10850004 	addi	r2,r2,5120
   22958:	10c00035 	stwio	r3,0(r2)
   2295c:	00000406 	br	22970 <mixerii_go+0x3c>
	else      IOWR(ALT_VIP_CL_MIXER_0_BASE,0,1);
   22960:	00c00044 	movi	r3,1
   22964:	00800134 	movhi	r2,4
   22968:	10850004 	addi	r2,r2,5120
   2296c:	10c00035 	stwio	r3,0(r2)
}
   22970:	e037883a 	mov	sp,fp
   22974:	df000017 	ldw	fp,0(sp)
   22978:	dec00104 	addi	sp,sp,4
   2297c:	f800283a 	ret

00022980 <mixerii_background_config>:

void mixerii_background_config(alt_u32 width,alt_u32 height){
   22980:	defffd04 	addi	sp,sp,-12
   22984:	df000215 	stw	fp,8(sp)
   22988:	df000204 	addi	fp,sp,8
   2298c:	e13ffe15 	stw	r4,-8(fp)
   22990:	e17fff15 	stw	r5,-4(fp)
	 IOWR(ALT_VIP_CL_MIXER_0_BASE,23,height);
   22994:	e0ffff17 	ldw	r3,-4(fp)
   22998:	00800134 	movhi	r2,4
   2299c:	10851704 	addi	r2,r2,5212
   229a0:	10c00035 	stwio	r3,0(r2)
	 IOWR(ALT_VIP_CL_MIXER_0_BASE,24,width);
   229a4:	e0fffe17 	ldw	r3,-8(fp)
   229a8:	00800134 	movhi	r2,4
   229ac:	10851804 	addi	r2,r2,5216
   229b0:	10c00035 	stwio	r3,0(r2)
}
   229b4:	e037883a 	mov	sp,fp
   229b8:	df000017 	ldw	fp,0(sp)
   229bc:	dec00104 	addi	sp,sp,4
   229c0:	f800283a 	ret

000229c4 <mixerii_layer_enable>:

void mixerii_layer_enable(alt_u8 channel,alt_u8 enable){
   229c4:	defffd04 	addi	sp,sp,-12
   229c8:	df000215 	stw	fp,8(sp)
   229cc:	df000204 	addi	fp,sp,8
   229d0:	2007883a 	mov	r3,r4
   229d4:	2805883a 	mov	r2,r5
   229d8:	e0fffe05 	stb	r3,-8(fp)
   229dc:	e0bfff05 	stb	r2,-4(fp)
	if(channel >3) return;
   229e0:	e0bffe03 	ldbu	r2,-8(fp)
   229e4:	10800130 	cmpltui	r2,r2,4
   229e8:	1000011e 	bne	r2,zero,229f0 <mixerii_layer_enable+0x2c>
   229ec:	00001506 	br	22a44 <mixerii_layer_enable+0x80>
	if(enable==0) IOWR(ALT_VIP_CL_MIXER_0_BASE,(channel+1)*5,0);
   229f0:	e0bfff03 	ldbu	r2,-4(fp)
   229f4:	10000a1e 	bne	r2,zero,22a20 <mixerii_layer_enable+0x5c>
   229f8:	e0bffe03 	ldbu	r2,-8(fp)
   229fc:	10800044 	addi	r2,r2,1
   22a00:	10800524 	muli	r2,r2,20
   22a04:	1007883a 	mov	r3,r2
   22a08:	00800134 	movhi	r2,4
   22a0c:	10850004 	addi	r2,r2,5120
   22a10:	1885883a 	add	r2,r3,r2
   22a14:	0007883a 	mov	r3,zero
   22a18:	10c00035 	stwio	r3,0(r2)
   22a1c:	00000906 	br	22a44 <mixerii_layer_enable+0x80>
	else      IOWR(ALT_VIP_CL_MIXER_0_BASE,(channel+1)*5,1);
   22a20:	e0bffe03 	ldbu	r2,-8(fp)
   22a24:	10800044 	addi	r2,r2,1
   22a28:	10800524 	muli	r2,r2,20
   22a2c:	1007883a 	mov	r3,r2
   22a30:	00800134 	movhi	r2,4
   22a34:	10850004 	addi	r2,r2,5120
   22a38:	1885883a 	add	r2,r3,r2
   22a3c:	00c00044 	movi	r3,1
   22a40:	10c00035 	stwio	r3,0(r2)
}
   22a44:	e037883a 	mov	sp,fp
   22a48:	df000017 	ldw	fp,0(sp)
   22a4c:	dec00104 	addi	sp,sp,4
   22a50:	f800283a 	ret

00022a54 <mixerii_layer_position>:

void mixerii_layer_position(alt_u8 channel,alt_u32 x_offset,alt_u32 y_offset){
   22a54:	defffb04 	addi	sp,sp,-20
   22a58:	dfc00415 	stw	ra,16(sp)
   22a5c:	df000315 	stw	fp,12(sp)
   22a60:	df000304 	addi	fp,sp,12
   22a64:	2005883a 	mov	r2,r4
   22a68:	e17ffe15 	stw	r5,-8(fp)
   22a6c:	e1bfff15 	stw	r6,-4(fp)
   22a70:	e0bffd05 	stb	r2,-12(fp)
	if(channel >3) return;
   22a74:	e0bffd03 	ldbu	r2,-12(fp)
   22a78:	10800130 	cmpltui	r2,r2,4
   22a7c:	1000011e 	bne	r2,zero,22a84 <mixerii_layer_position+0x30>
   22a80:	00001606 	br	22adc <mixerii_layer_position+0x88>

	mixerii_go(0);
   22a84:	0009883a 	mov	r4,zero
   22a88:	00229340 	call	22934 <mixerii_go>

	// x offset from left
	IOWR(ALT_VIP_CL_MIXER_0_BASE,channel*5+3,x_offset);
   22a8c:	e0bffd03 	ldbu	r2,-12(fp)
   22a90:	10800524 	muli	r2,r2,20
   22a94:	10800304 	addi	r2,r2,12
   22a98:	1007883a 	mov	r3,r2
   22a9c:	00800134 	movhi	r2,4
   22aa0:	10850004 	addi	r2,r2,5120
   22aa4:	1885883a 	add	r2,r3,r2
   22aa8:	e0fffe17 	ldw	r3,-8(fp)
   22aac:	10c00035 	stwio	r3,0(r2)
	// y offset from top
	IOWR(ALT_VIP_CL_MIXER_0_BASE,channel*5+4,y_offset);
   22ab0:	e0bffd03 	ldbu	r2,-12(fp)
   22ab4:	10800524 	muli	r2,r2,20
   22ab8:	10800404 	addi	r2,r2,16
   22abc:	1007883a 	mov	r3,r2
   22ac0:	00800134 	movhi	r2,4
   22ac4:	10850004 	addi	r2,r2,5120
   22ac8:	1885883a 	add	r2,r3,r2
   22acc:	e0ffff17 	ldw	r3,-4(fp)
   22ad0:	10c00035 	stwio	r3,0(r2)

	mixerii_go(1);
   22ad4:	01000044 	movi	r4,1
   22ad8:	00229340 	call	22934 <mixerii_go>

}
   22adc:	e037883a 	mov	sp,fp
   22ae0:	dfc00117 	ldw	ra,4(sp)
   22ae4:	df000017 	ldw	fp,0(sp)
   22ae8:	dec00204 	addi	sp,sp,8
   22aec:	f800283a 	ret

00022af0 <camera_out_of_range>:

video_t camera0;
video_t camera1;
//////////////////////////////////////////////////////////
// local functions
int camera_out_of_range(int x,int y,int factor){
   22af0:	defffc04 	addi	sp,sp,-16
   22af4:	df000315 	stw	fp,12(sp)
   22af8:	df000304 	addi	fp,sp,12
   22afc:	e13ffd15 	stw	r4,-12(fp)
   22b00:	e17ffe15 	stw	r5,-8(fp)
   22b04:	e1bfff15 	stw	r6,-4(fp)

	if(factor<2)return 1;
   22b08:	e0bfff17 	ldw	r2,-4(fp)
   22b0c:	10800088 	cmpgei	r2,r2,2
   22b10:	1000021e 	bne	r2,zero,22b1c <camera_out_of_range+0x2c>
   22b14:	00800044 	movi	r2,1
   22b18:	00002406 	br	22bac <camera_out_of_range+0xbc>
	if(factor > CAMERA_WIDTH/VIDEO_WIDTH_FACTOR) return 1;
   22b1c:	e0bfff17 	ldw	r2,-4(fp)
   22b20:	10802850 	cmplti	r2,r2,161
   22b24:	1000021e 	bne	r2,zero,22b30 <camera_out_of_range+0x40>
   22b28:	00800044 	movi	r2,1
   22b2c:	00001f06 	br	22bac <camera_out_of_range+0xbc>

	if(x<H_START) return 1;
   22b30:	e0bffd17 	ldw	r2,-12(fp)
   22b34:	10800348 	cmpgei	r2,r2,13
   22b38:	1000021e 	bne	r2,zero,22b44 <camera_out_of_range+0x54>
   22b3c:	00800044 	movi	r2,1
   22b40:	00001a06 	br	22bac <camera_out_of_range+0xbc>
	if((x+factor*VIDEO_WIDTH_FACTOR)> (MIXERII_WIDTH - H_END)) return 1;
   22b44:	e0bfff17 	ldw	r2,-4(fp)
   22b48:	1085883a 	add	r2,r2,r2
   22b4c:	1085883a 	add	r2,r2,r2
   22b50:	1007883a 	mov	r3,r2
   22b54:	e0bffd17 	ldw	r2,-12(fp)
   22b58:	1885883a 	add	r2,r3,r2
   22b5c:	1080c510 	cmplti	r2,r2,788
   22b60:	1000021e 	bne	r2,zero,22b6c <camera_out_of_range+0x7c>
   22b64:	00800044 	movi	r2,1
   22b68:	00001006 	br	22bac <camera_out_of_range+0xbc>

	if(y<V_START) return 1;
   22b6c:	e0bffe17 	ldw	r2,-8(fp)
   22b70:	10800248 	cmpgei	r2,r2,9
   22b74:	1000021e 	bne	r2,zero,22b80 <camera_out_of_range+0x90>
   22b78:	00800044 	movi	r2,1
   22b7c:	00000b06 	br	22bac <camera_out_of_range+0xbc>
	if((y+factor*VIDEO_HEIGHT_FACTOR)> (MIXERII_HEIGHT - V_END)) return 1;
   22b80:	e0ffff17 	ldw	r3,-4(fp)
   22b84:	1805883a 	mov	r2,r3
   22b88:	1085883a 	add	r2,r2,r2
   22b8c:	10c7883a 	add	r3,r2,r3
   22b90:	e0bffe17 	ldw	r2,-8(fp)
   22b94:	1885883a 	add	r2,r3,r2
   22b98:	10809410 	cmplti	r2,r2,592
   22b9c:	1000021e 	bne	r2,zero,22ba8 <camera_out_of_range+0xb8>
   22ba0:	00800044 	movi	r2,1
   22ba4:	00000106 	br	22bac <camera_out_of_range+0xbc>

   return 0;
   22ba8:	0005883a 	mov	r2,zero
}
   22bac:	e037883a 	mov	sp,fp
   22bb0:	df000017 	ldw	fp,0(sp)
   22bb4:	dec00104 	addi	sp,sp,4
   22bb8:	f800283a 	ret

00022bbc <camera_scale_down>:

int camera_scale_down(int camera0_factor,int camera1_factor){
   22bbc:	defffb04 	addi	sp,sp,-20
   22bc0:	df000415 	stw	fp,16(sp)
   22bc4:	df000404 	addi	fp,sp,16
   22bc8:	e13ffe15 	stw	r4,-8(fp)
   22bcc:	e17fff15 	stw	r5,-4(fp)
	// if return 1  scale camera0 first else camera1
	int diff_camera0,diff_camera1;

	diff_camera0 = camera0_factor - camera0.scalered_factor;
   22bd0:	00800134 	movhi	r2,4
   22bd4:	10a50b04 	addi	r2,r2,-27604
   22bd8:	1080018b 	ldhu	r2,6(r2)
   22bdc:	10bfffcc 	andi	r2,r2,65535
   22be0:	e0fffe17 	ldw	r3,-8(fp)
   22be4:	1885c83a 	sub	r2,r3,r2
   22be8:	e0bffc15 	stw	r2,-16(fp)
	diff_camera1 = camera1_factor - camera1.scalered_factor;
   22bec:	00800134 	movhi	r2,4
   22bf0:	10a50e04 	addi	r2,r2,-27592
   22bf4:	1080018b 	ldhu	r2,6(r2)
   22bf8:	10bfffcc 	andi	r2,r2,65535
   22bfc:	e0ffff17 	ldw	r3,-4(fp)
   22c00:	1885c83a 	sub	r2,r3,r2
   22c04:	e0bffd15 	stw	r2,-12(fp)

	if(diff_camera0 < diff_camera1)return 1;
   22c08:	e0fffc17 	ldw	r3,-16(fp)
   22c0c:	e0bffd17 	ldw	r2,-12(fp)
   22c10:	1880020e 	bge	r3,r2,22c1c <camera_scale_down+0x60>
   22c14:	00800044 	movi	r2,1
   22c18:	00000106 	br	22c20 <camera_scale_down+0x64>
	return 0;
   22c1c:	0005883a 	mov	r2,zero
}
   22c20:	e037883a 	mov	sp,fp
   22c24:	df000017 	ldw	fp,0(sp)
   22c28:	dec00104 	addi	sp,sp,4
   22c2c:	f800283a 	ret

00022c30 <PinP_position_set>:
void PinP_position_set(alt_u8 channel,alt_u16 x,alt_u16 y,alt_u16 factor){
   22c30:	defffa04 	addi	sp,sp,-24
   22c34:	df000515 	stw	fp,20(sp)
   22c38:	df000504 	addi	fp,sp,20
   22c3c:	2011883a 	mov	r8,r4
   22c40:	2809883a 	mov	r4,r5
   22c44:	3007883a 	mov	r3,r6
   22c48:	3805883a 	mov	r2,r7
   22c4c:	e23ffc05 	stb	r8,-16(fp)
   22c50:	e13ffd0d 	sth	r4,-12(fp)
   22c54:	e0fffe0d 	sth	r3,-8(fp)
   22c58:	e0bfff0d 	sth	r2,-4(fp)

	alt_u16 update_x,update_y;

	if((x+factor*VIDEO_WIDTH_FACTOR)>= (MIXERII_WIDTH - H_END))
   22c5c:	e0fffd0b 	ldhu	r3,-12(fp)
   22c60:	e0bfff0b 	ldhu	r2,-4(fp)
   22c64:	1085883a 	add	r2,r2,r2
   22c68:	1085883a 	add	r2,r2,r2
   22c6c:	1885883a 	add	r2,r3,r2
   22c70:	1080c4d0 	cmplti	r2,r2,787
   22c74:	1000081e 	bne	r2,zero,22c98 <PinP_position_set+0x68>
		 update_x = MIXERII_WIDTH - factor*VIDEO_WIDTH_FACTOR - H_END;
   22c78:	e0bfff0b 	ldhu	r2,-4(fp)
   22c7c:	00c03204 	movi	r3,200
   22c80:	1885c83a 	sub	r2,r3,r2
   22c84:	1085883a 	add	r2,r2,r2
   22c88:	1085883a 	add	r2,r2,r2
   22c8c:	10bffcc4 	addi	r2,r2,-13
   22c90:	e0bffb0d 	sth	r2,-20(fp)
   22c94:	00000806 	br	22cb8 <PinP_position_set+0x88>
	else if(x<H_START) update_x = H_START;
   22c98:	e0bffd0b 	ldhu	r2,-12(fp)
   22c9c:	10800368 	cmpgeui	r2,r2,13
   22ca0:	1000031e 	bne	r2,zero,22cb0 <PinP_position_set+0x80>
   22ca4:	00800344 	movi	r2,13
   22ca8:	e0bffb0d 	sth	r2,-20(fp)
   22cac:	00000206 	br	22cb8 <PinP_position_set+0x88>
	else   update_x = x;
   22cb0:	e0bffd0b 	ldhu	r2,-12(fp)
   22cb4:	e0bffb0d 	sth	r2,-20(fp)

	if((y+factor*VIDEO_HEIGHT_FACTOR)>= (MIXERII_HEIGHT - V_END))
   22cb8:	e13ffe0b 	ldhu	r4,-8(fp)
   22cbc:	e0ffff0b 	ldhu	r3,-4(fp)
   22cc0:	1805883a 	mov	r2,r3
   22cc4:	1085883a 	add	r2,r2,r2
   22cc8:	10c5883a 	add	r2,r2,r3
   22ccc:	2085883a 	add	r2,r4,r2
   22cd0:	108093d0 	cmplti	r2,r2,591
   22cd4:	1000051e 	bne	r2,zero,22cec <PinP_position_set+0xbc>
		 update_y = MIXERII_HEIGHT - factor*VIDEO_HEIGHT_FACTOR - V_END;
   22cd8:	e0bfff0b 	ldhu	r2,-4(fp)
   22cdc:	10bfff64 	muli	r2,r2,-3
   22ce0:	108093c4 	addi	r2,r2,591
   22ce4:	e0bffb8d 	sth	r2,-18(fp)
   22ce8:	00000806 	br	22d0c <PinP_position_set+0xdc>
	else if(y<H_START) update_y = V_START;
   22cec:	e0bffe0b 	ldhu	r2,-8(fp)
   22cf0:	10800368 	cmpgeui	r2,r2,13
   22cf4:	1000031e 	bne	r2,zero,22d04 <PinP_position_set+0xd4>
   22cf8:	00800244 	movi	r2,9
   22cfc:	e0bffb8d 	sth	r2,-18(fp)
   22d00:	00000206 	br	22d0c <PinP_position_set+0xdc>
	else update_y = y;
   22d04:	e0bffe0b 	ldhu	r2,-8(fp)
   22d08:	e0bffb8d 	sth	r2,-18(fp)

	// x offset from left
	IOWR(ALT_VIP_CL_MIXER_0_BASE,channel*5+3,update_x);
   22d0c:	e0bffc03 	ldbu	r2,-16(fp)
   22d10:	10800524 	muli	r2,r2,20
   22d14:	10800304 	addi	r2,r2,12
   22d18:	1007883a 	mov	r3,r2
   22d1c:	00800134 	movhi	r2,4
   22d20:	10850004 	addi	r2,r2,5120
   22d24:	1885883a 	add	r2,r3,r2
   22d28:	e0fffb0b 	ldhu	r3,-20(fp)
   22d2c:	10c00035 	stwio	r3,0(r2)
	// y offset from top
	IOWR(ALT_VIP_CL_MIXER_0_BASE,channel*5+4,update_y);
   22d30:	e0bffc03 	ldbu	r2,-16(fp)
   22d34:	10800524 	muli	r2,r2,20
   22d38:	10800404 	addi	r2,r2,16
   22d3c:	1007883a 	mov	r3,r2
   22d40:	00800134 	movhi	r2,4
   22d44:	10850004 	addi	r2,r2,5120
   22d48:	1885883a 	add	r2,r3,r2
   22d4c:	e0fffb8b 	ldhu	r3,-18(fp)
   22d50:	10c00035 	stwio	r3,0(r2)
}
   22d54:	e037883a 	mov	sp,fp
   22d58:	df000017 	ldw	fp,0(sp)
   22d5c:	dec00104 	addi	sp,sp,4
   22d60:	f800283a 	ret

00022d64 <PinP_init>:
////////////////////////////////////////////////////////////////////////
//////////////////////////
// Major
//
////////////////////////////////////////////////////////////////////////
void PinP_init(void){
   22d64:	defffe04 	addi	sp,sp,-8
   22d68:	dfc00115 	stw	ra,4(sp)
   22d6c:	df000015 	stw	fp,0(sp)
   22d70:	d839883a 	mov	fp,sp

    mixerii_background_config(MIXERII_WIDTH,MIXERII_HEIGHT);
   22d74:	0100c804 	movi	r4,800
   22d78:	01409604 	movi	r5,600
   22d7c:	00229800 	call	22980 <mixerii_background_config>

   // camera 0 init
	camera0.mixerii_x = H_START;
   22d80:	00800134 	movhi	r2,4
   22d84:	10a50b04 	addi	r2,r2,-27604
   22d88:	00c00344 	movi	r3,13
   22d8c:	10c0000d 	sth	r3,0(r2)
	camera0.mixerii_y = V_START;
   22d90:	00800134 	movhi	r2,4
   22d94:	10a50b04 	addi	r2,r2,-27604
   22d98:	00c00244 	movi	r3,9
   22d9c:	10c0008d 	sth	r3,2(r2)
	camera0.mixerii_channel = 0;
   22da0:	00800134 	movhi	r2,4
   22da4:	10a50b04 	addi	r2,r2,-27604
   22da8:	10000105 	stb	zero,4(r2)

	camera0.scalered_factor = FACTOR_SUM_MAX/2;
   22dac:	00800134 	movhi	r2,4
   22db0:	10a50b04 	addi	r2,r2,-27604
   22db4:	00c01804 	movi	r3,96
   22db8:	10c0018d 	sth	r3,6(r2)
    camera0.pConfig         = &camera0_config;
   22dbc:	00800134 	movhi	r2,4
   22dc0:	10a50b04 	addi	r2,r2,-27604
   22dc4:	00c00134 	movhi	r3,4
   22dc8:	18e4fd04 	addi	r3,r3,-27660
   22dcc:	10c00215 	stw	r3,8(r2)
	// position: do not move to close to boarder of mixerii, eg: position(0,0) may be no video image.
    mixerii_layer_position(camera0.mixerii_channel,camera0.mixerii_x,camera0.mixerii_y);
   22dd0:	00800134 	movhi	r2,4
   22dd4:	10a50b04 	addi	r2,r2,-27604
   22dd8:	10800103 	ldbu	r2,4(r2)
   22ddc:	11003fcc 	andi	r4,r2,255
   22de0:	00800134 	movhi	r2,4
   22de4:	10a50b04 	addi	r2,r2,-27604
   22de8:	1080000b 	ldhu	r2,0(r2)
   22dec:	10ffffcc 	andi	r3,r2,65535
   22df0:	00800134 	movhi	r2,4
   22df4:	10a50b04 	addi	r2,r2,-27604
   22df8:	1080008b 	ldhu	r2,2(r2)
   22dfc:	10bfffcc 	andi	r2,r2,65535
   22e00:	180b883a 	mov	r5,r3
   22e04:	100d883a 	mov	r6,r2
   22e08:	0022a540 	call	22a54 <mixerii_layer_position>
	scalerii_scale(camera0.pConfig,camera0.scalered_factor);
   22e0c:	00800134 	movhi	r2,4
   22e10:	10a50b04 	addi	r2,r2,-27604
   22e14:	10c00217 	ldw	r3,8(r2)
   22e18:	00800134 	movhi	r2,4
   22e1c:	10a50b04 	addi	r2,r2,-27604
   22e20:	1080018b 	ldhu	r2,6(r2)
   22e24:	10bfffcc 	andi	r2,r2,65535
   22e28:	1809883a 	mov	r4,r3
   22e2c:	100b883a 	mov	r5,r2
   22e30:	0023c840 	call	23c84 <scalerii_scale>

   // camera 1 init
	camera1.mixerii_x = H_START+VIDEO_WIDTH_FACTOR*FACTOR_SUM_MAX/2+H_MIDDLE_ADD;
   22e34:	00800134 	movhi	r2,4
   22e38:	10a50e04 	addi	r2,r2,-27592
   22e3c:	00c064c4 	movi	r3,403
   22e40:	10c0000d 	sth	r3,0(r2)
	camera1.mixerii_y = V_START;
   22e44:	00800134 	movhi	r2,4
   22e48:	10a50e04 	addi	r2,r2,-27592
   22e4c:	00c00244 	movi	r3,9
   22e50:	10c0008d 	sth	r3,2(r2)
	camera1.mixerii_channel = 1;
   22e54:	00800134 	movhi	r2,4
   22e58:	10a50e04 	addi	r2,r2,-27592
   22e5c:	00c00044 	movi	r3,1
   22e60:	10c00105 	stb	r3,4(r2)

	camera1.scalered_factor = FACTOR_SUM_MAX/2;
   22e64:	00800134 	movhi	r2,4
   22e68:	10a50e04 	addi	r2,r2,-27592
   22e6c:	00c01804 	movi	r3,96
   22e70:	10c0018d 	sth	r3,6(r2)
    camera1.pConfig         = &camera1_config;
   22e74:	00800134 	movhi	r2,4
   22e78:	10a50e04 	addi	r2,r2,-27592
   22e7c:	00c00134 	movhi	r3,4
   22e80:	18e4ef04 	addi	r3,r3,-27716
   22e84:	10c00215 	stw	r3,8(r2)

    mixerii_layer_position(camera1.mixerii_channel,camera1.mixerii_x,camera1.mixerii_y);
   22e88:	00800134 	movhi	r2,4
   22e8c:	10a50e04 	addi	r2,r2,-27592
   22e90:	10800103 	ldbu	r2,4(r2)
   22e94:	11003fcc 	andi	r4,r2,255
   22e98:	00800134 	movhi	r2,4
   22e9c:	10a50e04 	addi	r2,r2,-27592
   22ea0:	1080000b 	ldhu	r2,0(r2)
   22ea4:	10ffffcc 	andi	r3,r2,65535
   22ea8:	00800134 	movhi	r2,4
   22eac:	10a50e04 	addi	r2,r2,-27592
   22eb0:	1080008b 	ldhu	r2,2(r2)
   22eb4:	10bfffcc 	andi	r2,r2,65535
   22eb8:	180b883a 	mov	r5,r3
   22ebc:	100d883a 	mov	r6,r2
   22ec0:	0022a540 	call	22a54 <mixerii_layer_position>
	scalerii_scale(camera1.pConfig,camera1.scalered_factor);
   22ec4:	00800134 	movhi	r2,4
   22ec8:	10a50e04 	addi	r2,r2,-27592
   22ecc:	10c00217 	ldw	r3,8(r2)
   22ed0:	00800134 	movhi	r2,4
   22ed4:	10a50e04 	addi	r2,r2,-27592
   22ed8:	1080018b 	ldhu	r2,6(r2)
   22edc:	10bfffcc 	andi	r2,r2,65535
   22ee0:	1809883a 	mov	r4,r3
   22ee4:	100b883a 	mov	r5,r2
   22ee8:	0023c840 	call	23c84 <scalerii_scale>

	mixerii_layer_enable(camera0.mixerii_channel,1);
   22eec:	00800134 	movhi	r2,4
   22ef0:	10a50b04 	addi	r2,r2,-27604
   22ef4:	10800103 	ldbu	r2,4(r2)
   22ef8:	10803fcc 	andi	r2,r2,255
   22efc:	1009883a 	mov	r4,r2
   22f00:	01400044 	movi	r5,1
   22f04:	00229c40 	call	229c4 <mixerii_layer_enable>
	mixerii_layer_enable(camera1.mixerii_channel,1);
   22f08:	00800134 	movhi	r2,4
   22f0c:	10a50e04 	addi	r2,r2,-27592
   22f10:	10800103 	ldbu	r2,4(r2)
   22f14:	10803fcc 	andi	r2,r2,255
   22f18:	1009883a 	mov	r4,r2
   22f1c:	01400044 	movi	r5,1
   22f20:	00229c40 	call	229c4 <mixerii_layer_enable>

}
   22f24:	e037883a 	mov	sp,fp
   22f28:	dfc00117 	ldw	ra,4(sp)
   22f2c:	df000017 	ldw	fp,0(sp)
   22f30:	dec00204 	addi	sp,sp,8
   22f34:	f800283a 	ret

00022f38 <PinP_mode>:



void PinP_mode(int mode){
   22f38:	defffb04 	addi	sp,sp,-20
   22f3c:	dfc00415 	stw	ra,16(sp)
   22f40:	df000315 	stw	fp,12(sp)
   22f44:	df000304 	addi	fp,sp,12
   22f48:	e13fff15 	stw	r4,-4(fp)

	alt_u16 temp_x,temp_y;
	alt_u16 camera0_factor,camera1_factor;

	printf("mode:%d\n",mode);
   22f4c:	010000f4 	movhi	r4,3
   22f50:	2112c104 	addi	r4,r4,19204
   22f54:	e17fff17 	ldw	r5,-4(fp)
   22f58:	0025df80 	call	25df8 <printf>

	// Due to bandwidth of SDRAM
	// Please make sure first scale down ,then scale up

	switch(mode){
   22f5c:	e0bfff17 	ldw	r2,-4(fp)
   22f60:	10c00060 	cmpeqi	r3,r2,1
   22f64:	1800351e 	bne	r3,zero,2303c <PinP_mode+0x104>
   22f68:	10c00088 	cmpgei	r3,r2,2
   22f6c:	1800021e 	bne	r3,zero,22f78 <PinP_mode+0x40>
   22f70:	10000626 	beq	r2,zero,22f8c <PinP_mode+0x54>
	        }

	    break;
		}

	default: break;
   22f74:	0000b906 	br	2325c <PinP_mode+0x324>
	printf("mode:%d\n",mode);

	// Due to bandwidth of SDRAM
	// Please make sure first scale down ,then scale up

	switch(mode){
   22f78:	10c000a0 	cmpeqi	r3,r2,2
   22f7c:	18005d1e 	bne	r3,zero,230f4 <PinP_mode+0x1bc>
   22f80:	108000e0 	cmpeqi	r2,r2,3
   22f84:	1000891e 	bne	r2,zero,231ac <PinP_mode+0x274>
	        }

	    break;
		}

	default: break;
   22f88:	0000b406 	br	2325c <PinP_mode+0x324>
	       //		                          //
	       //            blank                //
	       //                                 //
	       /////////////////////////////////////

		   temp_x= H_START+VIDEO_WIDTH_FACTOR*FACTOR_SUM_MAX/2+H_MIDDLE_ADD;
   22f8c:	008064c4 	movi	r2,403
   22f90:	e0bffd0d 	sth	r2,-12(fp)
		   camera0_factor = FACTOR_SUM_MAX/2;
   22f94:	00801804 	movi	r2,96
   22f98:	e0bffd8d 	sth	r2,-10(fp)
		   camera1_factor = FACTOR_SUM_MAX/2;
   22f9c:	00801804 	movi	r2,96
   22fa0:	e0bffe0d 	sth	r2,-8(fp)

		   // Due to bandwidth of SDRAM
		   	// Please make sure first scale down ,then scale up
           if(camera_scale_down(camera0_factor,camera1_factor)){
   22fa4:	e0fffd8b 	ldhu	r3,-10(fp)
   22fa8:	e0bffe0b 	ldhu	r2,-8(fp)
   22fac:	1809883a 	mov	r4,r3
   22fb0:	100b883a 	mov	r5,r2
   22fb4:	0022bbc0 	call	22bbc <camera_scale_down>
   22fb8:	10001026 	beq	r2,zero,22ffc <PinP_mode+0xc4>
   			    PinP_video_change(&camera0,temp_x,V_START,camera0_factor);
   22fbc:	e0fffd0b 	ldhu	r3,-12(fp)
   22fc0:	e0bffd8b 	ldhu	r2,-10(fp)
   22fc4:	01000134 	movhi	r4,4
   22fc8:	21250b04 	addi	r4,r4,-27604
   22fcc:	180b883a 	mov	r5,r3
   22fd0:	01800244 	movi	r6,9
   22fd4:	100f883a 	mov	r7,r2
   22fd8:	00232700 	call	23270 <PinP_video_change>
		    	PinP_video_change(&camera1,H_START,V_START,camera1_factor);
   22fdc:	e0bffe0b 	ldhu	r2,-8(fp)
   22fe0:	01000134 	movhi	r4,4
   22fe4:	21250e04 	addi	r4,r4,-27592
   22fe8:	01400344 	movi	r5,13
   22fec:	01800244 	movi	r6,9
   22ff0:	100f883a 	mov	r7,r2
   22ff4:	00232700 	call	23270 <PinP_video_change>
           }else{
            	PinP_video_change(&camera1,H_START,V_START,camera1_factor);
			    PinP_video_change(&camera0,temp_x,V_START,camera0_factor);
           }

		break;
   22ff8:	00009806 	br	2325c <PinP_mode+0x324>
		   	// Please make sure first scale down ,then scale up
           if(camera_scale_down(camera0_factor,camera1_factor)){
   			    PinP_video_change(&camera0,temp_x,V_START,camera0_factor);
		    	PinP_video_change(&camera1,H_START,V_START,camera1_factor);
           }else{
            	PinP_video_change(&camera1,H_START,V_START,camera1_factor);
   22ffc:	e0bffe0b 	ldhu	r2,-8(fp)
   23000:	01000134 	movhi	r4,4
   23004:	21250e04 	addi	r4,r4,-27592
   23008:	01400344 	movi	r5,13
   2300c:	01800244 	movi	r6,9
   23010:	100f883a 	mov	r7,r2
   23014:	00232700 	call	23270 <PinP_video_change>
			    PinP_video_change(&camera0,temp_x,V_START,camera0_factor);
   23018:	e0fffd0b 	ldhu	r3,-12(fp)
   2301c:	e0bffd8b 	ldhu	r2,-10(fp)
   23020:	01000134 	movhi	r4,4
   23024:	21250b04 	addi	r4,r4,-27604
   23028:	180b883a 	mov	r5,r3
   2302c:	01800244 	movi	r6,9
   23030:	100f883a 	mov	r7,r2
   23034:	00232700 	call	23270 <PinP_video_change>
           }

		break;
   23038:	00008806 	br	2325c <PinP_mode+0x324>
       //            //                    //
       //		     //                    //
       //            //      camera1       //
       //            //                    //
       //////////////////////////////////////
		temp_x = H_START+VIDEO_WIDTH_FACTOR*(FACTOR_SUM_MAX-CAMERA_WIDTH/VIDEO_WIDTH_FACTOR)+H_MIDDLE_ADD;
   2303c:	008024c4 	movi	r2,147
   23040:	e0bffd0d 	sth	r2,-12(fp)
		temp_y = V_START+VIDEO_HEIGHT_FACTOR*(FACTOR_SUM_MAX-CAMERA_WIDTH/VIDEO_WIDTH_FACTOR)+V_MIDDLE_ADD;
   23044:	00801bc4 	movi	r2,111
   23048:	e0bffe8d 	sth	r2,-6(fp)
		camera0_factor = FACTOR_SUM_MAX-CAMERA_WIDTH/VIDEO_WIDTH_FACTOR;
   2304c:	00800804 	movi	r2,32
   23050:	e0bffd8d 	sth	r2,-10(fp)
		camera1_factor = CAMERA_WIDTH/VIDEO_WIDTH_FACTOR;
   23054:	00802804 	movi	r2,160
   23058:	e0bffe0d 	sth	r2,-8(fp)

        if(camera_scale_down(camera0_factor,camera1_factor)){
   2305c:	e0fffd8b 	ldhu	r3,-10(fp)
   23060:	e0bffe0b 	ldhu	r2,-8(fp)
   23064:	1809883a 	mov	r4,r3
   23068:	100b883a 	mov	r5,r2
   2306c:	0022bbc0 	call	22bbc <camera_scale_down>
   23070:	10001026 	beq	r2,zero,230b4 <PinP_mode+0x17c>
        	PinP_video_change(&camera0,H_START,V_START,camera0_factor);
   23074:	e0bffd8b 	ldhu	r2,-10(fp)
   23078:	01000134 	movhi	r4,4
   2307c:	21250b04 	addi	r4,r4,-27604
   23080:	01400344 	movi	r5,13
   23084:	01800244 	movi	r6,9
   23088:	100f883a 	mov	r7,r2
   2308c:	00232700 	call	23270 <PinP_video_change>
	    	PinP_video_change(&camera1,temp_x,temp_y,  camera1_factor);
   23090:	e17ffd0b 	ldhu	r5,-12(fp)
   23094:	e0fffe8b 	ldhu	r3,-6(fp)
   23098:	e0bffe0b 	ldhu	r2,-8(fp)
   2309c:	01000134 	movhi	r4,4
   230a0:	21250e04 	addi	r4,r4,-27592
   230a4:	180d883a 	mov	r6,r3
   230a8:	100f883a 	mov	r7,r2
   230ac:	00232700 	call	23270 <PinP_video_change>
        }else{
	    	PinP_video_change(&camera1,temp_x,temp_y,  camera1_factor);
	    	PinP_video_change(&camera0,H_START,V_START,camera0_factor);
        }

	break;
   230b0:	00006a06 	br	2325c <PinP_mode+0x324>

        if(camera_scale_down(camera0_factor,camera1_factor)){
        	PinP_video_change(&camera0,H_START,V_START,camera0_factor);
	    	PinP_video_change(&camera1,temp_x,temp_y,  camera1_factor);
        }else{
	    	PinP_video_change(&camera1,temp_x,temp_y,  camera1_factor);
   230b4:	e17ffd0b 	ldhu	r5,-12(fp)
   230b8:	e0fffe8b 	ldhu	r3,-6(fp)
   230bc:	e0bffe0b 	ldhu	r2,-8(fp)
   230c0:	01000134 	movhi	r4,4
   230c4:	21250e04 	addi	r4,r4,-27592
   230c8:	180d883a 	mov	r6,r3
   230cc:	100f883a 	mov	r7,r2
   230d0:	00232700 	call	23270 <PinP_video_change>
	    	PinP_video_change(&camera0,H_START,V_START,camera0_factor);
   230d4:	e0bffd8b 	ldhu	r2,-10(fp)
   230d8:	01000134 	movhi	r4,4
   230dc:	21250b04 	addi	r4,r4,-27604
   230e0:	01400344 	movi	r5,13
   230e4:	01800244 	movi	r6,9
   230e8:	100f883a 	mov	r7,r2
   230ec:	00232700 	call	23270 <PinP_video_change>
        }

	break;
   230f0:	00005a06 	br	2325c <PinP_mode+0x324>
       /////////////////////   //////////////
       //                     //		   //
       //                     // camera1   //
       //////////////////////////////////////

		temp_x = H_START+VIDEO_WIDTH_FACTOR*(FACTOR_SUM_MAX-CAMERA_WIDTH/VIDEO_WIDTH_FACTOR)+H_MIDDLE_ADD;
   230f4:	008024c4 	movi	r2,147
   230f8:	e0bffd0d 	sth	r2,-12(fp)
		temp_y = V_START+VIDEO_HEIGHT_FACTOR*(FACTOR_SUM_MAX-CAMERA_WIDTH/VIDEO_WIDTH_FACTOR)+V_MIDDLE_ADD;
   230fc:	00801bc4 	movi	r2,111
   23100:	e0bffe8d 	sth	r2,-6(fp)
		camera0_factor = CAMERA_WIDTH/VIDEO_WIDTH_FACTOR;
   23104:	00802804 	movi	r2,160
   23108:	e0bffd8d 	sth	r2,-10(fp)
		camera1_factor = FACTOR_SUM_MAX-CAMERA_WIDTH/VIDEO_WIDTH_FACTOR;
   2310c:	00800804 	movi	r2,32
   23110:	e0bffe0d 	sth	r2,-8(fp)

        if(camera_scale_down(camera0_factor,camera1_factor)){
   23114:	e0fffd8b 	ldhu	r3,-10(fp)
   23118:	e0bffe0b 	ldhu	r2,-8(fp)
   2311c:	1809883a 	mov	r4,r3
   23120:	100b883a 	mov	r5,r2
   23124:	0022bbc0 	call	22bbc <camera_scale_down>
   23128:	10001026 	beq	r2,zero,2316c <PinP_mode+0x234>
        	PinP_video_change(&camera0,temp_x,temp_y,  camera0_factor);
   2312c:	e17ffd0b 	ldhu	r5,-12(fp)
   23130:	e0fffe8b 	ldhu	r3,-6(fp)
   23134:	e0bffd8b 	ldhu	r2,-10(fp)
   23138:	01000134 	movhi	r4,4
   2313c:	21250b04 	addi	r4,r4,-27604
   23140:	180d883a 	mov	r6,r3
   23144:	100f883a 	mov	r7,r2
   23148:	00232700 	call	23270 <PinP_video_change>
    		PinP_video_change(&camera1,H_START,V_START,camera1_factor);
   2314c:	e0bffe0b 	ldhu	r2,-8(fp)
   23150:	01000134 	movhi	r4,4
   23154:	21250e04 	addi	r4,r4,-27592
   23158:	01400344 	movi	r5,13
   2315c:	01800244 	movi	r6,9
   23160:	100f883a 	mov	r7,r2
   23164:	00232700 	call	23270 <PinP_video_change>
    		PinP_video_change(&camera1,H_START,V_START,camera1_factor);
    		PinP_video_change(&camera0,temp_x,temp_y,  camera0_factor);
        }


	break;
   23168:	00003c06 	br	2325c <PinP_mode+0x324>

        if(camera_scale_down(camera0_factor,camera1_factor)){
        	PinP_video_change(&camera0,temp_x,temp_y,  camera0_factor);
    		PinP_video_change(&camera1,H_START,V_START,camera1_factor);
        }else{
    		PinP_video_change(&camera1,H_START,V_START,camera1_factor);
   2316c:	e0bffe0b 	ldhu	r2,-8(fp)
   23170:	01000134 	movhi	r4,4
   23174:	21250e04 	addi	r4,r4,-27592
   23178:	01400344 	movi	r5,13
   2317c:	01800244 	movi	r6,9
   23180:	100f883a 	mov	r7,r2
   23184:	00232700 	call	23270 <PinP_video_change>
    		PinP_video_change(&camera0,temp_x,temp_y,  camera0_factor);
   23188:	e17ffd0b 	ldhu	r5,-12(fp)
   2318c:	e0fffe8b 	ldhu	r3,-6(fp)
   23190:	e0bffd8b 	ldhu	r2,-10(fp)
   23194:	01000134 	movhi	r4,4
   23198:	21250b04 	addi	r4,r4,-27604
   2319c:	180d883a 	mov	r6,r3
   231a0:	100f883a 	mov	r7,r2
   231a4:	00232700 	call	23270 <PinP_video_change>
        }


	break;
   231a8:	00002c06 	br	2325c <PinP_mode+0x324>
	       //		                          //
	       //            blank                //
	       //                                 //
	       /////////////////////////////////////

		    temp_x= H_START+VIDEO_WIDTH_FACTOR*FACTOR_SUM_MAX/2+H_MIDDLE_ADD;
   231ac:	008064c4 	movi	r2,403
   231b0:	e0bffd0d 	sth	r2,-12(fp)
			camera0_factor = FACTOR_SUM_MAX/2;
   231b4:	00801804 	movi	r2,96
   231b8:	e0bffd8d 	sth	r2,-10(fp)
			camera1_factor = FACTOR_SUM_MAX/2;
   231bc:	00801804 	movi	r2,96
   231c0:	e0bffe0d 	sth	r2,-8(fp)

	        if(camera_scale_down(camera0_factor,camera1_factor)){
   231c4:	e0fffd8b 	ldhu	r3,-10(fp)
   231c8:	e0bffe0b 	ldhu	r2,-8(fp)
   231cc:	1809883a 	mov	r4,r3
   231d0:	100b883a 	mov	r5,r2
   231d4:	0022bbc0 	call	22bbc <camera_scale_down>
   231d8:	10001026 	beq	r2,zero,2321c <PinP_mode+0x2e4>
				PinP_video_change(&camera0,H_START,V_START,camera0_factor);
   231dc:	e0bffd8b 	ldhu	r2,-10(fp)
   231e0:	01000134 	movhi	r4,4
   231e4:	21250b04 	addi	r4,r4,-27604
   231e8:	01400344 	movi	r5,13
   231ec:	01800244 	movi	r6,9
   231f0:	100f883a 	mov	r7,r2
   231f4:	00232700 	call	23270 <PinP_video_change>
				PinP_video_change(&camera1,temp_x,V_START, camera1_factor);
   231f8:	e0fffd0b 	ldhu	r3,-12(fp)
   231fc:	e0bffe0b 	ldhu	r2,-8(fp)
   23200:	01000134 	movhi	r4,4
   23204:	21250e04 	addi	r4,r4,-27592
   23208:	180b883a 	mov	r5,r3
   2320c:	01800244 	movi	r6,9
   23210:	100f883a 	mov	r7,r2
   23214:	00232700 	call	23270 <PinP_video_change>
	        }else{
				PinP_video_change(&camera1,temp_x,V_START, camera1_factor);
				PinP_video_change(&camera0,H_START,V_START,camera0_factor);
	        }

	    break;
   23218:	00000f06 	br	23258 <PinP_mode+0x320>

	        if(camera_scale_down(camera0_factor,camera1_factor)){
				PinP_video_change(&camera0,H_START,V_START,camera0_factor);
				PinP_video_change(&camera1,temp_x,V_START, camera1_factor);
	        }else{
				PinP_video_change(&camera1,temp_x,V_START, camera1_factor);
   2321c:	e0fffd0b 	ldhu	r3,-12(fp)
   23220:	e0bffe0b 	ldhu	r2,-8(fp)
   23224:	01000134 	movhi	r4,4
   23228:	21250e04 	addi	r4,r4,-27592
   2322c:	180b883a 	mov	r5,r3
   23230:	01800244 	movi	r6,9
   23234:	100f883a 	mov	r7,r2
   23238:	00232700 	call	23270 <PinP_video_change>
				PinP_video_change(&camera0,H_START,V_START,camera0_factor);
   2323c:	e0bffd8b 	ldhu	r2,-10(fp)
   23240:	01000134 	movhi	r4,4
   23244:	21250b04 	addi	r4,r4,-27604
   23248:	01400344 	movi	r5,13
   2324c:	01800244 	movi	r6,9
   23250:	100f883a 	mov	r7,r2
   23254:	00232700 	call	23270 <PinP_video_change>
	        }

	    break;
   23258:	0001883a 	nop
		}

	default: break;
	}

}
   2325c:	e037883a 	mov	sp,fp
   23260:	dfc00117 	ldw	ra,4(sp)
   23264:	df000017 	ldw	fp,0(sp)
   23268:	dec00204 	addi	sp,sp,8
   2326c:	f800283a 	ret

00023270 <PinP_video_change>:

void PinP_video_change(video_t *pCamera,alt_u16 x,alt_u16 y,alt_u16 factor){
   23270:	defff304 	addi	sp,sp,-52
   23274:	dfc00c15 	stw	ra,48(sp)
   23278:	df000b15 	stw	fp,44(sp)
   2327c:	dc000a15 	stw	r16,40(sp)
   23280:	df000b04 	addi	fp,sp,44
   23284:	e13ffb15 	stw	r4,-20(fp)
   23288:	2809883a 	mov	r4,r5
   2328c:	3007883a 	mov	r3,r6
   23290:	3805883a 	mov	r2,r7
   23294:	e13ffc0d 	sth	r4,-16(fp)
   23298:	e0fffd0d 	sth	r3,-12(fp)
   2329c:	e0bffe0d 	sth	r2,-8(fp)

#if 1 // Smoothly move&scale to destination
	alt_u16 step = 4;
   232a0:	00800104 	movi	r2,4
   232a4:	e0bff58d 	sth	r2,-42(fp)
	alt_u16 i;

	float delta_x,delta_y,delta_factor;
	alt_u16 temp_x, temp_y,temp_factor;

    delta_factor = (float)(factor - pCamera->scalered_factor)/(float)step;
   232a8:	e0fffe0b 	ldhu	r3,-8(fp)
   232ac:	e0bffb17 	ldw	r2,-20(fp)
   232b0:	1080018b 	ldhu	r2,6(r2)
   232b4:	10bfffcc 	andi	r2,r2,65535
   232b8:	1885c83a 	sub	r2,r3,r2
   232bc:	1009883a 	mov	r4,r2
   232c0:	00252300 	call	25230 <__floatsisf>
   232c4:	1021883a 	mov	r16,r2
   232c8:	e0bff58b 	ldhu	r2,-42(fp)
   232cc:	1009883a 	mov	r4,r2
   232d0:	00253640 	call	25364 <__floatunsisf>
   232d4:	1007883a 	mov	r3,r2
   232d8:	8009883a 	mov	r4,r16
   232dc:	180b883a 	mov	r5,r3
   232e0:	00243900 	call	24390 <__divsf3>
   232e4:	1007883a 	mov	r3,r2
   232e8:	e0fff615 	stw	r3,-40(fp)
	delta_x      = (float)(x - pCamera->mixerii_x)/(float)step;
   232ec:	e0fffc0b 	ldhu	r3,-16(fp)
   232f0:	e0bffb17 	ldw	r2,-20(fp)
   232f4:	1080000b 	ldhu	r2,0(r2)
   232f8:	10bfffcc 	andi	r2,r2,65535
   232fc:	1885c83a 	sub	r2,r3,r2
   23300:	1009883a 	mov	r4,r2
   23304:	00252300 	call	25230 <__floatsisf>
   23308:	1021883a 	mov	r16,r2
   2330c:	e0bff58b 	ldhu	r2,-42(fp)
   23310:	1009883a 	mov	r4,r2
   23314:	00253640 	call	25364 <__floatunsisf>
   23318:	1007883a 	mov	r3,r2
   2331c:	8009883a 	mov	r4,r16
   23320:	180b883a 	mov	r5,r3
   23324:	00243900 	call	24390 <__divsf3>
   23328:	1007883a 	mov	r3,r2
   2332c:	e0fff715 	stw	r3,-36(fp)
	delta_y      = (float)(y - pCamera->mixerii_y)/(float)step;
   23330:	e0fffd0b 	ldhu	r3,-12(fp)
   23334:	e0bffb17 	ldw	r2,-20(fp)
   23338:	1080008b 	ldhu	r2,2(r2)
   2333c:	10bfffcc 	andi	r2,r2,65535
   23340:	1885c83a 	sub	r2,r3,r2
   23344:	1009883a 	mov	r4,r2
   23348:	00252300 	call	25230 <__floatsisf>
   2334c:	1021883a 	mov	r16,r2
   23350:	e0bff58b 	ldhu	r2,-42(fp)
   23354:	1009883a 	mov	r4,r2
   23358:	00253640 	call	25364 <__floatunsisf>
   2335c:	1007883a 	mov	r3,r2
   23360:	8009883a 	mov	r4,r16
   23364:	180b883a 	mov	r5,r3
   23368:	00243900 	call	24390 <__divsf3>
   2336c:	1007883a 	mov	r3,r2
   23370:	e0fff815 	stw	r3,-32(fp)

    for(i= 1; i< step;i++ ){
   23374:	00800044 	movi	r2,1
   23378:	e0bff50d 	sth	r2,-44(fp)
   2337c:	00007d06 	br	23574 <PinP_video_change+0x304>

      temp_x = (alt_u16)(pCamera->mixerii_x + delta_x*i);
   23380:	e0bffb17 	ldw	r2,-20(fp)
   23384:	1080000b 	ldhu	r2,0(r2)
   23388:	10bfffcc 	andi	r2,r2,65535
   2338c:	1009883a 	mov	r4,r2
   23390:	00252300 	call	25230 <__floatsisf>
   23394:	1021883a 	mov	r16,r2
   23398:	e0bff50b 	ldhu	r2,-44(fp)
   2339c:	1009883a 	mov	r4,r2
   233a0:	00252300 	call	25230 <__floatsisf>
   233a4:	1007883a 	mov	r3,r2
   233a8:	1809883a 	mov	r4,r3
   233ac:	e17ff717 	ldw	r5,-36(fp)
   233b0:	00248980 	call	24898 <__mulsf3>
   233b4:	1007883a 	mov	r3,r2
   233b8:	1805883a 	mov	r2,r3
   233bc:	8009883a 	mov	r4,r16
   233c0:	100b883a 	mov	r5,r2
   233c4:	0023eb00 	call	23eb0 <__addsf3>
   233c8:	1007883a 	mov	r3,r2
   233cc:	1805883a 	mov	r2,r3
   233d0:	1009883a 	mov	r4,r2
   233d4:	0023d240 	call	23d24 <__fixunssfsi>
   233d8:	e0bff90d 	sth	r2,-28(fp)
   	  temp_y = (alt_u16)(pCamera->mixerii_y + delta_y*i);
   233dc:	e0bffb17 	ldw	r2,-20(fp)
   233e0:	1080008b 	ldhu	r2,2(r2)
   233e4:	10bfffcc 	andi	r2,r2,65535
   233e8:	1009883a 	mov	r4,r2
   233ec:	00252300 	call	25230 <__floatsisf>
   233f0:	1021883a 	mov	r16,r2
   233f4:	e0bff50b 	ldhu	r2,-44(fp)
   233f8:	1009883a 	mov	r4,r2
   233fc:	00252300 	call	25230 <__floatsisf>
   23400:	1007883a 	mov	r3,r2
   23404:	1809883a 	mov	r4,r3
   23408:	e17ff817 	ldw	r5,-32(fp)
   2340c:	00248980 	call	24898 <__mulsf3>
   23410:	1007883a 	mov	r3,r2
   23414:	1805883a 	mov	r2,r3
   23418:	8009883a 	mov	r4,r16
   2341c:	100b883a 	mov	r5,r2
   23420:	0023eb00 	call	23eb0 <__addsf3>
   23424:	1007883a 	mov	r3,r2
   23428:	1805883a 	mov	r2,r3
   2342c:	1009883a 	mov	r4,r2
   23430:	0023d240 	call	23d24 <__fixunssfsi>
   23434:	e0bff98d 	sth	r2,-26(fp)
      temp_factor = (int)(pCamera->scalered_factor+i*delta_factor);
   23438:	e0bffb17 	ldw	r2,-20(fp)
   2343c:	1080018b 	ldhu	r2,6(r2)
   23440:	10bfffcc 	andi	r2,r2,65535
   23444:	1009883a 	mov	r4,r2
   23448:	00252300 	call	25230 <__floatsisf>
   2344c:	1021883a 	mov	r16,r2
   23450:	e0bff50b 	ldhu	r2,-44(fp)
   23454:	1009883a 	mov	r4,r2
   23458:	00252300 	call	25230 <__floatsisf>
   2345c:	1007883a 	mov	r3,r2
   23460:	1809883a 	mov	r4,r3
   23464:	e17ff617 	ldw	r5,-40(fp)
   23468:	00248980 	call	24898 <__mulsf3>
   2346c:	1007883a 	mov	r3,r2
   23470:	1805883a 	mov	r2,r3
   23474:	8009883a 	mov	r4,r16
   23478:	100b883a 	mov	r5,r2
   2347c:	0023eb00 	call	23eb0 <__addsf3>
   23480:	1007883a 	mov	r3,r2
   23484:	1805883a 	mov	r2,r3
   23488:	1009883a 	mov	r4,r2
   2348c:	00251b80 	call	251b8 <__fixsfsi>
   23490:	e0bffa0d 	sth	r2,-24(fp)
      if(camera_out_of_range(temp_x,temp_y,temp_factor)){
   23494:	e13ff90b 	ldhu	r4,-28(fp)
   23498:	e0fff98b 	ldhu	r3,-26(fp)
   2349c:	e0bffa0b 	ldhu	r2,-24(fp)
   234a0:	180b883a 	mov	r5,r3
   234a4:	100d883a 	mov	r6,r2
   234a8:	0022af00 	call	22af0 <camera_out_of_range>
   234ac:	10000626 	beq	r2,zero,234c8 <PinP_video_change+0x258>
        printf("step %d out of range\n",i);
   234b0:	e0bff50b 	ldhu	r2,-44(fp)
   234b4:	010000f4 	movhi	r4,3
   234b8:	2112c404 	addi	r4,r4,19216
   234bc:	100b883a 	mov	r5,r2
   234c0:	0025df80 	call	25df8 <printf>
        continue;
   234c4:	00002806 	br	23568 <PinP_video_change+0x2f8>
      }

      if(factor < pCamera->scalered_factor){
   234c8:	e0bffb17 	ldw	r2,-20(fp)
   234cc:	1080018b 	ldhu	r2,6(r2)
   234d0:	10bfffcc 	andi	r2,r2,65535
   234d4:	e0fffe0b 	ldhu	r3,-8(fp)
   234d8:	1880122e 	bgeu	r3,r2,23524 <PinP_video_change+0x2b4>
  		scalerii_scale(pCamera->pConfig,temp_factor);
   234dc:	e0bffb17 	ldw	r2,-20(fp)
   234e0:	10c00217 	ldw	r3,8(r2)
   234e4:	e0bffa0b 	ldhu	r2,-24(fp)
   234e8:	1809883a 	mov	r4,r3
   234ec:	100b883a 	mov	r5,r2
   234f0:	0023c840 	call	23c84 <scalerii_scale>
  		usleep(PinP_TIME_DELAY);
   234f4:	01271014 	movui	r4,40000
   234f8:	00322500 	call	32250 <usleep>
  		PinP_position_set(pCamera->mixerii_channel,temp_x,temp_y,temp_factor);
   234fc:	e0bffb17 	ldw	r2,-20(fp)
   23500:	10800103 	ldbu	r2,4(r2)
   23504:	11003fcc 	andi	r4,r2,255
   23508:	e17ff90b 	ldhu	r5,-28(fp)
   2350c:	e0fff98b 	ldhu	r3,-26(fp)
   23510:	e0bffa0b 	ldhu	r2,-24(fp)
   23514:	180d883a 	mov	r6,r3
   23518:	100f883a 	mov	r7,r2
   2351c:	0022c300 	call	22c30 <PinP_position_set>
   23520:	00001106 	br	23568 <PinP_video_change+0x2f8>
      }
      else{
  		PinP_position_set(pCamera->mixerii_channel,temp_x,temp_y,temp_factor);
   23524:	e0bffb17 	ldw	r2,-20(fp)
   23528:	10800103 	ldbu	r2,4(r2)
   2352c:	11003fcc 	andi	r4,r2,255
   23530:	e17ff90b 	ldhu	r5,-28(fp)
   23534:	e0fff98b 	ldhu	r3,-26(fp)
   23538:	e0bffa0b 	ldhu	r2,-24(fp)
   2353c:	180d883a 	mov	r6,r3
   23540:	100f883a 	mov	r7,r2
   23544:	0022c300 	call	22c30 <PinP_position_set>
  	    usleep(PinP_TIME_DELAY);
   23548:	01271014 	movui	r4,40000
   2354c:	00322500 	call	32250 <usleep>
  		scalerii_scale(pCamera->pConfig,temp_factor);
   23550:	e0bffb17 	ldw	r2,-20(fp)
   23554:	10c00217 	ldw	r3,8(r2)
   23558:	e0bffa0b 	ldhu	r2,-24(fp)
   2355c:	1809883a 	mov	r4,r3
   23560:	100b883a 	mov	r5,r2
   23564:	0023c840 	call	23c84 <scalerii_scale>

    delta_factor = (float)(factor - pCamera->scalered_factor)/(float)step;
	delta_x      = (float)(x - pCamera->mixerii_x)/(float)step;
	delta_y      = (float)(y - pCamera->mixerii_y)/(float)step;

    for(i= 1; i< step;i++ ){
   23568:	e0bff50b 	ldhu	r2,-44(fp)
   2356c:	10800044 	addi	r2,r2,1
   23570:	e0bff50d 	sth	r2,-44(fp)
   23574:	e0fff50b 	ldhu	r3,-44(fp)
   23578:	e0bff58b 	ldhu	r2,-42(fp)
   2357c:	18bf8036 	bltu	r3,r2,23380 <__alt_data_end+0xfffe3380>

   	}
#endif


    if(factor < pCamera->scalered_factor){
   23580:	e0bffb17 	ldw	r2,-20(fp)
   23584:	1080018b 	ldhu	r2,6(r2)
   23588:	10bfffcc 	andi	r2,r2,65535
   2358c:	e0fffe0b 	ldhu	r3,-8(fp)
   23590:	1880122e 	bgeu	r3,r2,235dc <PinP_video_change+0x36c>
		scalerii_scale(pCamera->pConfig,factor);
   23594:	e0bffb17 	ldw	r2,-20(fp)
   23598:	10c00217 	ldw	r3,8(r2)
   2359c:	e0bffe0b 	ldhu	r2,-8(fp)
   235a0:	1809883a 	mov	r4,r3
   235a4:	100b883a 	mov	r5,r2
   235a8:	0023c840 	call	23c84 <scalerii_scale>
		usleep(PinP_TIME_DELAY);
   235ac:	01271014 	movui	r4,40000
   235b0:	00322500 	call	32250 <usleep>
		PinP_position_set(pCamera->mixerii_channel,x,y,factor);
   235b4:	e0bffb17 	ldw	r2,-20(fp)
   235b8:	10800103 	ldbu	r2,4(r2)
   235bc:	11003fcc 	andi	r4,r2,255
   235c0:	e17ffc0b 	ldhu	r5,-16(fp)
   235c4:	e0fffd0b 	ldhu	r3,-12(fp)
   235c8:	e0bffe0b 	ldhu	r2,-8(fp)
   235cc:	180d883a 	mov	r6,r3
   235d0:	100f883a 	mov	r7,r2
   235d4:	0022c300 	call	22c30 <PinP_position_set>
   235d8:	00001106 	br	23620 <PinP_video_change+0x3b0>
    }
    else{
		PinP_position_set(pCamera->mixerii_channel,x,y,factor);
   235dc:	e0bffb17 	ldw	r2,-20(fp)
   235e0:	10800103 	ldbu	r2,4(r2)
   235e4:	11003fcc 	andi	r4,r2,255
   235e8:	e17ffc0b 	ldhu	r5,-16(fp)
   235ec:	e0fffd0b 	ldhu	r3,-12(fp)
   235f0:	e0bffe0b 	ldhu	r2,-8(fp)
   235f4:	180d883a 	mov	r6,r3
   235f8:	100f883a 	mov	r7,r2
   235fc:	0022c300 	call	22c30 <PinP_position_set>
	    usleep(PinP_TIME_DELAY);
   23600:	01271014 	movui	r4,40000
   23604:	00322500 	call	32250 <usleep>
		scalerii_scale(pCamera->pConfig,factor);
   23608:	e0bffb17 	ldw	r2,-20(fp)
   2360c:	10c00217 	ldw	r3,8(r2)
   23610:	e0bffe0b 	ldhu	r2,-8(fp)
   23614:	1809883a 	mov	r4,r3
   23618:	100b883a 	mov	r5,r2
   2361c:	0023c840 	call	23c84 <scalerii_scale>
   }

	pCamera->mixerii_x = x;
   23620:	e0bffb17 	ldw	r2,-20(fp)
   23624:	e0fffc0b 	ldhu	r3,-16(fp)
   23628:	10c0000d 	sth	r3,0(r2)
	pCamera->mixerii_y = y;
   2362c:	e0bffb17 	ldw	r2,-20(fp)
   23630:	e0fffd0b 	ldhu	r3,-12(fp)
   23634:	10c0008d 	sth	r3,2(r2)
	pCamera->scalered_factor = factor;
   23638:	e0bffb17 	ldw	r2,-20(fp)
   2363c:	e0fffe0b 	ldhu	r3,-8(fp)
   23640:	10c0018d 	sth	r3,6(r2)
}
   23644:	e6ffff04 	addi	sp,fp,-4
   23648:	dfc00217 	ldw	ra,8(sp)
   2364c:	df000117 	ldw	fp,4(sp)
   23650:	dc000017 	ldw	r16,0(sp)
   23654:	dec00304 	addi	sp,sp,12
   23658:	f800283a 	ret

0002365c <PinP_2camera_ajust>:


void PinP_2camera_ajust(int add_or_minus){
   2365c:	defff604 	addi	sp,sp,-40
   23660:	dfc00915 	stw	ra,36(sp)
   23664:	df000815 	stw	fp,32(sp)
   23668:	df000804 	addi	fp,sp,32
   2366c:	e13fff15 	stw	r4,-4(fp)

   int factor_step_unit;
   int CmaeraL_factor,CmaeraR_factor;
   int CmaeraR_x,CmaeraR_y;

   factor_step_unit = add_or_minus ? (1):(-1);
   23670:	e0bfff17 	ldw	r2,-4(fp)
   23674:	10000226 	beq	r2,zero,23680 <PinP_2camera_ajust+0x24>
   23678:	00800044 	movi	r2,1
   2367c:	00000106 	br	23684 <PinP_2camera_ajust+0x28>
   23680:	00bfffc4 	movi	r2,-1
   23684:	e0bffc15 	stw	r2,-16(fp)

   // judge which camera video displayed on left.
   if(camera0.mixerii_x > camera1.mixerii_x){
   23688:	00800134 	movhi	r2,4
   2368c:	10a50b04 	addi	r2,r2,-27604
   23690:	1100000b 	ldhu	r4,0(r2)
   23694:	00800134 	movhi	r2,4
   23698:	10a50e04 	addi	r2,r2,-27592
   2369c:	10c0000b 	ldhu	r3,0(r2)
   236a0:	20bfffcc 	andi	r2,r4,65535
   236a4:	18ffffcc 	andi	r3,r3,65535
   236a8:	1880072e 	bgeu	r3,r2,236c8 <PinP_2camera_ajust+0x6c>
	   pCameraL = &camera1;
   236ac:	00800134 	movhi	r2,4
   236b0:	10a50e04 	addi	r2,r2,-27592
   236b4:	e0bff815 	stw	r2,-32(fp)
	   pCameraR = &camera0;
   236b8:	00800134 	movhi	r2,4
   236bc:	10a50b04 	addi	r2,r2,-27604
   236c0:	e0bff915 	stw	r2,-28(fp)
   236c4:	00000606 	br	236e0 <PinP_2camera_ajust+0x84>
   }else{
	   pCameraL = &camera0;
   236c8:	00800134 	movhi	r2,4
   236cc:	10a50b04 	addi	r2,r2,-27604
   236d0:	e0bff815 	stw	r2,-32(fp)
	   pCameraR = &camera1;
   236d4:	00800134 	movhi	r2,4
   236d8:	10a50e04 	addi	r2,r2,-27592
   236dc:	e0bff915 	stw	r2,-28(fp)
   }

   CmaeraL_factor = (alt_u16)((int)pCameraL->scalered_factor + factor_step_unit);
   236e0:	e0bff817 	ldw	r2,-32(fp)
   236e4:	1080018b 	ldhu	r2,6(r2)
   236e8:	e0fffc17 	ldw	r3,-16(fp)
   236ec:	10c5883a 	add	r2,r2,r3
   236f0:	10bfffcc 	andi	r2,r2,65535
   236f4:	e0bffd15 	stw	r2,-12(fp)
   CmaeraR_factor = (alt_u16)((int)pCameraR->scalered_factor - factor_step_unit);
   236f8:	e0bff917 	ldw	r2,-28(fp)
   236fc:	1080018b 	ldhu	r2,6(r2)
   23700:	e0fffc17 	ldw	r3,-16(fp)
   23704:	10c5c83a 	sub	r2,r2,r3
   23708:	10bfffcc 	andi	r2,r2,65535
   2370c:	e0bffe15 	stw	r2,-8(fp)

   if(pCameraL->mixerii_x == pCameraR->mixerii_x)
   23710:	e0bff817 	ldw	r2,-32(fp)
   23714:	10c0000b 	ldhu	r3,0(r2)
   23718:	e0bff917 	ldw	r2,-28(fp)
   2371c:	1080000b 	ldhu	r2,0(r2)
   23720:	18ffffcc 	andi	r3,r3,65535
   23724:	10bfffcc 	andi	r2,r2,65535
   23728:	1880051e 	bne	r3,r2,23740 <PinP_2camera_ajust+0xe4>
	    CmaeraR_x = pCameraR->mixerii_x;
   2372c:	e0bff917 	ldw	r2,-28(fp)
   23730:	1080000b 	ldhu	r2,0(r2)
   23734:	10bfffcc 	andi	r2,r2,65535
   23738:	e0bffa15 	stw	r2,-24(fp)
   2373c:	00000806 	br	23760 <PinP_2camera_ajust+0x104>
   else	CmaeraR_x = pCameraR->mixerii_x + factor_step_unit*VIDEO_WIDTH_FACTOR;
   23740:	e0bff917 	ldw	r2,-28(fp)
   23744:	1080000b 	ldhu	r2,0(r2)
   23748:	10ffffcc 	andi	r3,r2,65535
   2374c:	e0bffc17 	ldw	r2,-16(fp)
   23750:	1085883a 	add	r2,r2,r2
   23754:	1085883a 	add	r2,r2,r2
   23758:	1885883a 	add	r2,r3,r2
   2375c:	e0bffa15 	stw	r2,-24(fp)

   if(pCameraL->mixerii_y == pCameraR->mixerii_y)
   23760:	e0bff817 	ldw	r2,-32(fp)
   23764:	10c0008b 	ldhu	r3,2(r2)
   23768:	e0bff917 	ldw	r2,-28(fp)
   2376c:	1080008b 	ldhu	r2,2(r2)
   23770:	18ffffcc 	andi	r3,r3,65535
   23774:	10bfffcc 	andi	r2,r2,65535
   23778:	1880051e 	bne	r3,r2,23790 <PinP_2camera_ajust+0x134>
	    CmaeraR_y = pCameraR->mixerii_y;
   2377c:	e0bff917 	ldw	r2,-28(fp)
   23780:	1080008b 	ldhu	r2,2(r2)
   23784:	10bfffcc 	andi	r2,r2,65535
   23788:	e0bffb15 	stw	r2,-20(fp)
   2378c:	00000906 	br	237b4 <PinP_2camera_ajust+0x158>
   else	CmaeraR_y = pCameraR->mixerii_y + factor_step_unit*VIDEO_HEIGHT_FACTOR;
   23790:	e0bff917 	ldw	r2,-28(fp)
   23794:	1080008b 	ldhu	r2,2(r2)
   23798:	113fffcc 	andi	r4,r2,65535
   2379c:	e0fffc17 	ldw	r3,-16(fp)
   237a0:	1805883a 	mov	r2,r3
   237a4:	1085883a 	add	r2,r2,r2
   237a8:	10c5883a 	add	r2,r2,r3
   237ac:	2085883a 	add	r2,r4,r2
   237b0:	e0bffb15 	stw	r2,-20(fp)

//   printf("fL=%d,xL=%d,yL=%d,fR=%d,xR=%d,yR=%d\n",CmaeraL_factor,pCameraL->mixerii_x,pCameraL->mixerii_y,CmaeraR_factor,CmaeraR_x,CmaeraR_y);

   if(camera_out_of_range(pCameraL->mixerii_x,pCameraL->mixerii_y,CmaeraL_factor)){
   237b4:	e0bff817 	ldw	r2,-32(fp)
   237b8:	1080000b 	ldhu	r2,0(r2)
   237bc:	10ffffcc 	andi	r3,r2,65535
   237c0:	e0bff817 	ldw	r2,-32(fp)
   237c4:	1080008b 	ldhu	r2,2(r2)
   237c8:	10bfffcc 	andi	r2,r2,65535
   237cc:	1809883a 	mov	r4,r3
   237d0:	100b883a 	mov	r5,r2
   237d4:	e1bffd17 	ldw	r6,-12(fp)
   237d8:	0022af00 	call	22af0 <camera_out_of_range>
   237dc:	10000126 	beq	r2,zero,237e4 <PinP_2camera_ajust+0x188>
//	   printf("Left Video out of range!\n");
	   return;}
   237e0:	00004d06 	br	23918 <PinP_2camera_ajust+0x2bc>
   if(camera_out_of_range(CmaeraR_x,CmaeraR_y,CmaeraR_factor)){
   237e4:	e13ffa17 	ldw	r4,-24(fp)
   237e8:	e17ffb17 	ldw	r5,-20(fp)
   237ec:	e1bffe17 	ldw	r6,-8(fp)
   237f0:	0022af00 	call	22af0 <camera_out_of_range>
   237f4:	10000126 	beq	r2,zero,237fc <PinP_2camera_ajust+0x1a0>
//	   printf("Right Video out of range!\n");
	   return;}
   237f8:	00004706 	br	23918 <PinP_2camera_ajust+0x2bc>

    // scale down before move
    if(add_or_minus){
   237fc:	e0bfff17 	ldw	r2,-4(fp)
   23800:	10001b26 	beq	r2,zero,23870 <PinP_2camera_ajust+0x214>
		scalerii_scale(pCameraR->pConfig,CmaeraR_factor);
   23804:	e0bff917 	ldw	r2,-28(fp)
   23808:	10c00217 	ldw	r3,8(r2)
   2380c:	e0bffe17 	ldw	r2,-8(fp)
   23810:	1809883a 	mov	r4,r3
   23814:	100b883a 	mov	r5,r2
   23818:	0023c840 	call	23c84 <scalerii_scale>
		usleep(PinP_TIME_DELAY);
   2381c:	01271014 	movui	r4,40000
   23820:	00322500 	call	32250 <usleep>
		PinP_position_set(pCameraR->mixerii_channel,CmaeraR_x,CmaeraR_y,CmaeraR_factor);
   23824:	e0bff917 	ldw	r2,-28(fp)
   23828:	10800103 	ldbu	r2,4(r2)
   2382c:	11003fcc 	andi	r4,r2,255
   23830:	e0bffa17 	ldw	r2,-24(fp)
   23834:	117fffcc 	andi	r5,r2,65535
   23838:	e0bffb17 	ldw	r2,-20(fp)
   2383c:	10ffffcc 	andi	r3,r2,65535
   23840:	e0bffe17 	ldw	r2,-8(fp)
   23844:	10bfffcc 	andi	r2,r2,65535
   23848:	180d883a 	mov	r6,r3
   2384c:	100f883a 	mov	r7,r2
   23850:	0022c300 	call	22c30 <PinP_position_set>
    	scalerii_scale(pCameraL->pConfig,CmaeraL_factor);
   23854:	e0bff817 	ldw	r2,-32(fp)
   23858:	10c00217 	ldw	r3,8(r2)
   2385c:	e0bffd17 	ldw	r2,-12(fp)
   23860:	1809883a 	mov	r4,r3
   23864:	100b883a 	mov	r5,r2
   23868:	0023c840 	call	23c84 <scalerii_scale>
   2386c:	00001a06 	br	238d8 <PinP_2camera_ajust+0x27c>
    }
    else{
	    PinP_position_set(pCameraR->mixerii_channel,CmaeraR_x,CmaeraR_y,CmaeraR_factor);
   23870:	e0bff917 	ldw	r2,-28(fp)
   23874:	10800103 	ldbu	r2,4(r2)
   23878:	11003fcc 	andi	r4,r2,255
   2387c:	e0bffa17 	ldw	r2,-24(fp)
   23880:	117fffcc 	andi	r5,r2,65535
   23884:	e0bffb17 	ldw	r2,-20(fp)
   23888:	10ffffcc 	andi	r3,r2,65535
   2388c:	e0bffe17 	ldw	r2,-8(fp)
   23890:	10bfffcc 	andi	r2,r2,65535
   23894:	180d883a 	mov	r6,r3
   23898:	100f883a 	mov	r7,r2
   2389c:	0022c300 	call	22c30 <PinP_position_set>
        scalerii_scale(pCameraL->pConfig,CmaeraL_factor);
   238a0:	e0bff817 	ldw	r2,-32(fp)
   238a4:	10c00217 	ldw	r3,8(r2)
   238a8:	e0bffd17 	ldw	r2,-12(fp)
   238ac:	1809883a 	mov	r4,r3
   238b0:	100b883a 	mov	r5,r2
   238b4:	0023c840 	call	23c84 <scalerii_scale>
	    usleep(PinP_TIME_DELAY);
   238b8:	01271014 	movui	r4,40000
   238bc:	00322500 	call	32250 <usleep>
    	scalerii_scale(pCameraR->pConfig,CmaeraR_factor);
   238c0:	e0bff917 	ldw	r2,-28(fp)
   238c4:	10c00217 	ldw	r3,8(r2)
   238c8:	e0bffe17 	ldw	r2,-8(fp)
   238cc:	1809883a 	mov	r4,r3
   238d0:	100b883a 	mov	r5,r2
   238d4:	0023c840 	call	23c84 <scalerii_scale>
   }


    pCameraL->scalered_factor = CmaeraL_factor;
   238d8:	e0bffd17 	ldw	r2,-12(fp)
   238dc:	1007883a 	mov	r3,r2
   238e0:	e0bff817 	ldw	r2,-32(fp)
   238e4:	10c0018d 	sth	r3,6(r2)

    pCameraR->mixerii_x = CmaeraR_x;
   238e8:	e0bffa17 	ldw	r2,-24(fp)
   238ec:	1007883a 	mov	r3,r2
   238f0:	e0bff917 	ldw	r2,-28(fp)
   238f4:	10c0000d 	sth	r3,0(r2)
    pCameraR->mixerii_y = CmaeraR_y;
   238f8:	e0bffb17 	ldw	r2,-20(fp)
   238fc:	1007883a 	mov	r3,r2
   23900:	e0bff917 	ldw	r2,-28(fp)
   23904:	10c0008d 	sth	r3,2(r2)
    pCameraR->scalered_factor = CmaeraR_factor;
   23908:	e0bffe17 	ldw	r2,-8(fp)
   2390c:	1007883a 	mov	r3,r2
   23910:	e0bff917 	ldw	r2,-28(fp)
   23914:	10c0018d 	sth	r3,6(r2)

}
   23918:	e037883a 	mov	sp,fp
   2391c:	dfc00117 	ldw	ra,4(sp)
   23920:	df000017 	ldw	fp,0(sp)
   23924:	dec00204 	addi	sp,sp,8
   23928:	f800283a 	ret

0002392c <QUEUE_New>:
#include "queue.h"




QUEUE_STRUCT* QUEUE_New(int nQueueNum){
   2392c:	defffb04 	addi	sp,sp,-20
   23930:	dfc00415 	stw	ra,16(sp)
   23934:	df000315 	stw	fp,12(sp)
   23938:	df000304 	addi	fp,sp,12
   2393c:	e13fff15 	stw	r4,-4(fp)
    int nSize;
    QUEUE_STRUCT *pQueue;
    nSize = sizeof(QUEUE_STRUCT)+nQueueNum*sizeof(alt_u32);
   23940:	e0bfff17 	ldw	r2,-4(fp)
   23944:	10800144 	addi	r2,r2,5
   23948:	1085883a 	add	r2,r2,r2
   2394c:	1085883a 	add	r2,r2,r2
   23950:	e0bffd15 	stw	r2,-12(fp)
    pQueue = (QUEUE_STRUCT *)malloc(nSize);
   23954:	e0bffd17 	ldw	r2,-12(fp)
   23958:	1009883a 	mov	r4,r2
   2395c:	00254d80 	call	254d8 <malloc>
   23960:	e0bffe15 	stw	r2,-8(fp)
    memset((void *)pQueue, 0, nSize);
   23964:	e0bffd17 	ldw	r2,-12(fp)
   23968:	e13ffe17 	ldw	r4,-8(fp)
   2396c:	000b883a 	mov	r5,zero
   23970:	100d883a 	mov	r6,r2
   23974:	0025ca80 	call	25ca8 <memset>
    pQueue->num = nQueueNum;
   23978:	e0ffff17 	ldw	r3,-4(fp)
   2397c:	e0bffe17 	ldw	r2,-8(fp)
   23980:	10c00015 	stw	r3,0(r2)
    return pQueue;
   23984:	e0bffe17 	ldw	r2,-8(fp)
}
   23988:	e037883a 	mov	sp,fp
   2398c:	dfc00117 	ldw	ra,4(sp)
   23990:	df000017 	ldw	fp,0(sp)
   23994:	dec00204 	addi	sp,sp,8
   23998:	f800283a 	ret

0002399c <QUEUE_Delete>:

void QUEUE_Delete(QUEUE_STRUCT *pQueue){
   2399c:	defffd04 	addi	sp,sp,-12
   239a0:	dfc00215 	stw	ra,8(sp)
   239a4:	df000115 	stw	fp,4(sp)
   239a8:	df000104 	addi	fp,sp,4
   239ac:	e13fff15 	stw	r4,-4(fp)
    free(pQueue);
   239b0:	e13fff17 	ldw	r4,-4(fp)
   239b4:	00254ec0 	call	254ec <free>
}
   239b8:	e037883a 	mov	sp,fp
   239bc:	dfc00117 	ldw	ra,4(sp)
   239c0:	df000017 	ldw	fp,0(sp)
   239c4:	dec00204 	addi	sp,sp,8
   239c8:	f800283a 	ret

000239cc <QUEUE_IsEmpty>:

bool QUEUE_IsEmpty(QUEUE_STRUCT *pQueue){
   239cc:	defffe04 	addi	sp,sp,-8
   239d0:	df000115 	stw	fp,4(sp)
   239d4:	df000104 	addi	fp,sp,4
   239d8:	e13fff15 	stw	r4,-4(fp)
    if (pQueue->front == pQueue->rear)
   239dc:	e0bfff17 	ldw	r2,-4(fp)
   239e0:	10c00117 	ldw	r3,4(r2)
   239e4:	e0bfff17 	ldw	r2,-4(fp)
   239e8:	10800217 	ldw	r2,8(r2)
   239ec:	1880021e 	bne	r3,r2,239f8 <QUEUE_IsEmpty+0x2c>
        return TRUE;
   239f0:	00800044 	movi	r2,1
   239f4:	00000106 	br	239fc <QUEUE_IsEmpty+0x30>
    return FALSE;
   239f8:	0005883a 	mov	r2,zero
}
   239fc:	e037883a 	mov	sp,fp
   23a00:	df000017 	ldw	fp,0(sp)
   23a04:	dec00104 	addi	sp,sp,4
   23a08:	f800283a 	ret

00023a0c <QUEUE_IsFull>:

bool QUEUE_IsFull(QUEUE_STRUCT *pQueue){
   23a0c:	defffd04 	addi	sp,sp,-12
   23a10:	dfc00215 	stw	ra,8(sp)
   23a14:	df000115 	stw	fp,4(sp)
   23a18:	df000104 	addi	fp,sp,4
   23a1c:	e13fff15 	stw	r4,-4(fp)
    if (((pQueue->front+1)%pQueue->num) == pQueue->rear)
   23a20:	e0bfff17 	ldw	r2,-4(fp)
   23a24:	10800117 	ldw	r2,4(r2)
   23a28:	10c00044 	addi	r3,r2,1
   23a2c:	e0bfff17 	ldw	r2,-4(fp)
   23a30:	10800017 	ldw	r2,0(r2)
   23a34:	1809883a 	mov	r4,r3
   23a38:	100b883a 	mov	r5,r2
   23a3c:	0023ea80 	call	23ea8 <__umodsi3>
   23a40:	1007883a 	mov	r3,r2
   23a44:	e0bfff17 	ldw	r2,-4(fp)
   23a48:	10800217 	ldw	r2,8(r2)
   23a4c:	1880021e 	bne	r3,r2,23a58 <QUEUE_IsFull+0x4c>
        return TRUE;
   23a50:	00800044 	movi	r2,1
   23a54:	00000106 	br	23a5c <QUEUE_IsFull+0x50>
    return FALSE;
   23a58:	0005883a 	mov	r2,zero
}
   23a5c:	e037883a 	mov	sp,fp
   23a60:	dfc00117 	ldw	ra,4(sp)
   23a64:	df000017 	ldw	fp,0(sp)
   23a68:	dec00204 	addi	sp,sp,8
   23a6c:	f800283a 	ret

00023a70 <QUEUE_Push>:

bool QUEUE_Push(QUEUE_STRUCT *pQueue, alt_u32 data32){
   23a70:	defffc04 	addi	sp,sp,-16
   23a74:	dfc00315 	stw	ra,12(sp)
   23a78:	df000215 	stw	fp,8(sp)
   23a7c:	df000204 	addi	fp,sp,8
   23a80:	e13ffe15 	stw	r4,-8(fp)
   23a84:	e17fff15 	stw	r5,-4(fp)
    if (QUEUE_IsFull(pQueue))
   23a88:	e13ffe17 	ldw	r4,-8(fp)
   23a8c:	0023a0c0 	call	23a0c <QUEUE_IsFull>
   23a90:	10000226 	beq	r2,zero,23a9c <QUEUE_Push+0x2c>
        return FALSE;
   23a94:	0005883a 	mov	r2,zero
   23a98:	00001506 	br	23af0 <QUEUE_Push+0x80>
    pQueue->data[pQueue->front] = data32;
   23a9c:	e0bffe17 	ldw	r2,-8(fp)
   23aa0:	10800117 	ldw	r2,4(r2)
   23aa4:	e0fffe17 	ldw	r3,-8(fp)
   23aa8:	108000c4 	addi	r2,r2,3
   23aac:	1085883a 	add	r2,r2,r2
   23ab0:	1085883a 	add	r2,r2,r2
   23ab4:	1885883a 	add	r2,r3,r2
   23ab8:	e0ffff17 	ldw	r3,-4(fp)
   23abc:	10c00015 	stw	r3,0(r2)
    pQueue->front = (pQueue->front+1)%pQueue->num;        
   23ac0:	e0bffe17 	ldw	r2,-8(fp)
   23ac4:	10800117 	ldw	r2,4(r2)
   23ac8:	10c00044 	addi	r3,r2,1
   23acc:	e0bffe17 	ldw	r2,-8(fp)
   23ad0:	10800017 	ldw	r2,0(r2)
   23ad4:	1809883a 	mov	r4,r3
   23ad8:	100b883a 	mov	r5,r2
   23adc:	0023ea80 	call	23ea8 <__umodsi3>
   23ae0:	1007883a 	mov	r3,r2
   23ae4:	e0bffe17 	ldw	r2,-8(fp)
   23ae8:	10c00115 	stw	r3,4(r2)
    return TRUE;
   23aec:	00800044 	movi	r2,1
}
   23af0:	e037883a 	mov	sp,fp
   23af4:	dfc00117 	ldw	ra,4(sp)
   23af8:	df000017 	ldw	fp,0(sp)
   23afc:	dec00204 	addi	sp,sp,8
   23b00:	f800283a 	ret

00023b04 <QUEUE_Pop>:

alt_u32 QUEUE_Pop(QUEUE_STRUCT *pQueue){
   23b04:	defffc04 	addi	sp,sp,-16
   23b08:	dfc00315 	stw	ra,12(sp)
   23b0c:	df000215 	stw	fp,8(sp)
   23b10:	df000204 	addi	fp,sp,8
   23b14:	e13fff15 	stw	r4,-4(fp)
    alt_u32 data32;
    if (QUEUE_IsEmpty(pQueue))
   23b18:	e13fff17 	ldw	r4,-4(fp)
   23b1c:	00239cc0 	call	239cc <QUEUE_IsEmpty>
   23b20:	10000226 	beq	r2,zero,23b2c <QUEUE_Pop+0x28>
        return 0;
   23b24:	0005883a 	mov	r2,zero
   23b28:	00001506 	br	23b80 <QUEUE_Pop+0x7c>
    data32 = pQueue->data[pQueue->rear];
   23b2c:	e0bfff17 	ldw	r2,-4(fp)
   23b30:	10800217 	ldw	r2,8(r2)
   23b34:	e0ffff17 	ldw	r3,-4(fp)
   23b38:	108000c4 	addi	r2,r2,3
   23b3c:	1085883a 	add	r2,r2,r2
   23b40:	1085883a 	add	r2,r2,r2
   23b44:	1885883a 	add	r2,r3,r2
   23b48:	10800017 	ldw	r2,0(r2)
   23b4c:	e0bffe15 	stw	r2,-8(fp)
    pQueue->rear = (pQueue->rear+1)%pQueue->num;        
   23b50:	e0bfff17 	ldw	r2,-4(fp)
   23b54:	10800217 	ldw	r2,8(r2)
   23b58:	10c00044 	addi	r3,r2,1
   23b5c:	e0bfff17 	ldw	r2,-4(fp)
   23b60:	10800017 	ldw	r2,0(r2)
   23b64:	1809883a 	mov	r4,r3
   23b68:	100b883a 	mov	r5,r2
   23b6c:	0023ea80 	call	23ea8 <__umodsi3>
   23b70:	1007883a 	mov	r3,r2
   23b74:	e0bfff17 	ldw	r2,-4(fp)
   23b78:	10c00215 	stw	r3,8(r2)
    return data32;
   23b7c:	e0bffe17 	ldw	r2,-8(fp)
}
   23b80:	e037883a 	mov	sp,fp
   23b84:	dfc00117 	ldw	ra,4(sp)
   23b88:	df000017 	ldw	fp,0(sp)
   23b8c:	dec00204 	addi	sp,sp,8
   23b90:	f800283a 	ret

00023b94 <QUEUE_Empty>:

void QUEUE_Empty(QUEUE_STRUCT *pQueue){
   23b94:	defffe04 	addi	sp,sp,-8
   23b98:	df000115 	stw	fp,4(sp)
   23b9c:	df000104 	addi	fp,sp,4
   23ba0:	e13fff15 	stw	r4,-4(fp)
    pQueue->front = 0;
   23ba4:	e0bfff17 	ldw	r2,-4(fp)
   23ba8:	10000115 	stw	zero,4(r2)
    pQueue->rear = 0;
   23bac:	e0bfff17 	ldw	r2,-4(fp)
   23bb0:	10000215 	stw	zero,8(r2)
}
   23bb4:	e037883a 	mov	sp,fp
   23bb8:	df000017 	ldw	fp,0(sp)
   23bbc:	dec00104 	addi	sp,sp,4
   23bc0:	f800283a 	ret

00023bc4 <scalerii_go>:

#include <stdio.h>
#include "terasic_includes.h"
#include "video_parameter.h"

void scalerii_go(config_t *pConfig ,int go){
   23bc4:	defffd04 	addi	sp,sp,-12
   23bc8:	df000215 	stw	fp,8(sp)
   23bcc:	df000204 	addi	fp,sp,8
   23bd0:	e13ffe15 	stw	r4,-8(fp)
   23bd4:	e17fff15 	stw	r5,-4(fp)
	if(go==0){
   23bd8:	e0bfff17 	ldw	r2,-4(fp)
   23bdc:	1000071e 	bne	r2,zero,23bfc <scalerii_go+0x38>
		IOWR(pConfig->scalerii_base,0,0);
   23be0:	e0bffe17 	ldw	r2,-8(fp)
   23be4:	10800317 	ldw	r2,12(r2)
   23be8:	0007883a 	mov	r3,zero
   23bec:	10c00035 	stwio	r3,0(r2)
		pConfig->scalerii_run = 0;
   23bf0:	e0bffe17 	ldw	r2,-8(fp)
   23bf4:	10000505 	stb	zero,20(r2)
   23bf8:	00000806 	br	23c1c <scalerii_go+0x58>
	}else{
		IOWR(pConfig->scalerii_base,0,1);
   23bfc:	e0bffe17 	ldw	r2,-8(fp)
   23c00:	10800317 	ldw	r2,12(r2)
   23c04:	1007883a 	mov	r3,r2
   23c08:	00800044 	movi	r2,1
   23c0c:	18800035 	stwio	r2,0(r3)
		pConfig->scalerii_run = 1;
   23c10:	e0bffe17 	ldw	r2,-8(fp)
   23c14:	00c00044 	movi	r3,1
   23c18:	10c00505 	stb	r3,20(r2)
	}
}
   23c1c:	e037883a 	mov	sp,fp
   23c20:	df000017 	ldw	fp,0(sp)
   23c24:	dec00104 	addi	sp,sp,4
   23c28:	f800283a 	ret

00023c2c <scalerii_output_size>:

void scalerii_output_size(config_t *pConfig ,alt_u32 width,alt_u32 height){
   23c2c:	defffc04 	addi	sp,sp,-16
   23c30:	df000315 	stw	fp,12(sp)
   23c34:	df000304 	addi	fp,sp,12
   23c38:	e13ffd15 	stw	r4,-12(fp)
   23c3c:	e17ffe15 	stw	r5,-8(fp)
   23c40:	e1bfff15 	stw	r6,-4(fp)
	 IOWR(pConfig->scalerii_base,3,width);
   23c44:	e0bffd17 	ldw	r2,-12(fp)
   23c48:	10800317 	ldw	r2,12(r2)
   23c4c:	10800304 	addi	r2,r2,12
   23c50:	1007883a 	mov	r3,r2
   23c54:	e0bffe17 	ldw	r2,-8(fp)
   23c58:	18800035 	stwio	r2,0(r3)
	 IOWR(pConfig->scalerii_base,4,height);
   23c5c:	e0bffd17 	ldw	r2,-12(fp)
   23c60:	10800317 	ldw	r2,12(r2)
   23c64:	10800404 	addi	r2,r2,16
   23c68:	1007883a 	mov	r3,r2
   23c6c:	e0bfff17 	ldw	r2,-4(fp)
   23c70:	18800035 	stwio	r2,0(r3)
}
   23c74:	e037883a 	mov	sp,fp
   23c78:	df000017 	ldw	fp,0(sp)
   23c7c:	dec00104 	addi	sp,sp,4
   23c80:	f800283a 	ret

00023c84 <scalerii_scale>:

void scalerii_scale(config_t *pConfig ,alt_u32 factor){
   23c84:	defffc04 	addi	sp,sp,-16
   23c88:	dfc00315 	stw	ra,12(sp)
   23c8c:	df000215 	stw	fp,8(sp)
   23c90:	df000204 	addi	fp,sp,8
   23c94:	e13ffe15 	stw	r4,-8(fp)
   23c98:	e17fff15 	stw	r5,-4(fp)
	if(VIDEO_WIDTH_FACTOR*factor > CAMERA_WIDTH){
   23c9c:	e0bfff17 	ldw	r2,-4(fp)
   23ca0:	1085883a 	add	r2,r2,r2
   23ca4:	1085883a 	add	r2,r2,r2
   23ca8:	1080a070 	cmpltui	r2,r2,641
   23cac:	1000071e 	bne	r2,zero,23ccc <scalerii_scale+0x48>
	  printf("[%s]:Scalerii out of range\n",pConfig->str);
   23cb0:	e0bffe17 	ldw	r2,-8(fp)
   23cb4:	10800544 	addi	r2,r2,21
   23cb8:	010000f4 	movhi	r4,3
   23cbc:	2112ca04 	addi	r4,r4,19240
   23cc0:	100b883a 	mov	r5,r2
   23cc4:	0025df80 	call	25df8 <printf>
	  return;
   23cc8:	00001106 	br	23d10 <scalerii_scale+0x8c>
	}
    scalerii_go(pConfig ,0);
   23ccc:	e13ffe17 	ldw	r4,-8(fp)
   23cd0:	000b883a 	mov	r5,zero
   23cd4:	0023bc40 	call	23bc4 <scalerii_go>
    scalerii_output_size(pConfig, VIDEO_WIDTH_FACTOR*factor,VIDEO_HEIGHT_FACTOR*factor);//4*160,3*160 640x480 max
   23cd8:	e0bfff17 	ldw	r2,-4(fp)
   23cdc:	1085883a 	add	r2,r2,r2
   23ce0:	1085883a 	add	r2,r2,r2
   23ce4:	100b883a 	mov	r5,r2
   23ce8:	e0ffff17 	ldw	r3,-4(fp)
   23cec:	1805883a 	mov	r2,r3
   23cf0:	1085883a 	add	r2,r2,r2
   23cf4:	10c5883a 	add	r2,r2,r3
   23cf8:	e13ffe17 	ldw	r4,-8(fp)
   23cfc:	100d883a 	mov	r6,r2
   23d00:	0023c2c0 	call	23c2c <scalerii_output_size>
    scalerii_go(pConfig ,1);
   23d04:	e13ffe17 	ldw	r4,-8(fp)
   23d08:	01400044 	movi	r5,1
   23d0c:	0023bc40 	call	23bc4 <scalerii_go>
}
   23d10:	e037883a 	mov	sp,fp
   23d14:	dfc00117 	ldw	ra,4(sp)
   23d18:	df000017 	ldw	fp,0(sp)
   23d1c:	dec00204 	addi	sp,sp,8
   23d20:	f800283a 	ret

00023d24 <__fixunssfsi>:
   23d24:	defffd04 	addi	sp,sp,-12
   23d28:	dc000015 	stw	r16,0(sp)
   23d2c:	0413c034 	movhi	r16,20224
   23d30:	800b883a 	mov	r5,r16
   23d34:	dc400115 	stw	r17,4(sp)
   23d38:	dfc00215 	stw	ra,8(sp)
   23d3c:	2023883a 	mov	r17,r4
   23d40:	00247e00 	call	247e0 <__gesf2>
   23d44:	1000070e 	bge	r2,zero,23d64 <__fixunssfsi+0x40>
   23d48:	8809883a 	mov	r4,r17
   23d4c:	00251b80 	call	251b8 <__fixsfsi>
   23d50:	dfc00217 	ldw	ra,8(sp)
   23d54:	dc400117 	ldw	r17,4(sp)
   23d58:	dc000017 	ldw	r16,0(sp)
   23d5c:	dec00304 	addi	sp,sp,12
   23d60:	f800283a 	ret
   23d64:	800b883a 	mov	r5,r16
   23d68:	8809883a 	mov	r4,r17
   23d6c:	0024cbc0 	call	24cbc <__subsf3>
   23d70:	1009883a 	mov	r4,r2
   23d74:	00251b80 	call	251b8 <__fixsfsi>
   23d78:	00e00034 	movhi	r3,32768
   23d7c:	10c5883a 	add	r2,r2,r3
   23d80:	003ff306 	br	23d50 <__alt_data_end+0xfffe3d50>

00023d84 <udivmodsi4>:
   23d84:	2900182e 	bgeu	r5,r4,23de8 <udivmodsi4+0x64>
   23d88:	28001716 	blt	r5,zero,23de8 <udivmodsi4+0x64>
   23d8c:	00800804 	movi	r2,32
   23d90:	00c00044 	movi	r3,1
   23d94:	00000206 	br	23da0 <udivmodsi4+0x1c>
   23d98:	10001126 	beq	r2,zero,23de0 <udivmodsi4+0x5c>
   23d9c:	28000516 	blt	r5,zero,23db4 <udivmodsi4+0x30>
   23da0:	294b883a 	add	r5,r5,r5
   23da4:	10bfffc4 	addi	r2,r2,-1
   23da8:	18c7883a 	add	r3,r3,r3
   23dac:	293ffa36 	bltu	r5,r4,23d98 <__alt_data_end+0xfffe3d98>
   23db0:	18000b26 	beq	r3,zero,23de0 <udivmodsi4+0x5c>
   23db4:	0005883a 	mov	r2,zero
   23db8:	21400236 	bltu	r4,r5,23dc4 <udivmodsi4+0x40>
   23dbc:	2149c83a 	sub	r4,r4,r5
   23dc0:	10c4b03a 	or	r2,r2,r3
   23dc4:	1806d07a 	srli	r3,r3,1
   23dc8:	280ad07a 	srli	r5,r5,1
   23dcc:	183ffa1e 	bne	r3,zero,23db8 <__alt_data_end+0xfffe3db8>
   23dd0:	3000011e 	bne	r6,zero,23dd8 <udivmodsi4+0x54>
   23dd4:	f800283a 	ret
   23dd8:	2005883a 	mov	r2,r4
   23ddc:	f800283a 	ret
   23de0:	0005883a 	mov	r2,zero
   23de4:	003ffa06 	br	23dd0 <__alt_data_end+0xfffe3dd0>
   23de8:	00c00044 	movi	r3,1
   23dec:	003ff106 	br	23db4 <__alt_data_end+0xfffe3db4>

00023df0 <__divsi3>:
   23df0:	defffe04 	addi	sp,sp,-8
   23df4:	dfc00115 	stw	ra,4(sp)
   23df8:	dc000015 	stw	r16,0(sp)
   23dfc:	20000b16 	blt	r4,zero,23e2c <__divsi3+0x3c>
   23e00:	0021883a 	mov	r16,zero
   23e04:	28000c16 	blt	r5,zero,23e38 <__divsi3+0x48>
   23e08:	000d883a 	mov	r6,zero
   23e0c:	0023d840 	call	23d84 <udivmodsi4>
   23e10:	0407c83a 	sub	r3,zero,r16
   23e14:	1884f03a 	xor	r2,r3,r2
   23e18:	1405883a 	add	r2,r2,r16
   23e1c:	dfc00117 	ldw	ra,4(sp)
   23e20:	dc000017 	ldw	r16,0(sp)
   23e24:	dec00204 	addi	sp,sp,8
   23e28:	f800283a 	ret
   23e2c:	0109c83a 	sub	r4,zero,r4
   23e30:	04000044 	movi	r16,1
   23e34:	283ff40e 	bge	r5,zero,23e08 <__alt_data_end+0xfffe3e08>
   23e38:	014bc83a 	sub	r5,zero,r5
   23e3c:	8400005c 	xori	r16,r16,1
   23e40:	003ff106 	br	23e08 <__alt_data_end+0xfffe3e08>

00023e44 <__modsi3>:
   23e44:	defffd04 	addi	sp,sp,-12
   23e48:	dfc00215 	stw	ra,8(sp)
   23e4c:	dc400115 	stw	r17,4(sp)
   23e50:	dc000015 	stw	r16,0(sp)
   23e54:	20000c16 	blt	r4,zero,23e88 <__modsi3+0x44>
   23e58:	0023883a 	mov	r17,zero
   23e5c:	0021883a 	mov	r16,zero
   23e60:	28000d16 	blt	r5,zero,23e98 <__modsi3+0x54>
   23e64:	01800044 	movi	r6,1
   23e68:	0023d840 	call	23d84 <udivmodsi4>
   23e6c:	1404f03a 	xor	r2,r2,r16
   23e70:	8885883a 	add	r2,r17,r2
   23e74:	dfc00217 	ldw	ra,8(sp)
   23e78:	dc400117 	ldw	r17,4(sp)
   23e7c:	dc000017 	ldw	r16,0(sp)
   23e80:	dec00304 	addi	sp,sp,12
   23e84:	f800283a 	ret
   23e88:	0109c83a 	sub	r4,zero,r4
   23e8c:	04400044 	movi	r17,1
   23e90:	043fffc4 	movi	r16,-1
   23e94:	283ff30e 	bge	r5,zero,23e64 <__alt_data_end+0xfffe3e64>
   23e98:	014bc83a 	sub	r5,zero,r5
   23e9c:	003ff106 	br	23e64 <__alt_data_end+0xfffe3e64>

00023ea0 <__udivsi3>:
   23ea0:	000d883a 	mov	r6,zero
   23ea4:	0023d841 	jmpi	23d84 <udivmodsi4>

00023ea8 <__umodsi3>:
   23ea8:	01800044 	movi	r6,1
   23eac:	0023d841 	jmpi	23d84 <udivmodsi4>

00023eb0 <__addsf3>:
   23eb0:	defffc04 	addi	sp,sp,-16
   23eb4:	2004d7fa 	srli	r2,r4,31
   23eb8:	280ed5fa 	srli	r7,r5,23
   23ebc:	dc000015 	stw	r16,0(sp)
   23ec0:	01802034 	movhi	r6,128
   23ec4:	2020d5fa 	srli	r16,r4,23
   23ec8:	31bfffc4 	addi	r6,r6,-1
   23ecc:	2810d7fa 	srli	r8,r5,31
   23ed0:	3108703a 	and	r4,r6,r4
   23ed4:	dc800215 	stw	r18,8(sp)
   23ed8:	314c703a 	and	r6,r6,r5
   23edc:	84003fcc 	andi	r16,r16,255
   23ee0:	200690fa 	slli	r3,r4,3
   23ee4:	dfc00315 	stw	ra,12(sp)
   23ee8:	39003fcc 	andi	r4,r7,255
   23eec:	dc400115 	stw	r17,4(sp)
   23ef0:	14803fcc 	andi	r18,r2,255
   23ef4:	300c90fa 	slli	r6,r6,3
   23ef8:	810bc83a 	sub	r5,r16,r4
   23efc:	92004826 	beq	r18,r8,24020 <__addsf3+0x170>
   23f00:	01406c0e 	bge	zero,r5,240b4 <__addsf3+0x204>
   23f04:	20001e1e 	bne	r4,zero,23f80 <__addsf3+0xd0>
   23f08:	3000611e 	bne	r6,zero,24090 <__addsf3+0x1e0>
   23f0c:	188001cc 	andi	r2,r3,7
   23f10:	10000426 	beq	r2,zero,23f24 <__addsf3+0x74>
   23f14:	190003cc 	andi	r4,r3,15
   23f18:	00800104 	movi	r2,4
   23f1c:	20800126 	beq	r4,r2,23f24 <__addsf3+0x74>
   23f20:	18c00104 	addi	r3,r3,4
   23f24:	1901002c 	andhi	r4,r3,1024
   23f28:	9005883a 	mov	r2,r18
   23f2c:	20003426 	beq	r4,zero,24000 <__addsf3+0x150>
   23f30:	81400044 	addi	r5,r16,1
   23f34:	01003fc4 	movi	r4,255
   23f38:	29006926 	beq	r5,r4,240e0 <__addsf3+0x230>
   23f3c:	180691ba 	slli	r3,r3,6
   23f40:	1808d27a 	srli	r4,r3,9
   23f44:	29403fcc 	andi	r5,r5,255
   23f48:	280a95fa 	slli	r5,r5,23
   23f4c:	10803fcc 	andi	r2,r2,255
   23f50:	00c02034 	movhi	r3,128
   23f54:	100497fa 	slli	r2,r2,31
   23f58:	18ffffc4 	addi	r3,r3,-1
   23f5c:	20c6703a 	and	r3,r4,r3
   23f60:	1946b03a 	or	r3,r3,r5
   23f64:	1884b03a 	or	r2,r3,r2
   23f68:	dfc00317 	ldw	ra,12(sp)
   23f6c:	dc800217 	ldw	r18,8(sp)
   23f70:	dc400117 	ldw	r17,4(sp)
   23f74:	dc000017 	ldw	r16,0(sp)
   23f78:	dec00404 	addi	sp,sp,16
   23f7c:	f800283a 	ret
   23f80:	00803fc4 	movi	r2,255
   23f84:	80bfe126 	beq	r16,r2,23f0c <__alt_data_end+0xfffe3f0c>
   23f88:	31810034 	orhi	r6,r6,1024
   23f8c:	008006c4 	movi	r2,27
   23f90:	11405b0e 	bge	r2,r5,24100 <__addsf3+0x250>
   23f94:	01400044 	movi	r5,1
   23f98:	1947c83a 	sub	r3,r3,r5
   23f9c:	1881002c 	andhi	r2,r3,1024
   23fa0:	10001426 	beq	r2,zero,23ff4 <__addsf3+0x144>
   23fa4:	04410034 	movhi	r17,1024
   23fa8:	8c7fffc4 	addi	r17,r17,-1
   23fac:	1c62703a 	and	r17,r3,r17
   23fb0:	8809883a 	mov	r4,r17
   23fb4:	00254740 	call	25474 <__clzsi2>
   23fb8:	10bffec4 	addi	r2,r2,-5
   23fbc:	88a2983a 	sll	r17,r17,r2
   23fc0:	14004a16 	blt	r2,r16,240ec <__addsf3+0x23c>
   23fc4:	140bc83a 	sub	r5,r2,r16
   23fc8:	00c007c4 	movi	r3,31
   23fcc:	1947c83a 	sub	r3,r3,r5
   23fd0:	88c6983a 	sll	r3,r17,r3
   23fd4:	29400044 	addi	r5,r5,1
   23fd8:	8962d83a 	srl	r17,r17,r5
   23fdc:	1806c03a 	cmpne	r3,r3,zero
   23fe0:	0021883a 	mov	r16,zero
   23fe4:	1c46b03a 	or	r3,r3,r17
   23fe8:	003fc806 	br	23f0c <__alt_data_end+0xfffe3f0c>
   23fec:	1000e526 	beq	r2,zero,24384 <__addsf3+0x4d4>
   23ff0:	1007883a 	mov	r3,r2
   23ff4:	188001cc 	andi	r2,r3,7
   23ff8:	103fc61e 	bne	r2,zero,23f14 <__alt_data_end+0xfffe3f14>
   23ffc:	9005883a 	mov	r2,r18
   24000:	01003fc4 	movi	r4,255
   24004:	1806d0fa 	srli	r3,r3,3
   24008:	81001a26 	beq	r16,r4,24074 <__addsf3+0x1c4>
   2400c:	01002034 	movhi	r4,128
   24010:	213fffc4 	addi	r4,r4,-1
   24014:	800b883a 	mov	r5,r16
   24018:	1908703a 	and	r4,r3,r4
   2401c:	003fc906 	br	23f44 <__alt_data_end+0xfffe3f44>
   24020:	01403e0e 	bge	zero,r5,2411c <__addsf3+0x26c>
   24024:	20001e26 	beq	r4,zero,240a0 <__addsf3+0x1f0>
   24028:	01003fc4 	movi	r4,255
   2402c:	813fb726 	beq	r16,r4,23f0c <__alt_data_end+0xfffe3f0c>
   24030:	31810034 	orhi	r6,r6,1024
   24034:	010006c4 	movi	r4,27
   24038:	2140570e 	bge	r4,r5,24198 <__addsf3+0x2e8>
   2403c:	01400044 	movi	r5,1
   24040:	1947883a 	add	r3,r3,r5
   24044:	1901002c 	andhi	r4,r3,1024
   24048:	203fea26 	beq	r4,zero,23ff4 <__alt_data_end+0xfffe3ff4>
   2404c:	84000044 	addi	r16,r16,1
   24050:	01003fc4 	movi	r4,255
   24054:	81007526 	beq	r16,r4,2422c <__addsf3+0x37c>
   24058:	00bf0034 	movhi	r2,64512
   2405c:	10bfffc4 	addi	r2,r2,-1
   24060:	1900004c 	andi	r4,r3,1
   24064:	1886703a 	and	r3,r3,r2
   24068:	1806d07a 	srli	r3,r3,1
   2406c:	1906b03a 	or	r3,r3,r4
   24070:	003fa606 	br	23f0c <__alt_data_end+0xfffe3f0c>
   24074:	18001a26 	beq	r3,zero,240e0 <__addsf3+0x230>
   24078:	19001034 	orhi	r4,r3,64
   2407c:	00c02034 	movhi	r3,128
   24080:	18ffffc4 	addi	r3,r3,-1
   24084:	017fffc4 	movi	r5,-1
   24088:	20c8703a 	and	r4,r4,r3
   2408c:	003fad06 	br	23f44 <__alt_data_end+0xfffe3f44>
   24090:	297fffc4 	addi	r5,r5,-1
   24094:	28002c1e 	bne	r5,zero,24148 <__addsf3+0x298>
   24098:	1987c83a 	sub	r3,r3,r6
   2409c:	003fbf06 	br	23f9c <__alt_data_end+0xfffe3f9c>
   240a0:	303f9a26 	beq	r6,zero,23f0c <__alt_data_end+0xfffe3f0c>
   240a4:	297fffc4 	addi	r5,r5,-1
   240a8:	28004b1e 	bne	r5,zero,241d8 <__addsf3+0x328>
   240ac:	1987883a 	add	r3,r3,r6
   240b0:	003fe406 	br	24044 <__alt_data_end+0xfffe4044>
   240b4:	2800271e 	bne	r5,zero,24154 <__addsf3+0x2a4>
   240b8:	80800044 	addi	r2,r16,1
   240bc:	10803fcc 	andi	r2,r2,255
   240c0:	01000044 	movi	r4,1
   240c4:	2080520e 	bge	r4,r2,24210 <__addsf3+0x360>
   240c8:	19a3c83a 	sub	r17,r3,r6
   240cc:	8881002c 	andhi	r2,r17,1024
   240d0:	10002c26 	beq	r2,zero,24184 <__addsf3+0x2d4>
   240d4:	30e3c83a 	sub	r17,r6,r3
   240d8:	4025883a 	mov	r18,r8
   240dc:	003fb406 	br	23fb0 <__alt_data_end+0xfffe3fb0>
   240e0:	017fffc4 	movi	r5,-1
   240e4:	0009883a 	mov	r4,zero
   240e8:	003f9606 	br	23f44 <__alt_data_end+0xfffe3f44>
   240ec:	00ff0034 	movhi	r3,64512
   240f0:	18ffffc4 	addi	r3,r3,-1
   240f4:	80a1c83a 	sub	r16,r16,r2
   240f8:	88c6703a 	and	r3,r17,r3
   240fc:	003f8306 	br	23f0c <__alt_data_end+0xfffe3f0c>
   24100:	00800804 	movi	r2,32
   24104:	1145c83a 	sub	r2,r2,r5
   24108:	3084983a 	sll	r2,r6,r2
   2410c:	314cd83a 	srl	r6,r6,r5
   24110:	100ac03a 	cmpne	r5,r2,zero
   24114:	298ab03a 	or	r5,r5,r6
   24118:	003f9f06 	br	23f98 <__alt_data_end+0xfffe3f98>
   2411c:	2800451e 	bne	r5,zero,24234 <__addsf3+0x384>
   24120:	81000044 	addi	r4,r16,1
   24124:	21c03fcc 	andi	r7,r4,255
   24128:	01400044 	movi	r5,1
   2412c:	29c02d0e 	bge	r5,r7,241e4 <__addsf3+0x334>
   24130:	01403fc4 	movi	r5,255
   24134:	21403c26 	beq	r4,r5,24228 <__addsf3+0x378>
   24138:	30c7883a 	add	r3,r6,r3
   2413c:	1806d07a 	srli	r3,r3,1
   24140:	2021883a 	mov	r16,r4
   24144:	003f7106 	br	23f0c <__alt_data_end+0xfffe3f0c>
   24148:	00803fc4 	movi	r2,255
   2414c:	80bf8f1e 	bne	r16,r2,23f8c <__alt_data_end+0xfffe3f8c>
   24150:	003f6e06 	br	23f0c <__alt_data_end+0xfffe3f0c>
   24154:	80001726 	beq	r16,zero,241b4 <__addsf3+0x304>
   24158:	00803fc4 	movi	r2,255
   2415c:	20801a26 	beq	r4,r2,241c8 <__addsf3+0x318>
   24160:	014bc83a 	sub	r5,zero,r5
   24164:	18c10034 	orhi	r3,r3,1024
   24168:	008006c4 	movi	r2,27
   2416c:	1140430e 	bge	r2,r5,2427c <__addsf3+0x3cc>
   24170:	00c00044 	movi	r3,1
   24174:	30c7c83a 	sub	r3,r6,r3
   24178:	2021883a 	mov	r16,r4
   2417c:	4025883a 	mov	r18,r8
   24180:	003f8606 	br	23f9c <__alt_data_end+0xfffe3f9c>
   24184:	883f8a1e 	bne	r17,zero,23fb0 <__alt_data_end+0xfffe3fb0>
   24188:	0007883a 	mov	r3,zero
   2418c:	0005883a 	mov	r2,zero
   24190:	0021883a 	mov	r16,zero
   24194:	003f9a06 	br	24000 <__alt_data_end+0xfffe4000>
   24198:	01000804 	movi	r4,32
   2419c:	2149c83a 	sub	r4,r4,r5
   241a0:	3108983a 	sll	r4,r6,r4
   241a4:	314cd83a 	srl	r6,r6,r5
   241a8:	200ac03a 	cmpne	r5,r4,zero
   241ac:	298ab03a 	or	r5,r5,r6
   241b0:	003fa306 	br	24040 <__alt_data_end+0xfffe4040>
   241b4:	18000426 	beq	r3,zero,241c8 <__addsf3+0x318>
   241b8:	014a303a 	nor	r5,zero,r5
   241bc:	283fed26 	beq	r5,zero,24174 <__alt_data_end+0xfffe4174>
   241c0:	00803fc4 	movi	r2,255
   241c4:	20bfe81e 	bne	r4,r2,24168 <__alt_data_end+0xfffe4168>
   241c8:	3007883a 	mov	r3,r6
   241cc:	2021883a 	mov	r16,r4
   241d0:	4025883a 	mov	r18,r8
   241d4:	003f4d06 	br	23f0c <__alt_data_end+0xfffe3f0c>
   241d8:	01003fc4 	movi	r4,255
   241dc:	813f951e 	bne	r16,r4,24034 <__alt_data_end+0xfffe4034>
   241e0:	003f4a06 	br	23f0c <__alt_data_end+0xfffe3f0c>
   241e4:	8000471e 	bne	r16,zero,24304 <__addsf3+0x454>
   241e8:	18006126 	beq	r3,zero,24370 <__addsf3+0x4c0>
   241ec:	303f4726 	beq	r6,zero,23f0c <__alt_data_end+0xfffe3f0c>
   241f0:	1987883a 	add	r3,r3,r6
   241f4:	1881002c 	andhi	r2,r3,1024
   241f8:	103f7e26 	beq	r2,zero,23ff4 <__alt_data_end+0xfffe3ff4>
   241fc:	00bf0034 	movhi	r2,64512
   24200:	10bfffc4 	addi	r2,r2,-1
   24204:	2821883a 	mov	r16,r5
   24208:	1886703a 	and	r3,r3,r2
   2420c:	003f3f06 	br	23f0c <__alt_data_end+0xfffe3f0c>
   24210:	8000141e 	bne	r16,zero,24264 <__addsf3+0x3b4>
   24214:	1800311e 	bne	r3,zero,242dc <__addsf3+0x42c>
   24218:	30004626 	beq	r6,zero,24334 <__addsf3+0x484>
   2421c:	3007883a 	mov	r3,r6
   24220:	4025883a 	mov	r18,r8
   24224:	003f3906 	br	23f0c <__alt_data_end+0xfffe3f0c>
   24228:	2021883a 	mov	r16,r4
   2422c:	0007883a 	mov	r3,zero
   24230:	003f7306 	br	24000 <__alt_data_end+0xfffe4000>
   24234:	8000181e 	bne	r16,zero,24298 <__addsf3+0x3e8>
   24238:	18002f26 	beq	r3,zero,242f8 <__addsf3+0x448>
   2423c:	014a303a 	nor	r5,zero,r5
   24240:	28000526 	beq	r5,zero,24258 <__addsf3+0x3a8>
   24244:	01c03fc4 	movi	r7,255
   24248:	21c02b26 	beq	r4,r7,242f8 <__addsf3+0x448>
   2424c:	01c006c4 	movi	r7,27
   24250:	3940400e 	bge	r7,r5,24354 <__addsf3+0x4a4>
   24254:	00c00044 	movi	r3,1
   24258:	1987883a 	add	r3,r3,r6
   2425c:	2021883a 	mov	r16,r4
   24260:	003f7806 	br	24044 <__alt_data_end+0xfffe4044>
   24264:	1800111e 	bne	r3,zero,242ac <__addsf3+0x3fc>
   24268:	30003526 	beq	r6,zero,24340 <__addsf3+0x490>
   2426c:	3007883a 	mov	r3,r6
   24270:	4025883a 	mov	r18,r8
   24274:	04003fc4 	movi	r16,255
   24278:	003f2406 	br	23f0c <__alt_data_end+0xfffe3f0c>
   2427c:	00800804 	movi	r2,32
   24280:	1145c83a 	sub	r2,r2,r5
   24284:	1884983a 	sll	r2,r3,r2
   24288:	194ad83a 	srl	r5,r3,r5
   2428c:	1006c03a 	cmpne	r3,r2,zero
   24290:	1946b03a 	or	r3,r3,r5
   24294:	003fb706 	br	24174 <__alt_data_end+0xfffe4174>
   24298:	01c03fc4 	movi	r7,255
   2429c:	21c01626 	beq	r4,r7,242f8 <__addsf3+0x448>
   242a0:	014bc83a 	sub	r5,zero,r5
   242a4:	18c10034 	orhi	r3,r3,1024
   242a8:	003fe806 	br	2424c <__alt_data_end+0xfffe424c>
   242ac:	30001f26 	beq	r6,zero,2432c <__addsf3+0x47c>
   242b0:	1806d0fa 	srli	r3,r3,3
   242b4:	1880102c 	andhi	r2,r3,64
   242b8:	10000526 	beq	r2,zero,242d0 <__addsf3+0x420>
   242bc:	300cd0fa 	srli	r6,r6,3
   242c0:	3080102c 	andhi	r2,r6,64
   242c4:	1000021e 	bne	r2,zero,242d0 <__addsf3+0x420>
   242c8:	3007883a 	mov	r3,r6
   242cc:	4025883a 	mov	r18,r8
   242d0:	180690fa 	slli	r3,r3,3
   242d4:	04003fc4 	movi	r16,255
   242d8:	003f0c06 	br	23f0c <__alt_data_end+0xfffe3f0c>
   242dc:	303f0b26 	beq	r6,zero,23f0c <__alt_data_end+0xfffe3f0c>
   242e0:	1985c83a 	sub	r2,r3,r6
   242e4:	1101002c 	andhi	r4,r2,1024
   242e8:	203f4026 	beq	r4,zero,23fec <__alt_data_end+0xfffe3fec>
   242ec:	30c7c83a 	sub	r3,r6,r3
   242f0:	4025883a 	mov	r18,r8
   242f4:	003f0506 	br	23f0c <__alt_data_end+0xfffe3f0c>
   242f8:	3007883a 	mov	r3,r6
   242fc:	2021883a 	mov	r16,r4
   24300:	003f0206 	br	23f0c <__alt_data_end+0xfffe3f0c>
   24304:	18001c26 	beq	r3,zero,24378 <__addsf3+0x4c8>
   24308:	30000826 	beq	r6,zero,2432c <__addsf3+0x47c>
   2430c:	1806d0fa 	srli	r3,r3,3
   24310:	1880102c 	andhi	r2,r3,64
   24314:	103fee26 	beq	r2,zero,242d0 <__alt_data_end+0xfffe42d0>
   24318:	300cd0fa 	srli	r6,r6,3
   2431c:	3080102c 	andhi	r2,r6,64
   24320:	103feb1e 	bne	r2,zero,242d0 <__alt_data_end+0xfffe42d0>
   24324:	3007883a 	mov	r3,r6
   24328:	003fe906 	br	242d0 <__alt_data_end+0xfffe42d0>
   2432c:	04003fc4 	movi	r16,255
   24330:	003ef606 	br	23f0c <__alt_data_end+0xfffe3f0c>
   24334:	8007883a 	mov	r3,r16
   24338:	0005883a 	mov	r2,zero
   2433c:	003f3006 	br	24000 <__alt_data_end+0xfffe4000>
   24340:	00c10034 	movhi	r3,1024
   24344:	0005883a 	mov	r2,zero
   24348:	18fffe04 	addi	r3,r3,-8
   2434c:	04003fc4 	movi	r16,255
   24350:	003f2b06 	br	24000 <__alt_data_end+0xfffe4000>
   24354:	01c00804 	movi	r7,32
   24358:	394fc83a 	sub	r7,r7,r5
   2435c:	19ce983a 	sll	r7,r3,r7
   24360:	194ad83a 	srl	r5,r3,r5
   24364:	3806c03a 	cmpne	r3,r7,zero
   24368:	1946b03a 	or	r3,r3,r5
   2436c:	003fba06 	br	24258 <__alt_data_end+0xfffe4258>
   24370:	3007883a 	mov	r3,r6
   24374:	003ee506 	br	23f0c <__alt_data_end+0xfffe3f0c>
   24378:	3007883a 	mov	r3,r6
   2437c:	04003fc4 	movi	r16,255
   24380:	003ee206 	br	23f0c <__alt_data_end+0xfffe3f0c>
   24384:	0007883a 	mov	r3,zero
   24388:	0005883a 	mov	r2,zero
   2438c:	003f1c06 	br	24000 <__alt_data_end+0xfffe4000>

00024390 <__divsf3>:
   24390:	defff504 	addi	sp,sp,-44
   24394:	dd000515 	stw	r20,20(sp)
   24398:	2028d5fa 	srli	r20,r4,23
   2439c:	dd400615 	stw	r21,24(sp)
   243a0:	202ad7fa 	srli	r21,r4,31
   243a4:	00c02034 	movhi	r3,128
   243a8:	dcc00415 	stw	r19,16(sp)
   243ac:	dc800315 	stw	r18,12(sp)
   243b0:	18ffffc4 	addi	r3,r3,-1
   243b4:	dfc00a15 	stw	ra,40(sp)
   243b8:	df000915 	stw	fp,36(sp)
   243bc:	ddc00815 	stw	r23,32(sp)
   243c0:	dd800715 	stw	r22,28(sp)
   243c4:	dc400215 	stw	r17,8(sp)
   243c8:	dc000115 	stw	r16,4(sp)
   243cc:	a5003fcc 	andi	r20,r20,255
   243d0:	1924703a 	and	r18,r3,r4
   243d4:	acc03fcc 	andi	r19,r21,255
   243d8:	a0004d26 	beq	r20,zero,24510 <__divsf3+0x180>
   243dc:	00803fc4 	movi	r2,255
   243e0:	a0802e26 	beq	r20,r2,2449c <__divsf3+0x10c>
   243e4:	91002034 	orhi	r4,r18,128
   243e8:	202490fa 	slli	r18,r4,3
   243ec:	a53fe044 	addi	r20,r20,-127
   243f0:	0021883a 	mov	r16,zero
   243f4:	002f883a 	mov	r23,zero
   243f8:	2804d5fa 	srli	r2,r5,23
   243fc:	282cd7fa 	srli	r22,r5,31
   24400:	00c02034 	movhi	r3,128
   24404:	18ffffc4 	addi	r3,r3,-1
   24408:	10803fcc 	andi	r2,r2,255
   2440c:	1962703a 	and	r17,r3,r5
   24410:	b7003fcc 	andi	fp,r22,255
   24414:	10004526 	beq	r2,zero,2452c <__divsf3+0x19c>
   24418:	00c03fc4 	movi	r3,255
   2441c:	10c04026 	beq	r2,r3,24520 <__divsf3+0x190>
   24420:	88c02034 	orhi	r3,r17,128
   24424:	182290fa 	slli	r17,r3,3
   24428:	10bfe044 	addi	r2,r2,-127
   2442c:	0009883a 	mov	r4,zero
   24430:	2420b03a 	or	r16,r4,r16
   24434:	802090ba 	slli	r16,r16,2
   24438:	01c000b4 	movhi	r7,2
   2443c:	39d11704 	addi	r7,r7,17500
   24440:	81e1883a 	add	r16,r16,r7
   24444:	80c00017 	ldw	r3,0(r16)
   24448:	ad8af03a 	xor	r5,r21,r22
   2444c:	280d883a 	mov	r6,r5
   24450:	a085c83a 	sub	r2,r20,r2
   24454:	29403fcc 	andi	r5,r5,255
   24458:	1800683a 	jmp	r3
   2445c:	00024668 	cmpgeui	zero,zero,2329
   24460:	00024610 	cmplti	zero,zero,2328
   24464:	00024634 	movhi	zero,2328
   24468:	000245fc 	xorhi	zero,zero,2327
   2446c:	00024634 	movhi	zero,2328
   24470:	000244ac 	andhi	zero,zero,2322
   24474:	00024634 	movhi	zero,2328
   24478:	000245fc 	xorhi	zero,zero,2327
   2447c:	00024610 	cmplti	zero,zero,2328
   24480:	00024610 	cmplti	zero,zero,2328
   24484:	000244ac 	andhi	zero,zero,2322
   24488:	000245fc 	xorhi	zero,zero,2327
   2448c:	00024700 	call	2470 <__alt_mem_onchip_memory2_0-0x1db90>
   24490:	00024700 	call	2470 <__alt_mem_onchip_memory2_0-0x1db90>
   24494:	00024700 	call	2470 <__alt_mem_onchip_memory2_0-0x1db90>
   24498:	00024640 	call	2464 <__alt_mem_onchip_memory2_0-0x1db9c>
   2449c:	9000531e 	bne	r18,zero,245ec <__divsf3+0x25c>
   244a0:	04000204 	movi	r16,8
   244a4:	05c00084 	movi	r23,2
   244a8:	003fd306 	br	243f8 <__alt_data_end+0xfffe43f8>
   244ac:	00c02034 	movhi	r3,128
   244b0:	000d883a 	mov	r6,zero
   244b4:	18ffffc4 	addi	r3,r3,-1
   244b8:	013fffc4 	movi	r4,-1
   244bc:	21003fcc 	andi	r4,r4,255
   244c0:	200895fa 	slli	r4,r4,23
   244c4:	30803fcc 	andi	r2,r6,255
   244c8:	01802034 	movhi	r6,128
   244cc:	31bfffc4 	addi	r6,r6,-1
   244d0:	100497fa 	slli	r2,r2,31
   244d4:	1986703a 	and	r3,r3,r6
   244d8:	1906b03a 	or	r3,r3,r4
   244dc:	1884b03a 	or	r2,r3,r2
   244e0:	dfc00a17 	ldw	ra,40(sp)
   244e4:	df000917 	ldw	fp,36(sp)
   244e8:	ddc00817 	ldw	r23,32(sp)
   244ec:	dd800717 	ldw	r22,28(sp)
   244f0:	dd400617 	ldw	r21,24(sp)
   244f4:	dd000517 	ldw	r20,20(sp)
   244f8:	dcc00417 	ldw	r19,16(sp)
   244fc:	dc800317 	ldw	r18,12(sp)
   24500:	dc400217 	ldw	r17,8(sp)
   24504:	dc000117 	ldw	r16,4(sp)
   24508:	dec00b04 	addi	sp,sp,44
   2450c:	f800283a 	ret
   24510:	90002b1e 	bne	r18,zero,245c0 <__divsf3+0x230>
   24514:	04000104 	movi	r16,4
   24518:	05c00044 	movi	r23,1
   2451c:	003fb606 	br	243f8 <__alt_data_end+0xfffe43f8>
   24520:	8800251e 	bne	r17,zero,245b8 <__divsf3+0x228>
   24524:	01000084 	movi	r4,2
   24528:	00000206 	br	24534 <__divsf3+0x1a4>
   2452c:	88001a1e 	bne	r17,zero,24598 <__divsf3+0x208>
   24530:	01000044 	movi	r4,1
   24534:	2420b03a 	or	r16,r4,r16
   24538:	802090ba 	slli	r16,r16,2
   2453c:	00c000b4 	movhi	r3,2
   24540:	18d15604 	addi	r3,r3,17752
   24544:	80e1883a 	add	r16,r16,r3
   24548:	80c00017 	ldw	r3,0(r16)
   2454c:	ad8af03a 	xor	r5,r21,r22
   24550:	a085c83a 	sub	r2,r20,r2
   24554:	1800683a 	jmp	r3
   24558:	00024610 	cmplti	zero,zero,2328
   2455c:	00024610 	cmplti	zero,zero,2328
   24560:	00024760 	cmpeqi	zero,zero,2333
   24564:	000245f8 	rdprs	zero,zero,2327
   24568:	00024760 	cmpeqi	zero,zero,2333
   2456c:	000244ac 	andhi	zero,zero,2322
   24570:	00024760 	cmpeqi	zero,zero,2333
   24574:	000245f8 	rdprs	zero,zero,2327
   24578:	00024610 	cmplti	zero,zero,2328
   2457c:	00024610 	cmplti	zero,zero,2328
   24580:	000244ac 	andhi	zero,zero,2322
   24584:	000245f8 	rdprs	zero,zero,2327
   24588:	00024700 	call	2470 <__alt_mem_onchip_memory2_0-0x1db90>
   2458c:	00024700 	call	2470 <__alt_mem_onchip_memory2_0-0x1db90>
   24590:	00024700 	call	2470 <__alt_mem_onchip_memory2_0-0x1db90>
   24594:	0002472c 	andhi	zero,zero,2332
   24598:	8809883a 	mov	r4,r17
   2459c:	00254740 	call	25474 <__clzsi2>
   245a0:	10fffec4 	addi	r3,r2,-5
   245a4:	88e2983a 	sll	r17,r17,r3
   245a8:	00ffe284 	movi	r3,-118
   245ac:	1885c83a 	sub	r2,r3,r2
   245b0:	0009883a 	mov	r4,zero
   245b4:	003f9e06 	br	24430 <__alt_data_end+0xfffe4430>
   245b8:	010000c4 	movi	r4,3
   245bc:	003f9c06 	br	24430 <__alt_data_end+0xfffe4430>
   245c0:	9009883a 	mov	r4,r18
   245c4:	d9400015 	stw	r5,0(sp)
   245c8:	00254740 	call	25474 <__clzsi2>
   245cc:	10fffec4 	addi	r3,r2,-5
   245d0:	053fe284 	movi	r20,-118
   245d4:	90e4983a 	sll	r18,r18,r3
   245d8:	a0a9c83a 	sub	r20,r20,r2
   245dc:	0021883a 	mov	r16,zero
   245e0:	002f883a 	mov	r23,zero
   245e4:	d9400017 	ldw	r5,0(sp)
   245e8:	003f8306 	br	243f8 <__alt_data_end+0xfffe43f8>
   245ec:	04000304 	movi	r16,12
   245f0:	05c000c4 	movi	r23,3
   245f4:	003f8006 	br	243f8 <__alt_data_end+0xfffe43f8>
   245f8:	0023883a 	mov	r17,zero
   245fc:	e027883a 	mov	r19,fp
   24600:	202f883a 	mov	r23,r4
   24604:	00c00084 	movi	r3,2
   24608:	980b883a 	mov	r5,r19
   2460c:	b8c0501e 	bne	r23,r3,24750 <__divsf3+0x3c0>
   24610:	2980004c 	andi	r6,r5,1
   24614:	013fffc4 	movi	r4,-1
   24618:	0007883a 	mov	r3,zero
   2461c:	003fa706 	br	244bc <__alt_data_end+0xfffe44bc>
   24620:	013fe084 	movi	r4,-126
   24624:	2089c83a 	sub	r4,r4,r2
   24628:	00c006c4 	movi	r3,27
   2462c:	1900500e 	bge	r3,r4,24770 <__divsf3+0x3e0>
   24630:	9980004c 	andi	r6,r19,1
   24634:	0009883a 	mov	r4,zero
   24638:	0007883a 	mov	r3,zero
   2463c:	003f9f06 	br	244bc <__alt_data_end+0xfffe44bc>
   24640:	9080102c 	andhi	r2,r18,64
   24644:	10000226 	beq	r2,zero,24650 <__divsf3+0x2c0>
   24648:	8880102c 	andhi	r2,r17,64
   2464c:	10003a26 	beq	r2,zero,24738 <__divsf3+0x3a8>
   24650:	00802034 	movhi	r2,128
   24654:	90c01034 	orhi	r3,r18,64
   24658:	10bfffc4 	addi	r2,r2,-1
   2465c:	a80d883a 	mov	r6,r21
   24660:	1886703a 	and	r3,r3,r2
   24664:	003f9406 	br	244b8 <__alt_data_end+0xfffe44b8>
   24668:	9006917a 	slli	r3,r18,5
   2466c:	8822917a 	slli	r17,r17,5
   24670:	1c402936 	bltu	r3,r17,24718 <__divsf3+0x388>
   24674:	1c47c83a 	sub	r3,r3,r17
   24678:	2827883a 	mov	r19,r5
   2467c:	01800684 	movi	r6,26
   24680:	01000044 	movi	r4,1
   24684:	180f883a 	mov	r7,r3
   24688:	2109883a 	add	r4,r4,r4
   2468c:	18c7883a 	add	r3,r3,r3
   24690:	38000116 	blt	r7,zero,24698 <__divsf3+0x308>
   24694:	1c400236 	bltu	r3,r17,246a0 <__divsf3+0x310>
   24698:	1c47c83a 	sub	r3,r3,r17
   2469c:	21000054 	ori	r4,r4,1
   246a0:	31bfffc4 	addi	r6,r6,-1
   246a4:	303ff71e 	bne	r6,zero,24684 <__alt_data_end+0xfffe4684>
   246a8:	1806c03a 	cmpne	r3,r3,zero
   246ac:	1922b03a 	or	r17,r3,r4
   246b0:	11001fc4 	addi	r4,r2,127
   246b4:	013fda0e 	bge	zero,r4,24620 <__alt_data_end+0xfffe4620>
   246b8:	88c001cc 	andi	r3,r17,7
   246bc:	18000426 	beq	r3,zero,246d0 <__divsf3+0x340>
   246c0:	894003cc 	andi	r5,r17,15
   246c4:	00c00104 	movi	r3,4
   246c8:	28c00126 	beq	r5,r3,246d0 <__divsf3+0x340>
   246cc:	88e3883a 	add	r17,r17,r3
   246d0:	88c2002c 	andhi	r3,r17,2048
   246d4:	18000426 	beq	r3,zero,246e8 <__divsf3+0x358>
   246d8:	11002004 	addi	r4,r2,128
   246dc:	00be0034 	movhi	r2,63488
   246e0:	10bfffc4 	addi	r2,r2,-1
   246e4:	88a2703a 	and	r17,r17,r2
   246e8:	00803f84 	movi	r2,254
   246ec:	1100060e 	bge	r2,r4,24708 <__divsf3+0x378>
   246f0:	9980004c 	andi	r6,r19,1
   246f4:	013fffc4 	movi	r4,-1
   246f8:	0007883a 	mov	r3,zero
   246fc:	003f6f06 	br	244bc <__alt_data_end+0xfffe44bc>
   24700:	9023883a 	mov	r17,r18
   24704:	003fbf06 	br	24604 <__alt_data_end+0xfffe4604>
   24708:	880691ba 	slli	r3,r17,6
   2470c:	9980004c 	andi	r6,r19,1
   24710:	1806d27a 	srli	r3,r3,9
   24714:	003f6906 	br	244bc <__alt_data_end+0xfffe44bc>
   24718:	10bfffc4 	addi	r2,r2,-1
   2471c:	2827883a 	mov	r19,r5
   24720:	018006c4 	movi	r6,27
   24724:	0009883a 	mov	r4,zero
   24728:	003fd606 	br	24684 <__alt_data_end+0xfffe4684>
   2472c:	9080102c 	andhi	r2,r18,64
   24730:	0023883a 	mov	r17,zero
   24734:	103fc626 	beq	r2,zero,24650 <__alt_data_end+0xfffe4650>
   24738:	00802034 	movhi	r2,128
   2473c:	88c01034 	orhi	r3,r17,64
   24740:	10bfffc4 	addi	r2,r2,-1
   24744:	b00d883a 	mov	r6,r22
   24748:	1886703a 	and	r3,r3,r2
   2474c:	003f5a06 	br	244b8 <__alt_data_end+0xfffe44b8>
   24750:	00c000c4 	movi	r3,3
   24754:	b8c01c26 	beq	r23,r3,247c8 <__divsf3+0x438>
   24758:	00c00044 	movi	r3,1
   2475c:	b8ffd41e 	bne	r23,r3,246b0 <__alt_data_end+0xfffe46b0>
   24760:	2980004c 	andi	r6,r5,1
   24764:	0009883a 	mov	r4,zero
   24768:	0007883a 	mov	r3,zero
   2476c:	003f5306 	br	244bc <__alt_data_end+0xfffe44bc>
   24770:	10802784 	addi	r2,r2,158
   24774:	8884983a 	sll	r2,r17,r2
   24778:	8908d83a 	srl	r4,r17,r4
   2477c:	1022c03a 	cmpne	r17,r2,zero
   24780:	8908b03a 	or	r4,r17,r4
   24784:	208001cc 	andi	r2,r4,7
   24788:	10000426 	beq	r2,zero,2479c <__divsf3+0x40c>
   2478c:	20c003cc 	andi	r3,r4,15
   24790:	00800104 	movi	r2,4
   24794:	18800126 	beq	r3,r2,2479c <__divsf3+0x40c>
   24798:	2089883a 	add	r4,r4,r2
   2479c:	2081002c 	andhi	r2,r4,1024
   247a0:	10000426 	beq	r2,zero,247b4 <__divsf3+0x424>
   247a4:	9980004c 	andi	r6,r19,1
   247a8:	01000044 	movi	r4,1
   247ac:	0007883a 	mov	r3,zero
   247b0:	003f4206 	br	244bc <__alt_data_end+0xfffe44bc>
   247b4:	200691ba 	slli	r3,r4,6
   247b8:	9980004c 	andi	r6,r19,1
   247bc:	0009883a 	mov	r4,zero
   247c0:	1806d27a 	srli	r3,r3,9
   247c4:	003f3d06 	br	244bc <__alt_data_end+0xfffe44bc>
   247c8:	00802034 	movhi	r2,128
   247cc:	88c01034 	orhi	r3,r17,64
   247d0:	10bfffc4 	addi	r2,r2,-1
   247d4:	9980004c 	andi	r6,r19,1
   247d8:	1886703a 	and	r3,r3,r2
   247dc:	003f3606 	br	244b8 <__alt_data_end+0xfffe44b8>

000247e0 <__gesf2>:
   247e0:	2004d5fa 	srli	r2,r4,23
   247e4:	2806d5fa 	srli	r3,r5,23
   247e8:	01802034 	movhi	r6,128
   247ec:	31bfffc4 	addi	r6,r6,-1
   247f0:	10803fcc 	andi	r2,r2,255
   247f4:	01c03fc4 	movi	r7,255
   247f8:	3110703a 	and	r8,r6,r4
   247fc:	18c03fcc 	andi	r3,r3,255
   24800:	314c703a 	and	r6,r6,r5
   24804:	2008d7fa 	srli	r4,r4,31
   24808:	280ad7fa 	srli	r5,r5,31
   2480c:	11c00926 	beq	r2,r7,24834 <__gesf2+0x54>
   24810:	19c01226 	beq	r3,r7,2485c <__gesf2+0x7c>
   24814:	1000091e 	bne	r2,zero,2483c <__gesf2+0x5c>
   24818:	4013003a 	cmpeq	r9,r8,zero
   2481c:	480f883a 	mov	r7,r9
   24820:	1800091e 	bne	r3,zero,24848 <__gesf2+0x68>
   24824:	3000081e 	bne	r6,zero,24848 <__gesf2+0x68>
   24828:	48001026 	beq	r9,zero,2486c <__gesf2+0x8c>
   2482c:	0005883a 	mov	r2,zero
   24830:	f800283a 	ret
   24834:	4000161e 	bne	r8,zero,24890 <__gesf2+0xb0>
   24838:	18800826 	beq	r3,r2,2485c <__gesf2+0x7c>
   2483c:	1800091e 	bne	r3,zero,24864 <__gesf2+0x84>
   24840:	000f883a 	mov	r7,zero
   24844:	30000926 	beq	r6,zero,2486c <__gesf2+0x8c>
   24848:	29403fcc 	andi	r5,r5,255
   2484c:	38000626 	beq	r7,zero,24868 <__gesf2+0x88>
   24850:	2800071e 	bne	r5,zero,24870 <__gesf2+0x90>
   24854:	00bfffc4 	movi	r2,-1
   24858:	f800283a 	ret
   2485c:	30000c1e 	bne	r6,zero,24890 <__gesf2+0xb0>
   24860:	103fed26 	beq	r2,zero,24818 <__alt_data_end+0xfffe4818>
   24864:	29403fcc 	andi	r5,r5,255
   24868:	21400326 	beq	r4,r5,24878 <__gesf2+0x98>
   2486c:	203ff91e 	bne	r4,zero,24854 <__alt_data_end+0xfffe4854>
   24870:	00800044 	movi	r2,1
   24874:	f800283a 	ret
   24878:	18bffc16 	blt	r3,r2,2486c <__alt_data_end+0xfffe486c>
   2487c:	10c00216 	blt	r2,r3,24888 <__gesf2+0xa8>
   24880:	323ffa36 	bltu	r6,r8,2486c <__alt_data_end+0xfffe486c>
   24884:	41bfe92e 	bgeu	r8,r6,2482c <__alt_data_end+0xfffe482c>
   24888:	203ff226 	beq	r4,zero,24854 <__alt_data_end+0xfffe4854>
   2488c:	003ff806 	br	24870 <__alt_data_end+0xfffe4870>
   24890:	00bfff84 	movi	r2,-2
   24894:	f800283a 	ret

00024898 <__mulsf3>:
   24898:	defff504 	addi	sp,sp,-44
   2489c:	dc400215 	stw	r17,8(sp)
   248a0:	2022d5fa 	srli	r17,r4,23
   248a4:	dd400615 	stw	r21,24(sp)
   248a8:	202ad7fa 	srli	r21,r4,31
   248ac:	dc000115 	stw	r16,4(sp)
   248b0:	04002034 	movhi	r16,128
   248b4:	df000915 	stw	fp,36(sp)
   248b8:	dd000515 	stw	r20,20(sp)
   248bc:	843fffc4 	addi	r16,r16,-1
   248c0:	dfc00a15 	stw	ra,40(sp)
   248c4:	ddc00815 	stw	r23,32(sp)
   248c8:	dd800715 	stw	r22,28(sp)
   248cc:	dcc00415 	stw	r19,16(sp)
   248d0:	dc800315 	stw	r18,12(sp)
   248d4:	8c403fcc 	andi	r17,r17,255
   248d8:	8120703a 	and	r16,r16,r4
   248dc:	a829883a 	mov	r20,r21
   248e0:	af003fcc 	andi	fp,r21,255
   248e4:	88005026 	beq	r17,zero,24a28 <__mulsf3+0x190>
   248e8:	00803fc4 	movi	r2,255
   248ec:	88802f26 	beq	r17,r2,249ac <__mulsf3+0x114>
   248f0:	84002034 	orhi	r16,r16,128
   248f4:	802090fa 	slli	r16,r16,3
   248f8:	8c7fe044 	addi	r17,r17,-127
   248fc:	0025883a 	mov	r18,zero
   24900:	002f883a 	mov	r23,zero
   24904:	2804d5fa 	srli	r2,r5,23
   24908:	282cd7fa 	srli	r22,r5,31
   2490c:	01002034 	movhi	r4,128
   24910:	213fffc4 	addi	r4,r4,-1
   24914:	10803fcc 	andi	r2,r2,255
   24918:	2166703a 	and	r19,r4,r5
   2491c:	b1803fcc 	andi	r6,r22,255
   24920:	10004926 	beq	r2,zero,24a48 <__mulsf3+0x1b0>
   24924:	00c03fc4 	movi	r3,255
   24928:	10c04326 	beq	r2,r3,24a38 <__mulsf3+0x1a0>
   2492c:	99402034 	orhi	r5,r19,128
   24930:	282690fa 	slli	r19,r5,3
   24934:	10bfe044 	addi	r2,r2,-127
   24938:	000b883a 	mov	r5,zero
   2493c:	8885883a 	add	r2,r17,r2
   24940:	2c86b03a 	or	r3,r5,r18
   24944:	010003c4 	movi	r4,15
   24948:	adaaf03a 	xor	r21,r21,r22
   2494c:	12000044 	addi	r8,r2,1
   24950:	20c06536 	bltu	r4,r3,24ae8 <__mulsf3+0x250>
   24954:	180690ba 	slli	r3,r3,2
   24958:	010000b4 	movhi	r4,2
   2495c:	21125b04 	addi	r4,r4,18796
   24960:	1907883a 	add	r3,r3,r4
   24964:	18c00017 	ldw	r3,0(r3)
   24968:	1800683a 	jmp	r3
   2496c:	00024ae8 	cmpgeui	zero,zero,2347
   24970:	00024bb4 	movhi	zero,2350
   24974:	00024bb4 	movhi	zero,2350
   24978:	00024bc4 	movi	zero,2351
   2497c:	000249bc 	xorhi	zero,zero,2342
   24980:	000249bc 	xorhi	zero,zero,2342
   24984:	00024ad4 	movui	zero,2347
   24988:	00024bc4 	movi	zero,2351
   2498c:	000249bc 	xorhi	zero,zero,2342
   24990:	00024ad4 	movui	zero,2347
   24994:	000249bc 	xorhi	zero,zero,2342
   24998:	00024bc4 	movi	zero,2351
   2499c:	000249c0 	call	249c <__alt_mem_onchip_memory2_0-0x1db64>
   249a0:	000249c0 	call	249c <__alt_mem_onchip_memory2_0-0x1db64>
   249a4:	000249c0 	call	249c <__alt_mem_onchip_memory2_0-0x1db64>
   249a8:	00024bd4 	movui	zero,2351
   249ac:	8000311e 	bne	r16,zero,24a74 <__mulsf3+0x1dc>
   249b0:	04800204 	movi	r18,8
   249b4:	05c00084 	movi	r23,2
   249b8:	003fd206 	br	24904 <__alt_data_end+0xfffe4904>
   249bc:	a839883a 	mov	fp,r21
   249c0:	00800084 	movi	r2,2
   249c4:	b880231e 	bne	r23,r2,24a54 <__mulsf3+0x1bc>
   249c8:	e500004c 	andi	r20,fp,1
   249cc:	00ffffc4 	movi	r3,-1
   249d0:	0009883a 	mov	r4,zero
   249d4:	18c03fcc 	andi	r3,r3,255
   249d8:	180695fa 	slli	r3,r3,23
   249dc:	a0803fcc 	andi	r2,r20,255
   249e0:	04002034 	movhi	r16,128
   249e4:	100497fa 	slli	r2,r2,31
   249e8:	843fffc4 	addi	r16,r16,-1
   249ec:	2420703a 	and	r16,r4,r16
   249f0:	80e0b03a 	or	r16,r16,r3
   249f4:	8084b03a 	or	r2,r16,r2
   249f8:	dfc00a17 	ldw	ra,40(sp)
   249fc:	df000917 	ldw	fp,36(sp)
   24a00:	ddc00817 	ldw	r23,32(sp)
   24a04:	dd800717 	ldw	r22,28(sp)
   24a08:	dd400617 	ldw	r21,24(sp)
   24a0c:	dd000517 	ldw	r20,20(sp)
   24a10:	dcc00417 	ldw	r19,16(sp)
   24a14:	dc800317 	ldw	r18,12(sp)
   24a18:	dc400217 	ldw	r17,8(sp)
   24a1c:	dc000117 	ldw	r16,4(sp)
   24a20:	dec00b04 	addi	sp,sp,44
   24a24:	f800283a 	ret
   24a28:	8000151e 	bne	r16,zero,24a80 <__mulsf3+0x1e8>
   24a2c:	04800104 	movi	r18,4
   24a30:	05c00044 	movi	r23,1
   24a34:	003fb306 	br	24904 <__alt_data_end+0xfffe4904>
   24a38:	980b003a 	cmpeq	r5,r19,zero
   24a3c:	00c000c4 	movi	r3,3
   24a40:	194bc83a 	sub	r5,r3,r5
   24a44:	003fbd06 	br	2493c <__alt_data_end+0xfffe493c>
   24a48:	9800181e 	bne	r19,zero,24aac <__mulsf3+0x214>
   24a4c:	01400044 	movi	r5,1
   24a50:	003fba06 	br	2493c <__alt_data_end+0xfffe493c>
   24a54:	008000c4 	movi	r2,3
   24a58:	b8809226 	beq	r23,r2,24ca4 <__mulsf3+0x40c>
   24a5c:	00800044 	movi	r2,1
   24a60:	b880771e 	bne	r23,r2,24c40 <__mulsf3+0x3a8>
   24a64:	e0a8703a 	and	r20,fp,r2
   24a68:	0007883a 	mov	r3,zero
   24a6c:	0009883a 	mov	r4,zero
   24a70:	003fd806 	br	249d4 <__alt_data_end+0xfffe49d4>
   24a74:	04800304 	movi	r18,12
   24a78:	05c000c4 	movi	r23,3
   24a7c:	003fa106 	br	24904 <__alt_data_end+0xfffe4904>
   24a80:	8009883a 	mov	r4,r16
   24a84:	d9400015 	stw	r5,0(sp)
   24a88:	00254740 	call	25474 <__clzsi2>
   24a8c:	10fffec4 	addi	r3,r2,-5
   24a90:	047fe284 	movi	r17,-118
   24a94:	80e0983a 	sll	r16,r16,r3
   24a98:	88a3c83a 	sub	r17,r17,r2
   24a9c:	0025883a 	mov	r18,zero
   24aa0:	002f883a 	mov	r23,zero
   24aa4:	d9400017 	ldw	r5,0(sp)
   24aa8:	003f9606 	br	24904 <__alt_data_end+0xfffe4904>
   24aac:	9809883a 	mov	r4,r19
   24ab0:	d9800015 	stw	r6,0(sp)
   24ab4:	00254740 	call	25474 <__clzsi2>
   24ab8:	10fffec4 	addi	r3,r2,-5
   24abc:	98e6983a 	sll	r19,r19,r3
   24ac0:	00ffe284 	movi	r3,-118
   24ac4:	1885c83a 	sub	r2,r3,r2
   24ac8:	000b883a 	mov	r5,zero
   24acc:	d9800017 	ldw	r6,0(sp)
   24ad0:	003f9a06 	br	2493c <__alt_data_end+0xfffe493c>
   24ad4:	01002034 	movhi	r4,128
   24ad8:	0029883a 	mov	r20,zero
   24adc:	213fffc4 	addi	r4,r4,-1
   24ae0:	00ffffc4 	movi	r3,-1
   24ae4:	003fbb06 	br	249d4 <__alt_data_end+0xfffe49d4>
   24ae8:	8006d43a 	srli	r3,r16,16
   24aec:	9812d43a 	srli	r9,r19,16
   24af0:	843fffcc 	andi	r16,r16,65535
   24af4:	997fffcc 	andi	r5,r19,65535
   24af8:	2c0f383a 	mul	r7,r5,r16
   24afc:	28cb383a 	mul	r5,r5,r3
   24b00:	4c21383a 	mul	r16,r9,r16
   24b04:	380cd43a 	srli	r6,r7,16
   24b08:	48d3383a 	mul	r9,r9,r3
   24b0c:	2c21883a 	add	r16,r5,r16
   24b10:	8187883a 	add	r3,r16,r6
   24b14:	1940022e 	bgeu	r3,r5,24b20 <__mulsf3+0x288>
   24b18:	01000074 	movhi	r4,1
   24b1c:	4913883a 	add	r9,r9,r4
   24b20:	1808943a 	slli	r4,r3,16
   24b24:	39ffffcc 	andi	r7,r7,65535
   24b28:	1806d43a 	srli	r3,r3,16
   24b2c:	21c9883a 	add	r4,r4,r7
   24b30:	202091ba 	slli	r16,r4,6
   24b34:	48c7883a 	add	r3,r9,r3
   24b38:	2008d6ba 	srli	r4,r4,26
   24b3c:	180691ba 	slli	r3,r3,6
   24b40:	8020c03a 	cmpne	r16,r16,zero
   24b44:	8120b03a 	or	r16,r16,r4
   24b48:	80e0b03a 	or	r16,r16,r3
   24b4c:	80c2002c 	andhi	r3,r16,2048
   24b50:	18000426 	beq	r3,zero,24b64 <__mulsf3+0x2cc>
   24b54:	8006d07a 	srli	r3,r16,1
   24b58:	8400004c 	andi	r16,r16,1
   24b5c:	4005883a 	mov	r2,r8
   24b60:	80e0b03a 	or	r16,r16,r3
   24b64:	10c01fc4 	addi	r3,r2,127
   24b68:	00c02d0e 	bge	zero,r3,24c20 <__mulsf3+0x388>
   24b6c:	810001cc 	andi	r4,r16,7
   24b70:	20000426 	beq	r4,zero,24b84 <__mulsf3+0x2ec>
   24b74:	814003cc 	andi	r5,r16,15
   24b78:	01000104 	movi	r4,4
   24b7c:	29000126 	beq	r5,r4,24b84 <__mulsf3+0x2ec>
   24b80:	8121883a 	add	r16,r16,r4
   24b84:	8102002c 	andhi	r4,r16,2048
   24b88:	20000426 	beq	r4,zero,24b9c <__mulsf3+0x304>
   24b8c:	10c02004 	addi	r3,r2,128
   24b90:	00be0034 	movhi	r2,63488
   24b94:	10bfffc4 	addi	r2,r2,-1
   24b98:	80a0703a 	and	r16,r16,r2
   24b9c:	00803f84 	movi	r2,254
   24ba0:	10c01b0e 	bge	r2,r3,24c10 <__mulsf3+0x378>
   24ba4:	ad00004c 	andi	r20,r21,1
   24ba8:	00ffffc4 	movi	r3,-1
   24bac:	0009883a 	mov	r4,zero
   24bb0:	003f8806 	br	249d4 <__alt_data_end+0xfffe49d4>
   24bb4:	9821883a 	mov	r16,r19
   24bb8:	a839883a 	mov	fp,r21
   24bbc:	282f883a 	mov	r23,r5
   24bc0:	003f7f06 	br	249c0 <__alt_data_end+0xfffe49c0>
   24bc4:	9821883a 	mov	r16,r19
   24bc8:	3039883a 	mov	fp,r6
   24bcc:	282f883a 	mov	r23,r5
   24bd0:	003f7b06 	br	249c0 <__alt_data_end+0xfffe49c0>
   24bd4:	8080102c 	andhi	r2,r16,64
   24bd8:	10000826 	beq	r2,zero,24bfc <__mulsf3+0x364>
   24bdc:	9880102c 	andhi	r2,r19,64
   24be0:	1000061e 	bne	r2,zero,24bfc <__mulsf3+0x364>
   24be4:	00802034 	movhi	r2,128
   24be8:	99001034 	orhi	r4,r19,64
   24bec:	10bfffc4 	addi	r2,r2,-1
   24bf0:	b029883a 	mov	r20,r22
   24bf4:	2088703a 	and	r4,r4,r2
   24bf8:	003fb906 	br	24ae0 <__alt_data_end+0xfffe4ae0>
   24bfc:	00802034 	movhi	r2,128
   24c00:	81001034 	orhi	r4,r16,64
   24c04:	10bfffc4 	addi	r2,r2,-1
   24c08:	2088703a 	and	r4,r4,r2
   24c0c:	003fb406 	br	24ae0 <__alt_data_end+0xfffe4ae0>
   24c10:	802091ba 	slli	r16,r16,6
   24c14:	ad00004c 	andi	r20,r21,1
   24c18:	8008d27a 	srli	r4,r16,9
   24c1c:	003f6d06 	br	249d4 <__alt_data_end+0xfffe49d4>
   24c20:	00ffe084 	movi	r3,-126
   24c24:	1887c83a 	sub	r3,r3,r2
   24c28:	010006c4 	movi	r4,27
   24c2c:	20c0070e 	bge	r4,r3,24c4c <__mulsf3+0x3b4>
   24c30:	ad00004c 	andi	r20,r21,1
   24c34:	0007883a 	mov	r3,zero
   24c38:	0009883a 	mov	r4,zero
   24c3c:	003f6506 	br	249d4 <__alt_data_end+0xfffe49d4>
   24c40:	4005883a 	mov	r2,r8
   24c44:	e02b883a 	mov	r21,fp
   24c48:	003fc606 	br	24b64 <__alt_data_end+0xfffe4b64>
   24c4c:	10802784 	addi	r2,r2,158
   24c50:	8084983a 	sll	r2,r16,r2
   24c54:	80e0d83a 	srl	r16,r16,r3
   24c58:	1004c03a 	cmpne	r2,r2,zero
   24c5c:	1404b03a 	or	r2,r2,r16
   24c60:	10c001cc 	andi	r3,r2,7
   24c64:	18000426 	beq	r3,zero,24c78 <__mulsf3+0x3e0>
   24c68:	110003cc 	andi	r4,r2,15
   24c6c:	00c00104 	movi	r3,4
   24c70:	20c00126 	beq	r4,r3,24c78 <__mulsf3+0x3e0>
   24c74:	10c5883a 	add	r2,r2,r3
   24c78:	10c1002c 	andhi	r3,r2,1024
   24c7c:	18000426 	beq	r3,zero,24c90 <__mulsf3+0x3f8>
   24c80:	ad00004c 	andi	r20,r21,1
   24c84:	00c00044 	movi	r3,1
   24c88:	0009883a 	mov	r4,zero
   24c8c:	003f5106 	br	249d4 <__alt_data_end+0xfffe49d4>
   24c90:	100491ba 	slli	r2,r2,6
   24c94:	ad00004c 	andi	r20,r21,1
   24c98:	0007883a 	mov	r3,zero
   24c9c:	1008d27a 	srli	r4,r2,9
   24ca0:	003f4c06 	br	249d4 <__alt_data_end+0xfffe49d4>
   24ca4:	00802034 	movhi	r2,128
   24ca8:	81001034 	orhi	r4,r16,64
   24cac:	10bfffc4 	addi	r2,r2,-1
   24cb0:	e500004c 	andi	r20,fp,1
   24cb4:	2088703a 	and	r4,r4,r2
   24cb8:	003f8906 	br	24ae0 <__alt_data_end+0xfffe4ae0>

00024cbc <__subsf3>:
   24cbc:	defffc04 	addi	sp,sp,-16
   24cc0:	280ed5fa 	srli	r7,r5,23
   24cc4:	02002034 	movhi	r8,128
   24cc8:	280d883a 	mov	r6,r5
   24ccc:	423fffc4 	addi	r8,r8,-1
   24cd0:	200ad5fa 	srli	r5,r4,23
   24cd4:	dc400115 	stw	r17,4(sp)
   24cd8:	2022d7fa 	srli	r17,r4,31
   24cdc:	4108703a 	and	r4,r8,r4
   24ce0:	dc000015 	stw	r16,0(sp)
   24ce4:	4190703a 	and	r8,r8,r6
   24ce8:	200690fa 	slli	r3,r4,3
   24cec:	dfc00315 	stw	ra,12(sp)
   24cf0:	dc800215 	stw	r18,8(sp)
   24cf4:	39c03fcc 	andi	r7,r7,255
   24cf8:	01003fc4 	movi	r4,255
   24cfc:	8805883a 	mov	r2,r17
   24d00:	2c003fcc 	andi	r16,r5,255
   24d04:	8c403fcc 	andi	r17,r17,255
   24d08:	300cd7fa 	srli	r6,r6,31
   24d0c:	401090fa 	slli	r8,r8,3
   24d10:	39006126 	beq	r7,r4,24e98 <__subsf3+0x1dc>
   24d14:	3180005c 	xori	r6,r6,1
   24d18:	89804926 	beq	r17,r6,24e40 <__subsf3+0x184>
   24d1c:	81c5c83a 	sub	r2,r16,r7
   24d20:	0080710e 	bge	zero,r2,24ee8 <__subsf3+0x22c>
   24d24:	38001e1e 	bne	r7,zero,24da0 <__subsf3+0xe4>
   24d28:	4000651e 	bne	r8,zero,24ec0 <__subsf3+0x204>
   24d2c:	188001cc 	andi	r2,r3,7
   24d30:	10000426 	beq	r2,zero,24d44 <__subsf3+0x88>
   24d34:	190003cc 	andi	r4,r3,15
   24d38:	00800104 	movi	r2,4
   24d3c:	20800126 	beq	r4,r2,24d44 <__subsf3+0x88>
   24d40:	18c00104 	addi	r3,r3,4
   24d44:	1901002c 	andhi	r4,r3,1024
   24d48:	8880004c 	andi	r2,r17,1
   24d4c:	20003426 	beq	r4,zero,24e20 <__subsf3+0x164>
   24d50:	81400044 	addi	r5,r16,1
   24d54:	01003fc4 	movi	r4,255
   24d58:	29006e26 	beq	r5,r4,24f14 <__subsf3+0x258>
   24d5c:	180691ba 	slli	r3,r3,6
   24d60:	1808d27a 	srli	r4,r3,9
   24d64:	29403fcc 	andi	r5,r5,255
   24d68:	280a95fa 	slli	r5,r5,23
   24d6c:	10803fcc 	andi	r2,r2,255
   24d70:	00c02034 	movhi	r3,128
   24d74:	100497fa 	slli	r2,r2,31
   24d78:	18ffffc4 	addi	r3,r3,-1
   24d7c:	20c6703a 	and	r3,r4,r3
   24d80:	1946b03a 	or	r3,r3,r5
   24d84:	1884b03a 	or	r2,r3,r2
   24d88:	dfc00317 	ldw	ra,12(sp)
   24d8c:	dc800217 	ldw	r18,8(sp)
   24d90:	dc400117 	ldw	r17,4(sp)
   24d94:	dc000017 	ldw	r16,0(sp)
   24d98:	dec00404 	addi	sp,sp,16
   24d9c:	f800283a 	ret
   24da0:	01003fc4 	movi	r4,255
   24da4:	813fe126 	beq	r16,r4,24d2c <__alt_data_end+0xfffe4d2c>
   24da8:	42010034 	orhi	r8,r8,1024
   24dac:	010006c4 	movi	r4,27
   24db0:	2080600e 	bge	r4,r2,24f34 <__subsf3+0x278>
   24db4:	02000044 	movi	r8,1
   24db8:	1a07c83a 	sub	r3,r3,r8
   24dbc:	1881002c 	andhi	r2,r3,1024
   24dc0:	10001426 	beq	r2,zero,24e14 <__subsf3+0x158>
   24dc4:	04810034 	movhi	r18,1024
   24dc8:	94bfffc4 	addi	r18,r18,-1
   24dcc:	1ca4703a 	and	r18,r3,r18
   24dd0:	9009883a 	mov	r4,r18
   24dd4:	00254740 	call	25474 <__clzsi2>
   24dd8:	10bffec4 	addi	r2,r2,-5
   24ddc:	90a4983a 	sll	r18,r18,r2
   24de0:	14004f16 	blt	r2,r16,24f20 <__subsf3+0x264>
   24de4:	140bc83a 	sub	r5,r2,r16
   24de8:	00c007c4 	movi	r3,31
   24dec:	1947c83a 	sub	r3,r3,r5
   24df0:	90c6983a 	sll	r3,r18,r3
   24df4:	29400044 	addi	r5,r5,1
   24df8:	9164d83a 	srl	r18,r18,r5
   24dfc:	1806c03a 	cmpne	r3,r3,zero
   24e00:	0021883a 	mov	r16,zero
   24e04:	1c86b03a 	or	r3,r3,r18
   24e08:	003fc806 	br	24d2c <__alt_data_end+0xfffe4d2c>
   24e0c:	1000e726 	beq	r2,zero,251ac <__subsf3+0x4f0>
   24e10:	1007883a 	mov	r3,r2
   24e14:	188001cc 	andi	r2,r3,7
   24e18:	103fc61e 	bne	r2,zero,24d34 <__alt_data_end+0xfffe4d34>
   24e1c:	8880004c 	andi	r2,r17,1
   24e20:	01003fc4 	movi	r4,255
   24e24:	1806d0fa 	srli	r3,r3,3
   24e28:	81001e26 	beq	r16,r4,24ea4 <__subsf3+0x1e8>
   24e2c:	01002034 	movhi	r4,128
   24e30:	213fffc4 	addi	r4,r4,-1
   24e34:	800b883a 	mov	r5,r16
   24e38:	1908703a 	and	r4,r3,r4
   24e3c:	003fc906 	br	24d64 <__alt_data_end+0xfffe4d64>
   24e40:	81c9c83a 	sub	r4,r16,r7
   24e44:	0100420e 	bge	zero,r4,24f50 <__subsf3+0x294>
   24e48:	38002226 	beq	r7,zero,24ed4 <__subsf3+0x218>
   24e4c:	01403fc4 	movi	r5,255
   24e50:	817fb626 	beq	r16,r5,24d2c <__alt_data_end+0xfffe4d2c>
   24e54:	42010034 	orhi	r8,r8,1024
   24e58:	014006c4 	movi	r5,27
   24e5c:	2900580e 	bge	r5,r4,24fc0 <__subsf3+0x304>
   24e60:	01000044 	movi	r4,1
   24e64:	1907883a 	add	r3,r3,r4
   24e68:	1901002c 	andhi	r4,r3,1024
   24e6c:	203fe926 	beq	r4,zero,24e14 <__alt_data_end+0xfffe4e14>
   24e70:	84000044 	addi	r16,r16,1
   24e74:	01003fc4 	movi	r4,255
   24e78:	81007626 	beq	r16,r4,25054 <__subsf3+0x398>
   24e7c:	00bf0034 	movhi	r2,64512
   24e80:	10bfffc4 	addi	r2,r2,-1
   24e84:	1900004c 	andi	r4,r3,1
   24e88:	1886703a 	and	r3,r3,r2
   24e8c:	1806d07a 	srli	r3,r3,1
   24e90:	1906b03a 	or	r3,r3,r4
   24e94:	003fa506 	br	24d2c <__alt_data_end+0xfffe4d2c>
   24e98:	403f9e26 	beq	r8,zero,24d14 <__alt_data_end+0xfffe4d14>
   24e9c:	31803fcc 	andi	r6,r6,255
   24ea0:	003f9d06 	br	24d18 <__alt_data_end+0xfffe4d18>
   24ea4:	18001b26 	beq	r3,zero,24f14 <__subsf3+0x258>
   24ea8:	19001034 	orhi	r4,r3,64
   24eac:	00c02034 	movhi	r3,128
   24eb0:	18ffffc4 	addi	r3,r3,-1
   24eb4:	017fffc4 	movi	r5,-1
   24eb8:	20c8703a 	and	r4,r4,r3
   24ebc:	003fa906 	br	24d64 <__alt_data_end+0xfffe4d64>
   24ec0:	10bfffc4 	addi	r2,r2,-1
   24ec4:	103fbc26 	beq	r2,zero,24db8 <__alt_data_end+0xfffe4db8>
   24ec8:	01003fc4 	movi	r4,255
   24ecc:	813fb71e 	bne	r16,r4,24dac <__alt_data_end+0xfffe4dac>
   24ed0:	003f9606 	br	24d2c <__alt_data_end+0xfffe4d2c>
   24ed4:	403f9526 	beq	r8,zero,24d2c <__alt_data_end+0xfffe4d2c>
   24ed8:	213fffc4 	addi	r4,r4,-1
   24edc:	2000481e 	bne	r4,zero,25000 <__subsf3+0x344>
   24ee0:	1a07883a 	add	r3,r3,r8
   24ee4:	003fe006 	br	24e68 <__alt_data_end+0xfffe4e68>
   24ee8:	1000241e 	bne	r2,zero,24f7c <__subsf3+0x2c0>
   24eec:	80800044 	addi	r2,r16,1
   24ef0:	10803fcc 	andi	r2,r2,255
   24ef4:	01000044 	movi	r4,1
   24ef8:	20804f0e 	bge	r4,r2,25038 <__subsf3+0x37c>
   24efc:	1a25c83a 	sub	r18,r3,r8
   24f00:	9081002c 	andhi	r2,r18,1024
   24f04:	10002926 	beq	r2,zero,24fac <__subsf3+0x2f0>
   24f08:	40e5c83a 	sub	r18,r8,r3
   24f0c:	3023883a 	mov	r17,r6
   24f10:	003faf06 	br	24dd0 <__alt_data_end+0xfffe4dd0>
   24f14:	017fffc4 	movi	r5,-1
   24f18:	0009883a 	mov	r4,zero
   24f1c:	003f9106 	br	24d64 <__alt_data_end+0xfffe4d64>
   24f20:	00ff0034 	movhi	r3,64512
   24f24:	18ffffc4 	addi	r3,r3,-1
   24f28:	80a1c83a 	sub	r16,r16,r2
   24f2c:	90c6703a 	and	r3,r18,r3
   24f30:	003f7e06 	br	24d2c <__alt_data_end+0xfffe4d2c>
   24f34:	01000804 	movi	r4,32
   24f38:	2089c83a 	sub	r4,r4,r2
   24f3c:	4108983a 	sll	r4,r8,r4
   24f40:	4090d83a 	srl	r8,r8,r2
   24f44:	2004c03a 	cmpne	r2,r4,zero
   24f48:	1210b03a 	or	r8,r2,r8
   24f4c:	003f9a06 	br	24db8 <__alt_data_end+0xfffe4db8>
   24f50:	2000421e 	bne	r4,zero,2505c <__subsf3+0x3a0>
   24f54:	81000044 	addi	r4,r16,1
   24f58:	21803fcc 	andi	r6,r4,255
   24f5c:	01400044 	movi	r5,1
   24f60:	29802a0e 	bge	r5,r6,2500c <__subsf3+0x350>
   24f64:	01403fc4 	movi	r5,255
   24f68:	21403926 	beq	r4,r5,25050 <__subsf3+0x394>
   24f6c:	40c7883a 	add	r3,r8,r3
   24f70:	1806d07a 	srli	r3,r3,1
   24f74:	2021883a 	mov	r16,r4
   24f78:	003f6c06 	br	24d2c <__alt_data_end+0xfffe4d2c>
   24f7c:	80001726 	beq	r16,zero,24fdc <__subsf3+0x320>
   24f80:	01003fc4 	movi	r4,255
   24f84:	39001a26 	beq	r7,r4,24ff0 <__subsf3+0x334>
   24f88:	0085c83a 	sub	r2,zero,r2
   24f8c:	18c10034 	orhi	r3,r3,1024
   24f90:	010006c4 	movi	r4,27
   24f94:	2080430e 	bge	r4,r2,250a4 <__subsf3+0x3e8>
   24f98:	00c00044 	movi	r3,1
   24f9c:	40c7c83a 	sub	r3,r8,r3
   24fa0:	3821883a 	mov	r16,r7
   24fa4:	3023883a 	mov	r17,r6
   24fa8:	003f8406 	br	24dbc <__alt_data_end+0xfffe4dbc>
   24fac:	903f881e 	bne	r18,zero,24dd0 <__alt_data_end+0xfffe4dd0>
   24fb0:	0007883a 	mov	r3,zero
   24fb4:	0005883a 	mov	r2,zero
   24fb8:	0021883a 	mov	r16,zero
   24fbc:	003f9806 	br	24e20 <__alt_data_end+0xfffe4e20>
   24fc0:	01400804 	movi	r5,32
   24fc4:	290bc83a 	sub	r5,r5,r4
   24fc8:	414a983a 	sll	r5,r8,r5
   24fcc:	4110d83a 	srl	r8,r8,r4
   24fd0:	2808c03a 	cmpne	r4,r5,zero
   24fd4:	2208b03a 	or	r4,r4,r8
   24fd8:	003fa206 	br	24e64 <__alt_data_end+0xfffe4e64>
   24fdc:	18000426 	beq	r3,zero,24ff0 <__subsf3+0x334>
   24fe0:	0084303a 	nor	r2,zero,r2
   24fe4:	103fed26 	beq	r2,zero,24f9c <__alt_data_end+0xfffe4f9c>
   24fe8:	01003fc4 	movi	r4,255
   24fec:	393fe81e 	bne	r7,r4,24f90 <__alt_data_end+0xfffe4f90>
   24ff0:	4007883a 	mov	r3,r8
   24ff4:	3821883a 	mov	r16,r7
   24ff8:	3023883a 	mov	r17,r6
   24ffc:	003f4b06 	br	24d2c <__alt_data_end+0xfffe4d2c>
   25000:	01403fc4 	movi	r5,255
   25004:	817f941e 	bne	r16,r5,24e58 <__alt_data_end+0xfffe4e58>
   25008:	003f4806 	br	24d2c <__alt_data_end+0xfffe4d2c>
   2500c:	8000471e 	bne	r16,zero,2512c <__subsf3+0x470>
   25010:	18006126 	beq	r3,zero,25198 <__subsf3+0x4dc>
   25014:	403f4526 	beq	r8,zero,24d2c <__alt_data_end+0xfffe4d2c>
   25018:	1a07883a 	add	r3,r3,r8
   2501c:	1881002c 	andhi	r2,r3,1024
   25020:	103f7c26 	beq	r2,zero,24e14 <__alt_data_end+0xfffe4e14>
   25024:	00bf0034 	movhi	r2,64512
   25028:	10bfffc4 	addi	r2,r2,-1
   2502c:	2821883a 	mov	r16,r5
   25030:	1886703a 	and	r3,r3,r2
   25034:	003f3d06 	br	24d2c <__alt_data_end+0xfffe4d2c>
   25038:	8000141e 	bne	r16,zero,2508c <__subsf3+0x3d0>
   2503c:	1800311e 	bne	r3,zero,25104 <__subsf3+0x448>
   25040:	40004626 	beq	r8,zero,2515c <__subsf3+0x4a0>
   25044:	4007883a 	mov	r3,r8
   25048:	3023883a 	mov	r17,r6
   2504c:	003f3706 	br	24d2c <__alt_data_end+0xfffe4d2c>
   25050:	2021883a 	mov	r16,r4
   25054:	0007883a 	mov	r3,zero
   25058:	003f7106 	br	24e20 <__alt_data_end+0xfffe4e20>
   2505c:	8000181e 	bne	r16,zero,250c0 <__subsf3+0x404>
   25060:	18002f26 	beq	r3,zero,25120 <__subsf3+0x464>
   25064:	0108303a 	nor	r4,zero,r4
   25068:	20000526 	beq	r4,zero,25080 <__subsf3+0x3c4>
   2506c:	01403fc4 	movi	r5,255
   25070:	39402b26 	beq	r7,r5,25120 <__subsf3+0x464>
   25074:	014006c4 	movi	r5,27
   25078:	2900400e 	bge	r5,r4,2517c <__subsf3+0x4c0>
   2507c:	00c00044 	movi	r3,1
   25080:	1a07883a 	add	r3,r3,r8
   25084:	3821883a 	mov	r16,r7
   25088:	003f7706 	br	24e68 <__alt_data_end+0xfffe4e68>
   2508c:	1800111e 	bne	r3,zero,250d4 <__subsf3+0x418>
   25090:	40003526 	beq	r8,zero,25168 <__subsf3+0x4ac>
   25094:	4007883a 	mov	r3,r8
   25098:	3023883a 	mov	r17,r6
   2509c:	04003fc4 	movi	r16,255
   250a0:	003f2206 	br	24d2c <__alt_data_end+0xfffe4d2c>
   250a4:	01000804 	movi	r4,32
   250a8:	2089c83a 	sub	r4,r4,r2
   250ac:	1908983a 	sll	r4,r3,r4
   250b0:	1884d83a 	srl	r2,r3,r2
   250b4:	2006c03a 	cmpne	r3,r4,zero
   250b8:	1886b03a 	or	r3,r3,r2
   250bc:	003fb706 	br	24f9c <__alt_data_end+0xfffe4f9c>
   250c0:	01403fc4 	movi	r5,255
   250c4:	39401626 	beq	r7,r5,25120 <__subsf3+0x464>
   250c8:	0109c83a 	sub	r4,zero,r4
   250cc:	18c10034 	orhi	r3,r3,1024
   250d0:	003fe806 	br	25074 <__alt_data_end+0xfffe5074>
   250d4:	40001f26 	beq	r8,zero,25154 <__subsf3+0x498>
   250d8:	1806d0fa 	srli	r3,r3,3
   250dc:	1880102c 	andhi	r2,r3,64
   250e0:	10000526 	beq	r2,zero,250f8 <__subsf3+0x43c>
   250e4:	4010d0fa 	srli	r8,r8,3
   250e8:	4080102c 	andhi	r2,r8,64
   250ec:	1000021e 	bne	r2,zero,250f8 <__subsf3+0x43c>
   250f0:	4007883a 	mov	r3,r8
   250f4:	3023883a 	mov	r17,r6
   250f8:	180690fa 	slli	r3,r3,3
   250fc:	04003fc4 	movi	r16,255
   25100:	003f0a06 	br	24d2c <__alt_data_end+0xfffe4d2c>
   25104:	403f0926 	beq	r8,zero,24d2c <__alt_data_end+0xfffe4d2c>
   25108:	1a05c83a 	sub	r2,r3,r8
   2510c:	1101002c 	andhi	r4,r2,1024
   25110:	203f3e26 	beq	r4,zero,24e0c <__alt_data_end+0xfffe4e0c>
   25114:	40c7c83a 	sub	r3,r8,r3
   25118:	3023883a 	mov	r17,r6
   2511c:	003f0306 	br	24d2c <__alt_data_end+0xfffe4d2c>
   25120:	4007883a 	mov	r3,r8
   25124:	3821883a 	mov	r16,r7
   25128:	003f0006 	br	24d2c <__alt_data_end+0xfffe4d2c>
   2512c:	18001c26 	beq	r3,zero,251a0 <__subsf3+0x4e4>
   25130:	40000826 	beq	r8,zero,25154 <__subsf3+0x498>
   25134:	1806d0fa 	srli	r3,r3,3
   25138:	1880102c 	andhi	r2,r3,64
   2513c:	103fee26 	beq	r2,zero,250f8 <__alt_data_end+0xfffe50f8>
   25140:	4010d0fa 	srli	r8,r8,3
   25144:	4080102c 	andhi	r2,r8,64
   25148:	103feb1e 	bne	r2,zero,250f8 <__alt_data_end+0xfffe50f8>
   2514c:	4007883a 	mov	r3,r8
   25150:	003fe906 	br	250f8 <__alt_data_end+0xfffe50f8>
   25154:	04003fc4 	movi	r16,255
   25158:	003ef406 	br	24d2c <__alt_data_end+0xfffe4d2c>
   2515c:	8007883a 	mov	r3,r16
   25160:	0005883a 	mov	r2,zero
   25164:	003f2e06 	br	24e20 <__alt_data_end+0xfffe4e20>
   25168:	00c10034 	movhi	r3,1024
   2516c:	0005883a 	mov	r2,zero
   25170:	18fffe04 	addi	r3,r3,-8
   25174:	04003fc4 	movi	r16,255
   25178:	003f2906 	br	24e20 <__alt_data_end+0xfffe4e20>
   2517c:	01400804 	movi	r5,32
   25180:	290bc83a 	sub	r5,r5,r4
   25184:	194a983a 	sll	r5,r3,r5
   25188:	1908d83a 	srl	r4,r3,r4
   2518c:	2806c03a 	cmpne	r3,r5,zero
   25190:	1906b03a 	or	r3,r3,r4
   25194:	003fba06 	br	25080 <__alt_data_end+0xfffe5080>
   25198:	4007883a 	mov	r3,r8
   2519c:	003ee306 	br	24d2c <__alt_data_end+0xfffe4d2c>
   251a0:	4007883a 	mov	r3,r8
   251a4:	04003fc4 	movi	r16,255
   251a8:	003ee006 	br	24d2c <__alt_data_end+0xfffe4d2c>
   251ac:	0007883a 	mov	r3,zero
   251b0:	0005883a 	mov	r2,zero
   251b4:	003f1a06 	br	24e20 <__alt_data_end+0xfffe4e20>

000251b8 <__fixsfsi>:
   251b8:	2006d5fa 	srli	r3,r4,23
   251bc:	00802034 	movhi	r2,128
   251c0:	10bfffc4 	addi	r2,r2,-1
   251c4:	18c03fcc 	andi	r3,r3,255
   251c8:	01401f84 	movi	r5,126
   251cc:	1104703a 	and	r2,r2,r4
   251d0:	2008d7fa 	srli	r4,r4,31
   251d4:	28c0110e 	bge	r5,r3,2521c <__fixsfsi+0x64>
   251d8:	01402744 	movi	r5,157
   251dc:	28c00b16 	blt	r5,r3,2520c <__fixsfsi+0x54>
   251e0:	01402544 	movi	r5,149
   251e4:	10802034 	orhi	r2,r2,128
   251e8:	28c00e16 	blt	r5,r3,25224 <__fixsfsi+0x6c>
   251ec:	01402584 	movi	r5,150
   251f0:	28c7c83a 	sub	r3,r5,r3
   251f4:	10c6d83a 	srl	r3,r2,r3
   251f8:	21003fcc 	andi	r4,r4,255
   251fc:	0105c83a 	sub	r2,zero,r4
   25200:	1886f03a 	xor	r3,r3,r2
   25204:	1905883a 	add	r2,r3,r4
   25208:	f800283a 	ret
   2520c:	00a00034 	movhi	r2,32768
   25210:	10bfffc4 	addi	r2,r2,-1
   25214:	2085883a 	add	r2,r4,r2
   25218:	f800283a 	ret
   2521c:	0005883a 	mov	r2,zero
   25220:	f800283a 	ret
   25224:	18ffda84 	addi	r3,r3,-150
   25228:	10c6983a 	sll	r3,r2,r3
   2522c:	003ff206 	br	251f8 <__alt_data_end+0xfffe51f8>

00025230 <__floatsisf>:
   25230:	defffd04 	addi	sp,sp,-12
   25234:	dc000015 	stw	r16,0(sp)
   25238:	dfc00215 	stw	ra,8(sp)
   2523c:	dc400115 	stw	r17,4(sp)
   25240:	2021883a 	mov	r16,r4
   25244:	20003a26 	beq	r4,zero,25330 <__floatsisf+0x100>
   25248:	2022d7fa 	srli	r17,r4,31
   2524c:	88000126 	beq	r17,zero,25254 <__floatsisf+0x24>
   25250:	0121c83a 	sub	r16,zero,r4
   25254:	8009883a 	mov	r4,r16
   25258:	00254740 	call	25474 <__clzsi2>
   2525c:	00c02784 	movi	r3,158
   25260:	1887c83a 	sub	r3,r3,r2
   25264:	01802584 	movi	r6,150
   25268:	800b883a 	mov	r5,r16
   2526c:	30c01616 	blt	r6,r3,252c8 <__floatsisf+0x98>
   25270:	01000204 	movi	r4,8
   25274:	2080020e 	bge	r4,r2,25280 <__floatsisf+0x50>
   25278:	10bffe04 	addi	r2,r2,-8
   2527c:	80a0983a 	sll	r16,r16,r2
   25280:	00802034 	movhi	r2,128
   25284:	10bfffc4 	addi	r2,r2,-1
   25288:	8809883a 	mov	r4,r17
   2528c:	80a0703a 	and	r16,r16,r2
   25290:	18803fcc 	andi	r2,r3,255
   25294:	100695fa 	slli	r3,r2,23
   25298:	20803fcc 	andi	r2,r4,255
   2529c:	100897fa 	slli	r4,r2,31
   252a0:	00802034 	movhi	r2,128
   252a4:	10bfffc4 	addi	r2,r2,-1
   252a8:	8084703a 	and	r2,r16,r2
   252ac:	10c4b03a 	or	r2,r2,r3
   252b0:	1104b03a 	or	r2,r2,r4
   252b4:	dfc00217 	ldw	ra,8(sp)
   252b8:	dc400117 	ldw	r17,4(sp)
   252bc:	dc000017 	ldw	r16,0(sp)
   252c0:	dec00304 	addi	sp,sp,12
   252c4:	f800283a 	ret
   252c8:	01002644 	movi	r4,153
   252cc:	20c01c16 	blt	r4,r3,25340 <__floatsisf+0x110>
   252d0:	01000144 	movi	r4,5
   252d4:	2080020e 	bge	r4,r2,252e0 <__floatsisf+0xb0>
   252d8:	113ffec4 	addi	r4,r2,-5
   252dc:	290a983a 	sll	r5,r5,r4
   252e0:	043f0034 	movhi	r16,64512
   252e4:	843fffc4 	addi	r16,r16,-1
   252e8:	298001cc 	andi	r6,r5,7
   252ec:	2c20703a 	and	r16,r5,r16
   252f0:	30000426 	beq	r6,zero,25304 <__floatsisf+0xd4>
   252f4:	294003cc 	andi	r5,r5,15
   252f8:	01000104 	movi	r4,4
   252fc:	29000126 	beq	r5,r4,25304 <__floatsisf+0xd4>
   25300:	8121883a 	add	r16,r16,r4
   25304:	8101002c 	andhi	r4,r16,1024
   25308:	20000526 	beq	r4,zero,25320 <__floatsisf+0xf0>
   2530c:	00c027c4 	movi	r3,159
   25310:	1887c83a 	sub	r3,r3,r2
   25314:	00bf0034 	movhi	r2,64512
   25318:	10bfffc4 	addi	r2,r2,-1
   2531c:	80a0703a 	and	r16,r16,r2
   25320:	802091ba 	slli	r16,r16,6
   25324:	8809883a 	mov	r4,r17
   25328:	8020d27a 	srli	r16,r16,9
   2532c:	003fd806 	br	25290 <__alt_data_end+0xfffe5290>
   25330:	0009883a 	mov	r4,zero
   25334:	0007883a 	mov	r3,zero
   25338:	0021883a 	mov	r16,zero
   2533c:	003fd406 	br	25290 <__alt_data_end+0xfffe5290>
   25340:	01800144 	movi	r6,5
   25344:	110006c4 	addi	r4,r2,27
   25348:	8108983a 	sll	r4,r16,r4
   2534c:	308fc83a 	sub	r7,r6,r2
   25350:	81cad83a 	srl	r5,r16,r7
   25354:	2008c03a 	cmpne	r4,r4,zero
   25358:	214ab03a 	or	r5,r4,r5
   2535c:	30bfe00e 	bge	r6,r2,252e0 <__alt_data_end+0xfffe52e0>
   25360:	003fdd06 	br	252d8 <__alt_data_end+0xfffe52d8>

00025364 <__floatunsisf>:
   25364:	defffe04 	addi	sp,sp,-8
   25368:	dc000015 	stw	r16,0(sp)
   2536c:	dfc00115 	stw	ra,4(sp)
   25370:	2021883a 	mov	r16,r4
   25374:	20002626 	beq	r4,zero,25410 <__floatunsisf+0xac>
   25378:	00254740 	call	25474 <__clzsi2>
   2537c:	00c02784 	movi	r3,158
   25380:	1887c83a 	sub	r3,r3,r2
   25384:	01002584 	movi	r4,150
   25388:	20c00816 	blt	r4,r3,253ac <__floatunsisf+0x48>
   2538c:	01000204 	movi	r4,8
   25390:	2080340e 	bge	r4,r2,25464 <__floatunsisf+0x100>
   25394:	10bffe04 	addi	r2,r2,-8
   25398:	8088983a 	sll	r4,r16,r2
   2539c:	00802034 	movhi	r2,128
   253a0:	10bfffc4 	addi	r2,r2,-1
   253a4:	2088703a 	and	r4,r4,r2
   253a8:	00001b06 	br	25418 <__floatunsisf+0xb4>
   253ac:	01002644 	movi	r4,153
   253b0:	20c02316 	blt	r4,r3,25440 <__floatunsisf+0xdc>
   253b4:	01000144 	movi	r4,5
   253b8:	2080020e 	bge	r4,r2,253c4 <__floatunsisf+0x60>
   253bc:	113ffec4 	addi	r4,r2,-5
   253c0:	8120983a 	sll	r16,r16,r4
   253c4:	017f0034 	movhi	r5,64512
   253c8:	297fffc4 	addi	r5,r5,-1
   253cc:	810001cc 	andi	r4,r16,7
   253d0:	814a703a 	and	r5,r16,r5
   253d4:	20000426 	beq	r4,zero,253e8 <__floatunsisf+0x84>
   253d8:	840003cc 	andi	r16,r16,15
   253dc:	01000104 	movi	r4,4
   253e0:	81000126 	beq	r16,r4,253e8 <__floatunsisf+0x84>
   253e4:	290b883a 	add	r5,r5,r4
   253e8:	2901002c 	andhi	r4,r5,1024
   253ec:	20000526 	beq	r4,zero,25404 <__floatunsisf+0xa0>
   253f0:	00c027c4 	movi	r3,159
   253f4:	1887c83a 	sub	r3,r3,r2
   253f8:	00bf0034 	movhi	r2,64512
   253fc:	10bfffc4 	addi	r2,r2,-1
   25400:	288a703a 	and	r5,r5,r2
   25404:	280891ba 	slli	r4,r5,6
   25408:	2008d27a 	srli	r4,r4,9
   2540c:	00000206 	br	25418 <__floatunsisf+0xb4>
   25410:	0007883a 	mov	r3,zero
   25414:	0009883a 	mov	r4,zero
   25418:	18c03fcc 	andi	r3,r3,255
   2541c:	180695fa 	slli	r3,r3,23
   25420:	00802034 	movhi	r2,128
   25424:	10bfffc4 	addi	r2,r2,-1
   25428:	2084703a 	and	r2,r4,r2
   2542c:	10c4b03a 	or	r2,r2,r3
   25430:	dfc00117 	ldw	ra,4(sp)
   25434:	dc000017 	ldw	r16,0(sp)
   25438:	dec00204 	addi	sp,sp,8
   2543c:	f800283a 	ret
   25440:	01400144 	movi	r5,5
   25444:	110006c4 	addi	r4,r2,27
   25448:	8108983a 	sll	r4,r16,r4
   2544c:	288dc83a 	sub	r6,r5,r2
   25450:	81a0d83a 	srl	r16,r16,r6
   25454:	2008c03a 	cmpne	r4,r4,zero
   25458:	2420b03a 	or	r16,r4,r16
   2545c:	28bfd90e 	bge	r5,r2,253c4 <__alt_data_end+0xfffe53c4>
   25460:	003fd606 	br	253bc <__alt_data_end+0xfffe53bc>
   25464:	01402034 	movhi	r5,128
   25468:	297fffc4 	addi	r5,r5,-1
   2546c:	8148703a 	and	r4,r16,r5
   25470:	003fe906 	br	25418 <__alt_data_end+0xfffe5418>

00025474 <__clzsi2>:
   25474:	00bfffd4 	movui	r2,65535
   25478:	11000b36 	bltu	r2,r4,254a8 <__clzsi2+0x34>
   2547c:	00803fc4 	movi	r2,255
   25480:	1100122e 	bgeu	r2,r4,254cc <__clzsi2+0x58>
   25484:	00c00204 	movi	r3,8
   25488:	01400604 	movi	r5,24
   2548c:	20c8d83a 	srl	r4,r4,r3
   25490:	008000f4 	movhi	r2,3
   25494:	1092d104 	addi	r2,r2,19268
   25498:	1109883a 	add	r4,r2,r4
   2549c:	20800003 	ldbu	r2,0(r4)
   254a0:	2885c83a 	sub	r2,r5,r2
   254a4:	f800283a 	ret
   254a8:	00804034 	movhi	r2,256
   254ac:	10bfffc4 	addi	r2,r2,-1
   254b0:	11000336 	bltu	r2,r4,254c0 <__clzsi2+0x4c>
   254b4:	00c00404 	movi	r3,16
   254b8:	180b883a 	mov	r5,r3
   254bc:	003ff306 	br	2548c <__alt_data_end+0xfffe548c>
   254c0:	00c00604 	movi	r3,24
   254c4:	01400204 	movi	r5,8
   254c8:	003ff006 	br	2548c <__alt_data_end+0xfffe548c>
   254cc:	0007883a 	mov	r3,zero
   254d0:	01400804 	movi	r5,32
   254d4:	003fed06 	br	2548c <__alt_data_end+0xfffe548c>

000254d8 <malloc>:
   254d8:	008000f4 	movhi	r2,3
   254dc:	109c2604 	addi	r2,r2,28824
   254e0:	200b883a 	mov	r5,r4
   254e4:	11000017 	ldw	r4,0(r2)
   254e8:	00255001 	jmpi	25500 <_malloc_r>

000254ec <free>:
   254ec:	008000f4 	movhi	r2,3
   254f0:	109c2604 	addi	r2,r2,28824
   254f4:	200b883a 	mov	r5,r4
   254f8:	11000017 	ldw	r4,0(r2)
   254fc:	002a1a01 	jmpi	2a1a0 <_free_r>

00025500 <_malloc_r>:
   25500:	defff504 	addi	sp,sp,-44
   25504:	dc800315 	stw	r18,12(sp)
   25508:	dfc00a15 	stw	ra,40(sp)
   2550c:	df000915 	stw	fp,36(sp)
   25510:	ddc00815 	stw	r23,32(sp)
   25514:	dd800715 	stw	r22,28(sp)
   25518:	dd400615 	stw	r21,24(sp)
   2551c:	dd000515 	stw	r20,20(sp)
   25520:	dcc00415 	stw	r19,16(sp)
   25524:	dc400215 	stw	r17,8(sp)
   25528:	dc000115 	stw	r16,4(sp)
   2552c:	288002c4 	addi	r2,r5,11
   25530:	00c00584 	movi	r3,22
   25534:	2025883a 	mov	r18,r4
   25538:	18802a2e 	bgeu	r3,r2,255e4 <_malloc_r+0xe4>
   2553c:	047ffe04 	movi	r17,-8
   25540:	1462703a 	and	r17,r2,r17
   25544:	88009e16 	blt	r17,zero,257c0 <_malloc_r+0x2c0>
   25548:	89409d36 	bltu	r17,r5,257c0 <_malloc_r+0x2c0>
   2554c:	0031e180 	call	31e18 <__malloc_lock>
   25550:	00807dc4 	movi	r2,503
   25554:	14402736 	bltu	r2,r17,255f4 <_malloc_r+0xf4>
   25558:	8806d0fa 	srli	r3,r17,3
   2555c:	04c000f4 	movhi	r19,3
   25560:	9cd57504 	addi	r19,r19,21972
   25564:	18c5883a 	add	r2,r3,r3
   25568:	1085883a 	add	r2,r2,r2
   2556c:	1085883a 	add	r2,r2,r2
   25570:	9885883a 	add	r2,r19,r2
   25574:	14000317 	ldw	r16,12(r2)
   25578:	80814a26 	beq	r16,r2,25aa4 <_malloc_r+0x5a4>
   2557c:	80c00117 	ldw	r3,4(r16)
   25580:	81000317 	ldw	r4,12(r16)
   25584:	00bfff04 	movi	r2,-4
   25588:	1884703a 	and	r2,r3,r2
   2558c:	81400217 	ldw	r5,8(r16)
   25590:	8085883a 	add	r2,r16,r2
   25594:	10c00117 	ldw	r3,4(r2)
   25598:	29000315 	stw	r4,12(r5)
   2559c:	21400215 	stw	r5,8(r4)
   255a0:	18c00054 	ori	r3,r3,1
   255a4:	10c00115 	stw	r3,4(r2)
   255a8:	9009883a 	mov	r4,r18
   255ac:	0031e380 	call	31e38 <__malloc_unlock>
   255b0:	80800204 	addi	r2,r16,8
   255b4:	dfc00a17 	ldw	ra,40(sp)
   255b8:	df000917 	ldw	fp,36(sp)
   255bc:	ddc00817 	ldw	r23,32(sp)
   255c0:	dd800717 	ldw	r22,28(sp)
   255c4:	dd400617 	ldw	r21,24(sp)
   255c8:	dd000517 	ldw	r20,20(sp)
   255cc:	dcc00417 	ldw	r19,16(sp)
   255d0:	dc800317 	ldw	r18,12(sp)
   255d4:	dc400217 	ldw	r17,8(sp)
   255d8:	dc000117 	ldw	r16,4(sp)
   255dc:	dec00b04 	addi	sp,sp,44
   255e0:	f800283a 	ret
   255e4:	04400404 	movi	r17,16
   255e8:	89407536 	bltu	r17,r5,257c0 <_malloc_r+0x2c0>
   255ec:	0031e180 	call	31e18 <__malloc_lock>
   255f0:	003fd906 	br	25558 <__alt_data_end+0xfffe5558>
   255f4:	8806d27a 	srli	r3,r17,9
   255f8:	18007526 	beq	r3,zero,257d0 <_malloc_r+0x2d0>
   255fc:	00800104 	movi	r2,4
   25600:	10c0ef36 	bltu	r2,r3,259c0 <_malloc_r+0x4c0>
   25604:	8806d1ba 	srli	r3,r17,6
   25608:	19c00e04 	addi	r7,r3,56
   2560c:	39cb883a 	add	r5,r7,r7
   25610:	04c000f4 	movhi	r19,3
   25614:	294b883a 	add	r5,r5,r5
   25618:	9cd57504 	addi	r19,r19,21972
   2561c:	294b883a 	add	r5,r5,r5
   25620:	994b883a 	add	r5,r19,r5
   25624:	2c000317 	ldw	r16,12(r5)
   25628:	2c000e26 	beq	r5,r16,25664 <_malloc_r+0x164>
   2562c:	80800117 	ldw	r2,4(r16)
   25630:	01bfff04 	movi	r6,-4
   25634:	010003c4 	movi	r4,15
   25638:	1184703a 	and	r2,r2,r6
   2563c:	1447c83a 	sub	r3,r2,r17
   25640:	20c00716 	blt	r4,r3,25660 <_malloc_r+0x160>
   25644:	1800650e 	bge	r3,zero,257dc <_malloc_r+0x2dc>
   25648:	84000317 	ldw	r16,12(r16)
   2564c:	2c000526 	beq	r5,r16,25664 <_malloc_r+0x164>
   25650:	80800117 	ldw	r2,4(r16)
   25654:	1184703a 	and	r2,r2,r6
   25658:	1447c83a 	sub	r3,r2,r17
   2565c:	20fff90e 	bge	r4,r3,25644 <__alt_data_end+0xfffe5644>
   25660:	39ffffc4 	addi	r7,r7,-1
   25664:	38c00044 	addi	r3,r7,1
   25668:	018000f4 	movhi	r6,3
   2566c:	9c000417 	ldw	r16,16(r19)
   25670:	31957504 	addi	r6,r6,21972
   25674:	32400204 	addi	r9,r6,8
   25678:	82410326 	beq	r16,r9,25a88 <_malloc_r+0x588>
   2567c:	81000117 	ldw	r4,4(r16)
   25680:	00bfff04 	movi	r2,-4
   25684:	208e703a 	and	r7,r4,r2
   25688:	3c45c83a 	sub	r2,r7,r17
   2568c:	010003c4 	movi	r4,15
   25690:	2080ee16 	blt	r4,r2,25a4c <_malloc_r+0x54c>
   25694:	32400515 	stw	r9,20(r6)
   25698:	32400415 	stw	r9,16(r6)
   2569c:	1000510e 	bge	r2,zero,257e4 <_malloc_r+0x2e4>
   256a0:	00807fc4 	movi	r2,511
   256a4:	11c0ce36 	bltu	r2,r7,259e0 <_malloc_r+0x4e0>
   256a8:	3808d0fa 	srli	r4,r7,3
   256ac:	01c00044 	movi	r7,1
   256b0:	30800117 	ldw	r2,4(r6)
   256b4:	210b883a 	add	r5,r4,r4
   256b8:	294b883a 	add	r5,r5,r5
   256bc:	2009d0ba 	srai	r4,r4,2
   256c0:	294b883a 	add	r5,r5,r5
   256c4:	298b883a 	add	r5,r5,r6
   256c8:	2a000217 	ldw	r8,8(r5)
   256cc:	3908983a 	sll	r4,r7,r4
   256d0:	81400315 	stw	r5,12(r16)
   256d4:	82000215 	stw	r8,8(r16)
   256d8:	2088b03a 	or	r4,r4,r2
   256dc:	2c000215 	stw	r16,8(r5)
   256e0:	31000115 	stw	r4,4(r6)
   256e4:	44000315 	stw	r16,12(r8)
   256e8:	1805d0ba 	srai	r2,r3,2
   256ec:	01400044 	movi	r5,1
   256f0:	288a983a 	sll	r5,r5,r2
   256f4:	21404336 	bltu	r4,r5,25804 <_malloc_r+0x304>
   256f8:	2144703a 	and	r2,r4,r5
   256fc:	10000a1e 	bne	r2,zero,25728 <_malloc_r+0x228>
   25700:	00bfff04 	movi	r2,-4
   25704:	294b883a 	add	r5,r5,r5
   25708:	1886703a 	and	r3,r3,r2
   2570c:	2144703a 	and	r2,r4,r5
   25710:	18c00104 	addi	r3,r3,4
   25714:	1000041e 	bne	r2,zero,25728 <_malloc_r+0x228>
   25718:	294b883a 	add	r5,r5,r5
   2571c:	2144703a 	and	r2,r4,r5
   25720:	18c00104 	addi	r3,r3,4
   25724:	103ffc26 	beq	r2,zero,25718 <__alt_data_end+0xfffe5718>
   25728:	023fff04 	movi	r8,-4
   2572c:	01c003c4 	movi	r7,15
   25730:	18c5883a 	add	r2,r3,r3
   25734:	1085883a 	add	r2,r2,r2
   25738:	1085883a 	add	r2,r2,r2
   2573c:	9895883a 	add	r10,r19,r2
   25740:	52c00304 	addi	r11,r10,12
   25744:	1819883a 	mov	r12,r3
   25748:	5c000017 	ldw	r16,0(r11)
   2574c:	59bffd04 	addi	r6,r11,-12
   25750:	8180041e 	bne	r16,r6,25764 <_malloc_r+0x264>
   25754:	0000ce06 	br	25a90 <_malloc_r+0x590>
   25758:	2000d70e 	bge	r4,zero,25ab8 <_malloc_r+0x5b8>
   2575c:	84000317 	ldw	r16,12(r16)
   25760:	8180cb26 	beq	r16,r6,25a90 <_malloc_r+0x590>
   25764:	80800117 	ldw	r2,4(r16)
   25768:	1204703a 	and	r2,r2,r8
   2576c:	1449c83a 	sub	r4,r2,r17
   25770:	393ff90e 	bge	r7,r4,25758 <__alt_data_end+0xfffe5758>
   25774:	80800317 	ldw	r2,12(r16)
   25778:	80c00217 	ldw	r3,8(r16)
   2577c:	89400054 	ori	r5,r17,1
   25780:	81400115 	stw	r5,4(r16)
   25784:	18800315 	stw	r2,12(r3)
   25788:	10c00215 	stw	r3,8(r2)
   2578c:	8463883a 	add	r17,r16,r17
   25790:	9c400515 	stw	r17,20(r19)
   25794:	9c400415 	stw	r17,16(r19)
   25798:	20800054 	ori	r2,r4,1
   2579c:	88800115 	stw	r2,4(r17)
   257a0:	8a400315 	stw	r9,12(r17)
   257a4:	8a400215 	stw	r9,8(r17)
   257a8:	8923883a 	add	r17,r17,r4
   257ac:	89000015 	stw	r4,0(r17)
   257b0:	9009883a 	mov	r4,r18
   257b4:	0031e380 	call	31e38 <__malloc_unlock>
   257b8:	80800204 	addi	r2,r16,8
   257bc:	003f7d06 	br	255b4 <__alt_data_end+0xfffe55b4>
   257c0:	00800304 	movi	r2,12
   257c4:	90800015 	stw	r2,0(r18)
   257c8:	0005883a 	mov	r2,zero
   257cc:	003f7906 	br	255b4 <__alt_data_end+0xfffe55b4>
   257d0:	01401f84 	movi	r5,126
   257d4:	01c00fc4 	movi	r7,63
   257d8:	003f8d06 	br	25610 <__alt_data_end+0xfffe5610>
   257dc:	81000317 	ldw	r4,12(r16)
   257e0:	003f6a06 	br	2558c <__alt_data_end+0xfffe558c>
   257e4:	81c5883a 	add	r2,r16,r7
   257e8:	10c00117 	ldw	r3,4(r2)
   257ec:	9009883a 	mov	r4,r18
   257f0:	18c00054 	ori	r3,r3,1
   257f4:	10c00115 	stw	r3,4(r2)
   257f8:	0031e380 	call	31e38 <__malloc_unlock>
   257fc:	80800204 	addi	r2,r16,8
   25800:	003f6c06 	br	255b4 <__alt_data_end+0xfffe55b4>
   25804:	9c000217 	ldw	r16,8(r19)
   25808:	00bfff04 	movi	r2,-4
   2580c:	85800117 	ldw	r22,4(r16)
   25810:	b0ac703a 	and	r22,r22,r2
   25814:	b4400336 	bltu	r22,r17,25824 <_malloc_r+0x324>
   25818:	b445c83a 	sub	r2,r22,r17
   2581c:	00c003c4 	movi	r3,15
   25820:	18805d16 	blt	r3,r2,25998 <_malloc_r+0x498>
   25824:	05c000f4 	movhi	r23,3
   25828:	00800134 	movhi	r2,4
   2582c:	bddc2304 	addi	r23,r23,28812
   25830:	10a4d904 	addi	r2,r2,-27804
   25834:	15400017 	ldw	r21,0(r2)
   25838:	b9000017 	ldw	r4,0(r23)
   2583c:	00ffffc4 	movi	r3,-1
   25840:	858d883a 	add	r6,r16,r22
   25844:	8d6b883a 	add	r21,r17,r21
   25848:	20c0e426 	beq	r4,r3,25bdc <_malloc_r+0x6dc>
   2584c:	ad4403c4 	addi	r21,r21,4111
   25850:	00fc0004 	movi	r3,-4096
   25854:	a8ea703a 	and	r21,r21,r3
   25858:	9009883a 	mov	r4,r18
   2585c:	a80b883a 	mov	r5,r21
   25860:	d9800015 	stw	r6,0(sp)
   25864:	0025f200 	call	25f20 <_sbrk_r>
   25868:	00ffffc4 	movi	r3,-1
   2586c:	1029883a 	mov	r20,r2
   25870:	d9800017 	ldw	r6,0(sp)
   25874:	10c0a426 	beq	r2,r3,25b08 <_malloc_r+0x608>
   25878:	1180a236 	bltu	r2,r6,25b04 <_malloc_r+0x604>
   2587c:	07000134 	movhi	fp,4
   25880:	e724e504 	addi	fp,fp,-27756
   25884:	e0c00017 	ldw	r3,0(fp)
   25888:	a8c7883a 	add	r3,r21,r3
   2588c:	e0c00015 	stw	r3,0(fp)
   25890:	3500da26 	beq	r6,r20,25bfc <_malloc_r+0x6fc>
   25894:	b9000017 	ldw	r4,0(r23)
   25898:	00bfffc4 	movi	r2,-1
   2589c:	2080e426 	beq	r4,r2,25c30 <_malloc_r+0x730>
   258a0:	a185c83a 	sub	r2,r20,r6
   258a4:	1885883a 	add	r2,r3,r2
   258a8:	e0800015 	stw	r2,0(fp)
   258ac:	a0c001cc 	andi	r3,r20,7
   258b0:	1800b526 	beq	r3,zero,25b88 <_malloc_r+0x688>
   258b4:	a0e9c83a 	sub	r20,r20,r3
   258b8:	00840204 	movi	r2,4104
   258bc:	a5000204 	addi	r20,r20,8
   258c0:	10c7c83a 	sub	r3,r2,r3
   258c4:	a545883a 	add	r2,r20,r21
   258c8:	1083ffcc 	andi	r2,r2,4095
   258cc:	18abc83a 	sub	r21,r3,r2
   258d0:	9009883a 	mov	r4,r18
   258d4:	a80b883a 	mov	r5,r21
   258d8:	0025f200 	call	25f20 <_sbrk_r>
   258dc:	00ffffc4 	movi	r3,-1
   258e0:	10c0d026 	beq	r2,r3,25c24 <_malloc_r+0x724>
   258e4:	1507c83a 	sub	r3,r2,r20
   258e8:	a8c7883a 	add	r3,r21,r3
   258ec:	18c00054 	ori	r3,r3,1
   258f0:	e0800017 	ldw	r2,0(fp)
   258f4:	9d000215 	stw	r20,8(r19)
   258f8:	a0c00115 	stw	r3,4(r20)
   258fc:	a887883a 	add	r3,r21,r2
   25900:	e0c00015 	stw	r3,0(fp)
   25904:	84c00e26 	beq	r16,r19,25940 <_malloc_r+0x440>
   25908:	018003c4 	movi	r6,15
   2590c:	3580a02e 	bgeu	r6,r22,25b90 <_malloc_r+0x690>
   25910:	81400117 	ldw	r5,4(r16)
   25914:	013ffe04 	movi	r4,-8
   25918:	b0bffd04 	addi	r2,r22,-12
   2591c:	1104703a 	and	r2,r2,r4
   25920:	2900004c 	andi	r4,r5,1
   25924:	1108b03a 	or	r4,r2,r4
   25928:	81000115 	stw	r4,4(r16)
   2592c:	01400144 	movi	r5,5
   25930:	8089883a 	add	r4,r16,r2
   25934:	21400115 	stw	r5,4(r4)
   25938:	21400215 	stw	r5,8(r4)
   2593c:	3080c036 	bltu	r6,r2,25c40 <_malloc_r+0x740>
   25940:	00800134 	movhi	r2,4
   25944:	10a4d804 	addi	r2,r2,-27808
   25948:	11000017 	ldw	r4,0(r2)
   2594c:	20c0012e 	bgeu	r4,r3,25954 <_malloc_r+0x454>
   25950:	10c00015 	stw	r3,0(r2)
   25954:	00800134 	movhi	r2,4
   25958:	10a4d704 	addi	r2,r2,-27812
   2595c:	11000017 	ldw	r4,0(r2)
   25960:	9c000217 	ldw	r16,8(r19)
   25964:	20c0012e 	bgeu	r4,r3,2596c <_malloc_r+0x46c>
   25968:	10c00015 	stw	r3,0(r2)
   2596c:	80c00117 	ldw	r3,4(r16)
   25970:	00bfff04 	movi	r2,-4
   25974:	1886703a 	and	r3,r3,r2
   25978:	1c45c83a 	sub	r2,r3,r17
   2597c:	1c400236 	bltu	r3,r17,25988 <_malloc_r+0x488>
   25980:	00c003c4 	movi	r3,15
   25984:	18800416 	blt	r3,r2,25998 <_malloc_r+0x498>
   25988:	9009883a 	mov	r4,r18
   2598c:	0031e380 	call	31e38 <__malloc_unlock>
   25990:	0005883a 	mov	r2,zero
   25994:	003f0706 	br	255b4 <__alt_data_end+0xfffe55b4>
   25998:	88c00054 	ori	r3,r17,1
   2599c:	80c00115 	stw	r3,4(r16)
   259a0:	8463883a 	add	r17,r16,r17
   259a4:	10800054 	ori	r2,r2,1
   259a8:	9c400215 	stw	r17,8(r19)
   259ac:	88800115 	stw	r2,4(r17)
   259b0:	9009883a 	mov	r4,r18
   259b4:	0031e380 	call	31e38 <__malloc_unlock>
   259b8:	80800204 	addi	r2,r16,8
   259bc:	003efd06 	br	255b4 <__alt_data_end+0xfffe55b4>
   259c0:	00800504 	movi	r2,20
   259c4:	10c0482e 	bgeu	r2,r3,25ae8 <_malloc_r+0x5e8>
   259c8:	00801504 	movi	r2,84
   259cc:	10c06836 	bltu	r2,r3,25b70 <_malloc_r+0x670>
   259d0:	8806d33a 	srli	r3,r17,12
   259d4:	19c01b84 	addi	r7,r3,110
   259d8:	39cb883a 	add	r5,r7,r7
   259dc:	003f0c06 	br	25610 <__alt_data_end+0xfffe5610>
   259e0:	3804d27a 	srli	r2,r7,9
   259e4:	01000104 	movi	r4,4
   259e8:	2080422e 	bgeu	r4,r2,25af4 <_malloc_r+0x5f4>
   259ec:	01000504 	movi	r4,20
   259f0:	20807c36 	bltu	r4,r2,25be4 <_malloc_r+0x6e4>
   259f4:	110016c4 	addi	r4,r2,91
   259f8:	210b883a 	add	r5,r4,r4
   259fc:	294b883a 	add	r5,r5,r5
   25a00:	294b883a 	add	r5,r5,r5
   25a04:	994b883a 	add	r5,r19,r5
   25a08:	28800217 	ldw	r2,8(r5)
   25a0c:	020000f4 	movhi	r8,3
   25a10:	42157504 	addi	r8,r8,21972
   25a14:	11406326 	beq	r2,r5,25ba4 <_malloc_r+0x6a4>
   25a18:	01bfff04 	movi	r6,-4
   25a1c:	11000117 	ldw	r4,4(r2)
   25a20:	2188703a 	and	r4,r4,r6
   25a24:	3900022e 	bgeu	r7,r4,25a30 <_malloc_r+0x530>
   25a28:	10800217 	ldw	r2,8(r2)
   25a2c:	28bffb1e 	bne	r5,r2,25a1c <__alt_data_end+0xfffe5a1c>
   25a30:	11800317 	ldw	r6,12(r2)
   25a34:	99000117 	ldw	r4,4(r19)
   25a38:	81800315 	stw	r6,12(r16)
   25a3c:	80800215 	stw	r2,8(r16)
   25a40:	34000215 	stw	r16,8(r6)
   25a44:	14000315 	stw	r16,12(r2)
   25a48:	003f2706 	br	256e8 <__alt_data_end+0xfffe56e8>
   25a4c:	88c00054 	ori	r3,r17,1
   25a50:	80c00115 	stw	r3,4(r16)
   25a54:	8463883a 	add	r17,r16,r17
   25a58:	34400515 	stw	r17,20(r6)
   25a5c:	34400415 	stw	r17,16(r6)
   25a60:	10c00054 	ori	r3,r2,1
   25a64:	8a400315 	stw	r9,12(r17)
   25a68:	8a400215 	stw	r9,8(r17)
   25a6c:	88c00115 	stw	r3,4(r17)
   25a70:	88a3883a 	add	r17,r17,r2
   25a74:	88800015 	stw	r2,0(r17)
   25a78:	9009883a 	mov	r4,r18
   25a7c:	0031e380 	call	31e38 <__malloc_unlock>
   25a80:	80800204 	addi	r2,r16,8
   25a84:	003ecb06 	br	255b4 <__alt_data_end+0xfffe55b4>
   25a88:	31000117 	ldw	r4,4(r6)
   25a8c:	003f1606 	br	256e8 <__alt_data_end+0xfffe56e8>
   25a90:	63000044 	addi	r12,r12,1
   25a94:	608000cc 	andi	r2,r12,3
   25a98:	5ac00204 	addi	r11,r11,8
   25a9c:	103f2a1e 	bne	r2,zero,25748 <__alt_data_end+0xfffe5748>
   25aa0:	00002106 	br	25b28 <_malloc_r+0x628>
   25aa4:	80800204 	addi	r2,r16,8
   25aa8:	84000517 	ldw	r16,20(r16)
   25aac:	143eb31e 	bne	r2,r16,2557c <__alt_data_end+0xfffe557c>
   25ab0:	18c00084 	addi	r3,r3,2
   25ab4:	003eec06 	br	25668 <__alt_data_end+0xfffe5668>
   25ab8:	8085883a 	add	r2,r16,r2
   25abc:	10c00117 	ldw	r3,4(r2)
   25ac0:	81000317 	ldw	r4,12(r16)
   25ac4:	81400217 	ldw	r5,8(r16)
   25ac8:	18c00054 	ori	r3,r3,1
   25acc:	10c00115 	stw	r3,4(r2)
   25ad0:	29000315 	stw	r4,12(r5)
   25ad4:	21400215 	stw	r5,8(r4)
   25ad8:	9009883a 	mov	r4,r18
   25adc:	0031e380 	call	31e38 <__malloc_unlock>
   25ae0:	80800204 	addi	r2,r16,8
   25ae4:	003eb306 	br	255b4 <__alt_data_end+0xfffe55b4>
   25ae8:	19c016c4 	addi	r7,r3,91
   25aec:	39cb883a 	add	r5,r7,r7
   25af0:	003ec706 	br	25610 <__alt_data_end+0xfffe5610>
   25af4:	3804d1ba 	srli	r2,r7,6
   25af8:	11000e04 	addi	r4,r2,56
   25afc:	210b883a 	add	r5,r4,r4
   25b00:	003fbe06 	br	259fc <__alt_data_end+0xfffe59fc>
   25b04:	84ff5d26 	beq	r16,r19,2587c <__alt_data_end+0xfffe587c>
   25b08:	9c000217 	ldw	r16,8(r19)
   25b0c:	00bfff04 	movi	r2,-4
   25b10:	80c00117 	ldw	r3,4(r16)
   25b14:	1886703a 	and	r3,r3,r2
   25b18:	003f9706 	br	25978 <__alt_data_end+0xfffe5978>
   25b1c:	52800017 	ldw	r10,0(r10)
   25b20:	18ffffc4 	addi	r3,r3,-1
   25b24:	50805c1e 	bne	r10,r2,25c98 <_malloc_r+0x798>
   25b28:	190000cc 	andi	r4,r3,3
   25b2c:	50bffe04 	addi	r2,r10,-8
   25b30:	203ffa1e 	bne	r4,zero,25b1c <__alt_data_end+0xfffe5b1c>
   25b34:	98800117 	ldw	r2,4(r19)
   25b38:	0146303a 	nor	r3,zero,r5
   25b3c:	1884703a 	and	r2,r3,r2
   25b40:	98800115 	stw	r2,4(r19)
   25b44:	294b883a 	add	r5,r5,r5
   25b48:	117f2e36 	bltu	r2,r5,25804 <__alt_data_end+0xfffe5804>
   25b4c:	283f2d26 	beq	r5,zero,25804 <__alt_data_end+0xfffe5804>
   25b50:	1146703a 	and	r3,r2,r5
   25b54:	1800521e 	bne	r3,zero,25ca0 <_malloc_r+0x7a0>
   25b58:	6007883a 	mov	r3,r12
   25b5c:	294b883a 	add	r5,r5,r5
   25b60:	1148703a 	and	r4,r2,r5
   25b64:	18c00104 	addi	r3,r3,4
   25b68:	203ffc26 	beq	r4,zero,25b5c <__alt_data_end+0xfffe5b5c>
   25b6c:	003ef006 	br	25730 <__alt_data_end+0xfffe5730>
   25b70:	00805504 	movi	r2,340
   25b74:	10c01336 	bltu	r2,r3,25bc4 <_malloc_r+0x6c4>
   25b78:	8806d3fa 	srli	r3,r17,15
   25b7c:	19c01dc4 	addi	r7,r3,119
   25b80:	39cb883a 	add	r5,r7,r7
   25b84:	003ea206 	br	25610 <__alt_data_end+0xfffe5610>
   25b88:	00c40004 	movi	r3,4096
   25b8c:	003f4d06 	br	258c4 <__alt_data_end+0xfffe58c4>
   25b90:	00800044 	movi	r2,1
   25b94:	a0800115 	stw	r2,4(r20)
   25b98:	a021883a 	mov	r16,r20
   25b9c:	0007883a 	mov	r3,zero
   25ba0:	003f7506 	br	25978 <__alt_data_end+0xfffe5978>
   25ba4:	200bd0ba 	srai	r5,r4,2
   25ba8:	01800044 	movi	r6,1
   25bac:	41000117 	ldw	r4,4(r8)
   25bb0:	314a983a 	sll	r5,r6,r5
   25bb4:	100d883a 	mov	r6,r2
   25bb8:	2908b03a 	or	r4,r5,r4
   25bbc:	41000115 	stw	r4,4(r8)
   25bc0:	003f9d06 	br	25a38 <__alt_data_end+0xfffe5a38>
   25bc4:	00815504 	movi	r2,1364
   25bc8:	10c01336 	bltu	r2,r3,25c18 <_malloc_r+0x718>
   25bcc:	8806d4ba 	srli	r3,r17,18
   25bd0:	19c01f04 	addi	r7,r3,124
   25bd4:	39cb883a 	add	r5,r7,r7
   25bd8:	003e8d06 	br	25610 <__alt_data_end+0xfffe5610>
   25bdc:	ad400404 	addi	r21,r21,16
   25be0:	003f1d06 	br	25858 <__alt_data_end+0xfffe5858>
   25be4:	01001504 	movi	r4,84
   25be8:	20801c36 	bltu	r4,r2,25c5c <_malloc_r+0x75c>
   25bec:	3804d33a 	srli	r2,r7,12
   25bf0:	11001b84 	addi	r4,r2,110
   25bf4:	210b883a 	add	r5,r4,r4
   25bf8:	003f8006 	br	259fc <__alt_data_end+0xfffe59fc>
   25bfc:	3083ffcc 	andi	r2,r6,4095
   25c00:	103f241e 	bne	r2,zero,25894 <__alt_data_end+0xfffe5894>
   25c04:	99000217 	ldw	r4,8(r19)
   25c08:	ad85883a 	add	r2,r21,r22
   25c0c:	10800054 	ori	r2,r2,1
   25c10:	20800115 	stw	r2,4(r4)
   25c14:	003f4a06 	br	25940 <__alt_data_end+0xfffe5940>
   25c18:	01403f04 	movi	r5,252
   25c1c:	01c01f84 	movi	r7,126
   25c20:	003e7b06 	br	25610 <__alt_data_end+0xfffe5610>
   25c24:	00c00044 	movi	r3,1
   25c28:	002b883a 	mov	r21,zero
   25c2c:	003f3006 	br	258f0 <__alt_data_end+0xfffe58f0>
   25c30:	008000f4 	movhi	r2,3
   25c34:	109c2304 	addi	r2,r2,28812
   25c38:	15000015 	stw	r20,0(r2)
   25c3c:	003f1b06 	br	258ac <__alt_data_end+0xfffe58ac>
   25c40:	9009883a 	mov	r4,r18
   25c44:	81400204 	addi	r5,r16,8
   25c48:	002a1a00 	call	2a1a0 <_free_r>
   25c4c:	00800134 	movhi	r2,4
   25c50:	10a4e504 	addi	r2,r2,-27756
   25c54:	10c00017 	ldw	r3,0(r2)
   25c58:	003f3906 	br	25940 <__alt_data_end+0xfffe5940>
   25c5c:	01005504 	movi	r4,340
   25c60:	20800436 	bltu	r4,r2,25c74 <_malloc_r+0x774>
   25c64:	3804d3fa 	srli	r2,r7,15
   25c68:	11001dc4 	addi	r4,r2,119
   25c6c:	210b883a 	add	r5,r4,r4
   25c70:	003f6206 	br	259fc <__alt_data_end+0xfffe59fc>
   25c74:	01015504 	movi	r4,1364
   25c78:	20800436 	bltu	r4,r2,25c8c <_malloc_r+0x78c>
   25c7c:	3804d4ba 	srli	r2,r7,18
   25c80:	11001f04 	addi	r4,r2,124
   25c84:	210b883a 	add	r5,r4,r4
   25c88:	003f5c06 	br	259fc <__alt_data_end+0xfffe59fc>
   25c8c:	01403f04 	movi	r5,252
   25c90:	01001f84 	movi	r4,126
   25c94:	003f5906 	br	259fc <__alt_data_end+0xfffe59fc>
   25c98:	98800117 	ldw	r2,4(r19)
   25c9c:	003fa906 	br	25b44 <__alt_data_end+0xfffe5b44>
   25ca0:	6007883a 	mov	r3,r12
   25ca4:	003ea206 	br	25730 <__alt_data_end+0xfffe5730>

00025ca8 <memset>:
   25ca8:	20c000cc 	andi	r3,r4,3
   25cac:	2005883a 	mov	r2,r4
   25cb0:	18004326 	beq	r3,zero,25dc0 <memset+0x118>
   25cb4:	31ffffc4 	addi	r7,r6,-1
   25cb8:	30004026 	beq	r6,zero,25dbc <memset+0x114>
   25cbc:	2813883a 	mov	r9,r5
   25cc0:	200d883a 	mov	r6,r4
   25cc4:	2007883a 	mov	r3,r4
   25cc8:	00000406 	br	25cdc <memset+0x34>
   25ccc:	3a3fffc4 	addi	r8,r7,-1
   25cd0:	31800044 	addi	r6,r6,1
   25cd4:	38003926 	beq	r7,zero,25dbc <memset+0x114>
   25cd8:	400f883a 	mov	r7,r8
   25cdc:	18c00044 	addi	r3,r3,1
   25ce0:	32400005 	stb	r9,0(r6)
   25ce4:	1a0000cc 	andi	r8,r3,3
   25ce8:	403ff81e 	bne	r8,zero,25ccc <__alt_data_end+0xfffe5ccc>
   25cec:	010000c4 	movi	r4,3
   25cf0:	21c02d2e 	bgeu	r4,r7,25da8 <memset+0x100>
   25cf4:	29803fcc 	andi	r6,r5,255
   25cf8:	3008923a 	slli	r4,r6,8
   25cfc:	218cb03a 	or	r6,r4,r6
   25d00:	3008943a 	slli	r4,r6,16
   25d04:	218cb03a 	or	r6,r4,r6
   25d08:	010003c4 	movi	r4,15
   25d0c:	21c0182e 	bgeu	r4,r7,25d70 <memset+0xc8>
   25d10:	3b3ffc04 	addi	r12,r7,-16
   25d14:	6018d13a 	srli	r12,r12,4
   25d18:	1a000104 	addi	r8,r3,4
   25d1c:	1ac00204 	addi	r11,r3,8
   25d20:	6008913a 	slli	r4,r12,4
   25d24:	1a800304 	addi	r10,r3,12
   25d28:	1813883a 	mov	r9,r3
   25d2c:	21000504 	addi	r4,r4,20
   25d30:	1909883a 	add	r4,r3,r4
   25d34:	49800015 	stw	r6,0(r9)
   25d38:	41800015 	stw	r6,0(r8)
   25d3c:	59800015 	stw	r6,0(r11)
   25d40:	51800015 	stw	r6,0(r10)
   25d44:	42000404 	addi	r8,r8,16
   25d48:	4a400404 	addi	r9,r9,16
   25d4c:	5ac00404 	addi	r11,r11,16
   25d50:	52800404 	addi	r10,r10,16
   25d54:	413ff71e 	bne	r8,r4,25d34 <__alt_data_end+0xfffe5d34>
   25d58:	63000044 	addi	r12,r12,1
   25d5c:	6018913a 	slli	r12,r12,4
   25d60:	39c003cc 	andi	r7,r7,15
   25d64:	010000c4 	movi	r4,3
   25d68:	1b07883a 	add	r3,r3,r12
   25d6c:	21c00e2e 	bgeu	r4,r7,25da8 <memset+0x100>
   25d70:	1813883a 	mov	r9,r3
   25d74:	3811883a 	mov	r8,r7
   25d78:	010000c4 	movi	r4,3
   25d7c:	49800015 	stw	r6,0(r9)
   25d80:	423fff04 	addi	r8,r8,-4
   25d84:	4a400104 	addi	r9,r9,4
   25d88:	223ffc36 	bltu	r4,r8,25d7c <__alt_data_end+0xfffe5d7c>
   25d8c:	393fff04 	addi	r4,r7,-4
   25d90:	2008d0ba 	srli	r4,r4,2
   25d94:	39c000cc 	andi	r7,r7,3
   25d98:	21000044 	addi	r4,r4,1
   25d9c:	2109883a 	add	r4,r4,r4
   25da0:	2109883a 	add	r4,r4,r4
   25da4:	1907883a 	add	r3,r3,r4
   25da8:	38000426 	beq	r7,zero,25dbc <memset+0x114>
   25dac:	19cf883a 	add	r7,r3,r7
   25db0:	19400005 	stb	r5,0(r3)
   25db4:	18c00044 	addi	r3,r3,1
   25db8:	19fffd1e 	bne	r3,r7,25db0 <__alt_data_end+0xfffe5db0>
   25dbc:	f800283a 	ret
   25dc0:	2007883a 	mov	r3,r4
   25dc4:	300f883a 	mov	r7,r6
   25dc8:	003fc806 	br	25cec <__alt_data_end+0xfffe5cec>

00025dcc <_printf_r>:
   25dcc:	defffd04 	addi	sp,sp,-12
   25dd0:	dfc00015 	stw	ra,0(sp)
   25dd4:	d9800115 	stw	r6,4(sp)
   25dd8:	d9c00215 	stw	r7,8(sp)
   25ddc:	280d883a 	mov	r6,r5
   25de0:	21400217 	ldw	r5,8(r4)
   25de4:	d9c00104 	addi	r7,sp,4
   25de8:	002600c0 	call	2600c <___vfprintf_internal_r>
   25dec:	dfc00017 	ldw	ra,0(sp)
   25df0:	dec00304 	addi	sp,sp,12
   25df4:	f800283a 	ret

00025df8 <printf>:
   25df8:	defffc04 	addi	sp,sp,-16
   25dfc:	dfc00015 	stw	ra,0(sp)
   25e00:	d9400115 	stw	r5,4(sp)
   25e04:	d9800215 	stw	r6,8(sp)
   25e08:	d9c00315 	stw	r7,12(sp)
   25e0c:	008000f4 	movhi	r2,3
   25e10:	109c2604 	addi	r2,r2,28824
   25e14:	10800017 	ldw	r2,0(r2)
   25e18:	200b883a 	mov	r5,r4
   25e1c:	d9800104 	addi	r6,sp,4
   25e20:	11000217 	ldw	r4,8(r2)
   25e24:	00280080 	call	28008 <__vfprintf_internal>
   25e28:	dfc00017 	ldw	ra,0(sp)
   25e2c:	dec00404 	addi	sp,sp,16
   25e30:	f800283a 	ret

00025e34 <_putchar_r>:
   25e34:	21800217 	ldw	r6,8(r4)
   25e38:	002c0441 	jmpi	2c044 <_putc_r>

00025e3c <putchar>:
   25e3c:	008000f4 	movhi	r2,3
   25e40:	109c2604 	addi	r2,r2,28824
   25e44:	200b883a 	mov	r5,r4
   25e48:	11000017 	ldw	r4,0(r2)
   25e4c:	21800217 	ldw	r6,8(r4)
   25e50:	002c0441 	jmpi	2c044 <_putc_r>

00025e54 <_puts_r>:
   25e54:	defff604 	addi	sp,sp,-40
   25e58:	dc000715 	stw	r16,28(sp)
   25e5c:	2021883a 	mov	r16,r4
   25e60:	2809883a 	mov	r4,r5
   25e64:	dc400815 	stw	r17,32(sp)
   25e68:	dfc00915 	stw	ra,36(sp)
   25e6c:	2823883a 	mov	r17,r5
   25e70:	0025f740 	call	25f74 <strlen>
   25e74:	00c000f4 	movhi	r3,3
   25e78:	18dc2604 	addi	r3,r3,28824
   25e7c:	18c00017 	ldw	r3,0(r3)
   25e80:	11000044 	addi	r4,r2,1
   25e84:	d8800115 	stw	r2,4(sp)
   25e88:	18c00217 	ldw	r3,8(r3)
   25e8c:	014000f4 	movhi	r5,3
   25e90:	29531104 	addi	r5,r5,19524
   25e94:	1880030b 	ldhu	r2,12(r3)
   25e98:	d9400215 	stw	r5,8(sp)
   25e9c:	d9000615 	stw	r4,24(sp)
   25ea0:	01400044 	movi	r5,1
   25ea4:	01000084 	movi	r4,2
   25ea8:	d9000515 	stw	r4,20(sp)
   25eac:	dc400015 	stw	r17,0(sp)
   25eb0:	d9400315 	stw	r5,12(sp)
   25eb4:	dec00415 	stw	sp,16(sp)
   25eb8:	1108000c 	andi	r4,r2,8192
   25ebc:	2000061e 	bne	r4,zero,25ed8 <_puts_r+0x84>
   25ec0:	19401917 	ldw	r5,100(r3)
   25ec4:	0137ffc4 	movi	r4,-8193
   25ec8:	10880014 	ori	r2,r2,8192
   25ecc:	2908703a 	and	r4,r5,r4
   25ed0:	1880030d 	sth	r2,12(r3)
   25ed4:	19001915 	stw	r4,100(r3)
   25ed8:	81400217 	ldw	r5,8(r16)
   25edc:	8009883a 	mov	r4,r16
   25ee0:	d9800404 	addi	r6,sp,16
   25ee4:	002a4900 	call	2a490 <__sfvwrite_r>
   25ee8:	1000061e 	bne	r2,zero,25f04 <_puts_r+0xb0>
   25eec:	00800284 	movi	r2,10
   25ef0:	dfc00917 	ldw	ra,36(sp)
   25ef4:	dc400817 	ldw	r17,32(sp)
   25ef8:	dc000717 	ldw	r16,28(sp)
   25efc:	dec00a04 	addi	sp,sp,40
   25f00:	f800283a 	ret
   25f04:	00bfffc4 	movi	r2,-1
   25f08:	003ff906 	br	25ef0 <__alt_data_end+0xfffe5ef0>

00025f0c <puts>:
   25f0c:	008000f4 	movhi	r2,3
   25f10:	109c2604 	addi	r2,r2,28824
   25f14:	200b883a 	mov	r5,r4
   25f18:	11000017 	ldw	r4,0(r2)
   25f1c:	0025e541 	jmpi	25e54 <_puts_r>

00025f20 <_sbrk_r>:
   25f20:	defffd04 	addi	sp,sp,-12
   25f24:	dc000015 	stw	r16,0(sp)
   25f28:	04000134 	movhi	r16,4
   25f2c:	dc400115 	stw	r17,4(sp)
   25f30:	8424da04 	addi	r16,r16,-27800
   25f34:	2023883a 	mov	r17,r4
   25f38:	2809883a 	mov	r4,r5
   25f3c:	dfc00215 	stw	ra,8(sp)
   25f40:	80000015 	stw	zero,0(r16)
   25f44:	00320040 	call	32004 <sbrk>
   25f48:	00ffffc4 	movi	r3,-1
   25f4c:	10c00526 	beq	r2,r3,25f64 <_sbrk_r+0x44>
   25f50:	dfc00217 	ldw	ra,8(sp)
   25f54:	dc400117 	ldw	r17,4(sp)
   25f58:	dc000017 	ldw	r16,0(sp)
   25f5c:	dec00304 	addi	sp,sp,12
   25f60:	f800283a 	ret
   25f64:	80c00017 	ldw	r3,0(r16)
   25f68:	183ff926 	beq	r3,zero,25f50 <__alt_data_end+0xfffe5f50>
   25f6c:	88c00015 	stw	r3,0(r17)
   25f70:	003ff706 	br	25f50 <__alt_data_end+0xfffe5f50>

00025f74 <strlen>:
   25f74:	208000cc 	andi	r2,r4,3
   25f78:	10002026 	beq	r2,zero,25ffc <strlen+0x88>
   25f7c:	20800007 	ldb	r2,0(r4)
   25f80:	10002026 	beq	r2,zero,26004 <strlen+0x90>
   25f84:	2005883a 	mov	r2,r4
   25f88:	00000206 	br	25f94 <strlen+0x20>
   25f8c:	10c00007 	ldb	r3,0(r2)
   25f90:	18001826 	beq	r3,zero,25ff4 <strlen+0x80>
   25f94:	10800044 	addi	r2,r2,1
   25f98:	10c000cc 	andi	r3,r2,3
   25f9c:	183ffb1e 	bne	r3,zero,25f8c <__alt_data_end+0xfffe5f8c>
   25fa0:	10c00017 	ldw	r3,0(r2)
   25fa4:	01ffbff4 	movhi	r7,65279
   25fa8:	39ffbfc4 	addi	r7,r7,-257
   25fac:	00ca303a 	nor	r5,zero,r3
   25fb0:	01a02074 	movhi	r6,32897
   25fb4:	19c7883a 	add	r3,r3,r7
   25fb8:	31a02004 	addi	r6,r6,-32640
   25fbc:	1946703a 	and	r3,r3,r5
   25fc0:	1986703a 	and	r3,r3,r6
   25fc4:	1800091e 	bne	r3,zero,25fec <strlen+0x78>
   25fc8:	10800104 	addi	r2,r2,4
   25fcc:	10c00017 	ldw	r3,0(r2)
   25fd0:	19cb883a 	add	r5,r3,r7
   25fd4:	00c6303a 	nor	r3,zero,r3
   25fd8:	28c6703a 	and	r3,r5,r3
   25fdc:	1986703a 	and	r3,r3,r6
   25fe0:	183ff926 	beq	r3,zero,25fc8 <__alt_data_end+0xfffe5fc8>
   25fe4:	00000106 	br	25fec <strlen+0x78>
   25fe8:	10800044 	addi	r2,r2,1
   25fec:	10c00007 	ldb	r3,0(r2)
   25ff0:	183ffd1e 	bne	r3,zero,25fe8 <__alt_data_end+0xfffe5fe8>
   25ff4:	1105c83a 	sub	r2,r2,r4
   25ff8:	f800283a 	ret
   25ffc:	2005883a 	mov	r2,r4
   26000:	003fe706 	br	25fa0 <__alt_data_end+0xfffe5fa0>
   26004:	0005883a 	mov	r2,zero
   26008:	f800283a 	ret

0002600c <___vfprintf_internal_r>:
   2600c:	defeb604 	addi	sp,sp,-1320
   26010:	dfc14915 	stw	ra,1316(sp)
   26014:	ddc14715 	stw	r23,1308(sp)
   26018:	dd814615 	stw	r22,1304(sp)
   2601c:	282f883a 	mov	r23,r5
   26020:	202d883a 	mov	r22,r4
   26024:	d9812a15 	stw	r6,1192(sp)
   26028:	d9c12d15 	stw	r7,1204(sp)
   2602c:	df014815 	stw	fp,1312(sp)
   26030:	dd414515 	stw	r21,1300(sp)
   26034:	dd014415 	stw	r20,1296(sp)
   26038:	dcc14315 	stw	r19,1292(sp)
   2603c:	dc814215 	stw	r18,1288(sp)
   26040:	dc414115 	stw	r17,1284(sp)
   26044:	dc014015 	stw	r16,1280(sp)
   26048:	002ab500 	call	2ab50 <_localeconv_r>
   2604c:	10800017 	ldw	r2,0(r2)
   26050:	1009883a 	mov	r4,r2
   26054:	d8813515 	stw	r2,1236(sp)
   26058:	0025f740 	call	25f74 <strlen>
   2605c:	d8813815 	stw	r2,1248(sp)
   26060:	b0000226 	beq	r22,zero,2606c <___vfprintf_internal_r+0x60>
   26064:	b0800e17 	ldw	r2,56(r22)
   26068:	10010426 	beq	r2,zero,2647c <___vfprintf_internal_r+0x470>
   2606c:	b8c0030b 	ldhu	r3,12(r23)
   26070:	1908000c 	andi	r4,r3,8192
   26074:	1805883a 	mov	r2,r3
   26078:	2000071e 	bne	r4,zero,26098 <___vfprintf_internal_r+0x8c>
   2607c:	b9001917 	ldw	r4,100(r23)
   26080:	18880014 	ori	r2,r3,8192
   26084:	00f7ffc4 	movi	r3,-8193
   26088:	20c8703a 	and	r4,r4,r3
   2608c:	b880030d 	sth	r2,12(r23)
   26090:	1007883a 	mov	r3,r2
   26094:	b9001915 	stw	r4,100(r23)
   26098:	1100020c 	andi	r4,r2,8
   2609c:	2000a726 	beq	r4,zero,2633c <___vfprintf_internal_r+0x330>
   260a0:	b9000417 	ldw	r4,16(r23)
   260a4:	2000a526 	beq	r4,zero,2633c <___vfprintf_internal_r+0x330>
   260a8:	1080068c 	andi	r2,r2,26
   260ac:	01000284 	movi	r4,10
   260b0:	1100ab26 	beq	r2,r4,26360 <___vfprintf_internal_r+0x354>
   260b4:	dac10e04 	addi	r11,sp,1080
   260b8:	db010dc4 	addi	r12,sp,1079
   260bc:	d8800404 	addi	r2,sp,16
   260c0:	050000f4 	movhi	r20,3
   260c4:	dac12815 	stw	r11,1184(sp)
   260c8:	5b17c83a 	sub	r11,r11,r12
   260cc:	a5132284 	addi	r20,r20,19594
   260d0:	db012915 	stw	r12,1188(sp)
   260d4:	d8811e15 	stw	r2,1144(sp)
   260d8:	d8012015 	stw	zero,1152(sp)
   260dc:	d8011f15 	stw	zero,1148(sp)
   260e0:	d8013315 	stw	zero,1228(sp)
   260e4:	d8013715 	stw	zero,1244(sp)
   260e8:	d8013915 	stw	zero,1252(sp)
   260ec:	d8013b15 	stw	zero,1260(sp)
   260f0:	d8013a15 	stw	zero,1256(sp)
   260f4:	d8012f15 	stw	zero,1212(sp)
   260f8:	1011883a 	mov	r8,r2
   260fc:	dac13c15 	stw	r11,1264(sp)
   26100:	db012a17 	ldw	r12,1192(sp)
   26104:	60800007 	ldb	r2,0(r12)
   26108:	1000df26 	beq	r2,zero,26488 <___vfprintf_internal_r+0x47c>
   2610c:	00c00944 	movi	r3,37
   26110:	10c0dd26 	beq	r2,r3,26488 <___vfprintf_internal_r+0x47c>
   26114:	6021883a 	mov	r16,r12
   26118:	00000106 	br	26120 <___vfprintf_internal_r+0x114>
   2611c:	10c08426 	beq	r2,r3,26330 <___vfprintf_internal_r+0x324>
   26120:	84000044 	addi	r16,r16,1
   26124:	80800007 	ldb	r2,0(r16)
   26128:	103ffc1e 	bne	r2,zero,2611c <__alt_data_end+0xfffe611c>
   2612c:	dac12a17 	ldw	r11,1192(sp)
   26130:	82e3c83a 	sub	r17,r16,r11
   26134:	88000f26 	beq	r17,zero,26174 <___vfprintf_internal_r+0x168>
   26138:	d8c12017 	ldw	r3,1152(sp)
   2613c:	d8811f17 	ldw	r2,1148(sp)
   26140:	dac12a17 	ldw	r11,1192(sp)
   26144:	1c47883a 	add	r3,r3,r17
   26148:	10800044 	addi	r2,r2,1
   2614c:	d8c12015 	stw	r3,1152(sp)
   26150:	42c00015 	stw	r11,0(r8)
   26154:	44400115 	stw	r17,4(r8)
   26158:	d8811f15 	stw	r2,1148(sp)
   2615c:	00c001c4 	movi	r3,7
   26160:	1880b416 	blt	r3,r2,26434 <___vfprintf_internal_r+0x428>
   26164:	42000204 	addi	r8,r8,8
   26168:	db012f17 	ldw	r12,1212(sp)
   2616c:	6459883a 	add	r12,r12,r17
   26170:	db012f15 	stw	r12,1212(sp)
   26174:	80800007 	ldb	r2,0(r16)
   26178:	1000b526 	beq	r2,zero,26450 <___vfprintf_internal_r+0x444>
   2617c:	80800044 	addi	r2,r16,1
   26180:	84000047 	ldb	r16,1(r16)
   26184:	d8012785 	stb	zero,1182(sp)
   26188:	000d883a 	mov	r6,zero
   2618c:	027fffc4 	movi	r9,-1
   26190:	d8012e15 	stw	zero,1208(sp)
   26194:	0023883a 	mov	r17,zero
   26198:	01001604 	movi	r4,88
   2619c:	01400244 	movi	r5,9
   261a0:	02800a84 	movi	r10,42
   261a4:	01c01b04 	movi	r7,108
   261a8:	10c00044 	addi	r3,r2,1
   261ac:	80bff804 	addi	r2,r16,-32
   261b0:	2082f236 	bltu	r4,r2,26d7c <___vfprintf_internal_r+0xd70>
   261b4:	100490ba 	slli	r2,r2,2
   261b8:	02c000b4 	movhi	r11,2
   261bc:	5ad87304 	addi	r11,r11,25036
   261c0:	12c5883a 	add	r2,r2,r11
   261c4:	10800017 	ldw	r2,0(r2)
   261c8:	1000683a 	jmp	r2
   261cc:	00026bc4 	movi	zero,2479
   261d0:	00026d7c 	xorhi	zero,zero,2485
   261d4:	00026d7c 	xorhi	zero,zero,2485
   261d8:	00026be4 	muli	zero,zero,2479
   261dc:	00026d7c 	xorhi	zero,zero,2485
   261e0:	00026d7c 	xorhi	zero,zero,2485
   261e4:	00026d7c 	xorhi	zero,zero,2485
   261e8:	00026d7c 	xorhi	zero,zero,2485
   261ec:	00026d7c 	xorhi	zero,zero,2485
   261f0:	00026d7c 	xorhi	zero,zero,2485
   261f4:	00026d40 	call	26d4 <__alt_mem_onchip_memory2_0-0x1d92c>
   261f8:	00026d6c 	andhi	zero,zero,2485
   261fc:	00026d7c 	xorhi	zero,zero,2485
   26200:	00026490 	cmplti	zero,zero,2450
   26204:	000264a0 	cmpeqi	zero,zero,2450
   26208:	00026d7c 	xorhi	zero,zero,2485
   2620c:	000264e0 	cmpeqi	zero,zero,2451
   26210:	000269d4 	movui	zero,2471
   26214:	000269d4 	movui	zero,2471
   26218:	000269d4 	movui	zero,2471
   2621c:	000269d4 	movui	zero,2471
   26220:	000269d4 	movui	zero,2471
   26224:	000269d4 	movui	zero,2471
   26228:	000269d4 	movui	zero,2471
   2622c:	000269d4 	movui	zero,2471
   26230:	000269d4 	movui	zero,2471
   26234:	00026d7c 	xorhi	zero,zero,2485
   26238:	00026d7c 	xorhi	zero,zero,2485
   2623c:	00026d7c 	xorhi	zero,zero,2485
   26240:	00026d7c 	xorhi	zero,zero,2485
   26244:	00026d7c 	xorhi	zero,zero,2485
   26248:	00026d7c 	xorhi	zero,zero,2485
   2624c:	00026d7c 	xorhi	zero,zero,2485
   26250:	00026d7c 	xorhi	zero,zero,2485
   26254:	00026d7c 	xorhi	zero,zero,2485
   26258:	00026d7c 	xorhi	zero,zero,2485
   2625c:	00026a08 	cmpgei	zero,zero,2472
   26260:	000264f0 	cmpltui	zero,zero,2451
   26264:	00026d7c 	xorhi	zero,zero,2485
   26268:	000264f0 	cmpltui	zero,zero,2451
   2626c:	00026d7c 	xorhi	zero,zero,2485
   26270:	00026d7c 	xorhi	zero,zero,2485
   26274:	00026d7c 	xorhi	zero,zero,2485
   26278:	00026d7c 	xorhi	zero,zero,2485
   2627c:	00026594 	movui	zero,2454
   26280:	00026d7c 	xorhi	zero,zero,2485
   26284:	00026d7c 	xorhi	zero,zero,2485
   26288:	000265a4 	muli	zero,zero,2454
   2628c:	00026d7c 	xorhi	zero,zero,2485
   26290:	00026d7c 	xorhi	zero,zero,2485
   26294:	00026d7c 	xorhi	zero,zero,2485
   26298:	00026d7c 	xorhi	zero,zero,2485
   2629c:	00026d7c 	xorhi	zero,zero,2485
   262a0:	000269a0 	cmpeqi	zero,zero,2470
   262a4:	00026d7c 	xorhi	zero,zero,2485
   262a8:	00026d7c 	xorhi	zero,zero,2485
   262ac:	00026a50 	cmplti	zero,zero,2473
   262b0:	00026d7c 	xorhi	zero,zero,2485
   262b4:	00026d7c 	xorhi	zero,zero,2485
   262b8:	00026d7c 	xorhi	zero,zero,2485
   262bc:	00026d7c 	xorhi	zero,zero,2485
   262c0:	00026d7c 	xorhi	zero,zero,2485
   262c4:	00026d7c 	xorhi	zero,zero,2485
   262c8:	00026d7c 	xorhi	zero,zero,2485
   262cc:	00026d7c 	xorhi	zero,zero,2485
   262d0:	00026d7c 	xorhi	zero,zero,2485
   262d4:	00026d7c 	xorhi	zero,zero,2485
   262d8:	00026c44 	movi	zero,2481
   262dc:	00026bf4 	movhi	zero,2479
   262e0:	000264f0 	cmpltui	zero,zero,2451
   262e4:	000264f0 	cmpltui	zero,zero,2451
   262e8:	000264f0 	cmpltui	zero,zero,2451
   262ec:	00026c34 	movhi	zero,2480
   262f0:	00026bf4 	movhi	zero,2479
   262f4:	00026d7c 	xorhi	zero,zero,2485
   262f8:	00026d7c 	xorhi	zero,zero,2485
   262fc:	00026b3c 	xorhi	zero,zero,2476
   26300:	00026d7c 	xorhi	zero,zero,2485
   26304:	00026b50 	cmplti	zero,zero,2477
   26308:	00026b84 	movi	zero,2478
   2630c:	00026c84 	movi	zero,2482
   26310:	00026aac 	andhi	zero,zero,2474
   26314:	00026d7c 	xorhi	zero,zero,2485
   26318:	00026ccc 	andi	zero,zero,2483
   2631c:	00026d7c 	xorhi	zero,zero,2485
   26320:	00026abc 	xorhi	zero,zero,2474
   26324:	00026d7c 	xorhi	zero,zero,2485
   26328:	00026d7c 	xorhi	zero,zero,2485
   2632c:	00026afc 	xorhi	zero,zero,2475
   26330:	db012a17 	ldw	r12,1192(sp)
   26334:	8323c83a 	sub	r17,r16,r12
   26338:	003f7e06 	br	26134 <__alt_data_end+0xfffe6134>
   2633c:	b009883a 	mov	r4,r22
   26340:	b80b883a 	mov	r5,r23
   26344:	002802c0 	call	2802c <__swsetup_r>
   26348:	10002d1e 	bne	r2,zero,26400 <___vfprintf_internal_r+0x3f4>
   2634c:	b8c0030b 	ldhu	r3,12(r23)
   26350:	01000284 	movi	r4,10
   26354:	1805883a 	mov	r2,r3
   26358:	1080068c 	andi	r2,r2,26
   2635c:	113f551e 	bne	r2,r4,260b4 <__alt_data_end+0xfffe60b4>
   26360:	b880038b 	ldhu	r2,14(r23)
   26364:	113fffcc 	andi	r4,r2,65535
   26368:	2120001c 	xori	r4,r4,32768
   2636c:	21200004 	addi	r4,r4,-32768
   26370:	203f5016 	blt	r4,zero,260b4 <__alt_data_end+0xfffe60b4>
   26374:	bac01917 	ldw	r11,100(r23)
   26378:	ba800717 	ldw	r10,28(r23)
   2637c:	ba400917 	ldw	r9,36(r23)
   26380:	d9812a17 	ldw	r6,1192(sp)
   26384:	d9c12d17 	ldw	r7,1204(sp)
   26388:	02010004 	movi	r8,1024
   2638c:	18ffff4c 	andi	r3,r3,65533
   26390:	d881078d 	sth	r2,1054(sp)
   26394:	b009883a 	mov	r4,r22
   26398:	d8800404 	addi	r2,sp,16
   2639c:	d9410404 	addi	r5,sp,1040
   263a0:	d8c1070d 	sth	r3,1052(sp)
   263a4:	dac11d15 	stw	r11,1140(sp)
   263a8:	da810b15 	stw	r10,1068(sp)
   263ac:	da410d15 	stw	r9,1076(sp)
   263b0:	d8810415 	stw	r2,1040(sp)
   263b4:	d8810815 	stw	r2,1056(sp)
   263b8:	da010615 	stw	r8,1048(sp)
   263bc:	da010915 	stw	r8,1060(sp)
   263c0:	d8010a15 	stw	zero,1064(sp)
   263c4:	002600c0 	call	2600c <___vfprintf_internal_r>
   263c8:	1021883a 	mov	r16,r2
   263cc:	10000416 	blt	r2,zero,263e0 <___vfprintf_internal_r+0x3d4>
   263d0:	b009883a 	mov	r4,r22
   263d4:	d9410404 	addi	r5,sp,1040
   263d8:	0029a840 	call	29a84 <_fflush_r>
   263dc:	1006ee1e 	bne	r2,zero,27f98 <___vfprintf_internal_r+0x1f8c>
   263e0:	d881070b 	ldhu	r2,1052(sp)
   263e4:	1080100c 	andi	r2,r2,64
   263e8:	10000326 	beq	r2,zero,263f8 <___vfprintf_internal_r+0x3ec>
   263ec:	b880030b 	ldhu	r2,12(r23)
   263f0:	10801014 	ori	r2,r2,64
   263f4:	b880030d 	sth	r2,12(r23)
   263f8:	8005883a 	mov	r2,r16
   263fc:	00000106 	br	26404 <___vfprintf_internal_r+0x3f8>
   26400:	00bfffc4 	movi	r2,-1
   26404:	dfc14917 	ldw	ra,1316(sp)
   26408:	df014817 	ldw	fp,1312(sp)
   2640c:	ddc14717 	ldw	r23,1308(sp)
   26410:	dd814617 	ldw	r22,1304(sp)
   26414:	dd414517 	ldw	r21,1300(sp)
   26418:	dd014417 	ldw	r20,1296(sp)
   2641c:	dcc14317 	ldw	r19,1292(sp)
   26420:	dc814217 	ldw	r18,1288(sp)
   26424:	dc414117 	ldw	r17,1284(sp)
   26428:	dc014017 	ldw	r16,1280(sp)
   2642c:	dec14a04 	addi	sp,sp,1320
   26430:	f800283a 	ret
   26434:	b009883a 	mov	r4,r22
   26438:	b80b883a 	mov	r5,r23
   2643c:	d9811e04 	addi	r6,sp,1144
   26440:	002ca9c0 	call	2ca9c <__sprint_r>
   26444:	1000081e 	bne	r2,zero,26468 <___vfprintf_internal_r+0x45c>
   26448:	da000404 	addi	r8,sp,16
   2644c:	003f4606 	br	26168 <__alt_data_end+0xfffe6168>
   26450:	d8812017 	ldw	r2,1152(sp)
   26454:	10000426 	beq	r2,zero,26468 <___vfprintf_internal_r+0x45c>
   26458:	b009883a 	mov	r4,r22
   2645c:	b80b883a 	mov	r5,r23
   26460:	d9811e04 	addi	r6,sp,1144
   26464:	002ca9c0 	call	2ca9c <__sprint_r>
   26468:	b880030b 	ldhu	r2,12(r23)
   2646c:	1080100c 	andi	r2,r2,64
   26470:	103fe31e 	bne	r2,zero,26400 <__alt_data_end+0xfffe6400>
   26474:	d8812f17 	ldw	r2,1212(sp)
   26478:	003fe206 	br	26404 <__alt_data_end+0xfffe6404>
   2647c:	b009883a 	mov	r4,r22
   26480:	002a02c0 	call	2a02c <__sinit>
   26484:	003ef906 	br	2606c <__alt_data_end+0xfffe606c>
   26488:	dc012a17 	ldw	r16,1192(sp)
   2648c:	003f3906 	br	26174 <__alt_data_end+0xfffe6174>
   26490:	1805883a 	mov	r2,r3
   26494:	8c400114 	ori	r17,r17,4
   26498:	1c000007 	ldb	r16,0(r3)
   2649c:	003f4206 	br	261a8 <__alt_data_end+0xfffe61a8>
   264a0:	1c000007 	ldb	r16,0(r3)
   264a4:	18800044 	addi	r2,r3,1
   264a8:	8286b326 	beq	r16,r10,27f78 <___vfprintf_internal_r+0x1f6c>
   264ac:	82fff404 	addi	r11,r16,-48
   264b0:	1007883a 	mov	r3,r2
   264b4:	0013883a 	mov	r9,zero
   264b8:	2aff3c36 	bltu	r5,r11,261ac <__alt_data_end+0xfffe61ac>
   264bc:	1c000007 	ldb	r16,0(r3)
   264c0:	4a4002a4 	muli	r9,r9,10
   264c4:	18c00044 	addi	r3,r3,1
   264c8:	5a53883a 	add	r9,r11,r9
   264cc:	82fff404 	addi	r11,r16,-48
   264d0:	2afffa2e 	bgeu	r5,r11,264bc <__alt_data_end+0xfffe64bc>
   264d4:	483f350e 	bge	r9,zero,261ac <__alt_data_end+0xfffe61ac>
   264d8:	027fffc4 	movi	r9,-1
   264dc:	003f3306 	br	261ac <__alt_data_end+0xfffe61ac>
   264e0:	8c402014 	ori	r17,r17,128
   264e4:	1805883a 	mov	r2,r3
   264e8:	1c000007 	ldb	r16,0(r3)
   264ec:	003f2e06 	br	261a8 <__alt_data_end+0xfffe61a8>
   264f0:	db012d17 	ldw	r12,1204(sp)
   264f4:	dac12d17 	ldw	r11,1204(sp)
   264f8:	d8c12a15 	stw	r3,1192(sp)
   264fc:	63000017 	ldw	r12,0(r12)
   26500:	5ac00117 	ldw	r11,4(r11)
   26504:	d9812785 	stb	r6,1182(sp)
   26508:	6009883a 	mov	r4,r12
   2650c:	580b883a 	mov	r5,r11
   26510:	db013715 	stw	r12,1244(sp)
   26514:	da013f15 	stw	r8,1276(sp)
   26518:	da413e15 	stw	r9,1272(sp)
   2651c:	dac13915 	stw	r11,1252(sp)
   26520:	002c74c0 	call	2c74c <__fpclassifyd>
   26524:	db012d17 	ldw	r12,1204(sp)
   26528:	04800044 	movi	r18,1
   2652c:	da013f17 	ldw	r8,1276(sp)
   26530:	64c00204 	addi	r19,r12,8
   26534:	da413e17 	ldw	r9,1272(sp)
   26538:	d9013717 	ldw	r4,1244(sp)
   2653c:	d9413917 	ldw	r5,1252(sp)
   26540:	1484581e 	bne	r2,r18,276a4 <___vfprintf_internal_r+0x1698>
   26544:	000d883a 	mov	r6,zero
   26548:	000f883a 	mov	r7,zero
   2654c:	00305880 	call	30588 <__ledf2>
   26550:	da013f17 	ldw	r8,1276(sp)
   26554:	1005ef16 	blt	r2,zero,27d14 <___vfprintf_internal_r+0x1d08>
   26558:	dd412783 	ldbu	r21,1182(sp)
   2655c:	008011c4 	movi	r2,71
   26560:	14053b0e 	bge	r2,r16,27a50 <___vfprintf_internal_r+0x1a44>
   26564:	00c000f4 	movhi	r3,3
   26568:	18d31304 	addi	r3,r3,19532
   2656c:	d8c13115 	stw	r3,1220(sp)
   26570:	02c000c4 	movi	r11,3
   26574:	00bfdfc4 	movi	r2,-129
   26578:	dac12b15 	stw	r11,1196(sp)
   2657c:	88a2703a 	and	r17,r17,r2
   26580:	dcc12d15 	stw	r19,1204(sp)
   26584:	5825883a 	mov	r18,r11
   26588:	d8013215 	stw	zero,1224(sp)
   2658c:	d8013415 	stw	zero,1232(sp)
   26590:	00003206 	br	2665c <___vfprintf_internal_r+0x650>
   26594:	8c400214 	ori	r17,r17,8
   26598:	1805883a 	mov	r2,r3
   2659c:	1c000007 	ldb	r16,0(r3)
   265a0:	003f0106 	br	261a8 <__alt_data_end+0xfffe61a8>
   265a4:	8c400414 	ori	r17,r17,16
   265a8:	d8c12a15 	stw	r3,1192(sp)
   265ac:	88c0080c 	andi	r3,r17,32
   265b0:	d8812d17 	ldw	r2,1204(sp)
   265b4:	18017726 	beq	r3,zero,26b94 <___vfprintf_internal_r+0xb88>
   265b8:	db012d17 	ldw	r12,1204(sp)
   265bc:	14c00017 	ldw	r19,0(r2)
   265c0:	17000117 	ldw	fp,4(r2)
   265c4:	63000204 	addi	r12,r12,8
   265c8:	db012d15 	stw	r12,1204(sp)
   265cc:	0005883a 	mov	r2,zero
   265d0:	9f06b03a 	or	r3,r19,fp
   265d4:	d8012785 	stb	zero,1182(sp)
   265d8:	da413215 	stw	r9,1224(sp)
   265dc:	002b883a 	mov	r21,zero
   265e0:	48000216 	blt	r9,zero,265ec <___vfprintf_internal_r+0x5e0>
   265e4:	013fdfc4 	movi	r4,-129
   265e8:	8922703a 	and	r17,r17,r4
   265ec:	1801ed1e 	bne	r3,zero,26da4 <___vfprintf_internal_r+0xd98>
   265f0:	4802e026 	beq	r9,zero,27174 <___vfprintf_internal_r+0x1168>
   265f4:	10803fcc 	andi	r2,r2,255
   265f8:	00c00044 	movi	r3,1
   265fc:	10c20f26 	beq	r2,r3,26e3c <___vfprintf_internal_r+0xe30>
   26600:	00c00084 	movi	r3,2
   26604:	10c2fd26 	beq	r2,r3,271fc <___vfprintf_internal_r+0x11f0>
   26608:	d8c10e04 	addi	r3,sp,1080
   2660c:	9808d0fa 	srli	r4,r19,3
   26610:	e00a977a 	slli	r5,fp,29
   26614:	e038d0fa 	srli	fp,fp,3
   26618:	9cc001cc 	andi	r19,r19,7
   2661c:	98800c04 	addi	r2,r19,48
   26620:	18ffffc4 	addi	r3,r3,-1
   26624:	2926b03a 	or	r19,r5,r4
   26628:	18800005 	stb	r2,0(r3)
   2662c:	9f08b03a 	or	r4,r19,fp
   26630:	203ff61e 	bne	r4,zero,2660c <__alt_data_end+0xfffe660c>
   26634:	8900004c 	andi	r4,r17,1
   26638:	d8c13115 	stw	r3,1220(sp)
   2663c:	2003791e 	bne	r4,zero,27424 <___vfprintf_internal_r+0x1418>
   26640:	dac12817 	ldw	r11,1184(sp)
   26644:	58e5c83a 	sub	r18,r11,r3
   26648:	9005883a 	mov	r2,r18
   2664c:	9240010e 	bge	r18,r9,26654 <___vfprintf_internal_r+0x648>
   26650:	4805883a 	mov	r2,r9
   26654:	d8812b15 	stw	r2,1196(sp)
   26658:	d8013415 	stw	zero,1232(sp)
   2665c:	a8803fcc 	andi	r2,r21,255
   26660:	1080201c 	xori	r2,r2,128
   26664:	10bfe004 	addi	r2,r2,-128
   26668:	10000326 	beq	r2,zero,26678 <___vfprintf_internal_r+0x66c>
   2666c:	db012b17 	ldw	r12,1196(sp)
   26670:	63000044 	addi	r12,r12,1
   26674:	db012b15 	stw	r12,1196(sp)
   26678:	88c0008c 	andi	r3,r17,2
   2667c:	d8c12c15 	stw	r3,1200(sp)
   26680:	18000326 	beq	r3,zero,26690 <___vfprintf_internal_r+0x684>
   26684:	dac12b17 	ldw	r11,1196(sp)
   26688:	5ac00084 	addi	r11,r11,2
   2668c:	dac12b15 	stw	r11,1196(sp)
   26690:	8b00210c 	andi	r12,r17,132
   26694:	db013015 	stw	r12,1216(sp)
   26698:	6001c01e 	bne	r12,zero,26d9c <___vfprintf_internal_r+0xd90>
   2669c:	dac12e17 	ldw	r11,1208(sp)
   266a0:	db012b17 	ldw	r12,1196(sp)
   266a4:	5b39c83a 	sub	fp,r11,r12
   266a8:	0701bc0e 	bge	zero,fp,26d9c <___vfprintf_internal_r+0xd90>
   266ac:	02400404 	movi	r9,16
   266b0:	d8c12017 	ldw	r3,1152(sp)
   266b4:	d8811f17 	ldw	r2,1148(sp)
   266b8:	4f05220e 	bge	r9,fp,27b44 <___vfprintf_internal_r+0x1b38>
   266bc:	014000f4 	movhi	r5,3
   266c0:	29532684 	addi	r5,r5,19610
   266c4:	d9413615 	stw	r5,1240(sp)
   266c8:	482b883a 	mov	r21,r9
   266cc:	04c001c4 	movi	r19,7
   266d0:	00000306 	br	266e0 <___vfprintf_internal_r+0x6d4>
   266d4:	e73ffc04 	addi	fp,fp,-16
   266d8:	42000204 	addi	r8,r8,8
   266dc:	af00130e 	bge	r21,fp,2672c <___vfprintf_internal_r+0x720>
   266e0:	02c000f4 	movhi	r11,3
   266e4:	18c00404 	addi	r3,r3,16
   266e8:	10800044 	addi	r2,r2,1
   266ec:	5ad32684 	addi	r11,r11,19610
   266f0:	42c00015 	stw	r11,0(r8)
   266f4:	45400115 	stw	r21,4(r8)
   266f8:	d8c12015 	stw	r3,1152(sp)
   266fc:	d8811f15 	stw	r2,1148(sp)
   26700:	98bff40e 	bge	r19,r2,266d4 <__alt_data_end+0xfffe66d4>
   26704:	b009883a 	mov	r4,r22
   26708:	b80b883a 	mov	r5,r23
   2670c:	d9811e04 	addi	r6,sp,1144
   26710:	002ca9c0 	call	2ca9c <__sprint_r>
   26714:	103f541e 	bne	r2,zero,26468 <__alt_data_end+0xfffe6468>
   26718:	e73ffc04 	addi	fp,fp,-16
   2671c:	d8c12017 	ldw	r3,1152(sp)
   26720:	d8811f17 	ldw	r2,1148(sp)
   26724:	da000404 	addi	r8,sp,16
   26728:	af3fed16 	blt	r21,fp,266e0 <__alt_data_end+0xfffe66e0>
   2672c:	db013617 	ldw	r12,1240(sp)
   26730:	e0c7883a 	add	r3,fp,r3
   26734:	10800044 	addi	r2,r2,1
   26738:	43000015 	stw	r12,0(r8)
   2673c:	47000115 	stw	fp,4(r8)
   26740:	d8c12015 	stw	r3,1152(sp)
   26744:	d8811f15 	stw	r2,1148(sp)
   26748:	010001c4 	movi	r4,7
   2674c:	2082f416 	blt	r4,r2,27320 <___vfprintf_internal_r+0x1314>
   26750:	d8812787 	ldb	r2,1182(sp)
   26754:	42000204 	addi	r8,r8,8
   26758:	10000c26 	beq	r2,zero,2678c <___vfprintf_internal_r+0x780>
   2675c:	d8811f17 	ldw	r2,1148(sp)
   26760:	d9012784 	addi	r4,sp,1182
   26764:	18c00044 	addi	r3,r3,1
   26768:	10800044 	addi	r2,r2,1
   2676c:	41000015 	stw	r4,0(r8)
   26770:	01000044 	movi	r4,1
   26774:	41000115 	stw	r4,4(r8)
   26778:	d8c12015 	stw	r3,1152(sp)
   2677c:	d8811f15 	stw	r2,1148(sp)
   26780:	010001c4 	movi	r4,7
   26784:	20828d16 	blt	r4,r2,271bc <___vfprintf_internal_r+0x11b0>
   26788:	42000204 	addi	r8,r8,8
   2678c:	dac12c17 	ldw	r11,1200(sp)
   26790:	58000c26 	beq	r11,zero,267c4 <___vfprintf_internal_r+0x7b8>
   26794:	d8811f17 	ldw	r2,1148(sp)
   26798:	d9012704 	addi	r4,sp,1180
   2679c:	18c00084 	addi	r3,r3,2
   267a0:	10800044 	addi	r2,r2,1
   267a4:	41000015 	stw	r4,0(r8)
   267a8:	01000084 	movi	r4,2
   267ac:	41000115 	stw	r4,4(r8)
   267b0:	d8c12015 	stw	r3,1152(sp)
   267b4:	d8811f15 	stw	r2,1148(sp)
   267b8:	010001c4 	movi	r4,7
   267bc:	20828716 	blt	r4,r2,271dc <___vfprintf_internal_r+0x11d0>
   267c0:	42000204 	addi	r8,r8,8
   267c4:	db013017 	ldw	r12,1216(sp)
   267c8:	00802004 	movi	r2,128
   267cc:	6081e926 	beq	r12,r2,26f74 <___vfprintf_internal_r+0xf68>
   267d0:	db013217 	ldw	r12,1224(sp)
   267d4:	64abc83a 	sub	r21,r12,r18
   267d8:	0540260e 	bge	zero,r21,26874 <___vfprintf_internal_r+0x868>
   267dc:	07000404 	movi	fp,16
   267e0:	d8811f17 	ldw	r2,1148(sp)
   267e4:	e5443d0e 	bge	fp,r21,278dc <___vfprintf_internal_r+0x18d0>
   267e8:	014000f4 	movhi	r5,3
   267ec:	29532284 	addi	r5,r5,19594
   267f0:	d9412c15 	stw	r5,1200(sp)
   267f4:	04c001c4 	movi	r19,7
   267f8:	00000306 	br	26808 <___vfprintf_internal_r+0x7fc>
   267fc:	ad7ffc04 	addi	r21,r21,-16
   26800:	42000204 	addi	r8,r8,8
   26804:	e540110e 	bge	fp,r21,2684c <___vfprintf_internal_r+0x840>
   26808:	18c00404 	addi	r3,r3,16
   2680c:	10800044 	addi	r2,r2,1
   26810:	45000015 	stw	r20,0(r8)
   26814:	47000115 	stw	fp,4(r8)
   26818:	d8c12015 	stw	r3,1152(sp)
   2681c:	d8811f15 	stw	r2,1148(sp)
   26820:	98bff60e 	bge	r19,r2,267fc <__alt_data_end+0xfffe67fc>
   26824:	b009883a 	mov	r4,r22
   26828:	b80b883a 	mov	r5,r23
   2682c:	d9811e04 	addi	r6,sp,1144
   26830:	002ca9c0 	call	2ca9c <__sprint_r>
   26834:	103f0c1e 	bne	r2,zero,26468 <__alt_data_end+0xfffe6468>
   26838:	ad7ffc04 	addi	r21,r21,-16
   2683c:	d8c12017 	ldw	r3,1152(sp)
   26840:	d8811f17 	ldw	r2,1148(sp)
   26844:	da000404 	addi	r8,sp,16
   26848:	e57fef16 	blt	fp,r21,26808 <__alt_data_end+0xfffe6808>
   2684c:	dac12c17 	ldw	r11,1200(sp)
   26850:	1d47883a 	add	r3,r3,r21
   26854:	10800044 	addi	r2,r2,1
   26858:	42c00015 	stw	r11,0(r8)
   2685c:	45400115 	stw	r21,4(r8)
   26860:	d8c12015 	stw	r3,1152(sp)
   26864:	d8811f15 	stw	r2,1148(sp)
   26868:	010001c4 	movi	r4,7
   2686c:	20824b16 	blt	r4,r2,2719c <___vfprintf_internal_r+0x1190>
   26870:	42000204 	addi	r8,r8,8
   26874:	8880400c 	andi	r2,r17,256
   26878:	1001761e 	bne	r2,zero,26e54 <___vfprintf_internal_r+0xe48>
   2687c:	d8811f17 	ldw	r2,1148(sp)
   26880:	db013117 	ldw	r12,1220(sp)
   26884:	1c87883a 	add	r3,r3,r18
   26888:	10800044 	addi	r2,r2,1
   2688c:	43000015 	stw	r12,0(r8)
   26890:	44800115 	stw	r18,4(r8)
   26894:	d8c12015 	stw	r3,1152(sp)
   26898:	d8811f15 	stw	r2,1148(sp)
   2689c:	010001c4 	movi	r4,7
   268a0:	20822616 	blt	r4,r2,2713c <___vfprintf_internal_r+0x1130>
   268a4:	42000204 	addi	r8,r8,8
   268a8:	8c40010c 	andi	r17,r17,4
   268ac:	88003126 	beq	r17,zero,26974 <___vfprintf_internal_r+0x968>
   268b0:	db012e17 	ldw	r12,1208(sp)
   268b4:	dac12b17 	ldw	r11,1196(sp)
   268b8:	62e1c83a 	sub	r16,r12,r11
   268bc:	04002d0e 	bge	zero,r16,26974 <___vfprintf_internal_r+0x968>
   268c0:	04400404 	movi	r17,16
   268c4:	d8811f17 	ldw	r2,1148(sp)
   268c8:	8c04df0e 	bge	r17,r16,27c48 <___vfprintf_internal_r+0x1c3c>
   268cc:	010000f4 	movhi	r4,3
   268d0:	21132684 	addi	r4,r4,19610
   268d4:	d9013615 	stw	r4,1240(sp)
   268d8:	048001c4 	movi	r18,7
   268dc:	00000306 	br	268ec <___vfprintf_internal_r+0x8e0>
   268e0:	843ffc04 	addi	r16,r16,-16
   268e4:	42000204 	addi	r8,r8,8
   268e8:	8c00130e 	bge	r17,r16,26938 <___vfprintf_internal_r+0x92c>
   268ec:	014000f4 	movhi	r5,3
   268f0:	18c00404 	addi	r3,r3,16
   268f4:	10800044 	addi	r2,r2,1
   268f8:	29532684 	addi	r5,r5,19610
   268fc:	41400015 	stw	r5,0(r8)
   26900:	44400115 	stw	r17,4(r8)
   26904:	d8c12015 	stw	r3,1152(sp)
   26908:	d8811f15 	stw	r2,1148(sp)
   2690c:	90bff40e 	bge	r18,r2,268e0 <__alt_data_end+0xfffe68e0>
   26910:	b009883a 	mov	r4,r22
   26914:	b80b883a 	mov	r5,r23
   26918:	d9811e04 	addi	r6,sp,1144
   2691c:	002ca9c0 	call	2ca9c <__sprint_r>
   26920:	103ed11e 	bne	r2,zero,26468 <__alt_data_end+0xfffe6468>
   26924:	843ffc04 	addi	r16,r16,-16
   26928:	d8c12017 	ldw	r3,1152(sp)
   2692c:	d8811f17 	ldw	r2,1148(sp)
   26930:	da000404 	addi	r8,sp,16
   26934:	8c3fed16 	blt	r17,r16,268ec <__alt_data_end+0xfffe68ec>
   26938:	dac13617 	ldw	r11,1240(sp)
   2693c:	1c07883a 	add	r3,r3,r16
   26940:	10800044 	addi	r2,r2,1
   26944:	42c00015 	stw	r11,0(r8)
   26948:	44000115 	stw	r16,4(r8)
   2694c:	d8c12015 	stw	r3,1152(sp)
   26950:	d8811f15 	stw	r2,1148(sp)
   26954:	010001c4 	movi	r4,7
   26958:	2080060e 	bge	r4,r2,26974 <___vfprintf_internal_r+0x968>
   2695c:	b009883a 	mov	r4,r22
   26960:	b80b883a 	mov	r5,r23
   26964:	d9811e04 	addi	r6,sp,1144
   26968:	002ca9c0 	call	2ca9c <__sprint_r>
   2696c:	103ebe1e 	bne	r2,zero,26468 <__alt_data_end+0xfffe6468>
   26970:	d8c12017 	ldw	r3,1152(sp)
   26974:	d8812b17 	ldw	r2,1196(sp)
   26978:	db012e17 	ldw	r12,1208(sp)
   2697c:	1300010e 	bge	r2,r12,26984 <___vfprintf_internal_r+0x978>
   26980:	6005883a 	mov	r2,r12
   26984:	dac12f17 	ldw	r11,1212(sp)
   26988:	5897883a 	add	r11,r11,r2
   2698c:	dac12f15 	stw	r11,1212(sp)
   26990:	1801f21e 	bne	r3,zero,2715c <___vfprintf_internal_r+0x1150>
   26994:	d8011f15 	stw	zero,1148(sp)
   26998:	da000404 	addi	r8,sp,16
   2699c:	003dd806 	br	26100 <__alt_data_end+0xfffe6100>
   269a0:	8c400414 	ori	r17,r17,16
   269a4:	d8c12a15 	stw	r3,1192(sp)
   269a8:	88c0080c 	andi	r3,r17,32
   269ac:	d8812d17 	ldw	r2,1204(sp)
   269b0:	18004626 	beq	r3,zero,26acc <___vfprintf_internal_r+0xac0>
   269b4:	dac12d17 	ldw	r11,1204(sp)
   269b8:	14c00017 	ldw	r19,0(r2)
   269bc:	17000117 	ldw	fp,4(r2)
   269c0:	5ac00204 	addi	r11,r11,8
   269c4:	dac12d15 	stw	r11,1204(sp)
   269c8:	00800044 	movi	r2,1
   269cc:	9f06b03a 	or	r3,r19,fp
   269d0:	003f0006 	br	265d4 <__alt_data_end+0xfffe65d4>
   269d4:	1805883a 	mov	r2,r3
   269d8:	d8012e15 	stw	zero,1208(sp)
   269dc:	82fff404 	addi	r11,r16,-48
   269e0:	0019883a 	mov	r12,zero
   269e4:	14000007 	ldb	r16,0(r2)
   269e8:	630002a4 	muli	r12,r12,10
   269ec:	18c00044 	addi	r3,r3,1
   269f0:	1805883a 	mov	r2,r3
   269f4:	62d9883a 	add	r12,r12,r11
   269f8:	82fff404 	addi	r11,r16,-48
   269fc:	2afff92e 	bgeu	r5,r11,269e4 <__alt_data_end+0xfffe69e4>
   26a00:	db012e15 	stw	r12,1208(sp)
   26a04:	003de906 	br	261ac <__alt_data_end+0xfffe61ac>
   26a08:	8c400414 	ori	r17,r17,16
   26a0c:	d8c12a15 	stw	r3,1192(sp)
   26a10:	d9812785 	stb	r6,1182(sp)
   26a14:	8880080c 	andi	r2,r17,32
   26a18:	d8c12d17 	ldw	r3,1204(sp)
   26a1c:	10007a26 	beq	r2,zero,26c08 <___vfprintf_internal_r+0xbfc>
   26a20:	db012d17 	ldw	r12,1204(sp)
   26a24:	18800117 	ldw	r2,4(r3)
   26a28:	1cc00017 	ldw	r19,0(r3)
   26a2c:	63000204 	addi	r12,r12,8
   26a30:	db012d15 	stw	r12,1204(sp)
   26a34:	1039883a 	mov	fp,r2
   26a38:	10031016 	blt	r2,zero,2767c <___vfprintf_internal_r+0x1670>
   26a3c:	dd412783 	ldbu	r21,1182(sp)
   26a40:	da413215 	stw	r9,1224(sp)
   26a44:	00800044 	movi	r2,1
   26a48:	9f06b03a 	or	r3,r19,fp
   26a4c:	003ee406 	br	265e0 <__alt_data_end+0xfffe65e0>
   26a50:	030000f4 	movhi	r12,3
   26a54:	63131604 	addi	r12,r12,19544
   26a58:	d8c12a15 	stw	r3,1192(sp)
   26a5c:	d9812785 	stb	r6,1182(sp)
   26a60:	db013b15 	stw	r12,1260(sp)
   26a64:	88c0080c 	andi	r3,r17,32
   26a68:	d8812d17 	ldw	r2,1204(sp)
   26a6c:	18002b26 	beq	r3,zero,26b1c <___vfprintf_internal_r+0xb10>
   26a70:	dac12d17 	ldw	r11,1204(sp)
   26a74:	14c00017 	ldw	r19,0(r2)
   26a78:	17000117 	ldw	fp,4(r2)
   26a7c:	5ac00204 	addi	r11,r11,8
   26a80:	dac12d15 	stw	r11,1204(sp)
   26a84:	8880004c 	andi	r2,r17,1
   26a88:	10025b26 	beq	r2,zero,273f8 <___vfprintf_internal_r+0x13ec>
   26a8c:	9f06b03a 	or	r3,r19,fp
   26a90:	18037026 	beq	r3,zero,27854 <___vfprintf_internal_r+0x1848>
   26a94:	00800c04 	movi	r2,48
   26a98:	d8812705 	stb	r2,1180(sp)
   26a9c:	dc012745 	stb	r16,1181(sp)
   26aa0:	8c400094 	ori	r17,r17,2
   26aa4:	00800084 	movi	r2,2
   26aa8:	003eca06 	br	265d4 <__alt_data_end+0xfffe65d4>
   26aac:	8c400814 	ori	r17,r17,32
   26ab0:	1805883a 	mov	r2,r3
   26ab4:	1c000007 	ldb	r16,0(r3)
   26ab8:	003dbb06 	br	261a8 <__alt_data_end+0xfffe61a8>
   26abc:	d8c12a15 	stw	r3,1192(sp)
   26ac0:	88c0080c 	andi	r3,r17,32
   26ac4:	d8812d17 	ldw	r2,1204(sp)
   26ac8:	183fba1e 	bne	r3,zero,269b4 <__alt_data_end+0xfffe69b4>
   26acc:	88c0040c 	andi	r3,r17,16
   26ad0:	18024c1e 	bne	r3,zero,27404 <___vfprintf_internal_r+0x13f8>
   26ad4:	88c0100c 	andi	r3,r17,64
   26ad8:	18024a26 	beq	r3,zero,27404 <___vfprintf_internal_r+0x13f8>
   26adc:	dac12d17 	ldw	r11,1204(sp)
   26ae0:	14c0000b 	ldhu	r19,0(r2)
   26ae4:	0039883a 	mov	fp,zero
   26ae8:	5ac00104 	addi	r11,r11,4
   26aec:	dac12d15 	stw	r11,1204(sp)
   26af0:	00800044 	movi	r2,1
   26af4:	9807883a 	mov	r3,r19
   26af8:	003eb606 	br	265d4 <__alt_data_end+0xfffe65d4>
   26afc:	008000f4 	movhi	r2,3
   26b00:	10931b04 	addi	r2,r2,19564
   26b04:	d8c12a15 	stw	r3,1192(sp)
   26b08:	d8813b15 	stw	r2,1260(sp)
   26b0c:	d9812785 	stb	r6,1182(sp)
   26b10:	88c0080c 	andi	r3,r17,32
   26b14:	d8812d17 	ldw	r2,1204(sp)
   26b18:	183fd51e 	bne	r3,zero,26a70 <__alt_data_end+0xfffe6a70>
   26b1c:	88c0040c 	andi	r3,r17,16
   26b20:	18034126 	beq	r3,zero,27828 <___vfprintf_internal_r+0x181c>
   26b24:	db012d17 	ldw	r12,1204(sp)
   26b28:	14c00017 	ldw	r19,0(r2)
   26b2c:	0039883a 	mov	fp,zero
   26b30:	63000104 	addi	r12,r12,4
   26b34:	db012d15 	stw	r12,1204(sp)
   26b38:	003fd206 	br	26a84 <__alt_data_end+0xfffe6a84>
   26b3c:	1c000007 	ldb	r16,0(r3)
   26b40:	81c3d626 	beq	r16,r7,27a9c <___vfprintf_internal_r+0x1a90>
   26b44:	8c400414 	ori	r17,r17,16
   26b48:	1805883a 	mov	r2,r3
   26b4c:	003d9606 	br	261a8 <__alt_data_end+0xfffe61a8>
   26b50:	d8c12a15 	stw	r3,1192(sp)
   26b54:	d9812785 	stb	r6,1182(sp)
   26b58:	8880080c 	andi	r2,r17,32
   26b5c:	10033f26 	beq	r2,zero,2785c <___vfprintf_internal_r+0x1850>
   26b60:	db012d17 	ldw	r12,1204(sp)
   26b64:	dac12f17 	ldw	r11,1212(sp)
   26b68:	60800017 	ldw	r2,0(r12)
   26b6c:	5807d7fa 	srai	r3,r11,31
   26b70:	63000104 	addi	r12,r12,4
   26b74:	db012d15 	stw	r12,1204(sp)
   26b78:	12c00015 	stw	r11,0(r2)
   26b7c:	10c00115 	stw	r3,4(r2)
   26b80:	003d5f06 	br	26100 <__alt_data_end+0xfffe6100>
   26b84:	d8c12a15 	stw	r3,1192(sp)
   26b88:	88c0080c 	andi	r3,r17,32
   26b8c:	d8812d17 	ldw	r2,1204(sp)
   26b90:	183e891e 	bne	r3,zero,265b8 <__alt_data_end+0xfffe65b8>
   26b94:	88c0040c 	andi	r3,r17,16
   26b98:	1801ea1e 	bne	r3,zero,27344 <___vfprintf_internal_r+0x1338>
   26b9c:	88c0100c 	andi	r3,r17,64
   26ba0:	1801e826 	beq	r3,zero,27344 <___vfprintf_internal_r+0x1338>
   26ba4:	db012d17 	ldw	r12,1204(sp)
   26ba8:	14c0000b 	ldhu	r19,0(r2)
   26bac:	0039883a 	mov	fp,zero
   26bb0:	63000104 	addi	r12,r12,4
   26bb4:	db012d15 	stw	r12,1204(sp)
   26bb8:	0005883a 	mov	r2,zero
   26bbc:	9807883a 	mov	r3,r19
   26bc0:	003e8406 	br	265d4 <__alt_data_end+0xfffe65d4>
   26bc4:	30803fcc 	andi	r2,r6,255
   26bc8:	1080201c 	xori	r2,r2,128
   26bcc:	10bfe004 	addi	r2,r2,-128
   26bd0:	10031d1e 	bne	r2,zero,27848 <___vfprintf_internal_r+0x183c>
   26bd4:	1805883a 	mov	r2,r3
   26bd8:	01800804 	movi	r6,32
   26bdc:	1c000007 	ldb	r16,0(r3)
   26be0:	003d7106 	br	261a8 <__alt_data_end+0xfffe61a8>
   26be4:	8c400054 	ori	r17,r17,1
   26be8:	1805883a 	mov	r2,r3
   26bec:	1c000007 	ldb	r16,0(r3)
   26bf0:	003d6d06 	br	261a8 <__alt_data_end+0xfffe61a8>
   26bf4:	d8c12a15 	stw	r3,1192(sp)
   26bf8:	d9812785 	stb	r6,1182(sp)
   26bfc:	8880080c 	andi	r2,r17,32
   26c00:	d8c12d17 	ldw	r3,1204(sp)
   26c04:	103f861e 	bne	r2,zero,26a20 <__alt_data_end+0xfffe6a20>
   26c08:	8880040c 	andi	r2,r17,16
   26c0c:	1001f31e 	bne	r2,zero,273dc <___vfprintf_internal_r+0x13d0>
   26c10:	8880100c 	andi	r2,r17,64
   26c14:	1001f126 	beq	r2,zero,273dc <___vfprintf_internal_r+0x13d0>
   26c18:	1cc0000f 	ldh	r19,0(r3)
   26c1c:	db012d17 	ldw	r12,1204(sp)
   26c20:	9839d7fa 	srai	fp,r19,31
   26c24:	63000104 	addi	r12,r12,4
   26c28:	db012d15 	stw	r12,1204(sp)
   26c2c:	e005883a 	mov	r2,fp
   26c30:	003f8106 	br	26a38 <__alt_data_end+0xfffe6a38>
   26c34:	8c401014 	ori	r17,r17,64
   26c38:	1805883a 	mov	r2,r3
   26c3c:	1c000007 	ldb	r16,0(r3)
   26c40:	003d5906 	br	261a8 <__alt_data_end+0xfffe61a8>
   26c44:	db012d17 	ldw	r12,1204(sp)
   26c48:	d8c12a15 	stw	r3,1192(sp)
   26c4c:	00c00044 	movi	r3,1
   26c50:	60800017 	ldw	r2,0(r12)
   26c54:	63000104 	addi	r12,r12,4
   26c58:	d8c12b15 	stw	r3,1196(sp)
   26c5c:	d8012785 	stb	zero,1182(sp)
   26c60:	d8810405 	stb	r2,1040(sp)
   26c64:	db012d15 	stw	r12,1204(sp)
   26c68:	dac10404 	addi	r11,sp,1040
   26c6c:	1825883a 	mov	r18,r3
   26c70:	d8013215 	stw	zero,1224(sp)
   26c74:	d8013415 	stw	zero,1232(sp)
   26c78:	dac13115 	stw	r11,1220(sp)
   26c7c:	0005883a 	mov	r2,zero
   26c80:	003e7d06 	br	26678 <__alt_data_end+0xfffe6678>
   26c84:	db012d17 	ldw	r12,1204(sp)
   26c88:	00800c04 	movi	r2,48
   26c8c:	d8812705 	stb	r2,1180(sp)
   26c90:	64c00017 	ldw	r19,0(r12)
   26c94:	00801e04 	movi	r2,120
   26c98:	d8812745 	stb	r2,1181(sp)
   26c9c:	008000f4 	movhi	r2,3
   26ca0:	10931b04 	addi	r2,r2,19564
   26ca4:	63000104 	addi	r12,r12,4
   26ca8:	d8c12a15 	stw	r3,1192(sp)
   26cac:	d8813b15 	stw	r2,1260(sp)
   26cb0:	0039883a 	mov	fp,zero
   26cb4:	8c400094 	ori	r17,r17,2
   26cb8:	db012d15 	stw	r12,1204(sp)
   26cbc:	00800084 	movi	r2,2
   26cc0:	04001e04 	movi	r16,120
   26cc4:	9807883a 	mov	r3,r19
   26cc8:	003e4206 	br	265d4 <__alt_data_end+0xfffe65d4>
   26ccc:	dac12d17 	ldw	r11,1204(sp)
   26cd0:	db012d17 	ldw	r12,1204(sp)
   26cd4:	d8c12a15 	stw	r3,1192(sp)
   26cd8:	5ac00017 	ldw	r11,0(r11)
   26cdc:	d8012785 	stb	zero,1182(sp)
   26ce0:	64c00104 	addi	r19,r12,4
   26ce4:	dac13115 	stw	r11,1220(sp)
   26ce8:	5803e826 	beq	r11,zero,27c8c <___vfprintf_internal_r+0x1c80>
   26cec:	d9013117 	ldw	r4,1220(sp)
   26cf0:	48037a16 	blt	r9,zero,27adc <___vfprintf_internal_r+0x1ad0>
   26cf4:	480d883a 	mov	r6,r9
   26cf8:	000b883a 	mov	r5,zero
   26cfc:	da013f15 	stw	r8,1276(sp)
   26d00:	da413e15 	stw	r9,1272(sp)
   26d04:	002ad3c0 	call	2ad3c <memchr>
   26d08:	da013f17 	ldw	r8,1276(sp)
   26d0c:	da413e17 	ldw	r9,1272(sp)
   26d10:	10044426 	beq	r2,zero,27e24 <___vfprintf_internal_r+0x1e18>
   26d14:	d8c13117 	ldw	r3,1220(sp)
   26d18:	10e5c83a 	sub	r18,r2,r3
   26d1c:	4c834416 	blt	r9,r18,27a30 <___vfprintf_internal_r+0x1a24>
   26d20:	9005883a 	mov	r2,r18
   26d24:	90037216 	blt	r18,zero,27af0 <___vfprintf_internal_r+0x1ae4>
   26d28:	dd412783 	ldbu	r21,1182(sp)
   26d2c:	d8812b15 	stw	r2,1196(sp)
   26d30:	dcc12d15 	stw	r19,1204(sp)
   26d34:	d8013215 	stw	zero,1224(sp)
   26d38:	d8013415 	stw	zero,1232(sp)
   26d3c:	003e4706 	br	2665c <__alt_data_end+0xfffe665c>
   26d40:	dac12d17 	ldw	r11,1204(sp)
   26d44:	db012d17 	ldw	r12,1204(sp)
   26d48:	5ac00017 	ldw	r11,0(r11)
   26d4c:	dac12e15 	stw	r11,1208(sp)
   26d50:	62c00104 	addi	r11,r12,4
   26d54:	db012e17 	ldw	r12,1208(sp)
   26d58:	60034a16 	blt	r12,zero,27a84 <___vfprintf_internal_r+0x1a78>
   26d5c:	dac12d15 	stw	r11,1204(sp)
   26d60:	1805883a 	mov	r2,r3
   26d64:	1c000007 	ldb	r16,0(r3)
   26d68:	003d0f06 	br	261a8 <__alt_data_end+0xfffe61a8>
   26d6c:	1805883a 	mov	r2,r3
   26d70:	01800ac4 	movi	r6,43
   26d74:	1c000007 	ldb	r16,0(r3)
   26d78:	003d0b06 	br	261a8 <__alt_data_end+0xfffe61a8>
   26d7c:	d8c12a15 	stw	r3,1192(sp)
   26d80:	d9812785 	stb	r6,1182(sp)
   26d84:	803db226 	beq	r16,zero,26450 <__alt_data_end+0xfffe6450>
   26d88:	00c00044 	movi	r3,1
   26d8c:	d8c12b15 	stw	r3,1196(sp)
   26d90:	dc010405 	stb	r16,1040(sp)
   26d94:	d8012785 	stb	zero,1182(sp)
   26d98:	003fb306 	br	26c68 <__alt_data_end+0xfffe6c68>
   26d9c:	d8c12017 	ldw	r3,1152(sp)
   26da0:	003e6d06 	br	26758 <__alt_data_end+0xfffe6758>
   26da4:	10803fcc 	andi	r2,r2,255
   26da8:	00c00044 	movi	r3,1
   26dac:	10fe141e 	bne	r2,r3,26600 <__alt_data_end+0xfffe6600>
   26db0:	e000021e 	bne	fp,zero,26dbc <___vfprintf_internal_r+0xdb0>
   26db4:	00800244 	movi	r2,9
   26db8:	14c0202e 	bgeu	r2,r19,26e3c <___vfprintf_internal_r+0xe30>
   26dbc:	dc012b15 	stw	r16,1196(sp)
   26dc0:	dc412c15 	stw	r17,1200(sp)
   26dc4:	9821883a 	mov	r16,r19
   26dc8:	e023883a 	mov	r17,fp
   26dcc:	dc810e04 	addi	r18,sp,1080
   26dd0:	4027883a 	mov	r19,r8
   26dd4:	4839883a 	mov	fp,r9
   26dd8:	8009883a 	mov	r4,r16
   26ddc:	880b883a 	mov	r5,r17
   26de0:	01800284 	movi	r6,10
   26de4:	000f883a 	mov	r7,zero
   26de8:	002ed2c0 	call	2ed2c <__umoddi3>
   26dec:	10800c04 	addi	r2,r2,48
   26df0:	94bfffc4 	addi	r18,r18,-1
   26df4:	8009883a 	mov	r4,r16
   26df8:	880b883a 	mov	r5,r17
   26dfc:	01800284 	movi	r6,10
   26e00:	000f883a 	mov	r7,zero
   26e04:	90800005 	stb	r2,0(r18)
   26e08:	002e76c0 	call	2e76c <__udivdi3>
   26e0c:	1021883a 	mov	r16,r2
   26e10:	10c4b03a 	or	r2,r2,r3
   26e14:	1823883a 	mov	r17,r3
   26e18:	103fef1e 	bne	r2,zero,26dd8 <__alt_data_end+0xfffe6dd8>
   26e1c:	dac12817 	ldw	r11,1184(sp)
   26e20:	dc813115 	stw	r18,1220(sp)
   26e24:	dc012b17 	ldw	r16,1196(sp)
   26e28:	9811883a 	mov	r8,r19
   26e2c:	dc412c17 	ldw	r17,1200(sp)
   26e30:	e013883a 	mov	r9,fp
   26e34:	5ca5c83a 	sub	r18,r11,r18
   26e38:	003e0306 	br	26648 <__alt_data_end+0xfffe6648>
   26e3c:	9cc00c04 	addi	r19,r19,48
   26e40:	d8c10dc4 	addi	r3,sp,1079
   26e44:	dcc10dc5 	stb	r19,1079(sp)
   26e48:	dc813c17 	ldw	r18,1264(sp)
   26e4c:	d8c13115 	stw	r3,1220(sp)
   26e50:	003dfd06 	br	26648 <__alt_data_end+0xfffe6648>
   26e54:	00801944 	movi	r2,101
   26e58:	1400710e 	bge	r2,r16,27020 <___vfprintf_internal_r+0x1014>
   26e5c:	d9013717 	ldw	r4,1244(sp)
   26e60:	d9413917 	ldw	r5,1252(sp)
   26e64:	000d883a 	mov	r6,zero
   26e68:	000f883a 	mov	r7,zero
   26e6c:	d8c13d15 	stw	r3,1268(sp)
   26e70:	da013f15 	stw	r8,1276(sp)
   26e74:	00304240 	call	30424 <__eqdf2>
   26e78:	d8c13d17 	ldw	r3,1268(sp)
   26e7c:	da013f17 	ldw	r8,1276(sp)
   26e80:	1000ef1e 	bne	r2,zero,27240 <___vfprintf_internal_r+0x1234>
   26e84:	d8811f17 	ldw	r2,1148(sp)
   26e88:	010000f4 	movhi	r4,3
   26e8c:	21132204 	addi	r4,r4,19592
   26e90:	18c00044 	addi	r3,r3,1
   26e94:	10800044 	addi	r2,r2,1
   26e98:	41000015 	stw	r4,0(r8)
   26e9c:	01000044 	movi	r4,1
   26ea0:	41000115 	stw	r4,4(r8)
   26ea4:	d8c12015 	stw	r3,1152(sp)
   26ea8:	d8811f15 	stw	r2,1148(sp)
   26eac:	010001c4 	movi	r4,7
   26eb0:	20828e16 	blt	r4,r2,278ec <___vfprintf_internal_r+0x18e0>
   26eb4:	42000204 	addi	r8,r8,8
   26eb8:	d8812617 	ldw	r2,1176(sp)
   26ebc:	dac13317 	ldw	r11,1228(sp)
   26ec0:	12c00216 	blt	r2,r11,26ecc <___vfprintf_internal_r+0xec0>
   26ec4:	8880004c 	andi	r2,r17,1
   26ec8:	103e7726 	beq	r2,zero,268a8 <__alt_data_end+0xfffe68a8>
   26ecc:	db013817 	ldw	r12,1248(sp)
   26ed0:	d8811f17 	ldw	r2,1148(sp)
   26ed4:	dac13517 	ldw	r11,1236(sp)
   26ed8:	1b07883a 	add	r3,r3,r12
   26edc:	10800044 	addi	r2,r2,1
   26ee0:	42c00015 	stw	r11,0(r8)
   26ee4:	43000115 	stw	r12,4(r8)
   26ee8:	d8c12015 	stw	r3,1152(sp)
   26eec:	d8811f15 	stw	r2,1148(sp)
   26ef0:	010001c4 	movi	r4,7
   26ef4:	2082ed16 	blt	r4,r2,27aac <___vfprintf_internal_r+0x1aa0>
   26ef8:	42000204 	addi	r8,r8,8
   26efc:	db013317 	ldw	r12,1228(sp)
   26f00:	643fffc4 	addi	r16,r12,-1
   26f04:	043e680e 	bge	zero,r16,268a8 <__alt_data_end+0xfffe68a8>
   26f08:	04800404 	movi	r18,16
   26f0c:	d8811f17 	ldw	r2,1148(sp)
   26f10:	94007e0e 	bge	r18,r16,2710c <___vfprintf_internal_r+0x1100>
   26f14:	014000f4 	movhi	r5,3
   26f18:	29532284 	addi	r5,r5,19594
   26f1c:	d9412c15 	stw	r5,1200(sp)
   26f20:	054001c4 	movi	r21,7
   26f24:	00000306 	br	26f34 <___vfprintf_internal_r+0xf28>
   26f28:	42000204 	addi	r8,r8,8
   26f2c:	843ffc04 	addi	r16,r16,-16
   26f30:	9400790e 	bge	r18,r16,27118 <___vfprintf_internal_r+0x110c>
   26f34:	18c00404 	addi	r3,r3,16
   26f38:	10800044 	addi	r2,r2,1
   26f3c:	45000015 	stw	r20,0(r8)
   26f40:	44800115 	stw	r18,4(r8)
   26f44:	d8c12015 	stw	r3,1152(sp)
   26f48:	d8811f15 	stw	r2,1148(sp)
   26f4c:	a8bff60e 	bge	r21,r2,26f28 <__alt_data_end+0xfffe6f28>
   26f50:	b009883a 	mov	r4,r22
   26f54:	b80b883a 	mov	r5,r23
   26f58:	d9811e04 	addi	r6,sp,1144
   26f5c:	002ca9c0 	call	2ca9c <__sprint_r>
   26f60:	103d411e 	bne	r2,zero,26468 <__alt_data_end+0xfffe6468>
   26f64:	d8c12017 	ldw	r3,1152(sp)
   26f68:	d8811f17 	ldw	r2,1148(sp)
   26f6c:	da000404 	addi	r8,sp,16
   26f70:	003fee06 	br	26f2c <__alt_data_end+0xfffe6f2c>
   26f74:	dac12e17 	ldw	r11,1208(sp)
   26f78:	db012b17 	ldw	r12,1196(sp)
   26f7c:	5b2bc83a 	sub	r21,r11,r12
   26f80:	057e130e 	bge	zero,r21,267d0 <__alt_data_end+0xfffe67d0>
   26f84:	07000404 	movi	fp,16
   26f88:	d8811f17 	ldw	r2,1148(sp)
   26f8c:	e543640e 	bge	fp,r21,27d20 <___vfprintf_internal_r+0x1d14>
   26f90:	014000f4 	movhi	r5,3
   26f94:	29532284 	addi	r5,r5,19594
   26f98:	d9412c15 	stw	r5,1200(sp)
   26f9c:	04c001c4 	movi	r19,7
   26fa0:	00000306 	br	26fb0 <___vfprintf_internal_r+0xfa4>
   26fa4:	ad7ffc04 	addi	r21,r21,-16
   26fa8:	42000204 	addi	r8,r8,8
   26fac:	e540110e 	bge	fp,r21,26ff4 <___vfprintf_internal_r+0xfe8>
   26fb0:	18c00404 	addi	r3,r3,16
   26fb4:	10800044 	addi	r2,r2,1
   26fb8:	45000015 	stw	r20,0(r8)
   26fbc:	47000115 	stw	fp,4(r8)
   26fc0:	d8c12015 	stw	r3,1152(sp)
   26fc4:	d8811f15 	stw	r2,1148(sp)
   26fc8:	98bff60e 	bge	r19,r2,26fa4 <__alt_data_end+0xfffe6fa4>
   26fcc:	b009883a 	mov	r4,r22
   26fd0:	b80b883a 	mov	r5,r23
   26fd4:	d9811e04 	addi	r6,sp,1144
   26fd8:	002ca9c0 	call	2ca9c <__sprint_r>
   26fdc:	103d221e 	bne	r2,zero,26468 <__alt_data_end+0xfffe6468>
   26fe0:	ad7ffc04 	addi	r21,r21,-16
   26fe4:	d8c12017 	ldw	r3,1152(sp)
   26fe8:	d8811f17 	ldw	r2,1148(sp)
   26fec:	da000404 	addi	r8,sp,16
   26ff0:	e57fef16 	blt	fp,r21,26fb0 <__alt_data_end+0xfffe6fb0>
   26ff4:	dac12c17 	ldw	r11,1200(sp)
   26ff8:	1d47883a 	add	r3,r3,r21
   26ffc:	10800044 	addi	r2,r2,1
   27000:	42c00015 	stw	r11,0(r8)
   27004:	45400115 	stw	r21,4(r8)
   27008:	d8c12015 	stw	r3,1152(sp)
   2700c:	d8811f15 	stw	r2,1148(sp)
   27010:	010001c4 	movi	r4,7
   27014:	20819116 	blt	r4,r2,2765c <___vfprintf_internal_r+0x1650>
   27018:	42000204 	addi	r8,r8,8
   2701c:	003dec06 	br	267d0 <__alt_data_end+0xfffe67d0>
   27020:	db013317 	ldw	r12,1228(sp)
   27024:	00800044 	movi	r2,1
   27028:	18c00044 	addi	r3,r3,1
   2702c:	1301530e 	bge	r2,r12,2757c <___vfprintf_internal_r+0x1570>
   27030:	dc011f17 	ldw	r16,1148(sp)
   27034:	dac13117 	ldw	r11,1220(sp)
   27038:	00800044 	movi	r2,1
   2703c:	84000044 	addi	r16,r16,1
   27040:	40800115 	stw	r2,4(r8)
   27044:	42c00015 	stw	r11,0(r8)
   27048:	d8c12015 	stw	r3,1152(sp)
   2704c:	dc011f15 	stw	r16,1148(sp)
   27050:	008001c4 	movi	r2,7
   27054:	14016b16 	blt	r2,r16,27604 <___vfprintf_internal_r+0x15f8>
   27058:	42000204 	addi	r8,r8,8
   2705c:	db013817 	ldw	r12,1248(sp)
   27060:	dac13517 	ldw	r11,1236(sp)
   27064:	84000044 	addi	r16,r16,1
   27068:	1b07883a 	add	r3,r3,r12
   2706c:	42c00015 	stw	r11,0(r8)
   27070:	43000115 	stw	r12,4(r8)
   27074:	d8c12015 	stw	r3,1152(sp)
   27078:	dc011f15 	stw	r16,1148(sp)
   2707c:	008001c4 	movi	r2,7
   27080:	14016916 	blt	r2,r16,27628 <___vfprintf_internal_r+0x161c>
   27084:	44800204 	addi	r18,r8,8
   27088:	d9013717 	ldw	r4,1244(sp)
   2708c:	d9413917 	ldw	r5,1252(sp)
   27090:	000d883a 	mov	r6,zero
   27094:	000f883a 	mov	r7,zero
   27098:	d8c13d15 	stw	r3,1268(sp)
   2709c:	00304240 	call	30424 <__eqdf2>
   270a0:	d8c13d17 	ldw	r3,1268(sp)
   270a4:	db013317 	ldw	r12,1228(sp)
   270a8:	1000ae26 	beq	r2,zero,27364 <___vfprintf_internal_r+0x1358>
   270ac:	dac13117 	ldw	r11,1220(sp)
   270b0:	60bfffc4 	addi	r2,r12,-1
   270b4:	1887883a 	add	r3,r3,r2
   270b8:	59000044 	addi	r4,r11,1
   270bc:	84000044 	addi	r16,r16,1
   270c0:	90800115 	stw	r2,4(r18)
   270c4:	91000015 	stw	r4,0(r18)
   270c8:	d8c12015 	stw	r3,1152(sp)
   270cc:	dc011f15 	stw	r16,1148(sp)
   270d0:	008001c4 	movi	r2,7
   270d4:	14014216 	blt	r2,r16,275e0 <___vfprintf_internal_r+0x15d4>
   270d8:	94800204 	addi	r18,r18,8
   270dc:	dac13a17 	ldw	r11,1256(sp)
   270e0:	dd4122c4 	addi	r21,sp,1163
   270e4:	84000044 	addi	r16,r16,1
   270e8:	58c7883a 	add	r3,r11,r3
   270ec:	95400015 	stw	r21,0(r18)
   270f0:	92c00115 	stw	r11,4(r18)
   270f4:	d8c12015 	stw	r3,1152(sp)
   270f8:	dc011f15 	stw	r16,1148(sp)
   270fc:	008001c4 	movi	r2,7
   27100:	14000e16 	blt	r2,r16,2713c <___vfprintf_internal_r+0x1130>
   27104:	92000204 	addi	r8,r18,8
   27108:	003de706 	br	268a8 <__alt_data_end+0xfffe68a8>
   2710c:	010000f4 	movhi	r4,3
   27110:	21132284 	addi	r4,r4,19594
   27114:	d9012c15 	stw	r4,1200(sp)
   27118:	dac12c17 	ldw	r11,1200(sp)
   2711c:	1c07883a 	add	r3,r3,r16
   27120:	44000115 	stw	r16,4(r8)
   27124:	42c00015 	stw	r11,0(r8)
   27128:	10800044 	addi	r2,r2,1
   2712c:	d8c12015 	stw	r3,1152(sp)
   27130:	d8811f15 	stw	r2,1148(sp)
   27134:	010001c4 	movi	r4,7
   27138:	20bdda0e 	bge	r4,r2,268a4 <__alt_data_end+0xfffe68a4>
   2713c:	b009883a 	mov	r4,r22
   27140:	b80b883a 	mov	r5,r23
   27144:	d9811e04 	addi	r6,sp,1144
   27148:	002ca9c0 	call	2ca9c <__sprint_r>
   2714c:	103cc61e 	bne	r2,zero,26468 <__alt_data_end+0xfffe6468>
   27150:	d8c12017 	ldw	r3,1152(sp)
   27154:	da000404 	addi	r8,sp,16
   27158:	003dd306 	br	268a8 <__alt_data_end+0xfffe68a8>
   2715c:	b009883a 	mov	r4,r22
   27160:	b80b883a 	mov	r5,r23
   27164:	d9811e04 	addi	r6,sp,1144
   27168:	002ca9c0 	call	2ca9c <__sprint_r>
   2716c:	103e0926 	beq	r2,zero,26994 <__alt_data_end+0xfffe6994>
   27170:	003cbd06 	br	26468 <__alt_data_end+0xfffe6468>
   27174:	10803fcc 	andi	r2,r2,255
   27178:	1000651e 	bne	r2,zero,27310 <___vfprintf_internal_r+0x1304>
   2717c:	8880004c 	andi	r2,r17,1
   27180:	10013226 	beq	r2,zero,2764c <___vfprintf_internal_r+0x1640>
   27184:	00800c04 	movi	r2,48
   27188:	d8c10dc4 	addi	r3,sp,1079
   2718c:	d8810dc5 	stb	r2,1079(sp)
   27190:	dc813c17 	ldw	r18,1264(sp)
   27194:	d8c13115 	stw	r3,1220(sp)
   27198:	003d2b06 	br	26648 <__alt_data_end+0xfffe6648>
   2719c:	b009883a 	mov	r4,r22
   271a0:	b80b883a 	mov	r5,r23
   271a4:	d9811e04 	addi	r6,sp,1144
   271a8:	002ca9c0 	call	2ca9c <__sprint_r>
   271ac:	103cae1e 	bne	r2,zero,26468 <__alt_data_end+0xfffe6468>
   271b0:	d8c12017 	ldw	r3,1152(sp)
   271b4:	da000404 	addi	r8,sp,16
   271b8:	003dae06 	br	26874 <__alt_data_end+0xfffe6874>
   271bc:	b009883a 	mov	r4,r22
   271c0:	b80b883a 	mov	r5,r23
   271c4:	d9811e04 	addi	r6,sp,1144
   271c8:	002ca9c0 	call	2ca9c <__sprint_r>
   271cc:	103ca61e 	bne	r2,zero,26468 <__alt_data_end+0xfffe6468>
   271d0:	d8c12017 	ldw	r3,1152(sp)
   271d4:	da000404 	addi	r8,sp,16
   271d8:	003d6c06 	br	2678c <__alt_data_end+0xfffe678c>
   271dc:	b009883a 	mov	r4,r22
   271e0:	b80b883a 	mov	r5,r23
   271e4:	d9811e04 	addi	r6,sp,1144
   271e8:	002ca9c0 	call	2ca9c <__sprint_r>
   271ec:	103c9e1e 	bne	r2,zero,26468 <__alt_data_end+0xfffe6468>
   271f0:	d8c12017 	ldw	r3,1152(sp)
   271f4:	da000404 	addi	r8,sp,16
   271f8:	003d7206 	br	267c4 <__alt_data_end+0xfffe67c4>
   271fc:	d9413b17 	ldw	r5,1260(sp)
   27200:	d8c10e04 	addi	r3,sp,1080
   27204:	988003cc 	andi	r2,r19,15
   27208:	e008973a 	slli	r4,fp,28
   2720c:	2885883a 	add	r2,r5,r2
   27210:	9826d13a 	srli	r19,r19,4
   27214:	10800003 	ldbu	r2,0(r2)
   27218:	e038d13a 	srli	fp,fp,4
   2721c:	18ffffc4 	addi	r3,r3,-1
   27220:	24e6b03a 	or	r19,r4,r19
   27224:	18800005 	stb	r2,0(r3)
   27228:	9f04b03a 	or	r2,r19,fp
   2722c:	103ff51e 	bne	r2,zero,27204 <__alt_data_end+0xfffe7204>
   27230:	db012817 	ldw	r12,1184(sp)
   27234:	d8c13115 	stw	r3,1220(sp)
   27238:	60e5c83a 	sub	r18,r12,r3
   2723c:	003d0206 	br	26648 <__alt_data_end+0xfffe6648>
   27240:	dc012617 	ldw	r16,1176(sp)
   27244:	0401b10e 	bge	zero,r16,2790c <___vfprintf_internal_r+0x1900>
   27248:	db013117 	ldw	r12,1220(sp)
   2724c:	dac13317 	ldw	r11,1228(sp)
   27250:	62e1883a 	add	r16,r12,r11
   27254:	db013417 	ldw	r12,1232(sp)
   27258:	5825883a 	mov	r18,r11
   2725c:	62c0010e 	bge	r12,r11,27264 <___vfprintf_internal_r+0x1258>
   27260:	6025883a 	mov	r18,r12
   27264:	04800b0e 	bge	zero,r18,27294 <___vfprintf_internal_r+0x1288>
   27268:	d8811f17 	ldw	r2,1148(sp)
   2726c:	dac13117 	ldw	r11,1220(sp)
   27270:	1c87883a 	add	r3,r3,r18
   27274:	10800044 	addi	r2,r2,1
   27278:	42c00015 	stw	r11,0(r8)
   2727c:	44800115 	stw	r18,4(r8)
   27280:	d8c12015 	stw	r3,1152(sp)
   27284:	d8811f15 	stw	r2,1148(sp)
   27288:	010001c4 	movi	r4,7
   2728c:	20824f16 	blt	r4,r2,27bcc <___vfprintf_internal_r+0x1bc0>
   27290:	42000204 	addi	r8,r8,8
   27294:	90024b16 	blt	r18,zero,27bc4 <___vfprintf_internal_r+0x1bb8>
   27298:	db013417 	ldw	r12,1232(sp)
   2729c:	64a5c83a 	sub	r18,r12,r18
   272a0:	0480730e 	bge	zero,r18,27470 <___vfprintf_internal_r+0x1464>
   272a4:	05400404 	movi	r21,16
   272a8:	d8811f17 	ldw	r2,1148(sp)
   272ac:	ac817d0e 	bge	r21,r18,278a4 <___vfprintf_internal_r+0x1898>
   272b0:	014000f4 	movhi	r5,3
   272b4:	29532284 	addi	r5,r5,19594
   272b8:	d9412c15 	stw	r5,1200(sp)
   272bc:	070001c4 	movi	fp,7
   272c0:	00000306 	br	272d0 <___vfprintf_internal_r+0x12c4>
   272c4:	42000204 	addi	r8,r8,8
   272c8:	94bffc04 	addi	r18,r18,-16
   272cc:	ac81780e 	bge	r21,r18,278b0 <___vfprintf_internal_r+0x18a4>
   272d0:	18c00404 	addi	r3,r3,16
   272d4:	10800044 	addi	r2,r2,1
   272d8:	45000015 	stw	r20,0(r8)
   272dc:	45400115 	stw	r21,4(r8)
   272e0:	d8c12015 	stw	r3,1152(sp)
   272e4:	d8811f15 	stw	r2,1148(sp)
   272e8:	e0bff60e 	bge	fp,r2,272c4 <__alt_data_end+0xfffe72c4>
   272ec:	b009883a 	mov	r4,r22
   272f0:	b80b883a 	mov	r5,r23
   272f4:	d9811e04 	addi	r6,sp,1144
   272f8:	002ca9c0 	call	2ca9c <__sprint_r>
   272fc:	103c5a1e 	bne	r2,zero,26468 <__alt_data_end+0xfffe6468>
   27300:	d8c12017 	ldw	r3,1152(sp)
   27304:	d8811f17 	ldw	r2,1148(sp)
   27308:	da000404 	addi	r8,sp,16
   2730c:	003fee06 	br	272c8 <__alt_data_end+0xfffe72c8>
   27310:	dac10e04 	addi	r11,sp,1080
   27314:	0025883a 	mov	r18,zero
   27318:	dac13115 	stw	r11,1220(sp)
   2731c:	003cca06 	br	26648 <__alt_data_end+0xfffe6648>
   27320:	b009883a 	mov	r4,r22
   27324:	b80b883a 	mov	r5,r23
   27328:	d9811e04 	addi	r6,sp,1144
   2732c:	002ca9c0 	call	2ca9c <__sprint_r>
   27330:	103c4d1e 	bne	r2,zero,26468 <__alt_data_end+0xfffe6468>
   27334:	d8c12017 	ldw	r3,1152(sp)
   27338:	d8812787 	ldb	r2,1182(sp)
   2733c:	da000404 	addi	r8,sp,16
   27340:	003d0506 	br	26758 <__alt_data_end+0xfffe6758>
   27344:	dac12d17 	ldw	r11,1204(sp)
   27348:	14c00017 	ldw	r19,0(r2)
   2734c:	0039883a 	mov	fp,zero
   27350:	5ac00104 	addi	r11,r11,4
   27354:	dac12d15 	stw	r11,1204(sp)
   27358:	0005883a 	mov	r2,zero
   2735c:	9807883a 	mov	r3,r19
   27360:	003c9c06 	br	265d4 <__alt_data_end+0xfffe65d4>
   27364:	657fffc4 	addi	r21,r12,-1
   27368:	057f5c0e 	bge	zero,r21,270dc <__alt_data_end+0xfffe70dc>
   2736c:	07000404 	movi	fp,16
   27370:	e5408f0e 	bge	fp,r21,275b0 <___vfprintf_internal_r+0x15a4>
   27374:	010000f4 	movhi	r4,3
   27378:	21132284 	addi	r4,r4,19594
   2737c:	d9012c15 	stw	r4,1200(sp)
   27380:	01c001c4 	movi	r7,7
   27384:	00000306 	br	27394 <___vfprintf_internal_r+0x1388>
   27388:	94800204 	addi	r18,r18,8
   2738c:	ad7ffc04 	addi	r21,r21,-16
   27390:	e5408a0e 	bge	fp,r21,275bc <___vfprintf_internal_r+0x15b0>
   27394:	18c00404 	addi	r3,r3,16
   27398:	84000044 	addi	r16,r16,1
   2739c:	95000015 	stw	r20,0(r18)
   273a0:	97000115 	stw	fp,4(r18)
   273a4:	d8c12015 	stw	r3,1152(sp)
   273a8:	dc011f15 	stw	r16,1148(sp)
   273ac:	3c3ff60e 	bge	r7,r16,27388 <__alt_data_end+0xfffe7388>
   273b0:	b009883a 	mov	r4,r22
   273b4:	b80b883a 	mov	r5,r23
   273b8:	d9811e04 	addi	r6,sp,1144
   273bc:	d9c13d15 	stw	r7,1268(sp)
   273c0:	002ca9c0 	call	2ca9c <__sprint_r>
   273c4:	d9c13d17 	ldw	r7,1268(sp)
   273c8:	103c271e 	bne	r2,zero,26468 <__alt_data_end+0xfffe6468>
   273cc:	d8c12017 	ldw	r3,1152(sp)
   273d0:	dc011f17 	ldw	r16,1148(sp)
   273d4:	dc800404 	addi	r18,sp,16
   273d8:	003fec06 	br	2738c <__alt_data_end+0xfffe738c>
   273dc:	1cc00017 	ldw	r19,0(r3)
   273e0:	dac12d17 	ldw	r11,1204(sp)
   273e4:	9839d7fa 	srai	fp,r19,31
   273e8:	5ac00104 	addi	r11,r11,4
   273ec:	dac12d15 	stw	r11,1204(sp)
   273f0:	e005883a 	mov	r2,fp
   273f4:	003d9006 	br	26a38 <__alt_data_end+0xfffe6a38>
   273f8:	00800084 	movi	r2,2
   273fc:	9f06b03a 	or	r3,r19,fp
   27400:	003c7406 	br	265d4 <__alt_data_end+0xfffe65d4>
   27404:	db012d17 	ldw	r12,1204(sp)
   27408:	14c00017 	ldw	r19,0(r2)
   2740c:	0039883a 	mov	fp,zero
   27410:	63000104 	addi	r12,r12,4
   27414:	db012d15 	stw	r12,1204(sp)
   27418:	00800044 	movi	r2,1
   2741c:	9807883a 	mov	r3,r19
   27420:	003c6c06 	br	265d4 <__alt_data_end+0xfffe65d4>
   27424:	10803fcc 	andi	r2,r2,255
   27428:	1080201c 	xori	r2,r2,128
   2742c:	10bfe004 	addi	r2,r2,-128
   27430:	01000c04 	movi	r4,48
   27434:	1101a526 	beq	r2,r4,27acc <___vfprintf_internal_r+0x1ac0>
   27438:	dac13117 	ldw	r11,1220(sp)
   2743c:	db012817 	ldw	r12,1184(sp)
   27440:	193fffc5 	stb	r4,-1(r3)
   27444:	5affffc4 	addi	r11,r11,-1
   27448:	dac13115 	stw	r11,1220(sp)
   2744c:	62e5c83a 	sub	r18,r12,r11
   27450:	003c7d06 	br	26648 <__alt_data_end+0xfffe6648>
   27454:	b009883a 	mov	r4,r22
   27458:	b80b883a 	mov	r5,r23
   2745c:	d9811e04 	addi	r6,sp,1144
   27460:	002ca9c0 	call	2ca9c <__sprint_r>
   27464:	103c001e 	bne	r2,zero,26468 <__alt_data_end+0xfffe6468>
   27468:	d8c12017 	ldw	r3,1152(sp)
   2746c:	da000404 	addi	r8,sp,16
   27470:	db013117 	ldw	r12,1220(sp)
   27474:	dac13417 	ldw	r11,1232(sp)
   27478:	d8812617 	ldw	r2,1176(sp)
   2747c:	62e5883a 	add	r18,r12,r11
   27480:	db013317 	ldw	r12,1228(sp)
   27484:	13000216 	blt	r2,r12,27490 <___vfprintf_internal_r+0x1484>
   27488:	8900004c 	andi	r4,r17,1
   2748c:	20000c26 	beq	r4,zero,274c0 <___vfprintf_internal_r+0x14b4>
   27490:	dac13817 	ldw	r11,1248(sp)
   27494:	d9011f17 	ldw	r4,1148(sp)
   27498:	db013517 	ldw	r12,1236(sp)
   2749c:	1ac7883a 	add	r3,r3,r11
   274a0:	21000044 	addi	r4,r4,1
   274a4:	43000015 	stw	r12,0(r8)
   274a8:	42c00115 	stw	r11,4(r8)
   274ac:	d8c12015 	stw	r3,1152(sp)
   274b0:	d9011f15 	stw	r4,1148(sp)
   274b4:	014001c4 	movi	r5,7
   274b8:	2901cc16 	blt	r5,r4,27bec <___vfprintf_internal_r+0x1be0>
   274bc:	42000204 	addi	r8,r8,8
   274c0:	dac13317 	ldw	r11,1228(sp)
   274c4:	8489c83a 	sub	r4,r16,r18
   274c8:	5885c83a 	sub	r2,r11,r2
   274cc:	1021883a 	mov	r16,r2
   274d0:	2080010e 	bge	r4,r2,274d8 <___vfprintf_internal_r+0x14cc>
   274d4:	2021883a 	mov	r16,r4
   274d8:	04000a0e 	bge	zero,r16,27504 <___vfprintf_internal_r+0x14f8>
   274dc:	d9011f17 	ldw	r4,1148(sp)
   274e0:	1c07883a 	add	r3,r3,r16
   274e4:	44800015 	stw	r18,0(r8)
   274e8:	21000044 	addi	r4,r4,1
   274ec:	44000115 	stw	r16,4(r8)
   274f0:	d8c12015 	stw	r3,1152(sp)
   274f4:	d9011f15 	stw	r4,1148(sp)
   274f8:	014001c4 	movi	r5,7
   274fc:	2901d616 	blt	r5,r4,27c58 <___vfprintf_internal_r+0x1c4c>
   27500:	42000204 	addi	r8,r8,8
   27504:	8001df16 	blt	r16,zero,27c84 <___vfprintf_internal_r+0x1c78>
   27508:	1421c83a 	sub	r16,r2,r16
   2750c:	043ce60e 	bge	zero,r16,268a8 <__alt_data_end+0xfffe68a8>
   27510:	04800404 	movi	r18,16
   27514:	d8811f17 	ldw	r2,1148(sp)
   27518:	943efc0e 	bge	r18,r16,2710c <__alt_data_end+0xfffe710c>
   2751c:	014000f4 	movhi	r5,3
   27520:	29532284 	addi	r5,r5,19594
   27524:	d9412c15 	stw	r5,1200(sp)
   27528:	054001c4 	movi	r21,7
   2752c:	00000306 	br	2753c <___vfprintf_internal_r+0x1530>
   27530:	42000204 	addi	r8,r8,8
   27534:	843ffc04 	addi	r16,r16,-16
   27538:	943ef70e 	bge	r18,r16,27118 <__alt_data_end+0xfffe7118>
   2753c:	18c00404 	addi	r3,r3,16
   27540:	10800044 	addi	r2,r2,1
   27544:	45000015 	stw	r20,0(r8)
   27548:	44800115 	stw	r18,4(r8)
   2754c:	d8c12015 	stw	r3,1152(sp)
   27550:	d8811f15 	stw	r2,1148(sp)
   27554:	a8bff60e 	bge	r21,r2,27530 <__alt_data_end+0xfffe7530>
   27558:	b009883a 	mov	r4,r22
   2755c:	b80b883a 	mov	r5,r23
   27560:	d9811e04 	addi	r6,sp,1144
   27564:	002ca9c0 	call	2ca9c <__sprint_r>
   27568:	103bbf1e 	bne	r2,zero,26468 <__alt_data_end+0xfffe6468>
   2756c:	d8c12017 	ldw	r3,1152(sp)
   27570:	d8811f17 	ldw	r2,1148(sp)
   27574:	da000404 	addi	r8,sp,16
   27578:	003fee06 	br	27534 <__alt_data_end+0xfffe7534>
   2757c:	8888703a 	and	r4,r17,r2
   27580:	203eab1e 	bne	r4,zero,27030 <__alt_data_end+0xfffe7030>
   27584:	dc011f17 	ldw	r16,1148(sp)
   27588:	db013117 	ldw	r12,1220(sp)
   2758c:	40800115 	stw	r2,4(r8)
   27590:	84000044 	addi	r16,r16,1
   27594:	43000015 	stw	r12,0(r8)
   27598:	d8c12015 	stw	r3,1152(sp)
   2759c:	dc011f15 	stw	r16,1148(sp)
   275a0:	008001c4 	movi	r2,7
   275a4:	14000e16 	blt	r2,r16,275e0 <___vfprintf_internal_r+0x15d4>
   275a8:	44800204 	addi	r18,r8,8
   275ac:	003ecb06 	br	270dc <__alt_data_end+0xfffe70dc>
   275b0:	008000f4 	movhi	r2,3
   275b4:	10932284 	addi	r2,r2,19594
   275b8:	d8812c15 	stw	r2,1200(sp)
   275bc:	dac12c17 	ldw	r11,1200(sp)
   275c0:	1d47883a 	add	r3,r3,r21
   275c4:	84000044 	addi	r16,r16,1
   275c8:	92c00015 	stw	r11,0(r18)
   275cc:	95400115 	stw	r21,4(r18)
   275d0:	d8c12015 	stw	r3,1152(sp)
   275d4:	dc011f15 	stw	r16,1148(sp)
   275d8:	008001c4 	movi	r2,7
   275dc:	143ebe0e 	bge	r2,r16,270d8 <__alt_data_end+0xfffe70d8>
   275e0:	b009883a 	mov	r4,r22
   275e4:	b80b883a 	mov	r5,r23
   275e8:	d9811e04 	addi	r6,sp,1144
   275ec:	002ca9c0 	call	2ca9c <__sprint_r>
   275f0:	103b9d1e 	bne	r2,zero,26468 <__alt_data_end+0xfffe6468>
   275f4:	d8c12017 	ldw	r3,1152(sp)
   275f8:	dc011f17 	ldw	r16,1148(sp)
   275fc:	dc800404 	addi	r18,sp,16
   27600:	003eb606 	br	270dc <__alt_data_end+0xfffe70dc>
   27604:	b009883a 	mov	r4,r22
   27608:	b80b883a 	mov	r5,r23
   2760c:	d9811e04 	addi	r6,sp,1144
   27610:	002ca9c0 	call	2ca9c <__sprint_r>
   27614:	103b941e 	bne	r2,zero,26468 <__alt_data_end+0xfffe6468>
   27618:	d8c12017 	ldw	r3,1152(sp)
   2761c:	dc011f17 	ldw	r16,1148(sp)
   27620:	da000404 	addi	r8,sp,16
   27624:	003e8d06 	br	2705c <__alt_data_end+0xfffe705c>
   27628:	b009883a 	mov	r4,r22
   2762c:	b80b883a 	mov	r5,r23
   27630:	d9811e04 	addi	r6,sp,1144
   27634:	002ca9c0 	call	2ca9c <__sprint_r>
   27638:	103b8b1e 	bne	r2,zero,26468 <__alt_data_end+0xfffe6468>
   2763c:	d8c12017 	ldw	r3,1152(sp)
   27640:	dc011f17 	ldw	r16,1148(sp)
   27644:	dc800404 	addi	r18,sp,16
   27648:	003e8f06 	br	27088 <__alt_data_end+0xfffe7088>
   2764c:	db010e04 	addi	r12,sp,1080
   27650:	0025883a 	mov	r18,zero
   27654:	db013115 	stw	r12,1220(sp)
   27658:	003bfb06 	br	26648 <__alt_data_end+0xfffe6648>
   2765c:	b009883a 	mov	r4,r22
   27660:	b80b883a 	mov	r5,r23
   27664:	d9811e04 	addi	r6,sp,1144
   27668:	002ca9c0 	call	2ca9c <__sprint_r>
   2766c:	103b7e1e 	bne	r2,zero,26468 <__alt_data_end+0xfffe6468>
   27670:	d8c12017 	ldw	r3,1152(sp)
   27674:	da000404 	addi	r8,sp,16
   27678:	003c5506 	br	267d0 <__alt_data_end+0xfffe67d0>
   2767c:	04e7c83a 	sub	r19,zero,r19
   27680:	9804c03a 	cmpne	r2,r19,zero
   27684:	0739c83a 	sub	fp,zero,fp
   27688:	e0b9c83a 	sub	fp,fp,r2
   2768c:	05400b44 	movi	r21,45
   27690:	dd412785 	stb	r21,1182(sp)
   27694:	da413215 	stw	r9,1224(sp)
   27698:	00800044 	movi	r2,1
   2769c:	9f06b03a 	or	r3,r19,fp
   276a0:	003bcf06 	br	265e0 <__alt_data_end+0xfffe65e0>
   276a4:	da013f15 	stw	r8,1276(sp)
   276a8:	da413e15 	stw	r9,1272(sp)
   276ac:	002c74c0 	call	2c74c <__fpclassifyd>
   276b0:	da013f17 	ldw	r8,1276(sp)
   276b4:	da413e17 	ldw	r9,1272(sp)
   276b8:	1000ce26 	beq	r2,zero,279f4 <___vfprintf_internal_r+0x19e8>
   276bc:	057ff7c4 	movi	r21,-33
   276c0:	00bfffc4 	movi	r2,-1
   276c4:	856a703a 	and	r21,r16,r21
   276c8:	4881f026 	beq	r9,r2,27e8c <___vfprintf_internal_r+0x1e80>
   276cc:	008011c4 	movi	r2,71
   276d0:	a881e526 	beq	r21,r2,27e68 <___vfprintf_internal_r+0x1e5c>
   276d4:	db013917 	ldw	r12,1252(sp)
   276d8:	8ac04014 	ori	r11,r17,256
   276dc:	dac12d15 	stw	r11,1204(sp)
   276e0:	6001e416 	blt	r12,zero,27e74 <___vfprintf_internal_r+0x1e68>
   276e4:	dc813917 	ldw	r18,1252(sp)
   276e8:	d8012b05 	stb	zero,1196(sp)
   276ec:	00801984 	movi	r2,102
   276f0:	80811826 	beq	r16,r2,27b54 <___vfprintf_internal_r+0x1b48>
   276f4:	00801184 	movi	r2,70
   276f8:	80811626 	beq	r16,r2,27b54 <___vfprintf_internal_r+0x1b48>
   276fc:	00801144 	movi	r2,69
   27700:	a881e026 	beq	r21,r2,27e84 <___vfprintf_internal_r+0x1e78>
   27704:	4839883a 	mov	fp,r9
   27708:	d8812604 	addi	r2,sp,1176
   2770c:	d8800115 	stw	r2,4(sp)
   27710:	d9413717 	ldw	r5,1244(sp)
   27714:	d8812504 	addi	r2,sp,1172
   27718:	d8800215 	stw	r2,8(sp)
   2771c:	d8812104 	addi	r2,sp,1156
   27720:	df000015 	stw	fp,0(sp)
   27724:	d8800315 	stw	r2,12(sp)
   27728:	b009883a 	mov	r4,r22
   2772c:	900d883a 	mov	r6,r18
   27730:	01c00084 	movi	r7,2
   27734:	da013f15 	stw	r8,1276(sp)
   27738:	da413e15 	stw	r9,1272(sp)
   2773c:	002835c0 	call	2835c <_dtoa_r>
   27740:	d8813115 	stw	r2,1220(sp)
   27744:	008019c4 	movi	r2,103
   27748:	da013f17 	ldw	r8,1276(sp)
   2774c:	da413e17 	ldw	r9,1272(sp)
   27750:	80800226 	beq	r16,r2,2775c <___vfprintf_internal_r+0x1750>
   27754:	008011c4 	movi	r2,71
   27758:	8081101e 	bne	r16,r2,27b9c <___vfprintf_internal_r+0x1b90>
   2775c:	8880004c 	andi	r2,r17,1
   27760:	1001df26 	beq	r2,zero,27ee0 <___vfprintf_internal_r+0x1ed4>
   27764:	db013117 	ldw	r12,1220(sp)
   27768:	6715883a 	add	r10,r12,fp
   2776c:	d9013717 	ldw	r4,1244(sp)
   27770:	900b883a 	mov	r5,r18
   27774:	000d883a 	mov	r6,zero
   27778:	000f883a 	mov	r7,zero
   2777c:	da013f15 	stw	r8,1276(sp)
   27780:	da413e15 	stw	r9,1272(sp)
   27784:	da813d15 	stw	r10,1268(sp)
   27788:	00304240 	call	30424 <__eqdf2>
   2778c:	da013f17 	ldw	r8,1276(sp)
   27790:	da413e17 	ldw	r9,1272(sp)
   27794:	da813d17 	ldw	r10,1268(sp)
   27798:	10016526 	beq	r2,zero,27d30 <___vfprintf_internal_r+0x1d24>
   2779c:	d8812117 	ldw	r2,1156(sp)
   277a0:	1280062e 	bgeu	r2,r10,277bc <___vfprintf_internal_r+0x17b0>
   277a4:	01000c04 	movi	r4,48
   277a8:	10c00044 	addi	r3,r2,1
   277ac:	d8c12115 	stw	r3,1156(sp)
   277b0:	11000005 	stb	r4,0(r2)
   277b4:	d8812117 	ldw	r2,1156(sp)
   277b8:	12bffb36 	bltu	r2,r10,277a8 <__alt_data_end+0xfffe77a8>
   277bc:	db013117 	ldw	r12,1220(sp)
   277c0:	1305c83a 	sub	r2,r2,r12
   277c4:	d8813315 	stw	r2,1228(sp)
   277c8:	008011c4 	movi	r2,71
   277cc:	a8814a26 	beq	r21,r2,27cf8 <___vfprintf_internal_r+0x1cec>
   277d0:	00801944 	movi	r2,101
   277d4:	14020a0e 	bge	r2,r16,28000 <___vfprintf_internal_r+0x1ff4>
   277d8:	00801984 	movi	r2,102
   277dc:	8081b626 	beq	r16,r2,27eb8 <___vfprintf_internal_r+0x1eac>
   277e0:	db012617 	ldw	r12,1176(sp)
   277e4:	db013415 	stw	r12,1232(sp)
   277e8:	db013417 	ldw	r12,1232(sp)
   277ec:	dac13317 	ldw	r11,1228(sp)
   277f0:	62c1a816 	blt	r12,r11,27e94 <___vfprintf_internal_r+0x1e88>
   277f4:	8c40004c 	andi	r17,r17,1
   277f8:	8801ca1e 	bne	r17,zero,27f24 <___vfprintf_internal_r+0x1f18>
   277fc:	6005883a 	mov	r2,r12
   27800:	6001b516 	blt	r12,zero,27ed8 <___vfprintf_internal_r+0x1ecc>
   27804:	dc813417 	ldw	r18,1232(sp)
   27808:	df012b07 	ldb	fp,1196(sp)
   2780c:	e001321e 	bne	fp,zero,27cd8 <___vfprintf_internal_r+0x1ccc>
   27810:	dc412d17 	ldw	r17,1204(sp)
   27814:	dd412783 	ldbu	r21,1182(sp)
   27818:	d8812b15 	stw	r2,1196(sp)
   2781c:	dcc12d15 	stw	r19,1204(sp)
   27820:	d8013215 	stw	zero,1224(sp)
   27824:	003b8d06 	br	2665c <__alt_data_end+0xfffe665c>
   27828:	88c0100c 	andi	r3,r17,64
   2782c:	18008226 	beq	r3,zero,27a38 <___vfprintf_internal_r+0x1a2c>
   27830:	dac12d17 	ldw	r11,1204(sp)
   27834:	14c0000b 	ldhu	r19,0(r2)
   27838:	0039883a 	mov	fp,zero
   2783c:	5ac00104 	addi	r11,r11,4
   27840:	dac12d15 	stw	r11,1204(sp)
   27844:	003c8f06 	br	26a84 <__alt_data_end+0xfffe6a84>
   27848:	1c000007 	ldb	r16,0(r3)
   2784c:	1805883a 	mov	r2,r3
   27850:	003a5506 	br	261a8 <__alt_data_end+0xfffe61a8>
   27854:	00800084 	movi	r2,2
   27858:	003b5e06 	br	265d4 <__alt_data_end+0xfffe65d4>
   2785c:	8880040c 	andi	r2,r17,16
   27860:	1000091e 	bne	r2,zero,27888 <___vfprintf_internal_r+0x187c>
   27864:	8c40100c 	andi	r17,r17,64
   27868:	88000726 	beq	r17,zero,27888 <___vfprintf_internal_r+0x187c>
   2786c:	db012d17 	ldw	r12,1204(sp)
   27870:	dac12f17 	ldw	r11,1212(sp)
   27874:	60800017 	ldw	r2,0(r12)
   27878:	63000104 	addi	r12,r12,4
   2787c:	db012d15 	stw	r12,1204(sp)
   27880:	12c0000d 	sth	r11,0(r2)
   27884:	003a1e06 	br	26100 <__alt_data_end+0xfffe6100>
   27888:	db012d17 	ldw	r12,1204(sp)
   2788c:	dac12f17 	ldw	r11,1212(sp)
   27890:	60800017 	ldw	r2,0(r12)
   27894:	63000104 	addi	r12,r12,4
   27898:	db012d15 	stw	r12,1204(sp)
   2789c:	12c00015 	stw	r11,0(r2)
   278a0:	003a1706 	br	26100 <__alt_data_end+0xfffe6100>
   278a4:	010000f4 	movhi	r4,3
   278a8:	21132284 	addi	r4,r4,19594
   278ac:	d9012c15 	stw	r4,1200(sp)
   278b0:	dac12c17 	ldw	r11,1200(sp)
   278b4:	1c87883a 	add	r3,r3,r18
   278b8:	10800044 	addi	r2,r2,1
   278bc:	42c00015 	stw	r11,0(r8)
   278c0:	44800115 	stw	r18,4(r8)
   278c4:	d8c12015 	stw	r3,1152(sp)
   278c8:	d8811f15 	stw	r2,1148(sp)
   278cc:	010001c4 	movi	r4,7
   278d0:	20bee016 	blt	r4,r2,27454 <__alt_data_end+0xfffe7454>
   278d4:	42000204 	addi	r8,r8,8
   278d8:	003ee506 	br	27470 <__alt_data_end+0xfffe7470>
   278dc:	010000f4 	movhi	r4,3
   278e0:	21132284 	addi	r4,r4,19594
   278e4:	d9012c15 	stw	r4,1200(sp)
   278e8:	003bd806 	br	2684c <__alt_data_end+0xfffe684c>
   278ec:	b009883a 	mov	r4,r22
   278f0:	b80b883a 	mov	r5,r23
   278f4:	d9811e04 	addi	r6,sp,1144
   278f8:	002ca9c0 	call	2ca9c <__sprint_r>
   278fc:	103ada1e 	bne	r2,zero,26468 <__alt_data_end+0xfffe6468>
   27900:	d8c12017 	ldw	r3,1152(sp)
   27904:	da000404 	addi	r8,sp,16
   27908:	003d6b06 	br	26eb8 <__alt_data_end+0xfffe6eb8>
   2790c:	d8811f17 	ldw	r2,1148(sp)
   27910:	030000f4 	movhi	r12,3
   27914:	01000044 	movi	r4,1
   27918:	18c00044 	addi	r3,r3,1
   2791c:	10800044 	addi	r2,r2,1
   27920:	63132204 	addi	r12,r12,19592
   27924:	41000115 	stw	r4,4(r8)
   27928:	43000015 	stw	r12,0(r8)
   2792c:	d8c12015 	stw	r3,1152(sp)
   27930:	d8811f15 	stw	r2,1148(sp)
   27934:	010001c4 	movi	r4,7
   27938:	20804916 	blt	r4,r2,27a60 <___vfprintf_internal_r+0x1a54>
   2793c:	42000204 	addi	r8,r8,8
   27940:	8000041e 	bne	r16,zero,27954 <___vfprintf_internal_r+0x1948>
   27944:	dac13317 	ldw	r11,1228(sp)
   27948:	5800021e 	bne	r11,zero,27954 <___vfprintf_internal_r+0x1948>
   2794c:	8880004c 	andi	r2,r17,1
   27950:	103bd526 	beq	r2,zero,268a8 <__alt_data_end+0xfffe68a8>
   27954:	db013817 	ldw	r12,1248(sp)
   27958:	d8811f17 	ldw	r2,1148(sp)
   2795c:	dac13517 	ldw	r11,1236(sp)
   27960:	1b07883a 	add	r3,r3,r12
   27964:	10800044 	addi	r2,r2,1
   27968:	42c00015 	stw	r11,0(r8)
   2796c:	43000115 	stw	r12,4(r8)
   27970:	d8c12015 	stw	r3,1152(sp)
   27974:	d8811f15 	stw	r2,1148(sp)
   27978:	010001c4 	movi	r4,7
   2797c:	20813016 	blt	r4,r2,27e40 <___vfprintf_internal_r+0x1e34>
   27980:	42000204 	addi	r8,r8,8
   27984:	0421c83a 	sub	r16,zero,r16
   27988:	0400630e 	bge	zero,r16,27b18 <___vfprintf_internal_r+0x1b0c>
   2798c:	04800404 	movi	r18,16
   27990:	94009f0e 	bge	r18,r16,27c10 <___vfprintf_internal_r+0x1c04>
   27994:	010000f4 	movhi	r4,3
   27998:	21132284 	addi	r4,r4,19594
   2799c:	d9012c15 	stw	r4,1200(sp)
   279a0:	054001c4 	movi	r21,7
   279a4:	00000306 	br	279b4 <___vfprintf_internal_r+0x19a8>
   279a8:	42000204 	addi	r8,r8,8
   279ac:	843ffc04 	addi	r16,r16,-16
   279b0:	94009a0e 	bge	r18,r16,27c1c <___vfprintf_internal_r+0x1c10>
   279b4:	18c00404 	addi	r3,r3,16
   279b8:	10800044 	addi	r2,r2,1
   279bc:	45000015 	stw	r20,0(r8)
   279c0:	44800115 	stw	r18,4(r8)
   279c4:	d8c12015 	stw	r3,1152(sp)
   279c8:	d8811f15 	stw	r2,1148(sp)
   279cc:	a8bff60e 	bge	r21,r2,279a8 <__alt_data_end+0xfffe79a8>
   279d0:	b009883a 	mov	r4,r22
   279d4:	b80b883a 	mov	r5,r23
   279d8:	d9811e04 	addi	r6,sp,1144
   279dc:	002ca9c0 	call	2ca9c <__sprint_r>
   279e0:	103aa11e 	bne	r2,zero,26468 <__alt_data_end+0xfffe6468>
   279e4:	d8c12017 	ldw	r3,1152(sp)
   279e8:	d8811f17 	ldw	r2,1148(sp)
   279ec:	da000404 	addi	r8,sp,16
   279f0:	003fee06 	br	279ac <__alt_data_end+0xfffe79ac>
   279f4:	008011c4 	movi	r2,71
   279f8:	1400b316 	blt	r2,r16,27cc8 <___vfprintf_internal_r+0x1cbc>
   279fc:	030000f4 	movhi	r12,3
   27a00:	63131404 	addi	r12,r12,19536
   27a04:	db013115 	stw	r12,1220(sp)
   27a08:	00c000c4 	movi	r3,3
   27a0c:	00bfdfc4 	movi	r2,-129
   27a10:	d8c12b15 	stw	r3,1196(sp)
   27a14:	88a2703a 	and	r17,r17,r2
   27a18:	dd412783 	ldbu	r21,1182(sp)
   27a1c:	dcc12d15 	stw	r19,1204(sp)
   27a20:	1825883a 	mov	r18,r3
   27a24:	d8013215 	stw	zero,1224(sp)
   27a28:	d8013415 	stw	zero,1232(sp)
   27a2c:	003b0b06 	br	2665c <__alt_data_end+0xfffe665c>
   27a30:	4825883a 	mov	r18,r9
   27a34:	003cba06 	br	26d20 <__alt_data_end+0xfffe6d20>
   27a38:	db012d17 	ldw	r12,1204(sp)
   27a3c:	14c00017 	ldw	r19,0(r2)
   27a40:	0039883a 	mov	fp,zero
   27a44:	63000104 	addi	r12,r12,4
   27a48:	db012d15 	stw	r12,1204(sp)
   27a4c:	003c0d06 	br	26a84 <__alt_data_end+0xfffe6a84>
   27a50:	008000f4 	movhi	r2,3
   27a54:	10931204 	addi	r2,r2,19528
   27a58:	d8813115 	stw	r2,1220(sp)
   27a5c:	003ac406 	br	26570 <__alt_data_end+0xfffe6570>
   27a60:	b009883a 	mov	r4,r22
   27a64:	b80b883a 	mov	r5,r23
   27a68:	d9811e04 	addi	r6,sp,1144
   27a6c:	002ca9c0 	call	2ca9c <__sprint_r>
   27a70:	103a7d1e 	bne	r2,zero,26468 <__alt_data_end+0xfffe6468>
   27a74:	dc012617 	ldw	r16,1176(sp)
   27a78:	d8c12017 	ldw	r3,1152(sp)
   27a7c:	da000404 	addi	r8,sp,16
   27a80:	003faf06 	br	27940 <__alt_data_end+0xfffe7940>
   27a84:	db012e17 	ldw	r12,1208(sp)
   27a88:	1805883a 	mov	r2,r3
   27a8c:	dac12d15 	stw	r11,1204(sp)
   27a90:	0319c83a 	sub	r12,zero,r12
   27a94:	db012e15 	stw	r12,1208(sp)
   27a98:	003a7e06 	br	26494 <__alt_data_end+0xfffe6494>
   27a9c:	18800044 	addi	r2,r3,1
   27aa0:	8c400814 	ori	r17,r17,32
   27aa4:	1c000047 	ldb	r16,1(r3)
   27aa8:	0039bf06 	br	261a8 <__alt_data_end+0xfffe61a8>
   27aac:	b009883a 	mov	r4,r22
   27ab0:	b80b883a 	mov	r5,r23
   27ab4:	d9811e04 	addi	r6,sp,1144
   27ab8:	002ca9c0 	call	2ca9c <__sprint_r>
   27abc:	103a6a1e 	bne	r2,zero,26468 <__alt_data_end+0xfffe6468>
   27ac0:	d8c12017 	ldw	r3,1152(sp)
   27ac4:	da000404 	addi	r8,sp,16
   27ac8:	003d0c06 	br	26efc <__alt_data_end+0xfffe6efc>
   27acc:	db012817 	ldw	r12,1184(sp)
   27ad0:	d8c13117 	ldw	r3,1220(sp)
   27ad4:	60e5c83a 	sub	r18,r12,r3
   27ad8:	003adb06 	br	26648 <__alt_data_end+0xfffe6648>
   27adc:	da013f15 	stw	r8,1276(sp)
   27ae0:	0025f740 	call	25f74 <strlen>
   27ae4:	1025883a 	mov	r18,r2
   27ae8:	da013f17 	ldw	r8,1276(sp)
   27aec:	903c8e0e 	bge	r18,zero,26d28 <__alt_data_end+0xfffe6d28>
   27af0:	0005883a 	mov	r2,zero
   27af4:	003c8c06 	br	26d28 <__alt_data_end+0xfffe6d28>
   27af8:	b009883a 	mov	r4,r22
   27afc:	b80b883a 	mov	r5,r23
   27b00:	d9811e04 	addi	r6,sp,1144
   27b04:	002ca9c0 	call	2ca9c <__sprint_r>
   27b08:	103a571e 	bne	r2,zero,26468 <__alt_data_end+0xfffe6468>
   27b0c:	d8c12017 	ldw	r3,1152(sp)
   27b10:	d8811f17 	ldw	r2,1148(sp)
   27b14:	da000404 	addi	r8,sp,16
   27b18:	db013317 	ldw	r12,1228(sp)
   27b1c:	dac13117 	ldw	r11,1220(sp)
   27b20:	10800044 	addi	r2,r2,1
   27b24:	60c7883a 	add	r3,r12,r3
   27b28:	42c00015 	stw	r11,0(r8)
   27b2c:	43000115 	stw	r12,4(r8)
   27b30:	d8c12015 	stw	r3,1152(sp)
   27b34:	d8811f15 	stw	r2,1148(sp)
   27b38:	010001c4 	movi	r4,7
   27b3c:	20bb590e 	bge	r4,r2,268a4 <__alt_data_end+0xfffe68a4>
   27b40:	003d7e06 	br	2713c <__alt_data_end+0xfffe713c>
   27b44:	010000f4 	movhi	r4,3
   27b48:	21132684 	addi	r4,r4,19610
   27b4c:	d9013615 	stw	r4,1240(sp)
   27b50:	003af606 	br	2672c <__alt_data_end+0xfffe672c>
   27b54:	d8812604 	addi	r2,sp,1176
   27b58:	d8800115 	stw	r2,4(sp)
   27b5c:	d9413717 	ldw	r5,1244(sp)
   27b60:	d8812504 	addi	r2,sp,1172
   27b64:	d8800215 	stw	r2,8(sp)
   27b68:	d8812104 	addi	r2,sp,1156
   27b6c:	da400015 	stw	r9,0(sp)
   27b70:	d8800315 	stw	r2,12(sp)
   27b74:	b009883a 	mov	r4,r22
   27b78:	900d883a 	mov	r6,r18
   27b7c:	01c000c4 	movi	r7,3
   27b80:	da013f15 	stw	r8,1276(sp)
   27b84:	da413e15 	stw	r9,1272(sp)
   27b88:	002835c0 	call	2835c <_dtoa_r>
   27b8c:	da413e17 	ldw	r9,1272(sp)
   27b90:	da013f17 	ldw	r8,1276(sp)
   27b94:	d8813115 	stw	r2,1220(sp)
   27b98:	4839883a 	mov	fp,r9
   27b9c:	dac13117 	ldw	r11,1220(sp)
   27ba0:	00801184 	movi	r2,70
   27ba4:	5f15883a 	add	r10,r11,fp
   27ba8:	a8bef01e 	bne	r21,r2,2776c <__alt_data_end+0xfffe776c>
   27bac:	59000007 	ldb	r4,0(r11)
   27bb0:	00800c04 	movi	r2,48
   27bb4:	2080e026 	beq	r4,r2,27f38 <___vfprintf_internal_r+0x1f2c>
   27bb8:	d8c12617 	ldw	r3,1176(sp)
   27bbc:	50d5883a 	add	r10,r10,r3
   27bc0:	003eea06 	br	2776c <__alt_data_end+0xfffe776c>
   27bc4:	0025883a 	mov	r18,zero
   27bc8:	003db306 	br	27298 <__alt_data_end+0xfffe7298>
   27bcc:	b009883a 	mov	r4,r22
   27bd0:	b80b883a 	mov	r5,r23
   27bd4:	d9811e04 	addi	r6,sp,1144
   27bd8:	002ca9c0 	call	2ca9c <__sprint_r>
   27bdc:	103a221e 	bne	r2,zero,26468 <__alt_data_end+0xfffe6468>
   27be0:	d8c12017 	ldw	r3,1152(sp)
   27be4:	da000404 	addi	r8,sp,16
   27be8:	003daa06 	br	27294 <__alt_data_end+0xfffe7294>
   27bec:	b009883a 	mov	r4,r22
   27bf0:	b80b883a 	mov	r5,r23
   27bf4:	d9811e04 	addi	r6,sp,1144
   27bf8:	002ca9c0 	call	2ca9c <__sprint_r>
   27bfc:	103a1a1e 	bne	r2,zero,26468 <__alt_data_end+0xfffe6468>
   27c00:	d8812617 	ldw	r2,1176(sp)
   27c04:	d8c12017 	ldw	r3,1152(sp)
   27c08:	da000404 	addi	r8,sp,16
   27c0c:	003e2c06 	br	274c0 <__alt_data_end+0xfffe74c0>
   27c10:	030000f4 	movhi	r12,3
   27c14:	63132284 	addi	r12,r12,19594
   27c18:	db012c15 	stw	r12,1200(sp)
   27c1c:	dac12c17 	ldw	r11,1200(sp)
   27c20:	1c07883a 	add	r3,r3,r16
   27c24:	10800044 	addi	r2,r2,1
   27c28:	42c00015 	stw	r11,0(r8)
   27c2c:	44000115 	stw	r16,4(r8)
   27c30:	d8c12015 	stw	r3,1152(sp)
   27c34:	d8811f15 	stw	r2,1148(sp)
   27c38:	010001c4 	movi	r4,7
   27c3c:	20bfae16 	blt	r4,r2,27af8 <__alt_data_end+0xfffe7af8>
   27c40:	42000204 	addi	r8,r8,8
   27c44:	003fb406 	br	27b18 <__alt_data_end+0xfffe7b18>
   27c48:	030000f4 	movhi	r12,3
   27c4c:	63132684 	addi	r12,r12,19610
   27c50:	db013615 	stw	r12,1240(sp)
   27c54:	003b3806 	br	26938 <__alt_data_end+0xfffe6938>
   27c58:	b009883a 	mov	r4,r22
   27c5c:	b80b883a 	mov	r5,r23
   27c60:	d9811e04 	addi	r6,sp,1144
   27c64:	002ca9c0 	call	2ca9c <__sprint_r>
   27c68:	1039ff1e 	bne	r2,zero,26468 <__alt_data_end+0xfffe6468>
   27c6c:	d8812617 	ldw	r2,1176(sp)
   27c70:	db013317 	ldw	r12,1228(sp)
   27c74:	d8c12017 	ldw	r3,1152(sp)
   27c78:	da000404 	addi	r8,sp,16
   27c7c:	6085c83a 	sub	r2,r12,r2
   27c80:	003e2006 	br	27504 <__alt_data_end+0xfffe7504>
   27c84:	0021883a 	mov	r16,zero
   27c88:	003e1f06 	br	27508 <__alt_data_end+0xfffe7508>
   27c8c:	00800184 	movi	r2,6
   27c90:	1240012e 	bgeu	r2,r9,27c98 <___vfprintf_internal_r+0x1c8c>
   27c94:	1013883a 	mov	r9,r2
   27c98:	4825883a 	mov	r18,r9
   27c9c:	4805883a 	mov	r2,r9
   27ca0:	48009e16 	blt	r9,zero,27f1c <___vfprintf_internal_r+0x1f10>
   27ca4:	d8812b15 	stw	r2,1196(sp)
   27ca8:	008000f4 	movhi	r2,3
   27cac:	10932004 	addi	r2,r2,19584
   27cb0:	d8813115 	stw	r2,1220(sp)
   27cb4:	dcc12d15 	stw	r19,1204(sp)
   27cb8:	d8013215 	stw	zero,1224(sp)
   27cbc:	d8013415 	stw	zero,1232(sp)
   27cc0:	0005883a 	mov	r2,zero
   27cc4:	003a6c06 	br	26678 <__alt_data_end+0xfffe6678>
   27cc8:	008000f4 	movhi	r2,3
   27ccc:	10931504 	addi	r2,r2,19540
   27cd0:	d8813115 	stw	r2,1220(sp)
   27cd4:	003f4c06 	br	27a08 <__alt_data_end+0xfffe7a08>
   27cd8:	00c00b44 	movi	r3,45
   27cdc:	d8812b15 	stw	r2,1196(sp)
   27ce0:	dc412d17 	ldw	r17,1204(sp)
   27ce4:	d8c12785 	stb	r3,1182(sp)
   27ce8:	dcc12d15 	stw	r19,1204(sp)
   27cec:	d8013215 	stw	zero,1224(sp)
   27cf0:	00800b44 	movi	r2,45
   27cf4:	003a5d06 	br	2666c <__alt_data_end+0xfffe666c>
   27cf8:	d8c12617 	ldw	r3,1176(sp)
   27cfc:	00bfff44 	movi	r2,-3
   27d00:	18800d16 	blt	r3,r2,27d38 <___vfprintf_internal_r+0x1d2c>
   27d04:	48c00c16 	blt	r9,r3,27d38 <___vfprintf_internal_r+0x1d2c>
   27d08:	d8c13415 	stw	r3,1232(sp)
   27d0c:	040019c4 	movi	r16,103
   27d10:	003eb506 	br	277e8 <__alt_data_end+0xfffe77e8>
   27d14:	05400b44 	movi	r21,45
   27d18:	dd412785 	stb	r21,1182(sp)
   27d1c:	003a0f06 	br	2655c <__alt_data_end+0xfffe655c>
   27d20:	010000f4 	movhi	r4,3
   27d24:	21132284 	addi	r4,r4,19594
   27d28:	d9012c15 	stw	r4,1200(sp)
   27d2c:	003cb106 	br	26ff4 <__alt_data_end+0xfffe6ff4>
   27d30:	5005883a 	mov	r2,r10
   27d34:	003ea106 	br	277bc <__alt_data_end+0xfffe77bc>
   27d38:	843fff84 	addi	r16,r16,-2
   27d3c:	1f3fffc4 	addi	fp,r3,-1
   27d40:	df012615 	stw	fp,1176(sp)
   27d44:	dc0122c5 	stb	r16,1163(sp)
   27d48:	e0009516 	blt	fp,zero,27fa0 <___vfprintf_internal_r+0x1f94>
   27d4c:	00800ac4 	movi	r2,43
   27d50:	d8812305 	stb	r2,1164(sp)
   27d54:	00800244 	movi	r2,9
   27d58:	1700690e 	bge	r2,fp,27f00 <___vfprintf_internal_r+0x1ef4>
   27d5c:	dd4122c4 	addi	r21,sp,1163
   27d60:	dc012c15 	stw	r16,1200(sp)
   27d64:	8825883a 	mov	r18,r17
   27d68:	a821883a 	mov	r16,r21
   27d6c:	4023883a 	mov	r17,r8
   27d70:	e009883a 	mov	r4,fp
   27d74:	01400284 	movi	r5,10
   27d78:	0023e440 	call	23e44 <__modsi3>
   27d7c:	10800c04 	addi	r2,r2,48
   27d80:	843fffc4 	addi	r16,r16,-1
   27d84:	e009883a 	mov	r4,fp
   27d88:	01400284 	movi	r5,10
   27d8c:	80800005 	stb	r2,0(r16)
   27d90:	0023df00 	call	23df0 <__divsi3>
   27d94:	1039883a 	mov	fp,r2
   27d98:	00800244 	movi	r2,9
   27d9c:	173ff416 	blt	r2,fp,27d70 <__alt_data_end+0xfffe7d70>
   27da0:	8811883a 	mov	r8,r17
   27da4:	e0800c04 	addi	r2,fp,48
   27da8:	9023883a 	mov	r17,r18
   27dac:	8025883a 	mov	r18,r16
   27db0:	913fffc4 	addi	r4,r18,-1
   27db4:	90bfffc5 	stb	r2,-1(r18)
   27db8:	dc012c17 	ldw	r16,1200(sp)
   27dbc:	25408e2e 	bgeu	r4,r21,27ff8 <___vfprintf_internal_r+0x1fec>
   27dc0:	d9412384 	addi	r5,sp,1166
   27dc4:	2c8bc83a 	sub	r5,r5,r18
   27dc8:	d8c12344 	addi	r3,sp,1165
   27dcc:	a94b883a 	add	r5,r21,r5
   27dd0:	00000106 	br	27dd8 <___vfprintf_internal_r+0x1dcc>
   27dd4:	20800003 	ldbu	r2,0(r4)
   27dd8:	18800005 	stb	r2,0(r3)
   27ddc:	18c00044 	addi	r3,r3,1
   27de0:	21000044 	addi	r4,r4,1
   27de4:	197ffb1e 	bne	r3,r5,27dd4 <__alt_data_end+0xfffe7dd4>
   27de8:	d8812304 	addi	r2,sp,1164
   27dec:	1485c83a 	sub	r2,r2,r18
   27df0:	d8c12344 	addi	r3,sp,1165
   27df4:	1885883a 	add	r2,r3,r2
   27df8:	dac13317 	ldw	r11,1228(sp)
   27dfc:	156bc83a 	sub	r21,r2,r21
   27e00:	dd413a15 	stw	r21,1256(sp)
   27e04:	00800044 	movi	r2,1
   27e08:	5d65883a 	add	r18,r11,r21
   27e0c:	12c0770e 	bge	r2,r11,27fec <___vfprintf_internal_r+0x1fe0>
   27e10:	94800044 	addi	r18,r18,1
   27e14:	9005883a 	mov	r2,r18
   27e18:	90007216 	blt	r18,zero,27fe4 <___vfprintf_internal_r+0x1fd8>
   27e1c:	d8013415 	stw	zero,1232(sp)
   27e20:	003e7906 	br	27808 <__alt_data_end+0xfffe7808>
   27e24:	da412b15 	stw	r9,1196(sp)
   27e28:	dd412783 	ldbu	r21,1182(sp)
   27e2c:	4825883a 	mov	r18,r9
   27e30:	dcc12d15 	stw	r19,1204(sp)
   27e34:	d8013215 	stw	zero,1224(sp)
   27e38:	d8013415 	stw	zero,1232(sp)
   27e3c:	003a0706 	br	2665c <__alt_data_end+0xfffe665c>
   27e40:	b009883a 	mov	r4,r22
   27e44:	b80b883a 	mov	r5,r23
   27e48:	d9811e04 	addi	r6,sp,1144
   27e4c:	002ca9c0 	call	2ca9c <__sprint_r>
   27e50:	1039851e 	bne	r2,zero,26468 <__alt_data_end+0xfffe6468>
   27e54:	dc012617 	ldw	r16,1176(sp)
   27e58:	d8c12017 	ldw	r3,1152(sp)
   27e5c:	d8811f17 	ldw	r2,1148(sp)
   27e60:	da000404 	addi	r8,sp,16
   27e64:	003ec706 	br	27984 <__alt_data_end+0xfffe7984>
   27e68:	483e1a1e 	bne	r9,zero,276d4 <__alt_data_end+0xfffe76d4>
   27e6c:	9013883a 	mov	r9,r18
   27e70:	003e1806 	br	276d4 <__alt_data_end+0xfffe76d4>
   27e74:	00c00b44 	movi	r3,45
   27e78:	64a0003c 	xorhi	r18,r12,32768
   27e7c:	d8c12b05 	stb	r3,1196(sp)
   27e80:	003e1a06 	br	276ec <__alt_data_end+0xfffe76ec>
   27e84:	4f000044 	addi	fp,r9,1
   27e88:	003e1f06 	br	27708 <__alt_data_end+0xfffe7708>
   27e8c:	02400184 	movi	r9,6
   27e90:	003e1006 	br	276d4 <__alt_data_end+0xfffe76d4>
   27e94:	d8c13417 	ldw	r3,1232(sp)
   27e98:	00c04b0e 	bge	zero,r3,27fc8 <___vfprintf_internal_r+0x1fbc>
   27e9c:	04800044 	movi	r18,1
   27ea0:	dac13317 	ldw	r11,1228(sp)
   27ea4:	92e5883a 	add	r18,r18,r11
   27ea8:	9005883a 	mov	r2,r18
   27eac:	903e560e 	bge	r18,zero,27808 <__alt_data_end+0xfffe7808>
   27eb0:	0005883a 	mov	r2,zero
   27eb4:	003e5406 	br	27808 <__alt_data_end+0xfffe7808>
   27eb8:	d8c12617 	ldw	r3,1176(sp)
   27ebc:	d8c13415 	stw	r3,1232(sp)
   27ec0:	00c03b0e 	bge	zero,r3,27fb0 <___vfprintf_internal_r+0x1fa4>
   27ec4:	4800081e 	bne	r9,zero,27ee8 <___vfprintf_internal_r+0x1edc>
   27ec8:	8c40004c 	andi	r17,r17,1
   27ecc:	8800061e 	bne	r17,zero,27ee8 <___vfprintf_internal_r+0x1edc>
   27ed0:	1805883a 	mov	r2,r3
   27ed4:	183e4b0e 	bge	r3,zero,27804 <__alt_data_end+0xfffe7804>
   27ed8:	0005883a 	mov	r2,zero
   27edc:	003e4906 	br	27804 <__alt_data_end+0xfffe7804>
   27ee0:	d8812117 	ldw	r2,1156(sp)
   27ee4:	003e3506 	br	277bc <__alt_data_end+0xfffe77bc>
   27ee8:	dac13417 	ldw	r11,1232(sp)
   27eec:	4a400044 	addi	r9,r9,1
   27ef0:	5a65883a 	add	r18,r11,r9
   27ef4:	9005883a 	mov	r2,r18
   27ef8:	903e430e 	bge	r18,zero,27808 <__alt_data_end+0xfffe7808>
   27efc:	003fec06 	br	27eb0 <__alt_data_end+0xfffe7eb0>
   27f00:	00800c04 	movi	r2,48
   27f04:	e0c00c04 	addi	r3,fp,48
   27f08:	d8812345 	stb	r2,1165(sp)
   27f0c:	d8c12385 	stb	r3,1166(sp)
   27f10:	d88123c4 	addi	r2,sp,1167
   27f14:	dd4122c4 	addi	r21,sp,1163
   27f18:	003fb706 	br	27df8 <__alt_data_end+0xfffe7df8>
   27f1c:	0005883a 	mov	r2,zero
   27f20:	003f6006 	br	27ca4 <__alt_data_end+0xfffe7ca4>
   27f24:	db013417 	ldw	r12,1232(sp)
   27f28:	64800044 	addi	r18,r12,1
   27f2c:	9005883a 	mov	r2,r18
   27f30:	903e350e 	bge	r18,zero,27808 <__alt_data_end+0xfffe7808>
   27f34:	003fde06 	br	27eb0 <__alt_data_end+0xfffe7eb0>
   27f38:	d9013717 	ldw	r4,1244(sp)
   27f3c:	900b883a 	mov	r5,r18
   27f40:	000d883a 	mov	r6,zero
   27f44:	000f883a 	mov	r7,zero
   27f48:	da013f15 	stw	r8,1276(sp)
   27f4c:	da413e15 	stw	r9,1272(sp)
   27f50:	da813d15 	stw	r10,1268(sp)
   27f54:	00304240 	call	30424 <__eqdf2>
   27f58:	da013f17 	ldw	r8,1276(sp)
   27f5c:	da413e17 	ldw	r9,1272(sp)
   27f60:	da813d17 	ldw	r10,1268(sp)
   27f64:	103f1426 	beq	r2,zero,27bb8 <__alt_data_end+0xfffe7bb8>
   27f68:	00800044 	movi	r2,1
   27f6c:	1707c83a 	sub	r3,r2,fp
   27f70:	d8c12615 	stw	r3,1176(sp)
   27f74:	003f1106 	br	27bbc <__alt_data_end+0xfffe7bbc>
   27f78:	dac12d17 	ldw	r11,1204(sp)
   27f7c:	5a400017 	ldw	r9,0(r11)
   27f80:	5ac00104 	addi	r11,r11,4
   27f84:	dac12d15 	stw	r11,1204(sp)
   27f88:	483ec60e 	bge	r9,zero,27aa4 <__alt_data_end+0xfffe7aa4>
   27f8c:	027fffc4 	movi	r9,-1
   27f90:	1c000047 	ldb	r16,1(r3)
   27f94:	00388406 	br	261a8 <__alt_data_end+0xfffe61a8>
   27f98:	043fffc4 	movi	r16,-1
   27f9c:	00391006 	br	263e0 <__alt_data_end+0xfffe63e0>
   27fa0:	00800b44 	movi	r2,45
   27fa4:	0739c83a 	sub	fp,zero,fp
   27fa8:	d8812305 	stb	r2,1164(sp)
   27fac:	003f6906 	br	27d54 <__alt_data_end+0xfffe7d54>
   27fb0:	4800081e 	bne	r9,zero,27fd4 <___vfprintf_internal_r+0x1fc8>
   27fb4:	8c40004c 	andi	r17,r17,1
   27fb8:	8800061e 	bne	r17,zero,27fd4 <___vfprintf_internal_r+0x1fc8>
   27fbc:	00800044 	movi	r2,1
   27fc0:	1025883a 	mov	r18,r2
   27fc4:	003e1006 	br	27808 <__alt_data_end+0xfffe7808>
   27fc8:	04800084 	movi	r18,2
   27fcc:	90e5c83a 	sub	r18,r18,r3
   27fd0:	003fb306 	br	27ea0 <__alt_data_end+0xfffe7ea0>
   27fd4:	4c800084 	addi	r18,r9,2
   27fd8:	9005883a 	mov	r2,r18
   27fdc:	903e0a0e 	bge	r18,zero,27808 <__alt_data_end+0xfffe7808>
   27fe0:	003fb306 	br	27eb0 <__alt_data_end+0xfffe7eb0>
   27fe4:	0005883a 	mov	r2,zero
   27fe8:	003f8c06 	br	27e1c <__alt_data_end+0xfffe7e1c>
   27fec:	88a2703a 	and	r17,r17,r2
   27ff0:	883f8826 	beq	r17,zero,27e14 <__alt_data_end+0xfffe7e14>
   27ff4:	003f8606 	br	27e10 <__alt_data_end+0xfffe7e10>
   27ff8:	d8812344 	addi	r2,sp,1165
   27ffc:	003f7e06 	br	27df8 <__alt_data_end+0xfffe7df8>
   28000:	d8c12617 	ldw	r3,1176(sp)
   28004:	003f4d06 	br	27d3c <__alt_data_end+0xfffe7d3c>

00028008 <__vfprintf_internal>:
   28008:	2007883a 	mov	r3,r4
   2800c:	010000f4 	movhi	r4,3
   28010:	211c2604 	addi	r4,r4,28824
   28014:	21000017 	ldw	r4,0(r4)
   28018:	2805883a 	mov	r2,r5
   2801c:	300f883a 	mov	r7,r6
   28020:	180b883a 	mov	r5,r3
   28024:	100d883a 	mov	r6,r2
   28028:	002600c1 	jmpi	2600c <___vfprintf_internal_r>

0002802c <__swsetup_r>:
   2802c:	008000f4 	movhi	r2,3
   28030:	defffd04 	addi	sp,sp,-12
   28034:	109c2604 	addi	r2,r2,28824
   28038:	dc400115 	stw	r17,4(sp)
   2803c:	2023883a 	mov	r17,r4
   28040:	11000017 	ldw	r4,0(r2)
   28044:	dc000015 	stw	r16,0(sp)
   28048:	dfc00215 	stw	ra,8(sp)
   2804c:	2821883a 	mov	r16,r5
   28050:	20000226 	beq	r4,zero,2805c <__swsetup_r+0x30>
   28054:	20c00e17 	ldw	r3,56(r4)
   28058:	18002e26 	beq	r3,zero,28114 <__swsetup_r+0xe8>
   2805c:	8080030b 	ldhu	r2,12(r16)
   28060:	10c0020c 	andi	r3,r2,8
   28064:	100d883a 	mov	r6,r2
   28068:	18000f26 	beq	r3,zero,280a8 <__swsetup_r+0x7c>
   2806c:	80c00417 	ldw	r3,16(r16)
   28070:	18001526 	beq	r3,zero,280c8 <__swsetup_r+0x9c>
   28074:	1100004c 	andi	r4,r2,1
   28078:	20001c1e 	bne	r4,zero,280ec <__swsetup_r+0xc0>
   2807c:	1080008c 	andi	r2,r2,2
   28080:	1000261e 	bne	r2,zero,2811c <__swsetup_r+0xf0>
   28084:	80800517 	ldw	r2,20(r16)
   28088:	80800215 	stw	r2,8(r16)
   2808c:	18001c26 	beq	r3,zero,28100 <__swsetup_r+0xd4>
   28090:	0005883a 	mov	r2,zero
   28094:	dfc00217 	ldw	ra,8(sp)
   28098:	dc400117 	ldw	r17,4(sp)
   2809c:	dc000017 	ldw	r16,0(sp)
   280a0:	dec00304 	addi	sp,sp,12
   280a4:	f800283a 	ret
   280a8:	3080040c 	andi	r2,r6,16
   280ac:	10001726 	beq	r2,zero,2810c <__swsetup_r+0xe0>
   280b0:	3080010c 	andi	r2,r6,4
   280b4:	10001b1e 	bne	r2,zero,28124 <__swsetup_r+0xf8>
   280b8:	80c00417 	ldw	r3,16(r16)
   280bc:	30800214 	ori	r2,r6,8
   280c0:	8080030d 	sth	r2,12(r16)
   280c4:	183feb1e 	bne	r3,zero,28074 <__alt_data_end+0xfffe8074>
   280c8:	1140a00c 	andi	r5,r2,640
   280cc:	01008004 	movi	r4,512
   280d0:	293fe826 	beq	r5,r4,28074 <__alt_data_end+0xfffe8074>
   280d4:	8809883a 	mov	r4,r17
   280d8:	800b883a 	mov	r5,r16
   280dc:	002ab840 	call	2ab84 <__smakebuf_r>
   280e0:	8080030b 	ldhu	r2,12(r16)
   280e4:	80c00417 	ldw	r3,16(r16)
   280e8:	003fe206 	br	28074 <__alt_data_end+0xfffe8074>
   280ec:	80800517 	ldw	r2,20(r16)
   280f0:	80000215 	stw	zero,8(r16)
   280f4:	0085c83a 	sub	r2,zero,r2
   280f8:	80800615 	stw	r2,24(r16)
   280fc:	183fe41e 	bne	r3,zero,28090 <__alt_data_end+0xfffe8090>
   28100:	8080030b 	ldhu	r2,12(r16)
   28104:	1080200c 	andi	r2,r2,128
   28108:	103fe226 	beq	r2,zero,28094 <__alt_data_end+0xfffe8094>
   2810c:	00bfffc4 	movi	r2,-1
   28110:	003fe006 	br	28094 <__alt_data_end+0xfffe8094>
   28114:	002a02c0 	call	2a02c <__sinit>
   28118:	003fd006 	br	2805c <__alt_data_end+0xfffe805c>
   2811c:	0005883a 	mov	r2,zero
   28120:	003fd906 	br	28088 <__alt_data_end+0xfffe8088>
   28124:	81400c17 	ldw	r5,48(r16)
   28128:	28000626 	beq	r5,zero,28144 <__swsetup_r+0x118>
   2812c:	80801004 	addi	r2,r16,64
   28130:	28800326 	beq	r5,r2,28140 <__swsetup_r+0x114>
   28134:	8809883a 	mov	r4,r17
   28138:	002a1a00 	call	2a1a0 <_free_r>
   2813c:	8180030b 	ldhu	r6,12(r16)
   28140:	80000c15 	stw	zero,48(r16)
   28144:	80c00417 	ldw	r3,16(r16)
   28148:	00bff6c4 	movi	r2,-37
   2814c:	118c703a 	and	r6,r2,r6
   28150:	80000115 	stw	zero,4(r16)
   28154:	80c00015 	stw	r3,0(r16)
   28158:	003fd806 	br	280bc <__alt_data_end+0xfffe80bc>

0002815c <quorem>:
   2815c:	defff704 	addi	sp,sp,-36
   28160:	dc800215 	stw	r18,8(sp)
   28164:	20800417 	ldw	r2,16(r4)
   28168:	2c800417 	ldw	r18,16(r5)
   2816c:	dfc00815 	stw	ra,32(sp)
   28170:	ddc00715 	stw	r23,28(sp)
   28174:	dd800615 	stw	r22,24(sp)
   28178:	dd400515 	stw	r21,20(sp)
   2817c:	dd000415 	stw	r20,16(sp)
   28180:	dcc00315 	stw	r19,12(sp)
   28184:	dc400115 	stw	r17,4(sp)
   28188:	dc000015 	stw	r16,0(sp)
   2818c:	14807116 	blt	r2,r18,28354 <quorem+0x1f8>
   28190:	94bfffc4 	addi	r18,r18,-1
   28194:	94ad883a 	add	r22,r18,r18
   28198:	b5ad883a 	add	r22,r22,r22
   2819c:	2c400504 	addi	r17,r5,20
   281a0:	8da9883a 	add	r20,r17,r22
   281a4:	25400504 	addi	r21,r4,20
   281a8:	282f883a 	mov	r23,r5
   281ac:	adad883a 	add	r22,r21,r22
   281b0:	a1400017 	ldw	r5,0(r20)
   281b4:	2021883a 	mov	r16,r4
   281b8:	b1000017 	ldw	r4,0(r22)
   281bc:	29400044 	addi	r5,r5,1
   281c0:	0023ea00 	call	23ea0 <__udivsi3>
   281c4:	1027883a 	mov	r19,r2
   281c8:	10002c26 	beq	r2,zero,2827c <quorem+0x120>
   281cc:	a813883a 	mov	r9,r21
   281d0:	8811883a 	mov	r8,r17
   281d4:	0009883a 	mov	r4,zero
   281d8:	000d883a 	mov	r6,zero
   281dc:	41c00017 	ldw	r7,0(r8)
   281e0:	49400017 	ldw	r5,0(r9)
   281e4:	42000104 	addi	r8,r8,4
   281e8:	38bfffcc 	andi	r2,r7,65535
   281ec:	14c5383a 	mul	r2,r2,r19
   281f0:	380ed43a 	srli	r7,r7,16
   281f4:	28ffffcc 	andi	r3,r5,65535
   281f8:	2085883a 	add	r2,r4,r2
   281fc:	1008d43a 	srli	r4,r2,16
   28200:	3ccf383a 	mul	r7,r7,r19
   28204:	198d883a 	add	r6,r3,r6
   28208:	10ffffcc 	andi	r3,r2,65535
   2820c:	30c7c83a 	sub	r3,r6,r3
   28210:	280ad43a 	srli	r5,r5,16
   28214:	21c9883a 	add	r4,r4,r7
   28218:	180dd43a 	srai	r6,r3,16
   2821c:	20bfffcc 	andi	r2,r4,65535
   28220:	288bc83a 	sub	r5,r5,r2
   28224:	298b883a 	add	r5,r5,r6
   28228:	280e943a 	slli	r7,r5,16
   2822c:	18ffffcc 	andi	r3,r3,65535
   28230:	2008d43a 	srli	r4,r4,16
   28234:	38ceb03a 	or	r7,r7,r3
   28238:	49c00015 	stw	r7,0(r9)
   2823c:	280dd43a 	srai	r6,r5,16
   28240:	4a400104 	addi	r9,r9,4
   28244:	a23fe52e 	bgeu	r20,r8,281dc <__alt_data_end+0xfffe81dc>
   28248:	b0800017 	ldw	r2,0(r22)
   2824c:	10000b1e 	bne	r2,zero,2827c <quorem+0x120>
   28250:	b0bfff04 	addi	r2,r22,-4
   28254:	a880082e 	bgeu	r21,r2,28278 <quorem+0x11c>
   28258:	b0ffff17 	ldw	r3,-4(r22)
   2825c:	18000326 	beq	r3,zero,2826c <quorem+0x110>
   28260:	00000506 	br	28278 <quorem+0x11c>
   28264:	10c00017 	ldw	r3,0(r2)
   28268:	1800031e 	bne	r3,zero,28278 <quorem+0x11c>
   2826c:	10bfff04 	addi	r2,r2,-4
   28270:	94bfffc4 	addi	r18,r18,-1
   28274:	a8bffb36 	bltu	r21,r2,28264 <__alt_data_end+0xfffe8264>
   28278:	84800415 	stw	r18,16(r16)
   2827c:	8009883a 	mov	r4,r16
   28280:	b80b883a 	mov	r5,r23
   28284:	002b9780 	call	2b978 <__mcmp>
   28288:	10002616 	blt	r2,zero,28324 <quorem+0x1c8>
   2828c:	9cc00044 	addi	r19,r19,1
   28290:	a80d883a 	mov	r6,r21
   28294:	000b883a 	mov	r5,zero
   28298:	31000017 	ldw	r4,0(r6)
   2829c:	88800017 	ldw	r2,0(r17)
   282a0:	31800104 	addi	r6,r6,4
   282a4:	20ffffcc 	andi	r3,r4,65535
   282a8:	194b883a 	add	r5,r3,r5
   282ac:	10ffffcc 	andi	r3,r2,65535
   282b0:	28c7c83a 	sub	r3,r5,r3
   282b4:	1004d43a 	srli	r2,r2,16
   282b8:	2008d43a 	srli	r4,r4,16
   282bc:	180bd43a 	srai	r5,r3,16
   282c0:	18ffffcc 	andi	r3,r3,65535
   282c4:	2089c83a 	sub	r4,r4,r2
   282c8:	2149883a 	add	r4,r4,r5
   282cc:	2004943a 	slli	r2,r4,16
   282d0:	8c400104 	addi	r17,r17,4
   282d4:	200bd43a 	srai	r5,r4,16
   282d8:	10c6b03a 	or	r3,r2,r3
   282dc:	30ffff15 	stw	r3,-4(r6)
   282e0:	a47fed2e 	bgeu	r20,r17,28298 <__alt_data_end+0xfffe8298>
   282e4:	9485883a 	add	r2,r18,r18
   282e8:	1085883a 	add	r2,r2,r2
   282ec:	a887883a 	add	r3,r21,r2
   282f0:	18800017 	ldw	r2,0(r3)
   282f4:	10000b1e 	bne	r2,zero,28324 <quorem+0x1c8>
   282f8:	18bfff04 	addi	r2,r3,-4
   282fc:	a880082e 	bgeu	r21,r2,28320 <quorem+0x1c4>
   28300:	18ffff17 	ldw	r3,-4(r3)
   28304:	18000326 	beq	r3,zero,28314 <quorem+0x1b8>
   28308:	00000506 	br	28320 <quorem+0x1c4>
   2830c:	10c00017 	ldw	r3,0(r2)
   28310:	1800031e 	bne	r3,zero,28320 <quorem+0x1c4>
   28314:	10bfff04 	addi	r2,r2,-4
   28318:	94bfffc4 	addi	r18,r18,-1
   2831c:	a8bffb36 	bltu	r21,r2,2830c <__alt_data_end+0xfffe830c>
   28320:	84800415 	stw	r18,16(r16)
   28324:	9805883a 	mov	r2,r19
   28328:	dfc00817 	ldw	ra,32(sp)
   2832c:	ddc00717 	ldw	r23,28(sp)
   28330:	dd800617 	ldw	r22,24(sp)
   28334:	dd400517 	ldw	r21,20(sp)
   28338:	dd000417 	ldw	r20,16(sp)
   2833c:	dcc00317 	ldw	r19,12(sp)
   28340:	dc800217 	ldw	r18,8(sp)
   28344:	dc400117 	ldw	r17,4(sp)
   28348:	dc000017 	ldw	r16,0(sp)
   2834c:	dec00904 	addi	sp,sp,36
   28350:	f800283a 	ret
   28354:	0005883a 	mov	r2,zero
   28358:	003ff306 	br	28328 <__alt_data_end+0xfffe8328>

0002835c <_dtoa_r>:
   2835c:	20801017 	ldw	r2,64(r4)
   28360:	deffde04 	addi	sp,sp,-136
   28364:	dd401d15 	stw	r21,116(sp)
   28368:	dcc01b15 	stw	r19,108(sp)
   2836c:	dc801a15 	stw	r18,104(sp)
   28370:	dc401915 	stw	r17,100(sp)
   28374:	dc001815 	stw	r16,96(sp)
   28378:	dfc02115 	stw	ra,132(sp)
   2837c:	df002015 	stw	fp,128(sp)
   28380:	ddc01f15 	stw	r23,124(sp)
   28384:	dd801e15 	stw	r22,120(sp)
   28388:	dd001c15 	stw	r20,112(sp)
   2838c:	d9c00315 	stw	r7,12(sp)
   28390:	2021883a 	mov	r16,r4
   28394:	302b883a 	mov	r21,r6
   28398:	2825883a 	mov	r18,r5
   2839c:	dc402417 	ldw	r17,144(sp)
   283a0:	3027883a 	mov	r19,r6
   283a4:	10000826 	beq	r2,zero,283c8 <_dtoa_r+0x6c>
   283a8:	21801117 	ldw	r6,68(r4)
   283ac:	00c00044 	movi	r3,1
   283b0:	100b883a 	mov	r5,r2
   283b4:	1986983a 	sll	r3,r3,r6
   283b8:	11800115 	stw	r6,4(r2)
   283bc:	10c00215 	stw	r3,8(r2)
   283c0:	002b1600 	call	2b160 <_Bfree>
   283c4:	80001015 	stw	zero,64(r16)
   283c8:	a8002d16 	blt	r21,zero,28480 <_dtoa_r+0x124>
   283cc:	88000015 	stw	zero,0(r17)
   283d0:	a8dffc2c 	andhi	r3,r21,32752
   283d4:	009ffc34 	movhi	r2,32752
   283d8:	18801b26 	beq	r3,r2,28448 <_dtoa_r+0xec>
   283dc:	9009883a 	mov	r4,r18
   283e0:	980b883a 	mov	r5,r19
   283e4:	000d883a 	mov	r6,zero
   283e8:	000f883a 	mov	r7,zero
   283ec:	00304240 	call	30424 <__eqdf2>
   283f0:	10002a1e 	bne	r2,zero,2849c <_dtoa_r+0x140>
   283f4:	d8c02317 	ldw	r3,140(sp)
   283f8:	d9002517 	ldw	r4,148(sp)
   283fc:	00800044 	movi	r2,1
   28400:	18800015 	stw	r2,0(r3)
   28404:	2001a226 	beq	r4,zero,28a90 <_dtoa_r+0x734>
   28408:	008000f4 	movhi	r2,3
   2840c:	10932244 	addi	r2,r2,19593
   28410:	20800015 	stw	r2,0(r4)
   28414:	10bfffc4 	addi	r2,r2,-1
   28418:	dfc02117 	ldw	ra,132(sp)
   2841c:	df002017 	ldw	fp,128(sp)
   28420:	ddc01f17 	ldw	r23,124(sp)
   28424:	dd801e17 	ldw	r22,120(sp)
   28428:	dd401d17 	ldw	r21,116(sp)
   2842c:	dd001c17 	ldw	r20,112(sp)
   28430:	dcc01b17 	ldw	r19,108(sp)
   28434:	dc801a17 	ldw	r18,104(sp)
   28438:	dc401917 	ldw	r17,100(sp)
   2843c:	dc001817 	ldw	r16,96(sp)
   28440:	dec02204 	addi	sp,sp,136
   28444:	f800283a 	ret
   28448:	d8c02317 	ldw	r3,140(sp)
   2844c:	0089c3c4 	movi	r2,9999
   28450:	18800015 	stw	r2,0(r3)
   28454:	90017c26 	beq	r18,zero,28a48 <_dtoa_r+0x6ec>
   28458:	008000f4 	movhi	r2,3
   2845c:	10932e04 	addi	r2,r2,19640
   28460:	d9002517 	ldw	r4,148(sp)
   28464:	203fec26 	beq	r4,zero,28418 <__alt_data_end+0xfffe8418>
   28468:	10c000c7 	ldb	r3,3(r2)
   2846c:	18017d1e 	bne	r3,zero,28a64 <_dtoa_r+0x708>
   28470:	10c000c4 	addi	r3,r2,3
   28474:	d9802517 	ldw	r6,148(sp)
   28478:	30c00015 	stw	r3,0(r6)
   2847c:	003fe606 	br	28418 <__alt_data_end+0xfffe8418>
   28480:	04e00034 	movhi	r19,32768
   28484:	9cffffc4 	addi	r19,r19,-1
   28488:	00800044 	movi	r2,1
   2848c:	ace6703a 	and	r19,r21,r19
   28490:	88800015 	stw	r2,0(r17)
   28494:	982b883a 	mov	r21,r19
   28498:	003fcd06 	br	283d0 <__alt_data_end+0xfffe83d0>
   2849c:	d8800204 	addi	r2,sp,8
   284a0:	a822d53a 	srli	r17,r21,20
   284a4:	d8800015 	stw	r2,0(sp)
   284a8:	8009883a 	mov	r4,r16
   284ac:	900b883a 	mov	r5,r18
   284b0:	980d883a 	mov	r6,r19
   284b4:	d9c00104 	addi	r7,sp,4
   284b8:	002bcec0 	call	2bcec <__d2b>
   284bc:	1039883a 	mov	fp,r2
   284c0:	88016a1e 	bne	r17,zero,28a6c <_dtoa_r+0x710>
   284c4:	dd000217 	ldw	r20,8(sp)
   284c8:	dc400117 	ldw	r17,4(sp)
   284cc:	00befbc4 	movi	r2,-1041
   284d0:	a463883a 	add	r17,r20,r17
   284d4:	8882ea16 	blt	r17,r2,29080 <_dtoa_r+0xd24>
   284d8:	00bf0384 	movi	r2,-1010
   284dc:	1445c83a 	sub	r2,r2,r17
   284e0:	89010484 	addi	r4,r17,1042
   284e4:	a8aa983a 	sll	r21,r21,r2
   284e8:	9108d83a 	srl	r4,r18,r4
   284ec:	a908b03a 	or	r4,r21,r4
   284f0:	00317b40 	call	317b4 <__floatunsidf>
   284f4:	017f8434 	movhi	r5,65040
   284f8:	01800044 	movi	r6,1
   284fc:	1009883a 	mov	r4,r2
   28500:	194b883a 	add	r5,r3,r5
   28504:	8c7fffc4 	addi	r17,r17,-1
   28508:	d9800f15 	stw	r6,60(sp)
   2850c:	000d883a 	mov	r6,zero
   28510:	01cffe34 	movhi	r7,16376
   28514:	0030d8c0 	call	30d8c <__subdf3>
   28518:	0198dbf4 	movhi	r6,25455
   2851c:	01cff4f4 	movhi	r7,16339
   28520:	1009883a 	mov	r4,r2
   28524:	180b883a 	mov	r5,r3
   28528:	3190d844 	addi	r6,r6,17249
   2852c:	39e1e9c4 	addi	r7,r7,-30809
   28530:	00306680 	call	30668 <__muldf3>
   28534:	01a2d874 	movhi	r6,35681
   28538:	01cff1f4 	movhi	r7,16327
   2853c:	180b883a 	mov	r5,r3
   28540:	31b22cc4 	addi	r6,r6,-14157
   28544:	39e28a04 	addi	r7,r7,-30168
   28548:	1009883a 	mov	r4,r2
   2854c:	002f2bc0 	call	2f2bc <__adddf3>
   28550:	8809883a 	mov	r4,r17
   28554:	102d883a 	mov	r22,r2
   28558:	182b883a 	mov	r21,r3
   2855c:	00316e40 	call	316e4 <__floatsidf>
   28560:	019427f4 	movhi	r6,20639
   28564:	01cff4f4 	movhi	r7,16339
   28568:	1009883a 	mov	r4,r2
   2856c:	180b883a 	mov	r5,r3
   28570:	319e7ec4 	addi	r6,r6,31227
   28574:	39d104c4 	addi	r7,r7,17427
   28578:	00306680 	call	30668 <__muldf3>
   2857c:	b009883a 	mov	r4,r22
   28580:	a80b883a 	mov	r5,r21
   28584:	100d883a 	mov	r6,r2
   28588:	180f883a 	mov	r7,r3
   2858c:	002f2bc0 	call	2f2bc <__adddf3>
   28590:	1009883a 	mov	r4,r2
   28594:	180b883a 	mov	r5,r3
   28598:	102d883a 	mov	r22,r2
   2859c:	182b883a 	mov	r21,r3
   285a0:	003165c0 	call	3165c <__fixdfsi>
   285a4:	b009883a 	mov	r4,r22
   285a8:	a80b883a 	mov	r5,r21
   285ac:	000d883a 	mov	r6,zero
   285b0:	000f883a 	mov	r7,zero
   285b4:	d8800515 	stw	r2,20(sp)
   285b8:	00305880 	call	30588 <__ledf2>
   285bc:	10023116 	blt	r2,zero,28e84 <_dtoa_r+0xb28>
   285c0:	d8c00517 	ldw	r3,20(sp)
   285c4:	00800584 	movi	r2,22
   285c8:	10c21f36 	bltu	r2,r3,28e48 <_dtoa_r+0xaec>
   285cc:	180490fa 	slli	r2,r3,3
   285d0:	00c000f4 	movhi	r3,3
   285d4:	18d34a04 	addi	r3,r3,19752
   285d8:	1885883a 	add	r2,r3,r2
   285dc:	11000017 	ldw	r4,0(r2)
   285e0:	11400117 	ldw	r5,4(r2)
   285e4:	900d883a 	mov	r6,r18
   285e8:	980f883a 	mov	r7,r19
   285ec:	00304a80 	call	304a8 <__gedf2>
   285f0:	0082a70e 	bge	zero,r2,29090 <_dtoa_r+0xd34>
   285f4:	d9000517 	ldw	r4,20(sp)
   285f8:	d8000c15 	stw	zero,48(sp)
   285fc:	213fffc4 	addi	r4,r4,-1
   28600:	d9000515 	stw	r4,20(sp)
   28604:	a463c83a 	sub	r17,r20,r17
   28608:	8dbfffc4 	addi	r22,r17,-1
   2860c:	b0021916 	blt	r22,zero,28e74 <_dtoa_r+0xb18>
   28610:	d8000815 	stw	zero,32(sp)
   28614:	d8800517 	ldw	r2,20(sp)
   28618:	10020e16 	blt	r2,zero,28e54 <_dtoa_r+0xaf8>
   2861c:	b0ad883a 	add	r22,r22,r2
   28620:	d8800a15 	stw	r2,40(sp)
   28624:	d8000915 	stw	zero,36(sp)
   28628:	d8c00317 	ldw	r3,12(sp)
   2862c:	00800244 	movi	r2,9
   28630:	10c11a36 	bltu	r2,r3,28a9c <_dtoa_r+0x740>
   28634:	00800144 	movi	r2,5
   28638:	10c4fc0e 	bge	r2,r3,29a2c <_dtoa_r+0x16d0>
   2863c:	18ffff04 	addi	r3,r3,-4
   28640:	d8c00315 	stw	r3,12(sp)
   28644:	0029883a 	mov	r20,zero
   28648:	d9800317 	ldw	r6,12(sp)
   2864c:	008000c4 	movi	r2,3
   28650:	3083bd26 	beq	r6,r2,29548 <_dtoa_r+0x11ec>
   28654:	1183670e 	bge	r2,r6,293f4 <_dtoa_r+0x1098>
   28658:	d8c00317 	ldw	r3,12(sp)
   2865c:	00800104 	movi	r2,4
   28660:	1882e726 	beq	r3,r2,29200 <_dtoa_r+0xea4>
   28664:	00800144 	movi	r2,5
   28668:	1884f21e 	bne	r3,r2,29a34 <_dtoa_r+0x16d8>
   2866c:	00800044 	movi	r2,1
   28670:	d8800b15 	stw	r2,44(sp)
   28674:	d8c02217 	ldw	r3,136(sp)
   28678:	d9000517 	ldw	r4,20(sp)
   2867c:	1907883a 	add	r3,r3,r4
   28680:	19800044 	addi	r6,r3,1
   28684:	d8c00d15 	stw	r3,52(sp)
   28688:	d9800615 	stw	r6,24(sp)
   2868c:	0183c30e 	bge	zero,r6,2959c <_dtoa_r+0x1240>
   28690:	d9800617 	ldw	r6,24(sp)
   28694:	3023883a 	mov	r17,r6
   28698:	80001115 	stw	zero,68(r16)
   2869c:	008005c4 	movi	r2,23
   286a0:	1184f62e 	bgeu	r2,r6,29a7c <_dtoa_r+0x1720>
   286a4:	00c00044 	movi	r3,1
   286a8:	00800104 	movi	r2,4
   286ac:	1085883a 	add	r2,r2,r2
   286b0:	11000504 	addi	r4,r2,20
   286b4:	180b883a 	mov	r5,r3
   286b8:	18c00044 	addi	r3,r3,1
   286bc:	313ffb2e 	bgeu	r6,r4,286ac <__alt_data_end+0xfffe86ac>
   286c0:	81401115 	stw	r5,68(r16)
   286c4:	8009883a 	mov	r4,r16
   286c8:	002b0b80 	call	2b0b8 <_Balloc>
   286cc:	d8800715 	stw	r2,28(sp)
   286d0:	80801015 	stw	r2,64(r16)
   286d4:	00800384 	movi	r2,14
   286d8:	1440fd36 	bltu	r2,r17,28ad0 <_dtoa_r+0x774>
   286dc:	a000fc26 	beq	r20,zero,28ad0 <_dtoa_r+0x774>
   286e0:	d8800517 	ldw	r2,20(sp)
   286e4:	0083b90e 	bge	zero,r2,295cc <_dtoa_r+0x1270>
   286e8:	d8c00517 	ldw	r3,20(sp)
   286ec:	108003cc 	andi	r2,r2,15
   286f0:	100490fa 	slli	r2,r2,3
   286f4:	182fd13a 	srai	r23,r3,4
   286f8:	00c000f4 	movhi	r3,3
   286fc:	18d34a04 	addi	r3,r3,19752
   28700:	1885883a 	add	r2,r3,r2
   28704:	b8c0040c 	andi	r3,r23,16
   28708:	12c00017 	ldw	r11,0(r2)
   2870c:	12800117 	ldw	r10,4(r2)
   28710:	18039726 	beq	r3,zero,29570 <_dtoa_r+0x1214>
   28714:	008000f4 	movhi	r2,3
   28718:	10934004 	addi	r2,r2,19712
   2871c:	11800817 	ldw	r6,32(r2)
   28720:	11c00917 	ldw	r7,36(r2)
   28724:	9009883a 	mov	r4,r18
   28728:	980b883a 	mov	r5,r19
   2872c:	da801615 	stw	r10,88(sp)
   28730:	dac01515 	stw	r11,84(sp)
   28734:	002fb580 	call	2fb58 <__divdf3>
   28738:	da801617 	ldw	r10,88(sp)
   2873c:	dac01517 	ldw	r11,84(sp)
   28740:	bdc003cc 	andi	r23,r23,15
   28744:	044000c4 	movi	r17,3
   28748:	d8800e15 	stw	r2,56(sp)
   2874c:	182b883a 	mov	r21,r3
   28750:	b8001126 	beq	r23,zero,28798 <_dtoa_r+0x43c>
   28754:	050000f4 	movhi	r20,3
   28758:	a5134004 	addi	r20,r20,19712
   2875c:	5805883a 	mov	r2,r11
   28760:	5007883a 	mov	r3,r10
   28764:	b980004c 	andi	r6,r23,1
   28768:	1009883a 	mov	r4,r2
   2876c:	b82fd07a 	srai	r23,r23,1
   28770:	180b883a 	mov	r5,r3
   28774:	30000426 	beq	r6,zero,28788 <_dtoa_r+0x42c>
   28778:	a1800017 	ldw	r6,0(r20)
   2877c:	a1c00117 	ldw	r7,4(r20)
   28780:	8c400044 	addi	r17,r17,1
   28784:	00306680 	call	30668 <__muldf3>
   28788:	a5000204 	addi	r20,r20,8
   2878c:	b83ff51e 	bne	r23,zero,28764 <__alt_data_end+0xfffe8764>
   28790:	1017883a 	mov	r11,r2
   28794:	1815883a 	mov	r10,r3
   28798:	d9000e17 	ldw	r4,56(sp)
   2879c:	a80b883a 	mov	r5,r21
   287a0:	580d883a 	mov	r6,r11
   287a4:	500f883a 	mov	r7,r10
   287a8:	002fb580 	call	2fb58 <__divdf3>
   287ac:	1029883a 	mov	r20,r2
   287b0:	182b883a 	mov	r21,r3
   287b4:	d9800c17 	ldw	r6,48(sp)
   287b8:	30000626 	beq	r6,zero,287d4 <_dtoa_r+0x478>
   287bc:	a009883a 	mov	r4,r20
   287c0:	a80b883a 	mov	r5,r21
   287c4:	000d883a 	mov	r6,zero
   287c8:	01cffc34 	movhi	r7,16368
   287cc:	00305880 	call	30588 <__ledf2>
   287d0:	10043216 	blt	r2,zero,2989c <_dtoa_r+0x1540>
   287d4:	8809883a 	mov	r4,r17
   287d8:	00316e40 	call	316e4 <__floatsidf>
   287dc:	1009883a 	mov	r4,r2
   287e0:	180b883a 	mov	r5,r3
   287e4:	a00d883a 	mov	r6,r20
   287e8:	a80f883a 	mov	r7,r21
   287ec:	00306680 	call	30668 <__muldf3>
   287f0:	000d883a 	mov	r6,zero
   287f4:	1009883a 	mov	r4,r2
   287f8:	180b883a 	mov	r5,r3
   287fc:	01d00734 	movhi	r7,16412
   28800:	002f2bc0 	call	2f2bc <__adddf3>
   28804:	1023883a 	mov	r17,r2
   28808:	d9800617 	ldw	r6,24(sp)
   2880c:	00bf3034 	movhi	r2,64704
   28810:	1885883a 	add	r2,r3,r2
   28814:	d8800e15 	stw	r2,56(sp)
   28818:	30032e26 	beq	r6,zero,294d4 <_dtoa_r+0x1178>
   2881c:	d8c00517 	ldw	r3,20(sp)
   28820:	da800617 	ldw	r10,24(sp)
   28824:	d8c01215 	stw	r3,72(sp)
   28828:	d9000b17 	ldw	r4,44(sp)
   2882c:	2003b026 	beq	r4,zero,296f0 <_dtoa_r+0x1394>
   28830:	50bfffc4 	addi	r2,r10,-1
   28834:	100490fa 	slli	r2,r2,3
   28838:	00c000f4 	movhi	r3,3
   2883c:	18d34a04 	addi	r3,r3,19752
   28840:	1885883a 	add	r2,r3,r2
   28844:	11800017 	ldw	r6,0(r2)
   28848:	11c00117 	ldw	r7,4(r2)
   2884c:	d8800717 	ldw	r2,28(sp)
   28850:	0009883a 	mov	r4,zero
   28854:	014ff834 	movhi	r5,16352
   28858:	da801615 	stw	r10,88(sp)
   2885c:	15c00044 	addi	r23,r2,1
   28860:	002fb580 	call	2fb58 <__divdf3>
   28864:	d9c00e17 	ldw	r7,56(sp)
   28868:	880d883a 	mov	r6,r17
   2886c:	1009883a 	mov	r4,r2
   28870:	180b883a 	mov	r5,r3
   28874:	0030d8c0 	call	30d8c <__subdf3>
   28878:	a80b883a 	mov	r5,r21
   2887c:	a009883a 	mov	r4,r20
   28880:	d8c01015 	stw	r3,64(sp)
   28884:	d8800e15 	stw	r2,56(sp)
   28888:	003165c0 	call	3165c <__fixdfsi>
   2888c:	1009883a 	mov	r4,r2
   28890:	d8801715 	stw	r2,92(sp)
   28894:	00316e40 	call	316e4 <__floatsidf>
   28898:	a009883a 	mov	r4,r20
   2889c:	a80b883a 	mov	r5,r21
   288a0:	100d883a 	mov	r6,r2
   288a4:	180f883a 	mov	r7,r3
   288a8:	0030d8c0 	call	30d8c <__subdf3>
   288ac:	da001717 	ldw	r8,92(sp)
   288b0:	1829883a 	mov	r20,r3
   288b4:	d8c00717 	ldw	r3,28(sp)
   288b8:	d9000e17 	ldw	r4,56(sp)
   288bc:	d9401017 	ldw	r5,64(sp)
   288c0:	42000c04 	addi	r8,r8,48
   288c4:	1023883a 	mov	r17,r2
   288c8:	1a000005 	stb	r8,0(r3)
   288cc:	880d883a 	mov	r6,r17
   288d0:	a00f883a 	mov	r7,r20
   288d4:	402b883a 	mov	r21,r8
   288d8:	00304a80 	call	304a8 <__gedf2>
   288dc:	00844516 	blt	zero,r2,299f4 <_dtoa_r+0x1698>
   288e0:	0009883a 	mov	r4,zero
   288e4:	014ffc34 	movhi	r5,16368
   288e8:	880d883a 	mov	r6,r17
   288ec:	a00f883a 	mov	r7,r20
   288f0:	0030d8c0 	call	30d8c <__subdf3>
   288f4:	d9000e17 	ldw	r4,56(sp)
   288f8:	d9401017 	ldw	r5,64(sp)
   288fc:	100d883a 	mov	r6,r2
   28900:	180f883a 	mov	r7,r3
   28904:	00304a80 	call	304a8 <__gedf2>
   28908:	da801617 	ldw	r10,88(sp)
   2890c:	00843616 	blt	zero,r2,299e8 <_dtoa_r+0x168c>
   28910:	00800044 	movi	r2,1
   28914:	12806e0e 	bge	r2,r10,28ad0 <_dtoa_r+0x774>
   28918:	d9000717 	ldw	r4,28(sp)
   2891c:	dd801315 	stw	r22,76(sp)
   28920:	dc001115 	stw	r16,68(sp)
   28924:	2295883a 	add	r10,r4,r10
   28928:	dcc01415 	stw	r19,80(sp)
   2892c:	502d883a 	mov	r22,r10
   28930:	dcc01017 	ldw	r19,64(sp)
   28934:	b821883a 	mov	r16,r23
   28938:	dc801015 	stw	r18,64(sp)
   2893c:	dc800e17 	ldw	r18,56(sp)
   28940:	00000906 	br	28968 <_dtoa_r+0x60c>
   28944:	0030d8c0 	call	30d8c <__subdf3>
   28948:	1009883a 	mov	r4,r2
   2894c:	180b883a 	mov	r5,r3
   28950:	900d883a 	mov	r6,r18
   28954:	980f883a 	mov	r7,r19
   28958:	00305880 	call	30588 <__ledf2>
   2895c:	10040e16 	blt	r2,zero,29998 <_dtoa_r+0x163c>
   28960:	b821883a 	mov	r16,r23
   28964:	bd841026 	beq	r23,r22,299a8 <_dtoa_r+0x164c>
   28968:	9009883a 	mov	r4,r18
   2896c:	980b883a 	mov	r5,r19
   28970:	000d883a 	mov	r6,zero
   28974:	01d00934 	movhi	r7,16420
   28978:	00306680 	call	30668 <__muldf3>
   2897c:	000d883a 	mov	r6,zero
   28980:	01d00934 	movhi	r7,16420
   28984:	8809883a 	mov	r4,r17
   28988:	a00b883a 	mov	r5,r20
   2898c:	1025883a 	mov	r18,r2
   28990:	1827883a 	mov	r19,r3
   28994:	00306680 	call	30668 <__muldf3>
   28998:	180b883a 	mov	r5,r3
   2899c:	1009883a 	mov	r4,r2
   289a0:	1823883a 	mov	r17,r3
   289a4:	1029883a 	mov	r20,r2
   289a8:	003165c0 	call	3165c <__fixdfsi>
   289ac:	1009883a 	mov	r4,r2
   289b0:	102b883a 	mov	r21,r2
   289b4:	00316e40 	call	316e4 <__floatsidf>
   289b8:	a009883a 	mov	r4,r20
   289bc:	880b883a 	mov	r5,r17
   289c0:	100d883a 	mov	r6,r2
   289c4:	180f883a 	mov	r7,r3
   289c8:	0030d8c0 	call	30d8c <__subdf3>
   289cc:	ad400c04 	addi	r21,r21,48
   289d0:	1009883a 	mov	r4,r2
   289d4:	180b883a 	mov	r5,r3
   289d8:	900d883a 	mov	r6,r18
   289dc:	980f883a 	mov	r7,r19
   289e0:	85400005 	stb	r21,0(r16)
   289e4:	1023883a 	mov	r17,r2
   289e8:	1829883a 	mov	r20,r3
   289ec:	00305880 	call	30588 <__ledf2>
   289f0:	bdc00044 	addi	r23,r23,1
   289f4:	0009883a 	mov	r4,zero
   289f8:	014ffc34 	movhi	r5,16368
   289fc:	880d883a 	mov	r6,r17
   28a00:	a00f883a 	mov	r7,r20
   28a04:	103fcf0e 	bge	r2,zero,28944 <__alt_data_end+0xfffe8944>
   28a08:	d9801217 	ldw	r6,72(sp)
   28a0c:	dc001117 	ldw	r16,68(sp)
   28a10:	d9800515 	stw	r6,20(sp)
   28a14:	8009883a 	mov	r4,r16
   28a18:	e00b883a 	mov	r5,fp
   28a1c:	002b1600 	call	2b160 <_Bfree>
   28a20:	d8c00517 	ldw	r3,20(sp)
   28a24:	d9002317 	ldw	r4,140(sp)
   28a28:	d9802517 	ldw	r6,148(sp)
   28a2c:	b8000005 	stb	zero,0(r23)
   28a30:	18800044 	addi	r2,r3,1
   28a34:	20800015 	stw	r2,0(r4)
   28a38:	30027226 	beq	r6,zero,29404 <_dtoa_r+0x10a8>
   28a3c:	35c00015 	stw	r23,0(r6)
   28a40:	d8800717 	ldw	r2,28(sp)
   28a44:	003e7406 	br	28418 <__alt_data_end+0xfffe8418>
   28a48:	00800434 	movhi	r2,16
   28a4c:	10bfffc4 	addi	r2,r2,-1
   28a50:	a8aa703a 	and	r21,r21,r2
   28a54:	a83e801e 	bne	r21,zero,28458 <__alt_data_end+0xfffe8458>
   28a58:	008000f4 	movhi	r2,3
   28a5c:	10932b04 	addi	r2,r2,19628
   28a60:	003e7f06 	br	28460 <__alt_data_end+0xfffe8460>
   28a64:	10c00204 	addi	r3,r2,8
   28a68:	003e8206 	br	28474 <__alt_data_end+0xfffe8474>
   28a6c:	01400434 	movhi	r5,16
   28a70:	297fffc4 	addi	r5,r5,-1
   28a74:	994a703a 	and	r5,r19,r5
   28a78:	9009883a 	mov	r4,r18
   28a7c:	8c7f0044 	addi	r17,r17,-1023
   28a80:	294ffc34 	orhi	r5,r5,16368
   28a84:	dd000217 	ldw	r20,8(sp)
   28a88:	d8000f15 	stw	zero,60(sp)
   28a8c:	003e9f06 	br	2850c <__alt_data_end+0xfffe850c>
   28a90:	008000f4 	movhi	r2,3
   28a94:	10932204 	addi	r2,r2,19592
   28a98:	003e5f06 	br	28418 <__alt_data_end+0xfffe8418>
   28a9c:	80001115 	stw	zero,68(r16)
   28aa0:	8009883a 	mov	r4,r16
   28aa4:	000b883a 	mov	r5,zero
   28aa8:	002b0b80 	call	2b0b8 <_Balloc>
   28aac:	01bfffc4 	movi	r6,-1
   28ab0:	d8800715 	stw	r2,28(sp)
   28ab4:	80801015 	stw	r2,64(r16)
   28ab8:	00800044 	movi	r2,1
   28abc:	d9800615 	stw	r6,24(sp)
   28ac0:	d8800b15 	stw	r2,44(sp)
   28ac4:	d8002215 	stw	zero,136(sp)
   28ac8:	d9800d15 	stw	r6,52(sp)
   28acc:	d8000315 	stw	zero,12(sp)
   28ad0:	d8800117 	ldw	r2,4(sp)
   28ad4:	10008e16 	blt	r2,zero,28d10 <_dtoa_r+0x9b4>
   28ad8:	d9000517 	ldw	r4,20(sp)
   28adc:	00c00384 	movi	r3,14
   28ae0:	19008b16 	blt	r3,r4,28d10 <_dtoa_r+0x9b4>
   28ae4:	200490fa 	slli	r2,r4,3
   28ae8:	00c000f4 	movhi	r3,3
   28aec:	d9802217 	ldw	r6,136(sp)
   28af0:	18d34a04 	addi	r3,r3,19752
   28af4:	1885883a 	add	r2,r3,r2
   28af8:	14400017 	ldw	r17,0(r2)
   28afc:	15000117 	ldw	r20,4(r2)
   28b00:	3001c716 	blt	r6,zero,29220 <_dtoa_r+0xec4>
   28b04:	880d883a 	mov	r6,r17
   28b08:	a00f883a 	mov	r7,r20
   28b0c:	9009883a 	mov	r4,r18
   28b10:	980b883a 	mov	r5,r19
   28b14:	002fb580 	call	2fb58 <__divdf3>
   28b18:	180b883a 	mov	r5,r3
   28b1c:	1009883a 	mov	r4,r2
   28b20:	003165c0 	call	3165c <__fixdfsi>
   28b24:	1009883a 	mov	r4,r2
   28b28:	102d883a 	mov	r22,r2
   28b2c:	00316e40 	call	316e4 <__floatsidf>
   28b30:	1009883a 	mov	r4,r2
   28b34:	180b883a 	mov	r5,r3
   28b38:	880d883a 	mov	r6,r17
   28b3c:	a00f883a 	mov	r7,r20
   28b40:	00306680 	call	30668 <__muldf3>
   28b44:	9009883a 	mov	r4,r18
   28b48:	980b883a 	mov	r5,r19
   28b4c:	100d883a 	mov	r6,r2
   28b50:	180f883a 	mov	r7,r3
   28b54:	0030d8c0 	call	30d8c <__subdf3>
   28b58:	d9000717 	ldw	r4,28(sp)
   28b5c:	d9800617 	ldw	r6,24(sp)
   28b60:	180b883a 	mov	r5,r3
   28b64:	b0c00c04 	addi	r3,r22,48
   28b68:	20c00005 	stb	r3,0(r4)
   28b6c:	25c00044 	addi	r23,r4,1
   28b70:	01000044 	movi	r4,1
   28b74:	1011883a 	mov	r8,r2
   28b78:	2807883a 	mov	r3,r5
   28b7c:	31003d26 	beq	r6,r4,28c74 <_dtoa_r+0x918>
   28b80:	000d883a 	mov	r6,zero
   28b84:	01d00934 	movhi	r7,16420
   28b88:	1009883a 	mov	r4,r2
   28b8c:	00306680 	call	30668 <__muldf3>
   28b90:	1009883a 	mov	r4,r2
   28b94:	180b883a 	mov	r5,r3
   28b98:	000d883a 	mov	r6,zero
   28b9c:	000f883a 	mov	r7,zero
   28ba0:	1027883a 	mov	r19,r2
   28ba4:	182b883a 	mov	r21,r3
   28ba8:	00304240 	call	30424 <__eqdf2>
   28bac:	103f9926 	beq	r2,zero,28a14 <__alt_data_end+0xfffe8a14>
   28bb0:	d8c00617 	ldw	r3,24(sp)
   28bb4:	d9000717 	ldw	r4,28(sp)
   28bb8:	b825883a 	mov	r18,r23
   28bbc:	18bfffc4 	addi	r2,r3,-1
   28bc0:	20ad883a 	add	r22,r4,r2
   28bc4:	dc000315 	stw	r16,12(sp)
   28bc8:	00000a06 	br	28bf4 <_dtoa_r+0x898>
   28bcc:	00306680 	call	30668 <__muldf3>
   28bd0:	1009883a 	mov	r4,r2
   28bd4:	180b883a 	mov	r5,r3
   28bd8:	000d883a 	mov	r6,zero
   28bdc:	000f883a 	mov	r7,zero
   28be0:	1027883a 	mov	r19,r2
   28be4:	182b883a 	mov	r21,r3
   28be8:	b825883a 	mov	r18,r23
   28bec:	00304240 	call	30424 <__eqdf2>
   28bf0:	10022626 	beq	r2,zero,2948c <_dtoa_r+0x1130>
   28bf4:	880d883a 	mov	r6,r17
   28bf8:	a00f883a 	mov	r7,r20
   28bfc:	9809883a 	mov	r4,r19
   28c00:	a80b883a 	mov	r5,r21
   28c04:	002fb580 	call	2fb58 <__divdf3>
   28c08:	180b883a 	mov	r5,r3
   28c0c:	1009883a 	mov	r4,r2
   28c10:	003165c0 	call	3165c <__fixdfsi>
   28c14:	1009883a 	mov	r4,r2
   28c18:	1021883a 	mov	r16,r2
   28c1c:	00316e40 	call	316e4 <__floatsidf>
   28c20:	1009883a 	mov	r4,r2
   28c24:	180b883a 	mov	r5,r3
   28c28:	880d883a 	mov	r6,r17
   28c2c:	a00f883a 	mov	r7,r20
   28c30:	00306680 	call	30668 <__muldf3>
   28c34:	9809883a 	mov	r4,r19
   28c38:	a80b883a 	mov	r5,r21
   28c3c:	100d883a 	mov	r6,r2
   28c40:	180f883a 	mov	r7,r3
   28c44:	0030d8c0 	call	30d8c <__subdf3>
   28c48:	82000c04 	addi	r8,r16,48
   28c4c:	92000005 	stb	r8,0(r18)
   28c50:	1009883a 	mov	r4,r2
   28c54:	180b883a 	mov	r5,r3
   28c58:	000d883a 	mov	r6,zero
   28c5c:	01d00934 	movhi	r7,16420
   28c60:	1011883a 	mov	r8,r2
   28c64:	bdc00044 	addi	r23,r23,1
   28c68:	95bfd81e 	bne	r18,r22,28bcc <__alt_data_end+0xfffe8bcc>
   28c6c:	802d883a 	mov	r22,r16
   28c70:	dc000317 	ldw	r16,12(sp)
   28c74:	4009883a 	mov	r4,r8
   28c78:	180b883a 	mov	r5,r3
   28c7c:	400d883a 	mov	r6,r8
   28c80:	180f883a 	mov	r7,r3
   28c84:	002f2bc0 	call	2f2bc <__adddf3>
   28c88:	8809883a 	mov	r4,r17
   28c8c:	a00b883a 	mov	r5,r20
   28c90:	100d883a 	mov	r6,r2
   28c94:	180f883a 	mov	r7,r3
   28c98:	1027883a 	mov	r19,r2
   28c9c:	1825883a 	mov	r18,r3
   28ca0:	00305880 	call	30588 <__ledf2>
   28ca4:	10000816 	blt	r2,zero,28cc8 <_dtoa_r+0x96c>
   28ca8:	8809883a 	mov	r4,r17
   28cac:	a00b883a 	mov	r5,r20
   28cb0:	980d883a 	mov	r6,r19
   28cb4:	900f883a 	mov	r7,r18
   28cb8:	00304240 	call	30424 <__eqdf2>
   28cbc:	103f551e 	bne	r2,zero,28a14 <__alt_data_end+0xfffe8a14>
   28cc0:	b580004c 	andi	r22,r22,1
   28cc4:	b03f5326 	beq	r22,zero,28a14 <__alt_data_end+0xfffe8a14>
   28cc8:	bd7fffc3 	ldbu	r21,-1(r23)
   28ccc:	b8bfffc4 	addi	r2,r23,-1
   28cd0:	1007883a 	mov	r3,r2
   28cd4:	01400e44 	movi	r5,57
   28cd8:	d9800717 	ldw	r6,28(sp)
   28cdc:	00000506 	br	28cf4 <_dtoa_r+0x998>
   28ce0:	18ffffc4 	addi	r3,r3,-1
   28ce4:	30825e26 	beq	r6,r2,29660 <_dtoa_r+0x1304>
   28ce8:	1d400003 	ldbu	r21,0(r3)
   28cec:	102f883a 	mov	r23,r2
   28cf0:	10bfffc4 	addi	r2,r2,-1
   28cf4:	a9003fcc 	andi	r4,r21,255
   28cf8:	2100201c 	xori	r4,r4,128
   28cfc:	213fe004 	addi	r4,r4,-128
   28d00:	217ff726 	beq	r4,r5,28ce0 <__alt_data_end+0xfffe8ce0>
   28d04:	aa000044 	addi	r8,r21,1
   28d08:	12000005 	stb	r8,0(r2)
   28d0c:	003f4106 	br	28a14 <__alt_data_end+0xfffe8a14>
   28d10:	d8c00b17 	ldw	r3,44(sp)
   28d14:	18006726 	beq	r3,zero,28eb4 <_dtoa_r+0xb58>
   28d18:	d9000317 	ldw	r4,12(sp)
   28d1c:	00c00044 	movi	r3,1
   28d20:	19016a0e 	bge	r3,r4,292cc <_dtoa_r+0xf70>
   28d24:	d8800617 	ldw	r2,24(sp)
   28d28:	d8c00917 	ldw	r3,36(sp)
   28d2c:	157fffc4 	addi	r21,r2,-1
   28d30:	1d420716 	blt	r3,r21,29550 <_dtoa_r+0x11f4>
   28d34:	1d6bc83a 	sub	r21,r3,r21
   28d38:	d8800617 	ldw	r2,24(sp)
   28d3c:	1002c716 	blt	r2,zero,2985c <_dtoa_r+0x1500>
   28d40:	dd000817 	ldw	r20,32(sp)
   28d44:	d8800617 	ldw	r2,24(sp)
   28d48:	d9800817 	ldw	r6,32(sp)
   28d4c:	8009883a 	mov	r4,r16
   28d50:	01400044 	movi	r5,1
   28d54:	308d883a 	add	r6,r6,r2
   28d58:	d9800815 	stw	r6,32(sp)
   28d5c:	b0ad883a 	add	r22,r22,r2
   28d60:	002b4b80 	call	2b4b8 <__i2b>
   28d64:	1023883a 	mov	r17,r2
   28d68:	a0000826 	beq	r20,zero,28d8c <_dtoa_r+0xa30>
   28d6c:	0580070e 	bge	zero,r22,28d8c <_dtoa_r+0xa30>
   28d70:	b005883a 	mov	r2,r22
   28d74:	a5812016 	blt	r20,r22,291f8 <_dtoa_r+0xe9c>
   28d78:	d8c00817 	ldw	r3,32(sp)
   28d7c:	a0a9c83a 	sub	r20,r20,r2
   28d80:	b0adc83a 	sub	r22,r22,r2
   28d84:	1887c83a 	sub	r3,r3,r2
   28d88:	d8c00815 	stw	r3,32(sp)
   28d8c:	d9000917 	ldw	r4,36(sp)
   28d90:	0100140e 	bge	zero,r4,28de4 <_dtoa_r+0xa88>
   28d94:	d9800b17 	ldw	r6,44(sp)
   28d98:	3001e526 	beq	r6,zero,29530 <_dtoa_r+0x11d4>
   28d9c:	05400e0e 	bge	zero,r21,28dd8 <_dtoa_r+0xa7c>
   28da0:	880b883a 	mov	r5,r17
   28da4:	8009883a 	mov	r4,r16
   28da8:	a80d883a 	mov	r6,r21
   28dac:	002b6f00 	call	2b6f0 <__pow5mult>
   28db0:	e00d883a 	mov	r6,fp
   28db4:	8009883a 	mov	r4,r16
   28db8:	100b883a 	mov	r5,r2
   28dbc:	1023883a 	mov	r17,r2
   28dc0:	002b4f40 	call	2b4f4 <__multiply>
   28dc4:	102f883a 	mov	r23,r2
   28dc8:	e00b883a 	mov	r5,fp
   28dcc:	8009883a 	mov	r4,r16
   28dd0:	002b1600 	call	2b160 <_Bfree>
   28dd4:	b839883a 	mov	fp,r23
   28dd8:	d8800917 	ldw	r2,36(sp)
   28ddc:	154dc83a 	sub	r6,r2,r21
   28de0:	3001281e 	bne	r6,zero,29284 <_dtoa_r+0xf28>
   28de4:	05c00044 	movi	r23,1
   28de8:	8009883a 	mov	r4,r16
   28dec:	b80b883a 	mov	r5,r23
   28df0:	002b4b80 	call	2b4b8 <__i2b>
   28df4:	d8c00a17 	ldw	r3,40(sp)
   28df8:	102b883a 	mov	r21,r2
   28dfc:	00c0310e 	bge	zero,r3,28ec4 <_dtoa_r+0xb68>
   28e00:	8009883a 	mov	r4,r16
   28e04:	100b883a 	mov	r5,r2
   28e08:	180d883a 	mov	r6,r3
   28e0c:	002b6f00 	call	2b6f0 <__pow5mult>
   28e10:	d9000317 	ldw	r4,12(sp)
   28e14:	102b883a 	mov	r21,r2
   28e18:	b9011f0e 	bge	r23,r4,29298 <_dtoa_r+0xf3c>
   28e1c:	0027883a 	mov	r19,zero
   28e20:	a8800417 	ldw	r2,16(r21)
   28e24:	10800104 	addi	r2,r2,4
   28e28:	1085883a 	add	r2,r2,r2
   28e2c:	1085883a 	add	r2,r2,r2
   28e30:	a885883a 	add	r2,r21,r2
   28e34:	11000017 	ldw	r4,0(r2)
   28e38:	002b3a00 	call	2b3a0 <__hi0bits>
   28e3c:	00c00804 	movi	r3,32
   28e40:	1885c83a 	sub	r2,r3,r2
   28e44:	00002506 	br	28edc <_dtoa_r+0xb80>
   28e48:	01800044 	movi	r6,1
   28e4c:	d9800c15 	stw	r6,48(sp)
   28e50:	003dec06 	br	28604 <__alt_data_end+0xfffe8604>
   28e54:	d8c00817 	ldw	r3,32(sp)
   28e58:	d9000517 	ldw	r4,20(sp)
   28e5c:	d8000a15 	stw	zero,40(sp)
   28e60:	1907c83a 	sub	r3,r3,r4
   28e64:	010dc83a 	sub	r6,zero,r4
   28e68:	d8c00815 	stw	r3,32(sp)
   28e6c:	d9800915 	stw	r6,36(sp)
   28e70:	003ded06 	br	28628 <__alt_data_end+0xfffe8628>
   28e74:	05adc83a 	sub	r22,zero,r22
   28e78:	dd800815 	stw	r22,32(sp)
   28e7c:	002d883a 	mov	r22,zero
   28e80:	003de406 	br	28614 <__alt_data_end+0xfffe8614>
   28e84:	d9000517 	ldw	r4,20(sp)
   28e88:	00316e40 	call	316e4 <__floatsidf>
   28e8c:	1009883a 	mov	r4,r2
   28e90:	180b883a 	mov	r5,r3
   28e94:	b00d883a 	mov	r6,r22
   28e98:	a80f883a 	mov	r7,r21
   28e9c:	00304240 	call	30424 <__eqdf2>
   28ea0:	103dc726 	beq	r2,zero,285c0 <__alt_data_end+0xfffe85c0>
   28ea4:	d8800517 	ldw	r2,20(sp)
   28ea8:	10bfffc4 	addi	r2,r2,-1
   28eac:	d8800515 	stw	r2,20(sp)
   28eb0:	003dc306 	br	285c0 <__alt_data_end+0xfffe85c0>
   28eb4:	dd400917 	ldw	r21,36(sp)
   28eb8:	dd000817 	ldw	r20,32(sp)
   28ebc:	0023883a 	mov	r17,zero
   28ec0:	003fa906 	br	28d68 <__alt_data_end+0xfffe8d68>
   28ec4:	d9800317 	ldw	r6,12(sp)
   28ec8:	b981670e 	bge	r23,r6,29468 <_dtoa_r+0x110c>
   28ecc:	0027883a 	mov	r19,zero
   28ed0:	d8c00a17 	ldw	r3,40(sp)
   28ed4:	183fd21e 	bne	r3,zero,28e20 <__alt_data_end+0xfffe8e20>
   28ed8:	00800044 	movi	r2,1
   28edc:	1585883a 	add	r2,r2,r22
   28ee0:	108007cc 	andi	r2,r2,31
   28ee4:	10005f26 	beq	r2,zero,29064 <_dtoa_r+0xd08>
   28ee8:	00c00804 	movi	r3,32
   28eec:	1887c83a 	sub	r3,r3,r2
   28ef0:	01000104 	movi	r4,4
   28ef4:	20c2dd0e 	bge	r4,r3,29a6c <_dtoa_r+0x1710>
   28ef8:	d9000817 	ldw	r4,32(sp)
   28efc:	00c00704 	movi	r3,28
   28f00:	1885c83a 	sub	r2,r3,r2
   28f04:	2089883a 	add	r4,r4,r2
   28f08:	d9000815 	stw	r4,32(sp)
   28f0c:	a0a9883a 	add	r20,r20,r2
   28f10:	b0ad883a 	add	r22,r22,r2
   28f14:	d8800817 	ldw	r2,32(sp)
   28f18:	0080050e 	bge	zero,r2,28f30 <_dtoa_r+0xbd4>
   28f1c:	e00b883a 	mov	r5,fp
   28f20:	8009883a 	mov	r4,r16
   28f24:	100d883a 	mov	r6,r2
   28f28:	002b8300 	call	2b830 <__lshift>
   28f2c:	1039883a 	mov	fp,r2
   28f30:	0580050e 	bge	zero,r22,28f48 <_dtoa_r+0xbec>
   28f34:	a80b883a 	mov	r5,r21
   28f38:	8009883a 	mov	r4,r16
   28f3c:	b00d883a 	mov	r6,r22
   28f40:	002b8300 	call	2b830 <__lshift>
   28f44:	102b883a 	mov	r21,r2
   28f48:	d8c00c17 	ldw	r3,48(sp)
   28f4c:	1801161e 	bne	r3,zero,293a8 <_dtoa_r+0x104c>
   28f50:	d8c00617 	ldw	r3,24(sp)
   28f54:	00c12d0e 	bge	zero,r3,2940c <_dtoa_r+0x10b0>
   28f58:	d8c00b17 	ldw	r3,44(sp)
   28f5c:	1800571e 	bne	r3,zero,290bc <_dtoa_r+0xd60>
   28f60:	dc800717 	ldw	r18,28(sp)
   28f64:	dcc00617 	ldw	r19,24(sp)
   28f68:	9029883a 	mov	r20,r18
   28f6c:	00000206 	br	28f78 <_dtoa_r+0xc1c>
   28f70:	002b1880 	call	2b188 <__multadd>
   28f74:	1039883a 	mov	fp,r2
   28f78:	e009883a 	mov	r4,fp
   28f7c:	a80b883a 	mov	r5,r21
   28f80:	002815c0 	call	2815c <quorem>
   28f84:	10800c04 	addi	r2,r2,48
   28f88:	90800005 	stb	r2,0(r18)
   28f8c:	94800044 	addi	r18,r18,1
   28f90:	9507c83a 	sub	r3,r18,r20
   28f94:	8009883a 	mov	r4,r16
   28f98:	e00b883a 	mov	r5,fp
   28f9c:	01800284 	movi	r6,10
   28fa0:	000f883a 	mov	r7,zero
   28fa4:	1cfff216 	blt	r3,r19,28f70 <__alt_data_end+0xfffe8f70>
   28fa8:	1011883a 	mov	r8,r2
   28fac:	d8800617 	ldw	r2,24(sp)
   28fb0:	00822e0e 	bge	zero,r2,2986c <_dtoa_r+0x1510>
   28fb4:	d9000717 	ldw	r4,28(sp)
   28fb8:	0025883a 	mov	r18,zero
   28fbc:	20af883a 	add	r23,r4,r2
   28fc0:	e00b883a 	mov	r5,fp
   28fc4:	01800044 	movi	r6,1
   28fc8:	8009883a 	mov	r4,r16
   28fcc:	da001715 	stw	r8,92(sp)
   28fd0:	002b8300 	call	2b830 <__lshift>
   28fd4:	1009883a 	mov	r4,r2
   28fd8:	a80b883a 	mov	r5,r21
   28fdc:	1039883a 	mov	fp,r2
   28fe0:	002b9780 	call	2b978 <__mcmp>
   28fe4:	da001717 	ldw	r8,92(sp)
   28fe8:	00816e0e 	bge	zero,r2,295a4 <_dtoa_r+0x1248>
   28fec:	b93fffc3 	ldbu	r4,-1(r23)
   28ff0:	b8bfffc4 	addi	r2,r23,-1
   28ff4:	1007883a 	mov	r3,r2
   28ff8:	01800e44 	movi	r6,57
   28ffc:	d9c00717 	ldw	r7,28(sp)
   29000:	00000506 	br	29018 <_dtoa_r+0xcbc>
   29004:	18ffffc4 	addi	r3,r3,-1
   29008:	38811926 	beq	r7,r2,29470 <_dtoa_r+0x1114>
   2900c:	19000003 	ldbu	r4,0(r3)
   29010:	102f883a 	mov	r23,r2
   29014:	10bfffc4 	addi	r2,r2,-1
   29018:	21403fcc 	andi	r5,r4,255
   2901c:	2940201c 	xori	r5,r5,128
   29020:	297fe004 	addi	r5,r5,-128
   29024:	29bff726 	beq	r5,r6,29004 <__alt_data_end+0xfffe9004>
   29028:	21000044 	addi	r4,r4,1
   2902c:	11000005 	stb	r4,0(r2)
   29030:	8009883a 	mov	r4,r16
   29034:	a80b883a 	mov	r5,r21
   29038:	002b1600 	call	2b160 <_Bfree>
   2903c:	883e7526 	beq	r17,zero,28a14 <__alt_data_end+0xfffe8a14>
   29040:	90000426 	beq	r18,zero,29054 <_dtoa_r+0xcf8>
   29044:	94400326 	beq	r18,r17,29054 <_dtoa_r+0xcf8>
   29048:	8009883a 	mov	r4,r16
   2904c:	900b883a 	mov	r5,r18
   29050:	002b1600 	call	2b160 <_Bfree>
   29054:	8009883a 	mov	r4,r16
   29058:	880b883a 	mov	r5,r17
   2905c:	002b1600 	call	2b160 <_Bfree>
   29060:	003e6c06 	br	28a14 <__alt_data_end+0xfffe8a14>
   29064:	00800704 	movi	r2,28
   29068:	d9800817 	ldw	r6,32(sp)
   2906c:	a0a9883a 	add	r20,r20,r2
   29070:	b0ad883a 	add	r22,r22,r2
   29074:	308d883a 	add	r6,r6,r2
   29078:	d9800815 	stw	r6,32(sp)
   2907c:	003fa506 	br	28f14 <__alt_data_end+0xfffe8f14>
   29080:	013efb84 	movi	r4,-1042
   29084:	246bc83a 	sub	r21,r4,r17
   29088:	9548983a 	sll	r4,r18,r21
   2908c:	003d1806 	br	284f0 <__alt_data_end+0xfffe84f0>
   29090:	d8000c15 	stw	zero,48(sp)
   29094:	003d5b06 	br	28604 <__alt_data_end+0xfffe8604>
   29098:	880b883a 	mov	r5,r17
   2909c:	8009883a 	mov	r4,r16
   290a0:	01800284 	movi	r6,10
   290a4:	000f883a 	mov	r7,zero
   290a8:	002b1880 	call	2b188 <__multadd>
   290ac:	1023883a 	mov	r17,r2
   290b0:	d8800d17 	ldw	r2,52(sp)
   290b4:	0082550e 	bge	zero,r2,29a0c <_dtoa_r+0x16b0>
   290b8:	d8800615 	stw	r2,24(sp)
   290bc:	0500050e 	bge	zero,r20,290d4 <_dtoa_r+0xd78>
   290c0:	880b883a 	mov	r5,r17
   290c4:	8009883a 	mov	r4,r16
   290c8:	a00d883a 	mov	r6,r20
   290cc:	002b8300 	call	2b830 <__lshift>
   290d0:	1023883a 	mov	r17,r2
   290d4:	98016a1e 	bne	r19,zero,29680 <_dtoa_r+0x1324>
   290d8:	8829883a 	mov	r20,r17
   290dc:	d9000617 	ldw	r4,24(sp)
   290e0:	dcc00717 	ldw	r19,28(sp)
   290e4:	9480004c 	andi	r18,r18,1
   290e8:	20bfffc4 	addi	r2,r4,-1
   290ec:	9885883a 	add	r2,r19,r2
   290f0:	d8800415 	stw	r2,16(sp)
   290f4:	dc800615 	stw	r18,24(sp)
   290f8:	e009883a 	mov	r4,fp
   290fc:	a80b883a 	mov	r5,r21
   29100:	002815c0 	call	2815c <quorem>
   29104:	e009883a 	mov	r4,fp
   29108:	880b883a 	mov	r5,r17
   2910c:	102f883a 	mov	r23,r2
   29110:	002b9780 	call	2b978 <__mcmp>
   29114:	8009883a 	mov	r4,r16
   29118:	a80b883a 	mov	r5,r21
   2911c:	a00d883a 	mov	r6,r20
   29120:	102d883a 	mov	r22,r2
   29124:	002b9d80 	call	2b9d8 <__mdiff>
   29128:	1007883a 	mov	r3,r2
   2912c:	10800317 	ldw	r2,12(r2)
   29130:	bc800c04 	addi	r18,r23,48
   29134:	1000971e 	bne	r2,zero,29394 <_dtoa_r+0x1038>
   29138:	180b883a 	mov	r5,r3
   2913c:	e009883a 	mov	r4,fp
   29140:	d8c01515 	stw	r3,84(sp)
   29144:	002b9780 	call	2b978 <__mcmp>
   29148:	d8c01517 	ldw	r3,84(sp)
   2914c:	8009883a 	mov	r4,r16
   29150:	d8801515 	stw	r2,84(sp)
   29154:	180b883a 	mov	r5,r3
   29158:	002b1600 	call	2b160 <_Bfree>
   2915c:	d8801517 	ldw	r2,84(sp)
   29160:	1000041e 	bne	r2,zero,29174 <_dtoa_r+0xe18>
   29164:	d9800317 	ldw	r6,12(sp)
   29168:	3000021e 	bne	r6,zero,29174 <_dtoa_r+0xe18>
   2916c:	d8c00617 	ldw	r3,24(sp)
   29170:	18007626 	beq	r3,zero,2934c <_dtoa_r+0xff0>
   29174:	b0005b16 	blt	r22,zero,292e4 <_dtoa_r+0xf88>
   29178:	b000041e 	bne	r22,zero,2918c <_dtoa_r+0xe30>
   2917c:	d9000317 	ldw	r4,12(sp)
   29180:	2000021e 	bne	r4,zero,2918c <_dtoa_r+0xe30>
   29184:	d8c00617 	ldw	r3,24(sp)
   29188:	18005626 	beq	r3,zero,292e4 <_dtoa_r+0xf88>
   2918c:	00814d16 	blt	zero,r2,296c4 <_dtoa_r+0x1368>
   29190:	d8c00417 	ldw	r3,16(sp)
   29194:	9d800044 	addi	r22,r19,1
   29198:	9c800005 	stb	r18,0(r19)
   2919c:	b02f883a 	mov	r23,r22
   291a0:	98c14c26 	beq	r19,r3,296d4 <_dtoa_r+0x1378>
   291a4:	e00b883a 	mov	r5,fp
   291a8:	8009883a 	mov	r4,r16
   291ac:	01800284 	movi	r6,10
   291b0:	000f883a 	mov	r7,zero
   291b4:	002b1880 	call	2b188 <__multadd>
   291b8:	1039883a 	mov	fp,r2
   291bc:	8d006d26 	beq	r17,r20,29374 <_dtoa_r+0x1018>
   291c0:	880b883a 	mov	r5,r17
   291c4:	01800284 	movi	r6,10
   291c8:	000f883a 	mov	r7,zero
   291cc:	8009883a 	mov	r4,r16
   291d0:	002b1880 	call	2b188 <__multadd>
   291d4:	a00b883a 	mov	r5,r20
   291d8:	8009883a 	mov	r4,r16
   291dc:	01800284 	movi	r6,10
   291e0:	000f883a 	mov	r7,zero
   291e4:	1023883a 	mov	r17,r2
   291e8:	002b1880 	call	2b188 <__multadd>
   291ec:	1029883a 	mov	r20,r2
   291f0:	b027883a 	mov	r19,r22
   291f4:	003fc006 	br	290f8 <__alt_data_end+0xfffe90f8>
   291f8:	a005883a 	mov	r2,r20
   291fc:	003ede06 	br	28d78 <__alt_data_end+0xfffe8d78>
   29200:	01000044 	movi	r4,1
   29204:	d9000b15 	stw	r4,44(sp)
   29208:	d9802217 	ldw	r6,136(sp)
   2920c:	0180dc0e 	bge	zero,r6,29580 <_dtoa_r+0x1224>
   29210:	3023883a 	mov	r17,r6
   29214:	d9800d15 	stw	r6,52(sp)
   29218:	d9800615 	stw	r6,24(sp)
   2921c:	003d1e06 	br	28698 <__alt_data_end+0xfffe8698>
   29220:	d8800617 	ldw	r2,24(sp)
   29224:	00be3716 	blt	zero,r2,28b04 <__alt_data_end+0xfffe8b04>
   29228:	1000be1e 	bne	r2,zero,29524 <_dtoa_r+0x11c8>
   2922c:	8809883a 	mov	r4,r17
   29230:	a00b883a 	mov	r5,r20
   29234:	000d883a 	mov	r6,zero
   29238:	01d00534 	movhi	r7,16404
   2923c:	00306680 	call	30668 <__muldf3>
   29240:	1009883a 	mov	r4,r2
   29244:	180b883a 	mov	r5,r3
   29248:	900d883a 	mov	r6,r18
   2924c:	980f883a 	mov	r7,r19
   29250:	00304a80 	call	304a8 <__gedf2>
   29254:	002b883a 	mov	r21,zero
   29258:	0023883a 	mov	r17,zero
   2925c:	10007a16 	blt	r2,zero,29448 <_dtoa_r+0x10ec>
   29260:	d9002217 	ldw	r4,136(sp)
   29264:	ddc00717 	ldw	r23,28(sp)
   29268:	0108303a 	nor	r4,zero,r4
   2926c:	d9000515 	stw	r4,20(sp)
   29270:	8009883a 	mov	r4,r16
   29274:	a80b883a 	mov	r5,r21
   29278:	002b1600 	call	2b160 <_Bfree>
   2927c:	883f751e 	bne	r17,zero,29054 <__alt_data_end+0xfffe9054>
   29280:	003de406 	br	28a14 <__alt_data_end+0xfffe8a14>
   29284:	e00b883a 	mov	r5,fp
   29288:	8009883a 	mov	r4,r16
   2928c:	002b6f00 	call	2b6f0 <__pow5mult>
   29290:	1039883a 	mov	fp,r2
   29294:	003ed306 	br	28de4 <__alt_data_end+0xfffe8de4>
   29298:	903ee01e 	bne	r18,zero,28e1c <__alt_data_end+0xfffe8e1c>
   2929c:	00800434 	movhi	r2,16
   292a0:	10bfffc4 	addi	r2,r2,-1
   292a4:	9884703a 	and	r2,r19,r2
   292a8:	103f081e 	bne	r2,zero,28ecc <__alt_data_end+0xfffe8ecc>
   292ac:	9cdffc2c 	andhi	r19,r19,32752
   292b0:	983f0626 	beq	r19,zero,28ecc <__alt_data_end+0xfffe8ecc>
   292b4:	d8800817 	ldw	r2,32(sp)
   292b8:	b5800044 	addi	r22,r22,1
   292bc:	04c00044 	movi	r19,1
   292c0:	10800044 	addi	r2,r2,1
   292c4:	d8800815 	stw	r2,32(sp)
   292c8:	003f0106 	br	28ed0 <__alt_data_end+0xfffe8ed0>
   292cc:	d9800f17 	ldw	r6,60(sp)
   292d0:	30016826 	beq	r6,zero,29874 <_dtoa_r+0x1518>
   292d4:	10810cc4 	addi	r2,r2,1075
   292d8:	dd400917 	ldw	r21,36(sp)
   292dc:	dd000817 	ldw	r20,32(sp)
   292e0:	003e9906 	br	28d48 <__alt_data_end+0xfffe8d48>
   292e4:	9011883a 	mov	r8,r18
   292e8:	4007883a 	mov	r3,r8
   292ec:	e02d883a 	mov	r22,fp
   292f0:	0080100e 	bge	zero,r2,29334 <_dtoa_r+0xfd8>
   292f4:	01800044 	movi	r6,1
   292f8:	8009883a 	mov	r4,r16
   292fc:	e00b883a 	mov	r5,fp
   29300:	da001515 	stw	r8,84(sp)
   29304:	da001715 	stw	r8,92(sp)
   29308:	002b8300 	call	2b830 <__lshift>
   2930c:	1009883a 	mov	r4,r2
   29310:	a80b883a 	mov	r5,r21
   29314:	102d883a 	mov	r22,r2
   29318:	002b9780 	call	2b978 <__mcmp>
   2931c:	d8c01517 	ldw	r3,84(sp)
   29320:	da001717 	ldw	r8,92(sp)
   29324:	0081a50e 	bge	zero,r2,299bc <_dtoa_r+0x1660>
   29328:	00800e44 	movi	r2,57
   2932c:	40817b26 	beq	r8,r2,2991c <_dtoa_r+0x15c0>
   29330:	40c00044 	addi	r3,r8,1
   29334:	8825883a 	mov	r18,r17
   29338:	9dc00044 	addi	r23,r19,1
   2933c:	98c00005 	stb	r3,0(r19)
   29340:	a023883a 	mov	r17,r20
   29344:	b039883a 	mov	fp,r22
   29348:	003f3906 	br	29030 <__alt_data_end+0xfffe9030>
   2934c:	00800e44 	movi	r2,57
   29350:	9011883a 	mov	r8,r18
   29354:	90817226 	beq	r18,r2,29920 <_dtoa_r+0x15c4>
   29358:	0580010e 	bge	zero,r22,29360 <_dtoa_r+0x1004>
   2935c:	ba000c44 	addi	r8,r23,49
   29360:	8825883a 	mov	r18,r17
   29364:	9dc00044 	addi	r23,r19,1
   29368:	9a000005 	stb	r8,0(r19)
   2936c:	a023883a 	mov	r17,r20
   29370:	003f2f06 	br	29030 <__alt_data_end+0xfffe9030>
   29374:	880b883a 	mov	r5,r17
   29378:	8009883a 	mov	r4,r16
   2937c:	01800284 	movi	r6,10
   29380:	000f883a 	mov	r7,zero
   29384:	002b1880 	call	2b188 <__multadd>
   29388:	1023883a 	mov	r17,r2
   2938c:	1029883a 	mov	r20,r2
   29390:	003f9706 	br	291f0 <__alt_data_end+0xfffe91f0>
   29394:	8009883a 	mov	r4,r16
   29398:	180b883a 	mov	r5,r3
   2939c:	002b1600 	call	2b160 <_Bfree>
   293a0:	00800044 	movi	r2,1
   293a4:	003f7306 	br	29174 <__alt_data_end+0xfffe9174>
   293a8:	e009883a 	mov	r4,fp
   293ac:	a80b883a 	mov	r5,r21
   293b0:	002b9780 	call	2b978 <__mcmp>
   293b4:	103ee60e 	bge	r2,zero,28f50 <__alt_data_end+0xfffe8f50>
   293b8:	8009883a 	mov	r4,r16
   293bc:	e00b883a 	mov	r5,fp
   293c0:	01800284 	movi	r6,10
   293c4:	000f883a 	mov	r7,zero
   293c8:	002b1880 	call	2b188 <__multadd>
   293cc:	d9000517 	ldw	r4,20(sp)
   293d0:	d9800b17 	ldw	r6,44(sp)
   293d4:	1039883a 	mov	fp,r2
   293d8:	213fffc4 	addi	r4,r4,-1
   293dc:	d9000515 	stw	r4,20(sp)
   293e0:	303f2d1e 	bne	r6,zero,29098 <__alt_data_end+0xfffe9098>
   293e4:	d9000d17 	ldw	r4,52(sp)
   293e8:	0101780e 	bge	zero,r4,299cc <_dtoa_r+0x1670>
   293ec:	d9000615 	stw	r4,24(sp)
   293f0:	003edb06 	br	28f60 <__alt_data_end+0xfffe8f60>
   293f4:	00800084 	movi	r2,2
   293f8:	30818e1e 	bne	r6,r2,29a34 <_dtoa_r+0x16d8>
   293fc:	d8000b15 	stw	zero,44(sp)
   29400:	003f8106 	br	29208 <__alt_data_end+0xfffe9208>
   29404:	d8800717 	ldw	r2,28(sp)
   29408:	003c0306 	br	28418 <__alt_data_end+0xfffe8418>
   2940c:	d9000317 	ldw	r4,12(sp)
   29410:	00800084 	movi	r2,2
   29414:	113ed00e 	bge	r2,r4,28f58 <__alt_data_end+0xfffe8f58>
   29418:	d8c00617 	ldw	r3,24(sp)
   2941c:	183f901e 	bne	r3,zero,29260 <__alt_data_end+0xfffe9260>
   29420:	a80b883a 	mov	r5,r21
   29424:	8009883a 	mov	r4,r16
   29428:	01800144 	movi	r6,5
   2942c:	000f883a 	mov	r7,zero
   29430:	002b1880 	call	2b188 <__multadd>
   29434:	e009883a 	mov	r4,fp
   29438:	100b883a 	mov	r5,r2
   2943c:	102b883a 	mov	r21,r2
   29440:	002b9780 	call	2b978 <__mcmp>
   29444:	00bf860e 	bge	zero,r2,29260 <__alt_data_end+0xfffe9260>
   29448:	d9800717 	ldw	r6,28(sp)
   2944c:	00800c44 	movi	r2,49
   29450:	30800005 	stb	r2,0(r6)
   29454:	d8800517 	ldw	r2,20(sp)
   29458:	35c00044 	addi	r23,r6,1
   2945c:	10800044 	addi	r2,r2,1
   29460:	d8800515 	stw	r2,20(sp)
   29464:	003f8206 	br	29270 <__alt_data_end+0xfffe9270>
   29468:	903e981e 	bne	r18,zero,28ecc <__alt_data_end+0xfffe8ecc>
   2946c:	003f8b06 	br	2929c <__alt_data_end+0xfffe929c>
   29470:	d9800517 	ldw	r6,20(sp)
   29474:	d8c00717 	ldw	r3,28(sp)
   29478:	00800c44 	movi	r2,49
   2947c:	31800044 	addi	r6,r6,1
   29480:	d9800515 	stw	r6,20(sp)
   29484:	18800005 	stb	r2,0(r3)
   29488:	003ee906 	br	29030 <__alt_data_end+0xfffe9030>
   2948c:	dc000317 	ldw	r16,12(sp)
   29490:	003d6006 	br	28a14 <__alt_data_end+0xfffe8a14>
   29494:	8809883a 	mov	r4,r17
   29498:	00316e40 	call	316e4 <__floatsidf>
   2949c:	a009883a 	mov	r4,r20
   294a0:	a80b883a 	mov	r5,r21
   294a4:	100d883a 	mov	r6,r2
   294a8:	180f883a 	mov	r7,r3
   294ac:	00306680 	call	30668 <__muldf3>
   294b0:	1009883a 	mov	r4,r2
   294b4:	180b883a 	mov	r5,r3
   294b8:	000d883a 	mov	r6,zero
   294bc:	01d00734 	movhi	r7,16412
   294c0:	002f2bc0 	call	2f2bc <__adddf3>
   294c4:	1023883a 	mov	r17,r2
   294c8:	00bf3034 	movhi	r2,64704
   294cc:	1885883a 	add	r2,r3,r2
   294d0:	d8800e15 	stw	r2,56(sp)
   294d4:	a009883a 	mov	r4,r20
   294d8:	a80b883a 	mov	r5,r21
   294dc:	000d883a 	mov	r6,zero
   294e0:	01d00534 	movhi	r7,16404
   294e4:	0030d8c0 	call	30d8c <__subdf3>
   294e8:	d9c00e17 	ldw	r7,56(sp)
   294ec:	1009883a 	mov	r4,r2
   294f0:	180b883a 	mov	r5,r3
   294f4:	880d883a 	mov	r6,r17
   294f8:	102b883a 	mov	r21,r2
   294fc:	1829883a 	mov	r20,r3
   29500:	00304a80 	call	304a8 <__gedf2>
   29504:	00807716 	blt	zero,r2,296e4 <_dtoa_r+0x1388>
   29508:	d8800e17 	ldw	r2,56(sp)
   2950c:	a809883a 	mov	r4,r21
   29510:	a00b883a 	mov	r5,r20
   29514:	11e0003c 	xorhi	r7,r2,32768
   29518:	880d883a 	mov	r6,r17
   2951c:	00305880 	call	30588 <__ledf2>
   29520:	103d6b0e 	bge	r2,zero,28ad0 <__alt_data_end+0xfffe8ad0>
   29524:	002b883a 	mov	r21,zero
   29528:	0023883a 	mov	r17,zero
   2952c:	003f4c06 	br	29260 <__alt_data_end+0xfffe9260>
   29530:	d9800917 	ldw	r6,36(sp)
   29534:	e00b883a 	mov	r5,fp
   29538:	8009883a 	mov	r4,r16
   2953c:	002b6f00 	call	2b6f0 <__pow5mult>
   29540:	1039883a 	mov	fp,r2
   29544:	003e2706 	br	28de4 <__alt_data_end+0xfffe8de4>
   29548:	d8000b15 	stw	zero,44(sp)
   2954c:	003c4906 	br	28674 <__alt_data_end+0xfffe8674>
   29550:	d9000917 	ldw	r4,36(sp)
   29554:	d9800a17 	ldw	r6,40(sp)
   29558:	dd400915 	stw	r21,36(sp)
   2955c:	a905c83a 	sub	r2,r21,r4
   29560:	308d883a 	add	r6,r6,r2
   29564:	d9800a15 	stw	r6,40(sp)
   29568:	002b883a 	mov	r21,zero
   2956c:	003df206 	br	28d38 <__alt_data_end+0xfffe8d38>
   29570:	dc800e15 	stw	r18,56(sp)
   29574:	982b883a 	mov	r21,r19
   29578:	04400084 	movi	r17,2
   2957c:	003c7406 	br	28750 <__alt_data_end+0xfffe8750>
   29580:	04400044 	movi	r17,1
   29584:	dc400d15 	stw	r17,52(sp)
   29588:	dc400615 	stw	r17,24(sp)
   2958c:	dc402215 	stw	r17,136(sp)
   29590:	80001115 	stw	zero,68(r16)
   29594:	000b883a 	mov	r5,zero
   29598:	003c4a06 	br	286c4 <__alt_data_end+0xfffe86c4>
   2959c:	3023883a 	mov	r17,r6
   295a0:	003ffb06 	br	29590 <__alt_data_end+0xfffe9590>
   295a4:	1000021e 	bne	r2,zero,295b0 <_dtoa_r+0x1254>
   295a8:	4200004c 	andi	r8,r8,1
   295ac:	403e8f1e 	bne	r8,zero,28fec <__alt_data_end+0xfffe8fec>
   295b0:	01000c04 	movi	r4,48
   295b4:	00000106 	br	295bc <_dtoa_r+0x1260>
   295b8:	102f883a 	mov	r23,r2
   295bc:	b8bfffc4 	addi	r2,r23,-1
   295c0:	10c00007 	ldb	r3,0(r2)
   295c4:	193ffc26 	beq	r3,r4,295b8 <__alt_data_end+0xfffe95b8>
   295c8:	003e9906 	br	29030 <__alt_data_end+0xfffe9030>
   295cc:	d9000517 	ldw	r4,20(sp)
   295d0:	012fc83a 	sub	r23,zero,r4
   295d4:	b800ad26 	beq	r23,zero,2988c <_dtoa_r+0x1530>
   295d8:	b88003cc 	andi	r2,r23,15
   295dc:	100490fa 	slli	r2,r2,3
   295e0:	00c000f4 	movhi	r3,3
   295e4:	18d34a04 	addi	r3,r3,19752
   295e8:	1885883a 	add	r2,r3,r2
   295ec:	11800017 	ldw	r6,0(r2)
   295f0:	11c00117 	ldw	r7,4(r2)
   295f4:	b82fd13a 	srai	r23,r23,4
   295f8:	9009883a 	mov	r4,r18
   295fc:	980b883a 	mov	r5,r19
   29600:	00306680 	call	30668 <__muldf3>
   29604:	1029883a 	mov	r20,r2
   29608:	182b883a 	mov	r21,r3
   2960c:	b800f426 	beq	r23,zero,299e0 <_dtoa_r+0x1684>
   29610:	020000f4 	movhi	r8,3
   29614:	42134004 	addi	r8,r8,19712
   29618:	8029883a 	mov	r20,r16
   2961c:	04400084 	movi	r17,2
   29620:	4021883a 	mov	r16,r8
   29624:	b980004c 	andi	r6,r23,1
   29628:	1009883a 	mov	r4,r2
   2962c:	b82fd07a 	srai	r23,r23,1
   29630:	180b883a 	mov	r5,r3
   29634:	30000426 	beq	r6,zero,29648 <_dtoa_r+0x12ec>
   29638:	81800017 	ldw	r6,0(r16)
   2963c:	81c00117 	ldw	r7,4(r16)
   29640:	8c400044 	addi	r17,r17,1
   29644:	00306680 	call	30668 <__muldf3>
   29648:	84000204 	addi	r16,r16,8
   2964c:	b83ff51e 	bne	r23,zero,29624 <__alt_data_end+0xfffe9624>
   29650:	a021883a 	mov	r16,r20
   29654:	182b883a 	mov	r21,r3
   29658:	1029883a 	mov	r20,r2
   2965c:	003c5506 	br	287b4 <__alt_data_end+0xfffe87b4>
   29660:	d9800517 	ldw	r6,20(sp)
   29664:	d9000717 	ldw	r4,28(sp)
   29668:	00c00c04 	movi	r3,48
   2966c:	31800044 	addi	r6,r6,1
   29670:	d9800515 	stw	r6,20(sp)
   29674:	20c00005 	stb	r3,0(r4)
   29678:	02000c44 	movi	r8,49
   2967c:	003da206 	br	28d08 <__alt_data_end+0xfffe8d08>
   29680:	89400117 	ldw	r5,4(r17)
   29684:	8009883a 	mov	r4,r16
   29688:	002b0b80 	call	2b0b8 <_Balloc>
   2968c:	89800417 	ldw	r6,16(r17)
   29690:	11000304 	addi	r4,r2,12
   29694:	89400304 	addi	r5,r17,12
   29698:	31800084 	addi	r6,r6,2
   2969c:	318d883a 	add	r6,r6,r6
   296a0:	318d883a 	add	r6,r6,r6
   296a4:	1027883a 	mov	r19,r2
   296a8:	002ae240 	call	2ae24 <memcpy>
   296ac:	8009883a 	mov	r4,r16
   296b0:	980b883a 	mov	r5,r19
   296b4:	01800044 	movi	r6,1
   296b8:	002b8300 	call	2b830 <__lshift>
   296bc:	1029883a 	mov	r20,r2
   296c0:	003e8606 	br	290dc <__alt_data_end+0xfffe90dc>
   296c4:	00800e44 	movi	r2,57
   296c8:	90809526 	beq	r18,r2,29920 <_dtoa_r+0x15c4>
   296cc:	92000044 	addi	r8,r18,1
   296d0:	003f2306 	br	29360 <__alt_data_end+0xfffe9360>
   296d4:	9011883a 	mov	r8,r18
   296d8:	8825883a 	mov	r18,r17
   296dc:	a023883a 	mov	r17,r20
   296e0:	003e3706 	br	28fc0 <__alt_data_end+0xfffe8fc0>
   296e4:	002b883a 	mov	r21,zero
   296e8:	0023883a 	mov	r17,zero
   296ec:	003f5606 	br	29448 <__alt_data_end+0xfffe9448>
   296f0:	51bfffc4 	addi	r6,r10,-1
   296f4:	300490fa 	slli	r2,r6,3
   296f8:	00c000f4 	movhi	r3,3
   296fc:	18d34a04 	addi	r3,r3,19752
   29700:	1885883a 	add	r2,r3,r2
   29704:	d9c00e17 	ldw	r7,56(sp)
   29708:	11000017 	ldw	r4,0(r2)
   2970c:	11400117 	ldw	r5,4(r2)
   29710:	d8800717 	ldw	r2,28(sp)
   29714:	d9801015 	stw	r6,64(sp)
   29718:	880d883a 	mov	r6,r17
   2971c:	da801615 	stw	r10,88(sp)
   29720:	15c00044 	addi	r23,r2,1
   29724:	00306680 	call	30668 <__muldf3>
   29728:	a80b883a 	mov	r5,r21
   2972c:	a009883a 	mov	r4,r20
   29730:	d8c01115 	stw	r3,68(sp)
   29734:	d8800e15 	stw	r2,56(sp)
   29738:	003165c0 	call	3165c <__fixdfsi>
   2973c:	1009883a 	mov	r4,r2
   29740:	1023883a 	mov	r17,r2
   29744:	00316e40 	call	316e4 <__floatsidf>
   29748:	a009883a 	mov	r4,r20
   2974c:	a80b883a 	mov	r5,r21
   29750:	100d883a 	mov	r6,r2
   29754:	180f883a 	mov	r7,r3
   29758:	0030d8c0 	call	30d8c <__subdf3>
   2975c:	1813883a 	mov	r9,r3
   29760:	d8c00717 	ldw	r3,28(sp)
   29764:	8c400c04 	addi	r17,r17,48
   29768:	1011883a 	mov	r8,r2
   2976c:	1c400005 	stb	r17,0(r3)
   29770:	da801617 	ldw	r10,88(sp)
   29774:	00800044 	movi	r2,1
   29778:	50802326 	beq	r10,r2,29808 <_dtoa_r+0x14ac>
   2977c:	d8800717 	ldw	r2,28(sp)
   29780:	b82b883a 	mov	r21,r23
   29784:	dc001315 	stw	r16,76(sp)
   29788:	12a9883a 	add	r20,r2,r10
   2978c:	4807883a 	mov	r3,r9
   29790:	4005883a 	mov	r2,r8
   29794:	dc801415 	stw	r18,80(sp)
   29798:	000d883a 	mov	r6,zero
   2979c:	01d00934 	movhi	r7,16420
   297a0:	1009883a 	mov	r4,r2
   297a4:	180b883a 	mov	r5,r3
   297a8:	00306680 	call	30668 <__muldf3>
   297ac:	180b883a 	mov	r5,r3
   297b0:	1009883a 	mov	r4,r2
   297b4:	1821883a 	mov	r16,r3
   297b8:	1025883a 	mov	r18,r2
   297bc:	003165c0 	call	3165c <__fixdfsi>
   297c0:	1009883a 	mov	r4,r2
   297c4:	1023883a 	mov	r17,r2
   297c8:	00316e40 	call	316e4 <__floatsidf>
   297cc:	9009883a 	mov	r4,r18
   297d0:	800b883a 	mov	r5,r16
   297d4:	100d883a 	mov	r6,r2
   297d8:	180f883a 	mov	r7,r3
   297dc:	8c400c04 	addi	r17,r17,48
   297e0:	0030d8c0 	call	30d8c <__subdf3>
   297e4:	ad400044 	addi	r21,r21,1
   297e8:	ac7fffc5 	stb	r17,-1(r21)
   297ec:	ad3fea1e 	bne	r21,r20,29798 <__alt_data_end+0xfffe9798>
   297f0:	1813883a 	mov	r9,r3
   297f4:	d8c01017 	ldw	r3,64(sp)
   297f8:	dc001317 	ldw	r16,76(sp)
   297fc:	dc801417 	ldw	r18,80(sp)
   29800:	1011883a 	mov	r8,r2
   29804:	b8ef883a 	add	r23,r23,r3
   29808:	d9000e17 	ldw	r4,56(sp)
   2980c:	d9401117 	ldw	r5,68(sp)
   29810:	000d883a 	mov	r6,zero
   29814:	01cff834 	movhi	r7,16352
   29818:	da001715 	stw	r8,92(sp)
   2981c:	da401515 	stw	r9,84(sp)
   29820:	002f2bc0 	call	2f2bc <__adddf3>
   29824:	da001717 	ldw	r8,92(sp)
   29828:	da401517 	ldw	r9,84(sp)
   2982c:	1009883a 	mov	r4,r2
   29830:	400d883a 	mov	r6,r8
   29834:	480f883a 	mov	r7,r9
   29838:	180b883a 	mov	r5,r3
   2983c:	00305880 	call	30588 <__ledf2>
   29840:	da001717 	ldw	r8,92(sp)
   29844:	da401517 	ldw	r9,84(sp)
   29848:	10003b0e 	bge	r2,zero,29938 <_dtoa_r+0x15dc>
   2984c:	d9001217 	ldw	r4,72(sp)
   29850:	bd7fffc3 	ldbu	r21,-1(r23)
   29854:	d9000515 	stw	r4,20(sp)
   29858:	003d1c06 	br	28ccc <__alt_data_end+0xfffe8ccc>
   2985c:	d8c00817 	ldw	r3,32(sp)
   29860:	18a9c83a 	sub	r20,r3,r2
   29864:	0005883a 	mov	r2,zero
   29868:	003d3706 	br	28d48 <__alt_data_end+0xfffe8d48>
   2986c:	00800044 	movi	r2,1
   29870:	003dd006 	br	28fb4 <__alt_data_end+0xfffe8fb4>
   29874:	d8c00217 	ldw	r3,8(sp)
   29878:	00800d84 	movi	r2,54
   2987c:	dd400917 	ldw	r21,36(sp)
   29880:	10c5c83a 	sub	r2,r2,r3
   29884:	dd000817 	ldw	r20,32(sp)
   29888:	003d2f06 	br	28d48 <__alt_data_end+0xfffe8d48>
   2988c:	9029883a 	mov	r20,r18
   29890:	982b883a 	mov	r21,r19
   29894:	04400084 	movi	r17,2
   29898:	003bc606 	br	287b4 <__alt_data_end+0xfffe87b4>
   2989c:	d8800617 	ldw	r2,24(sp)
   298a0:	103efc26 	beq	r2,zero,29494 <__alt_data_end+0xfffe9494>
   298a4:	d8c00d17 	ldw	r3,52(sp)
   298a8:	00fc890e 	bge	zero,r3,28ad0 <__alt_data_end+0xfffe8ad0>
   298ac:	a80b883a 	mov	r5,r21
   298b0:	a009883a 	mov	r4,r20
   298b4:	000d883a 	mov	r6,zero
   298b8:	01d00934 	movhi	r7,16420
   298bc:	00306680 	call	30668 <__muldf3>
   298c0:	89000044 	addi	r4,r17,1
   298c4:	1029883a 	mov	r20,r2
   298c8:	182b883a 	mov	r21,r3
   298cc:	00316e40 	call	316e4 <__floatsidf>
   298d0:	a009883a 	mov	r4,r20
   298d4:	a80b883a 	mov	r5,r21
   298d8:	100d883a 	mov	r6,r2
   298dc:	180f883a 	mov	r7,r3
   298e0:	00306680 	call	30668 <__muldf3>
   298e4:	1009883a 	mov	r4,r2
   298e8:	180b883a 	mov	r5,r3
   298ec:	000d883a 	mov	r6,zero
   298f0:	01d00734 	movhi	r7,16412
   298f4:	002f2bc0 	call	2f2bc <__adddf3>
   298f8:	d9000517 	ldw	r4,20(sp)
   298fc:	1023883a 	mov	r17,r2
   29900:	00bf3034 	movhi	r2,64704
   29904:	213fffc4 	addi	r4,r4,-1
   29908:	1885883a 	add	r2,r3,r2
   2990c:	d9001215 	stw	r4,72(sp)
   29910:	d8800e15 	stw	r2,56(sp)
   29914:	da800d17 	ldw	r10,52(sp)
   29918:	003bc306 	br	28828 <__alt_data_end+0xfffe8828>
   2991c:	b039883a 	mov	fp,r22
   29920:	01000e44 	movi	r4,57
   29924:	8825883a 	mov	r18,r17
   29928:	9dc00044 	addi	r23,r19,1
   2992c:	99000005 	stb	r4,0(r19)
   29930:	a023883a 	mov	r17,r20
   29934:	003dae06 	br	28ff0 <__alt_data_end+0xfffe8ff0>
   29938:	d9800e17 	ldw	r6,56(sp)
   2993c:	d9c01117 	ldw	r7,68(sp)
   29940:	0009883a 	mov	r4,zero
   29944:	014ff834 	movhi	r5,16352
   29948:	da001715 	stw	r8,92(sp)
   2994c:	da401515 	stw	r9,84(sp)
   29950:	0030d8c0 	call	30d8c <__subdf3>
   29954:	da001717 	ldw	r8,92(sp)
   29958:	da401517 	ldw	r9,84(sp)
   2995c:	1009883a 	mov	r4,r2
   29960:	180b883a 	mov	r5,r3
   29964:	400d883a 	mov	r6,r8
   29968:	480f883a 	mov	r7,r9
   2996c:	00304a80 	call	304a8 <__gedf2>
   29970:	00bc570e 	bge	zero,r2,28ad0 <__alt_data_end+0xfffe8ad0>
   29974:	01000c04 	movi	r4,48
   29978:	00000106 	br	29980 <_dtoa_r+0x1624>
   2997c:	102f883a 	mov	r23,r2
   29980:	b8bfffc4 	addi	r2,r23,-1
   29984:	10c00007 	ldb	r3,0(r2)
   29988:	193ffc26 	beq	r3,r4,2997c <__alt_data_end+0xfffe997c>
   2998c:	d9801217 	ldw	r6,72(sp)
   29990:	d9800515 	stw	r6,20(sp)
   29994:	003c1f06 	br	28a14 <__alt_data_end+0xfffe8a14>
   29998:	d8801217 	ldw	r2,72(sp)
   2999c:	dc001117 	ldw	r16,68(sp)
   299a0:	d8800515 	stw	r2,20(sp)
   299a4:	003cc906 	br	28ccc <__alt_data_end+0xfffe8ccc>
   299a8:	dd801317 	ldw	r22,76(sp)
   299ac:	dc001117 	ldw	r16,68(sp)
   299b0:	dcc01417 	ldw	r19,80(sp)
   299b4:	dc801017 	ldw	r18,64(sp)
   299b8:	003c4506 	br	28ad0 <__alt_data_end+0xfffe8ad0>
   299bc:	103e5d1e 	bne	r2,zero,29334 <__alt_data_end+0xfffe9334>
   299c0:	4080004c 	andi	r2,r8,1
   299c4:	103e5b26 	beq	r2,zero,29334 <__alt_data_end+0xfffe9334>
   299c8:	003e5706 	br	29328 <__alt_data_end+0xfffe9328>
   299cc:	d8c00317 	ldw	r3,12(sp)
   299d0:	00800084 	movi	r2,2
   299d4:	10c00a16 	blt	r2,r3,29a00 <_dtoa_r+0x16a4>
   299d8:	d9000d17 	ldw	r4,52(sp)
   299dc:	003e8306 	br	293ec <__alt_data_end+0xfffe93ec>
   299e0:	04400084 	movi	r17,2
   299e4:	003b7306 	br	287b4 <__alt_data_end+0xfffe87b4>
   299e8:	d9801217 	ldw	r6,72(sp)
   299ec:	d9800515 	stw	r6,20(sp)
   299f0:	003cb606 	br	28ccc <__alt_data_end+0xfffe8ccc>
   299f4:	d9001217 	ldw	r4,72(sp)
   299f8:	d9000515 	stw	r4,20(sp)
   299fc:	003c0506 	br	28a14 <__alt_data_end+0xfffe8a14>
   29a00:	d9800d17 	ldw	r6,52(sp)
   29a04:	d9800615 	stw	r6,24(sp)
   29a08:	003e8306 	br	29418 <__alt_data_end+0xfffe9418>
   29a0c:	d9800317 	ldw	r6,12(sp)
   29a10:	00800084 	movi	r2,2
   29a14:	11800216 	blt	r2,r6,29a20 <_dtoa_r+0x16c4>
   29a18:	d8800d17 	ldw	r2,52(sp)
   29a1c:	003da606 	br	290b8 <__alt_data_end+0xfffe90b8>
   29a20:	d8800d17 	ldw	r2,52(sp)
   29a24:	d8800615 	stw	r2,24(sp)
   29a28:	003e7b06 	br	29418 <__alt_data_end+0xfffe9418>
   29a2c:	05000044 	movi	r20,1
   29a30:	003b0506 	br	28648 <__alt_data_end+0xfffe8648>
   29a34:	8009883a 	mov	r4,r16
   29a38:	80001115 	stw	zero,68(r16)
   29a3c:	000b883a 	mov	r5,zero
   29a40:	002b0b80 	call	2b0b8 <_Balloc>
   29a44:	d8800715 	stw	r2,28(sp)
   29a48:	d8c00717 	ldw	r3,28(sp)
   29a4c:	00bfffc4 	movi	r2,-1
   29a50:	01000044 	movi	r4,1
   29a54:	d8800615 	stw	r2,24(sp)
   29a58:	80c01015 	stw	r3,64(r16)
   29a5c:	d9000b15 	stw	r4,44(sp)
   29a60:	d8002215 	stw	zero,136(sp)
   29a64:	d8800d15 	stw	r2,52(sp)
   29a68:	003c1906 	br	28ad0 <__alt_data_end+0xfffe8ad0>
   29a6c:	193d2926 	beq	r3,r4,28f14 <__alt_data_end+0xfffe8f14>
   29a70:	00c00f04 	movi	r3,60
   29a74:	1885c83a 	sub	r2,r3,r2
   29a78:	003d7b06 	br	29068 <__alt_data_end+0xfffe9068>
   29a7c:	000b883a 	mov	r5,zero
   29a80:	003b1006 	br	286c4 <__alt_data_end+0xfffe86c4>

00029a84 <_fflush_r>:
   29a84:	defffb04 	addi	sp,sp,-20
   29a88:	dcc00315 	stw	r19,12(sp)
   29a8c:	dc000015 	stw	r16,0(sp)
   29a90:	dfc00415 	stw	ra,16(sp)
   29a94:	dc800215 	stw	r18,8(sp)
   29a98:	dc400115 	stw	r17,4(sp)
   29a9c:	2027883a 	mov	r19,r4
   29aa0:	2821883a 	mov	r16,r5
   29aa4:	20000226 	beq	r4,zero,29ab0 <_fflush_r+0x2c>
   29aa8:	20800e17 	ldw	r2,56(r4)
   29aac:	10005326 	beq	r2,zero,29bfc <_fflush_r+0x178>
   29ab0:	8080030b 	ldhu	r2,12(r16)
   29ab4:	10ffffcc 	andi	r3,r2,65535
   29ab8:	18e0001c 	xori	r3,r3,32768
   29abc:	18e00004 	addi	r3,r3,-32768
   29ac0:	18002c26 	beq	r3,zero,29b74 <_fflush_r+0xf0>
   29ac4:	10c0020c 	andi	r3,r2,8
   29ac8:	1800321e 	bne	r3,zero,29b94 <_fflush_r+0x110>
   29acc:	80c00117 	ldw	r3,4(r16)
   29ad0:	10820014 	ori	r2,r2,2048
   29ad4:	8080030d 	sth	r2,12(r16)
   29ad8:	00c0570e 	bge	zero,r3,29c38 <_fflush_r+0x1b4>
   29adc:	82000a17 	ldw	r8,40(r16)
   29ae0:	40002426 	beq	r8,zero,29b74 <_fflush_r+0xf0>
   29ae4:	9c400017 	ldw	r17,0(r19)
   29ae8:	10c4000c 	andi	r3,r2,4096
   29aec:	98000015 	stw	zero,0(r19)
   29af0:	18004626 	beq	r3,zero,29c0c <_fflush_r+0x188>
   29af4:	81801417 	ldw	r6,80(r16)
   29af8:	10c0010c 	andi	r3,r2,4
   29afc:	18000626 	beq	r3,zero,29b18 <_fflush_r+0x94>
   29b00:	80c00117 	ldw	r3,4(r16)
   29b04:	80800c17 	ldw	r2,48(r16)
   29b08:	30cdc83a 	sub	r6,r6,r3
   29b0c:	10000226 	beq	r2,zero,29b18 <_fflush_r+0x94>
   29b10:	80800f17 	ldw	r2,60(r16)
   29b14:	308dc83a 	sub	r6,r6,r2
   29b18:	81400717 	ldw	r5,28(r16)
   29b1c:	9809883a 	mov	r4,r19
   29b20:	000f883a 	mov	r7,zero
   29b24:	403ee83a 	callr	r8
   29b28:	00ffffc4 	movi	r3,-1
   29b2c:	10c04526 	beq	r2,r3,29c44 <_fflush_r+0x1c0>
   29b30:	80c0030b 	ldhu	r3,12(r16)
   29b34:	81000417 	ldw	r4,16(r16)
   29b38:	80000115 	stw	zero,4(r16)
   29b3c:	197dffcc 	andi	r5,r3,63487
   29b40:	8140030d 	sth	r5,12(r16)
   29b44:	81000015 	stw	r4,0(r16)
   29b48:	18c4000c 	andi	r3,r3,4096
   29b4c:	18000126 	beq	r3,zero,29b54 <_fflush_r+0xd0>
   29b50:	80801415 	stw	r2,80(r16)
   29b54:	81400c17 	ldw	r5,48(r16)
   29b58:	9c400015 	stw	r17,0(r19)
   29b5c:	28000526 	beq	r5,zero,29b74 <_fflush_r+0xf0>
   29b60:	80801004 	addi	r2,r16,64
   29b64:	28800226 	beq	r5,r2,29b70 <_fflush_r+0xec>
   29b68:	9809883a 	mov	r4,r19
   29b6c:	002a1a00 	call	2a1a0 <_free_r>
   29b70:	80000c15 	stw	zero,48(r16)
   29b74:	0005883a 	mov	r2,zero
   29b78:	dfc00417 	ldw	ra,16(sp)
   29b7c:	dcc00317 	ldw	r19,12(sp)
   29b80:	dc800217 	ldw	r18,8(sp)
   29b84:	dc400117 	ldw	r17,4(sp)
   29b88:	dc000017 	ldw	r16,0(sp)
   29b8c:	dec00504 	addi	sp,sp,20
   29b90:	f800283a 	ret
   29b94:	84800417 	ldw	r18,16(r16)
   29b98:	903ff626 	beq	r18,zero,29b74 <__alt_data_end+0xfffe9b74>
   29b9c:	84400017 	ldw	r17,0(r16)
   29ba0:	108000cc 	andi	r2,r2,3
   29ba4:	84800015 	stw	r18,0(r16)
   29ba8:	8ca3c83a 	sub	r17,r17,r18
   29bac:	10001526 	beq	r2,zero,29c04 <_fflush_r+0x180>
   29bb0:	0005883a 	mov	r2,zero
   29bb4:	80800215 	stw	r2,8(r16)
   29bb8:	04400316 	blt	zero,r17,29bc8 <_fflush_r+0x144>
   29bbc:	003fed06 	br	29b74 <__alt_data_end+0xfffe9b74>
   29bc0:	90a5883a 	add	r18,r18,r2
   29bc4:	047feb0e 	bge	zero,r17,29b74 <__alt_data_end+0xfffe9b74>
   29bc8:	80800917 	ldw	r2,36(r16)
   29bcc:	81400717 	ldw	r5,28(r16)
   29bd0:	880f883a 	mov	r7,r17
   29bd4:	900d883a 	mov	r6,r18
   29bd8:	9809883a 	mov	r4,r19
   29bdc:	103ee83a 	callr	r2
   29be0:	88a3c83a 	sub	r17,r17,r2
   29be4:	00bff616 	blt	zero,r2,29bc0 <__alt_data_end+0xfffe9bc0>
   29be8:	80c0030b 	ldhu	r3,12(r16)
   29bec:	00bfffc4 	movi	r2,-1
   29bf0:	18c01014 	ori	r3,r3,64
   29bf4:	80c0030d 	sth	r3,12(r16)
   29bf8:	003fdf06 	br	29b78 <__alt_data_end+0xfffe9b78>
   29bfc:	002a02c0 	call	2a02c <__sinit>
   29c00:	003fab06 	br	29ab0 <__alt_data_end+0xfffe9ab0>
   29c04:	80800517 	ldw	r2,20(r16)
   29c08:	003fea06 	br	29bb4 <__alt_data_end+0xfffe9bb4>
   29c0c:	81400717 	ldw	r5,28(r16)
   29c10:	000d883a 	mov	r6,zero
   29c14:	9809883a 	mov	r4,r19
   29c18:	01c00044 	movi	r7,1
   29c1c:	403ee83a 	callr	r8
   29c20:	100d883a 	mov	r6,r2
   29c24:	00bfffc4 	movi	r2,-1
   29c28:	30801326 	beq	r6,r2,29c78 <_fflush_r+0x1f4>
   29c2c:	8080030b 	ldhu	r2,12(r16)
   29c30:	82000a17 	ldw	r8,40(r16)
   29c34:	003fb006 	br	29af8 <__alt_data_end+0xfffe9af8>
   29c38:	80c00f17 	ldw	r3,60(r16)
   29c3c:	00ffa716 	blt	zero,r3,29adc <__alt_data_end+0xfffe9adc>
   29c40:	003fcc06 	br	29b74 <__alt_data_end+0xfffe9b74>
   29c44:	98c00017 	ldw	r3,0(r19)
   29c48:	183fb926 	beq	r3,zero,29b30 <__alt_data_end+0xfffe9b30>
   29c4c:	01000744 	movi	r4,29
   29c50:	19000226 	beq	r3,r4,29c5c <_fflush_r+0x1d8>
   29c54:	01000584 	movi	r4,22
   29c58:	1900101e 	bne	r3,r4,29c9c <_fflush_r+0x218>
   29c5c:	8080030b 	ldhu	r2,12(r16)
   29c60:	80c00417 	ldw	r3,16(r16)
   29c64:	80000115 	stw	zero,4(r16)
   29c68:	10bdffcc 	andi	r2,r2,63487
   29c6c:	8080030d 	sth	r2,12(r16)
   29c70:	80c00015 	stw	r3,0(r16)
   29c74:	003fb706 	br	29b54 <__alt_data_end+0xfffe9b54>
   29c78:	98800017 	ldw	r2,0(r19)
   29c7c:	103feb26 	beq	r2,zero,29c2c <__alt_data_end+0xfffe9c2c>
   29c80:	00c00744 	movi	r3,29
   29c84:	10c00226 	beq	r2,r3,29c90 <_fflush_r+0x20c>
   29c88:	00c00584 	movi	r3,22
   29c8c:	10ffd61e 	bne	r2,r3,29be8 <__alt_data_end+0xfffe9be8>
   29c90:	9c400015 	stw	r17,0(r19)
   29c94:	0005883a 	mov	r2,zero
   29c98:	003fb706 	br	29b78 <__alt_data_end+0xfffe9b78>
   29c9c:	80c0030b 	ldhu	r3,12(r16)
   29ca0:	18c01014 	ori	r3,r3,64
   29ca4:	80c0030d 	sth	r3,12(r16)
   29ca8:	003fb306 	br	29b78 <__alt_data_end+0xfffe9b78>

00029cac <fflush>:
   29cac:	20000526 	beq	r4,zero,29cc4 <fflush+0x18>
   29cb0:	008000f4 	movhi	r2,3
   29cb4:	109c2604 	addi	r2,r2,28824
   29cb8:	200b883a 	mov	r5,r4
   29cbc:	11000017 	ldw	r4,0(r2)
   29cc0:	0029a841 	jmpi	29a84 <_fflush_r>
   29cc4:	008000f4 	movhi	r2,3
   29cc8:	109c2504 	addi	r2,r2,28820
   29ccc:	11000017 	ldw	r4,0(r2)
   29cd0:	014000f4 	movhi	r5,3
   29cd4:	2966a104 	addi	r5,r5,-25980
   29cd8:	002a9ec1 	jmpi	2a9ec <_fwalk_reent>

00029cdc <__fp_lock>:
   29cdc:	0005883a 	mov	r2,zero
   29ce0:	f800283a 	ret

00029ce4 <__fp_unlock>:
   29ce4:	0005883a 	mov	r2,zero
   29ce8:	f800283a 	ret

00029cec <_cleanup_r>:
   29cec:	014000f4 	movhi	r5,3
   29cf0:	29788604 	addi	r5,r5,-7656
   29cf4:	002a9341 	jmpi	2a934 <_fwalk>

00029cf8 <__sinit.part.1>:
   29cf8:	defff604 	addi	sp,sp,-40
   29cfc:	00c000f4 	movhi	r3,3
   29d00:	dfc00915 	stw	ra,36(sp)
   29d04:	df000815 	stw	fp,32(sp)
   29d08:	ddc00715 	stw	r23,28(sp)
   29d0c:	dd800615 	stw	r22,24(sp)
   29d10:	dd400515 	stw	r21,20(sp)
   29d14:	dd000415 	stw	r20,16(sp)
   29d18:	dcc00315 	stw	r19,12(sp)
   29d1c:	dc800215 	stw	r18,8(sp)
   29d20:	dc400115 	stw	r17,4(sp)
   29d24:	dc000015 	stw	r16,0(sp)
   29d28:	18e73b04 	addi	r3,r3,-25364
   29d2c:	24000117 	ldw	r16,4(r4)
   29d30:	20c00f15 	stw	r3,60(r4)
   29d34:	07000044 	movi	fp,1
   29d38:	00c000c4 	movi	r3,3
   29d3c:	2080bb04 	addi	r2,r4,748
   29d40:	20c0b915 	stw	r3,740(r4)
   29d44:	27000e15 	stw	fp,56(r4)
   29d48:	2080ba15 	stw	r2,744(r4)
   29d4c:	2000b815 	stw	zero,736(r4)
   29d50:	05c00204 	movi	r23,8
   29d54:	00800104 	movi	r2,4
   29d58:	2025883a 	mov	r18,r4
   29d5c:	b80d883a 	mov	r6,r23
   29d60:	81001704 	addi	r4,r16,92
   29d64:	000b883a 	mov	r5,zero
   29d68:	80000015 	stw	zero,0(r16)
   29d6c:	80000115 	stw	zero,4(r16)
   29d70:	80000215 	stw	zero,8(r16)
   29d74:	8080030d 	sth	r2,12(r16)
   29d78:	80001915 	stw	zero,100(r16)
   29d7c:	8000038d 	sth	zero,14(r16)
   29d80:	80000415 	stw	zero,16(r16)
   29d84:	80000515 	stw	zero,20(r16)
   29d88:	80000615 	stw	zero,24(r16)
   29d8c:	0025ca80 	call	25ca8 <memset>
   29d90:	058000f4 	movhi	r22,3
   29d94:	94400217 	ldw	r17,8(r18)
   29d98:	054000f4 	movhi	r21,3
   29d9c:	050000f4 	movhi	r20,3
   29da0:	04c000f4 	movhi	r19,3
   29da4:	b5b1f004 	addi	r22,r22,-14400
   29da8:	ad720704 	addi	r21,r21,-14308
   29dac:	a5322604 	addi	r20,r20,-14184
   29db0:	9cf23d04 	addi	r19,r19,-14092
   29db4:	85800815 	stw	r22,32(r16)
   29db8:	85400915 	stw	r21,36(r16)
   29dbc:	85000a15 	stw	r20,40(r16)
   29dc0:	84c00b15 	stw	r19,44(r16)
   29dc4:	84000715 	stw	r16,28(r16)
   29dc8:	00800284 	movi	r2,10
   29dcc:	89001704 	addi	r4,r17,92
   29dd0:	b80d883a 	mov	r6,r23
   29dd4:	000b883a 	mov	r5,zero
   29dd8:	88000015 	stw	zero,0(r17)
   29ddc:	88000115 	stw	zero,4(r17)
   29de0:	88000215 	stw	zero,8(r17)
   29de4:	8880030d 	sth	r2,12(r17)
   29de8:	88001915 	stw	zero,100(r17)
   29dec:	8f00038d 	sth	fp,14(r17)
   29df0:	88000415 	stw	zero,16(r17)
   29df4:	88000515 	stw	zero,20(r17)
   29df8:	88000615 	stw	zero,24(r17)
   29dfc:	0025ca80 	call	25ca8 <memset>
   29e00:	94000317 	ldw	r16,12(r18)
   29e04:	00800484 	movi	r2,18
   29e08:	8c400715 	stw	r17,28(r17)
   29e0c:	8d800815 	stw	r22,32(r17)
   29e10:	8d400915 	stw	r21,36(r17)
   29e14:	8d000a15 	stw	r20,40(r17)
   29e18:	8cc00b15 	stw	r19,44(r17)
   29e1c:	8080030d 	sth	r2,12(r16)
   29e20:	00800084 	movi	r2,2
   29e24:	80000015 	stw	zero,0(r16)
   29e28:	80000115 	stw	zero,4(r16)
   29e2c:	80000215 	stw	zero,8(r16)
   29e30:	80001915 	stw	zero,100(r16)
   29e34:	8080038d 	sth	r2,14(r16)
   29e38:	80000415 	stw	zero,16(r16)
   29e3c:	80000515 	stw	zero,20(r16)
   29e40:	80000615 	stw	zero,24(r16)
   29e44:	81001704 	addi	r4,r16,92
   29e48:	000b883a 	mov	r5,zero
   29e4c:	b80d883a 	mov	r6,r23
   29e50:	0025ca80 	call	25ca8 <memset>
   29e54:	84000715 	stw	r16,28(r16)
   29e58:	85800815 	stw	r22,32(r16)
   29e5c:	85400915 	stw	r21,36(r16)
   29e60:	85000a15 	stw	r20,40(r16)
   29e64:	84c00b15 	stw	r19,44(r16)
   29e68:	dfc00917 	ldw	ra,36(sp)
   29e6c:	df000817 	ldw	fp,32(sp)
   29e70:	ddc00717 	ldw	r23,28(sp)
   29e74:	dd800617 	ldw	r22,24(sp)
   29e78:	dd400517 	ldw	r21,20(sp)
   29e7c:	dd000417 	ldw	r20,16(sp)
   29e80:	dcc00317 	ldw	r19,12(sp)
   29e84:	dc800217 	ldw	r18,8(sp)
   29e88:	dc400117 	ldw	r17,4(sp)
   29e8c:	dc000017 	ldw	r16,0(sp)
   29e90:	dec00a04 	addi	sp,sp,40
   29e94:	f800283a 	ret

00029e98 <__sfmoreglue>:
   29e98:	defffc04 	addi	sp,sp,-16
   29e9c:	dc400115 	stw	r17,4(sp)
   29ea0:	2c401a24 	muli	r17,r5,104
   29ea4:	dc800215 	stw	r18,8(sp)
   29ea8:	2825883a 	mov	r18,r5
   29eac:	89400304 	addi	r5,r17,12
   29eb0:	dc000015 	stw	r16,0(sp)
   29eb4:	dfc00315 	stw	ra,12(sp)
   29eb8:	00255000 	call	25500 <_malloc_r>
   29ebc:	1021883a 	mov	r16,r2
   29ec0:	10000726 	beq	r2,zero,29ee0 <__sfmoreglue+0x48>
   29ec4:	11000304 	addi	r4,r2,12
   29ec8:	10000015 	stw	zero,0(r2)
   29ecc:	14800115 	stw	r18,4(r2)
   29ed0:	11000215 	stw	r4,8(r2)
   29ed4:	000b883a 	mov	r5,zero
   29ed8:	880d883a 	mov	r6,r17
   29edc:	0025ca80 	call	25ca8 <memset>
   29ee0:	8005883a 	mov	r2,r16
   29ee4:	dfc00317 	ldw	ra,12(sp)
   29ee8:	dc800217 	ldw	r18,8(sp)
   29eec:	dc400117 	ldw	r17,4(sp)
   29ef0:	dc000017 	ldw	r16,0(sp)
   29ef4:	dec00404 	addi	sp,sp,16
   29ef8:	f800283a 	ret

00029efc <__sfp>:
   29efc:	008000f4 	movhi	r2,3
   29f00:	defffb04 	addi	sp,sp,-20
   29f04:	109c2504 	addi	r2,r2,28820
   29f08:	dc800215 	stw	r18,8(sp)
   29f0c:	14800017 	ldw	r18,0(r2)
   29f10:	dcc00315 	stw	r19,12(sp)
   29f14:	dfc00415 	stw	ra,16(sp)
   29f18:	90800e17 	ldw	r2,56(r18)
   29f1c:	dc400115 	stw	r17,4(sp)
   29f20:	dc000015 	stw	r16,0(sp)
   29f24:	2027883a 	mov	r19,r4
   29f28:	1000021e 	bne	r2,zero,29f34 <__sfp+0x38>
   29f2c:	9009883a 	mov	r4,r18
   29f30:	0029cf80 	call	29cf8 <__sinit.part.1>
   29f34:	9480b804 	addi	r18,r18,736
   29f38:	047fffc4 	movi	r17,-1
   29f3c:	91400117 	ldw	r5,4(r18)
   29f40:	94000217 	ldw	r16,8(r18)
   29f44:	297fffc4 	addi	r5,r5,-1
   29f48:	28000a16 	blt	r5,zero,29f74 <__sfp+0x78>
   29f4c:	8080030f 	ldh	r2,12(r16)
   29f50:	10000c26 	beq	r2,zero,29f84 <__sfp+0x88>
   29f54:	80c01d04 	addi	r3,r16,116
   29f58:	00000206 	br	29f64 <__sfp+0x68>
   29f5c:	18bfe60f 	ldh	r2,-104(r3)
   29f60:	10000826 	beq	r2,zero,29f84 <__sfp+0x88>
   29f64:	297fffc4 	addi	r5,r5,-1
   29f68:	1c3ffd04 	addi	r16,r3,-12
   29f6c:	18c01a04 	addi	r3,r3,104
   29f70:	2c7ffa1e 	bne	r5,r17,29f5c <__alt_data_end+0xfffe9f5c>
   29f74:	90800017 	ldw	r2,0(r18)
   29f78:	10001d26 	beq	r2,zero,29ff0 <__sfp+0xf4>
   29f7c:	1025883a 	mov	r18,r2
   29f80:	003fee06 	br	29f3c <__alt_data_end+0xfffe9f3c>
   29f84:	00bfffc4 	movi	r2,-1
   29f88:	8080038d 	sth	r2,14(r16)
   29f8c:	00800044 	movi	r2,1
   29f90:	8080030d 	sth	r2,12(r16)
   29f94:	80001915 	stw	zero,100(r16)
   29f98:	80000015 	stw	zero,0(r16)
   29f9c:	80000215 	stw	zero,8(r16)
   29fa0:	80000115 	stw	zero,4(r16)
   29fa4:	80000415 	stw	zero,16(r16)
   29fa8:	80000515 	stw	zero,20(r16)
   29fac:	80000615 	stw	zero,24(r16)
   29fb0:	81001704 	addi	r4,r16,92
   29fb4:	000b883a 	mov	r5,zero
   29fb8:	01800204 	movi	r6,8
   29fbc:	0025ca80 	call	25ca8 <memset>
   29fc0:	8005883a 	mov	r2,r16
   29fc4:	80000c15 	stw	zero,48(r16)
   29fc8:	80000d15 	stw	zero,52(r16)
   29fcc:	80001115 	stw	zero,68(r16)
   29fd0:	80001215 	stw	zero,72(r16)
   29fd4:	dfc00417 	ldw	ra,16(sp)
   29fd8:	dcc00317 	ldw	r19,12(sp)
   29fdc:	dc800217 	ldw	r18,8(sp)
   29fe0:	dc400117 	ldw	r17,4(sp)
   29fe4:	dc000017 	ldw	r16,0(sp)
   29fe8:	dec00504 	addi	sp,sp,20
   29fec:	f800283a 	ret
   29ff0:	9809883a 	mov	r4,r19
   29ff4:	01400104 	movi	r5,4
   29ff8:	0029e980 	call	29e98 <__sfmoreglue>
   29ffc:	90800015 	stw	r2,0(r18)
   2a000:	103fde1e 	bne	r2,zero,29f7c <__alt_data_end+0xfffe9f7c>
   2a004:	00800304 	movi	r2,12
   2a008:	98800015 	stw	r2,0(r19)
   2a00c:	0005883a 	mov	r2,zero
   2a010:	003ff006 	br	29fd4 <__alt_data_end+0xfffe9fd4>

0002a014 <_cleanup>:
   2a014:	008000f4 	movhi	r2,3
   2a018:	109c2504 	addi	r2,r2,28820
   2a01c:	11000017 	ldw	r4,0(r2)
   2a020:	014000f4 	movhi	r5,3
   2a024:	29788604 	addi	r5,r5,-7656
   2a028:	002a9341 	jmpi	2a934 <_fwalk>

0002a02c <__sinit>:
   2a02c:	20800e17 	ldw	r2,56(r4)
   2a030:	10000126 	beq	r2,zero,2a038 <__sinit+0xc>
   2a034:	f800283a 	ret
   2a038:	0029cf81 	jmpi	29cf8 <__sinit.part.1>

0002a03c <__sfp_lock_acquire>:
   2a03c:	f800283a 	ret

0002a040 <__sfp_lock_release>:
   2a040:	f800283a 	ret

0002a044 <__sinit_lock_acquire>:
   2a044:	f800283a 	ret

0002a048 <__sinit_lock_release>:
   2a048:	f800283a 	ret

0002a04c <__fp_lock_all>:
   2a04c:	008000f4 	movhi	r2,3
   2a050:	109c2604 	addi	r2,r2,28824
   2a054:	11000017 	ldw	r4,0(r2)
   2a058:	014000f4 	movhi	r5,3
   2a05c:	29673704 	addi	r5,r5,-25380
   2a060:	002a9341 	jmpi	2a934 <_fwalk>

0002a064 <__fp_unlock_all>:
   2a064:	008000f4 	movhi	r2,3
   2a068:	109c2604 	addi	r2,r2,28824
   2a06c:	11000017 	ldw	r4,0(r2)
   2a070:	014000f4 	movhi	r5,3
   2a074:	29673904 	addi	r5,r5,-25372
   2a078:	002a9341 	jmpi	2a934 <_fwalk>

0002a07c <_malloc_trim_r>:
   2a07c:	defffb04 	addi	sp,sp,-20
   2a080:	dcc00315 	stw	r19,12(sp)
   2a084:	04c000f4 	movhi	r19,3
   2a088:	dc800215 	stw	r18,8(sp)
   2a08c:	dc400115 	stw	r17,4(sp)
   2a090:	dc000015 	stw	r16,0(sp)
   2a094:	dfc00415 	stw	ra,16(sp)
   2a098:	2821883a 	mov	r16,r5
   2a09c:	9cd57504 	addi	r19,r19,21972
   2a0a0:	2025883a 	mov	r18,r4
   2a0a4:	0031e180 	call	31e18 <__malloc_lock>
   2a0a8:	98800217 	ldw	r2,8(r19)
   2a0ac:	14400117 	ldw	r17,4(r2)
   2a0b0:	00bfff04 	movi	r2,-4
   2a0b4:	88a2703a 	and	r17,r17,r2
   2a0b8:	8c21c83a 	sub	r16,r17,r16
   2a0bc:	8403fbc4 	addi	r16,r16,4079
   2a0c0:	8020d33a 	srli	r16,r16,12
   2a0c4:	0083ffc4 	movi	r2,4095
   2a0c8:	843fffc4 	addi	r16,r16,-1
   2a0cc:	8020933a 	slli	r16,r16,12
   2a0d0:	1400060e 	bge	r2,r16,2a0ec <_malloc_trim_r+0x70>
   2a0d4:	9009883a 	mov	r4,r18
   2a0d8:	000b883a 	mov	r5,zero
   2a0dc:	0025f200 	call	25f20 <_sbrk_r>
   2a0e0:	98c00217 	ldw	r3,8(r19)
   2a0e4:	1c47883a 	add	r3,r3,r17
   2a0e8:	10c00a26 	beq	r2,r3,2a114 <_malloc_trim_r+0x98>
   2a0ec:	9009883a 	mov	r4,r18
   2a0f0:	0031e380 	call	31e38 <__malloc_unlock>
   2a0f4:	0005883a 	mov	r2,zero
   2a0f8:	dfc00417 	ldw	ra,16(sp)
   2a0fc:	dcc00317 	ldw	r19,12(sp)
   2a100:	dc800217 	ldw	r18,8(sp)
   2a104:	dc400117 	ldw	r17,4(sp)
   2a108:	dc000017 	ldw	r16,0(sp)
   2a10c:	dec00504 	addi	sp,sp,20
   2a110:	f800283a 	ret
   2a114:	9009883a 	mov	r4,r18
   2a118:	040bc83a 	sub	r5,zero,r16
   2a11c:	0025f200 	call	25f20 <_sbrk_r>
   2a120:	00ffffc4 	movi	r3,-1
   2a124:	10c00d26 	beq	r2,r3,2a15c <_malloc_trim_r+0xe0>
   2a128:	00c00134 	movhi	r3,4
   2a12c:	18e4e504 	addi	r3,r3,-27756
   2a130:	18800017 	ldw	r2,0(r3)
   2a134:	99000217 	ldw	r4,8(r19)
   2a138:	8c23c83a 	sub	r17,r17,r16
   2a13c:	8c400054 	ori	r17,r17,1
   2a140:	1421c83a 	sub	r16,r2,r16
   2a144:	24400115 	stw	r17,4(r4)
   2a148:	9009883a 	mov	r4,r18
   2a14c:	1c000015 	stw	r16,0(r3)
   2a150:	0031e380 	call	31e38 <__malloc_unlock>
   2a154:	00800044 	movi	r2,1
   2a158:	003fe706 	br	2a0f8 <__alt_data_end+0xfffea0f8>
   2a15c:	9009883a 	mov	r4,r18
   2a160:	000b883a 	mov	r5,zero
   2a164:	0025f200 	call	25f20 <_sbrk_r>
   2a168:	99000217 	ldw	r4,8(r19)
   2a16c:	014003c4 	movi	r5,15
   2a170:	1107c83a 	sub	r3,r2,r4
   2a174:	28ffdd0e 	bge	r5,r3,2a0ec <__alt_data_end+0xfffea0ec>
   2a178:	014000f4 	movhi	r5,3
   2a17c:	295c2304 	addi	r5,r5,28812
   2a180:	29400017 	ldw	r5,0(r5)
   2a184:	18c00054 	ori	r3,r3,1
   2a188:	20c00115 	stw	r3,4(r4)
   2a18c:	00c00134 	movhi	r3,4
   2a190:	1145c83a 	sub	r2,r2,r5
   2a194:	18e4e504 	addi	r3,r3,-27756
   2a198:	18800015 	stw	r2,0(r3)
   2a19c:	003fd306 	br	2a0ec <__alt_data_end+0xfffea0ec>

0002a1a0 <_free_r>:
   2a1a0:	28004c26 	beq	r5,zero,2a2d4 <_free_r+0x134>
   2a1a4:	defffd04 	addi	sp,sp,-12
   2a1a8:	dc400115 	stw	r17,4(sp)
   2a1ac:	dc000015 	stw	r16,0(sp)
   2a1b0:	2023883a 	mov	r17,r4
   2a1b4:	2821883a 	mov	r16,r5
   2a1b8:	dfc00215 	stw	ra,8(sp)
   2a1bc:	0031e180 	call	31e18 <__malloc_lock>
   2a1c0:	813fff17 	ldw	r4,-4(r16)
   2a1c4:	00bfff84 	movi	r2,-2
   2a1c8:	024000f4 	movhi	r9,3
   2a1cc:	81bffe04 	addi	r6,r16,-8
   2a1d0:	2084703a 	and	r2,r4,r2
   2a1d4:	4a557504 	addi	r9,r9,21972
   2a1d8:	308b883a 	add	r5,r6,r2
   2a1dc:	2a000117 	ldw	r8,4(r5)
   2a1e0:	49c00217 	ldw	r7,8(r9)
   2a1e4:	00ffff04 	movi	r3,-4
   2a1e8:	40c6703a 	and	r3,r8,r3
   2a1ec:	39405326 	beq	r7,r5,2a33c <_free_r+0x19c>
   2a1f0:	28c00115 	stw	r3,4(r5)
   2a1f4:	2100004c 	andi	r4,r4,1
   2a1f8:	2000091e 	bne	r4,zero,2a220 <_free_r+0x80>
   2a1fc:	81fffe17 	ldw	r7,-8(r16)
   2a200:	4a000204 	addi	r8,r9,8
   2a204:	31cdc83a 	sub	r6,r6,r7
   2a208:	31000217 	ldw	r4,8(r6)
   2a20c:	11c5883a 	add	r2,r2,r7
   2a210:	22006126 	beq	r4,r8,2a398 <_free_r+0x1f8>
   2a214:	31c00317 	ldw	r7,12(r6)
   2a218:	21c00315 	stw	r7,12(r4)
   2a21c:	39000215 	stw	r4,8(r7)
   2a220:	28c9883a 	add	r4,r5,r3
   2a224:	21c00117 	ldw	r7,4(r4)
   2a228:	39c0004c 	andi	r7,r7,1
   2a22c:	38000d1e 	bne	r7,zero,2a264 <_free_r+0xc4>
   2a230:	29000217 	ldw	r4,8(r5)
   2a234:	10c5883a 	add	r2,r2,r3
   2a238:	00c000f4 	movhi	r3,3
   2a23c:	18d57704 	addi	r3,r3,21980
   2a240:	20c07526 	beq	r4,r3,2a418 <_free_r+0x278>
   2a244:	29c00317 	ldw	r7,12(r5)
   2a248:	11400054 	ori	r5,r2,1
   2a24c:	3087883a 	add	r3,r6,r2
   2a250:	21c00315 	stw	r7,12(r4)
   2a254:	39000215 	stw	r4,8(r7)
   2a258:	31400115 	stw	r5,4(r6)
   2a25c:	18800015 	stw	r2,0(r3)
   2a260:	00000406 	br	2a274 <_free_r+0xd4>
   2a264:	10c00054 	ori	r3,r2,1
   2a268:	30c00115 	stw	r3,4(r6)
   2a26c:	3087883a 	add	r3,r6,r2
   2a270:	18800015 	stw	r2,0(r3)
   2a274:	00c07fc4 	movi	r3,511
   2a278:	18801736 	bltu	r3,r2,2a2d8 <_free_r+0x138>
   2a27c:	1004d0fa 	srli	r2,r2,3
   2a280:	01400044 	movi	r5,1
   2a284:	49000117 	ldw	r4,4(r9)
   2a288:	1087883a 	add	r3,r2,r2
   2a28c:	18c7883a 	add	r3,r3,r3
   2a290:	1005d0ba 	srai	r2,r2,2
   2a294:	18c7883a 	add	r3,r3,r3
   2a298:	1a47883a 	add	r3,r3,r9
   2a29c:	19c00217 	ldw	r7,8(r3)
   2a2a0:	2884983a 	sll	r2,r5,r2
   2a2a4:	30c00315 	stw	r3,12(r6)
   2a2a8:	31c00215 	stw	r7,8(r6)
   2a2ac:	1104b03a 	or	r2,r2,r4
   2a2b0:	19800215 	stw	r6,8(r3)
   2a2b4:	48800115 	stw	r2,4(r9)
   2a2b8:	39800315 	stw	r6,12(r7)
   2a2bc:	8809883a 	mov	r4,r17
   2a2c0:	dfc00217 	ldw	ra,8(sp)
   2a2c4:	dc400117 	ldw	r17,4(sp)
   2a2c8:	dc000017 	ldw	r16,0(sp)
   2a2cc:	dec00304 	addi	sp,sp,12
   2a2d0:	0031e381 	jmpi	31e38 <__malloc_unlock>
   2a2d4:	f800283a 	ret
   2a2d8:	1006d27a 	srli	r3,r2,9
   2a2dc:	01000104 	movi	r4,4
   2a2e0:	20c04036 	bltu	r4,r3,2a3e4 <_free_r+0x244>
   2a2e4:	1006d1ba 	srli	r3,r2,6
   2a2e8:	19400e04 	addi	r5,r3,56
   2a2ec:	2947883a 	add	r3,r5,r5
   2a2f0:	18c7883a 	add	r3,r3,r3
   2a2f4:	18c7883a 	add	r3,r3,r3
   2a2f8:	1a49883a 	add	r4,r3,r9
   2a2fc:	20c00217 	ldw	r3,8(r4)
   2a300:	01c000f4 	movhi	r7,3
   2a304:	39d57504 	addi	r7,r7,21972
   2a308:	19003b26 	beq	r3,r4,2a3f8 <_free_r+0x258>
   2a30c:	01ffff04 	movi	r7,-4
   2a310:	19400117 	ldw	r5,4(r3)
   2a314:	29ca703a 	and	r5,r5,r7
   2a318:	1140022e 	bgeu	r2,r5,2a324 <_free_r+0x184>
   2a31c:	18c00217 	ldw	r3,8(r3)
   2a320:	20fffb1e 	bne	r4,r3,2a310 <__alt_data_end+0xfffea310>
   2a324:	18800317 	ldw	r2,12(r3)
   2a328:	30800315 	stw	r2,12(r6)
   2a32c:	30c00215 	stw	r3,8(r6)
   2a330:	11800215 	stw	r6,8(r2)
   2a334:	19800315 	stw	r6,12(r3)
   2a338:	003fe006 	br	2a2bc <__alt_data_end+0xfffea2bc>
   2a33c:	2100004c 	andi	r4,r4,1
   2a340:	1885883a 	add	r2,r3,r2
   2a344:	2000071e 	bne	r4,zero,2a364 <_free_r+0x1c4>
   2a348:	817ffe17 	ldw	r5,-8(r16)
   2a34c:	314dc83a 	sub	r6,r6,r5
   2a350:	30c00317 	ldw	r3,12(r6)
   2a354:	31000217 	ldw	r4,8(r6)
   2a358:	1145883a 	add	r2,r2,r5
   2a35c:	20c00315 	stw	r3,12(r4)
   2a360:	19000215 	stw	r4,8(r3)
   2a364:	10c00054 	ori	r3,r2,1
   2a368:	30c00115 	stw	r3,4(r6)
   2a36c:	00c000f4 	movhi	r3,3
   2a370:	18dc2404 	addi	r3,r3,28816
   2a374:	18c00017 	ldw	r3,0(r3)
   2a378:	49800215 	stw	r6,8(r9)
   2a37c:	10ffcf36 	bltu	r2,r3,2a2bc <__alt_data_end+0xfffea2bc>
   2a380:	00800134 	movhi	r2,4
   2a384:	10a4d904 	addi	r2,r2,-27804
   2a388:	11400017 	ldw	r5,0(r2)
   2a38c:	8809883a 	mov	r4,r17
   2a390:	002a07c0 	call	2a07c <_malloc_trim_r>
   2a394:	003fc906 	br	2a2bc <__alt_data_end+0xfffea2bc>
   2a398:	28c9883a 	add	r4,r5,r3
   2a39c:	21000117 	ldw	r4,4(r4)
   2a3a0:	2100004c 	andi	r4,r4,1
   2a3a4:	20000a1e 	bne	r4,zero,2a3d0 <_free_r+0x230>
   2a3a8:	29000317 	ldw	r4,12(r5)
   2a3ac:	29400217 	ldw	r5,8(r5)
   2a3b0:	10c5883a 	add	r2,r2,r3
   2a3b4:	10c00054 	ori	r3,r2,1
   2a3b8:	29000315 	stw	r4,12(r5)
   2a3bc:	21400215 	stw	r5,8(r4)
   2a3c0:	30c00115 	stw	r3,4(r6)
   2a3c4:	308d883a 	add	r6,r6,r2
   2a3c8:	30800015 	stw	r2,0(r6)
   2a3cc:	003fbb06 	br	2a2bc <__alt_data_end+0xfffea2bc>
   2a3d0:	10c00054 	ori	r3,r2,1
   2a3d4:	30c00115 	stw	r3,4(r6)
   2a3d8:	308d883a 	add	r6,r6,r2
   2a3dc:	30800015 	stw	r2,0(r6)
   2a3e0:	003fb606 	br	2a2bc <__alt_data_end+0xfffea2bc>
   2a3e4:	01000504 	movi	r4,20
   2a3e8:	20c01436 	bltu	r4,r3,2a43c <_free_r+0x29c>
   2a3ec:	194016c4 	addi	r5,r3,91
   2a3f0:	2947883a 	add	r3,r5,r5
   2a3f4:	003fbe06 	br	2a2f0 <__alt_data_end+0xfffea2f0>
   2a3f8:	280bd0ba 	srai	r5,r5,2
   2a3fc:	00800044 	movi	r2,1
   2a400:	39000117 	ldw	r4,4(r7)
   2a404:	114a983a 	sll	r5,r2,r5
   2a408:	1805883a 	mov	r2,r3
   2a40c:	2908b03a 	or	r4,r5,r4
   2a410:	39000115 	stw	r4,4(r7)
   2a414:	003fc406 	br	2a328 <__alt_data_end+0xfffea328>
   2a418:	49800515 	stw	r6,20(r9)
   2a41c:	49800415 	stw	r6,16(r9)
   2a420:	10c00054 	ori	r3,r2,1
   2a424:	31000315 	stw	r4,12(r6)
   2a428:	31000215 	stw	r4,8(r6)
   2a42c:	30c00115 	stw	r3,4(r6)
   2a430:	308d883a 	add	r6,r6,r2
   2a434:	30800015 	stw	r2,0(r6)
   2a438:	003fa006 	br	2a2bc <__alt_data_end+0xfffea2bc>
   2a43c:	01001504 	movi	r4,84
   2a440:	20c00436 	bltu	r4,r3,2a454 <_free_r+0x2b4>
   2a444:	1006d33a 	srli	r3,r2,12
   2a448:	19401b84 	addi	r5,r3,110
   2a44c:	2947883a 	add	r3,r5,r5
   2a450:	003fa706 	br	2a2f0 <__alt_data_end+0xfffea2f0>
   2a454:	01005504 	movi	r4,340
   2a458:	20c00436 	bltu	r4,r3,2a46c <_free_r+0x2cc>
   2a45c:	1006d3fa 	srli	r3,r2,15
   2a460:	19401dc4 	addi	r5,r3,119
   2a464:	2947883a 	add	r3,r5,r5
   2a468:	003fa106 	br	2a2f0 <__alt_data_end+0xfffea2f0>
   2a46c:	01015504 	movi	r4,1364
   2a470:	20c00436 	bltu	r4,r3,2a484 <_free_r+0x2e4>
   2a474:	1006d4ba 	srli	r3,r2,18
   2a478:	19401f04 	addi	r5,r3,124
   2a47c:	2947883a 	add	r3,r5,r5
   2a480:	003f9b06 	br	2a2f0 <__alt_data_end+0xfffea2f0>
   2a484:	00c03f04 	movi	r3,252
   2a488:	01401f84 	movi	r5,126
   2a48c:	003f9806 	br	2a2f0 <__alt_data_end+0xfffea2f0>

0002a490 <__sfvwrite_r>:
   2a490:	30800217 	ldw	r2,8(r6)
   2a494:	10004526 	beq	r2,zero,2a5ac <__sfvwrite_r+0x11c>
   2a498:	28c0030b 	ldhu	r3,12(r5)
   2a49c:	defff404 	addi	sp,sp,-48
   2a4a0:	dd400715 	stw	r21,28(sp)
   2a4a4:	dcc00515 	stw	r19,20(sp)
   2a4a8:	dc000215 	stw	r16,8(sp)
   2a4ac:	dfc00b15 	stw	ra,44(sp)
   2a4b0:	df000a15 	stw	fp,40(sp)
   2a4b4:	ddc00915 	stw	r23,36(sp)
   2a4b8:	dd800815 	stw	r22,32(sp)
   2a4bc:	dd000615 	stw	r20,24(sp)
   2a4c0:	dc800415 	stw	r18,16(sp)
   2a4c4:	dc400315 	stw	r17,12(sp)
   2a4c8:	1880020c 	andi	r2,r3,8
   2a4cc:	2821883a 	mov	r16,r5
   2a4d0:	202b883a 	mov	r21,r4
   2a4d4:	3027883a 	mov	r19,r6
   2a4d8:	10002526 	beq	r2,zero,2a570 <__sfvwrite_r+0xe0>
   2a4dc:	28800417 	ldw	r2,16(r5)
   2a4e0:	10002326 	beq	r2,zero,2a570 <__sfvwrite_r+0xe0>
   2a4e4:	1880008c 	andi	r2,r3,2
   2a4e8:	9c400017 	ldw	r17,0(r19)
   2a4ec:	10003126 	beq	r2,zero,2a5b4 <__sfvwrite_r+0x124>
   2a4f0:	0029883a 	mov	r20,zero
   2a4f4:	0025883a 	mov	r18,zero
   2a4f8:	05810004 	movi	r22,1024
   2a4fc:	a00d883a 	mov	r6,r20
   2a500:	a809883a 	mov	r4,r21
   2a504:	90002526 	beq	r18,zero,2a59c <__sfvwrite_r+0x10c>
   2a508:	900f883a 	mov	r7,r18
   2a50c:	81400717 	ldw	r5,28(r16)
   2a510:	b480012e 	bgeu	r22,r18,2a518 <__sfvwrite_r+0x88>
   2a514:	01c10004 	movi	r7,1024
   2a518:	80800917 	ldw	r2,36(r16)
   2a51c:	103ee83a 	callr	r2
   2a520:	0080510e 	bge	zero,r2,2a668 <__sfvwrite_r+0x1d8>
   2a524:	98c00217 	ldw	r3,8(r19)
   2a528:	a0a9883a 	add	r20,r20,r2
   2a52c:	90a5c83a 	sub	r18,r18,r2
   2a530:	1885c83a 	sub	r2,r3,r2
   2a534:	98800215 	stw	r2,8(r19)
   2a538:	103ff01e 	bne	r2,zero,2a4fc <__alt_data_end+0xfffea4fc>
   2a53c:	0005883a 	mov	r2,zero
   2a540:	dfc00b17 	ldw	ra,44(sp)
   2a544:	df000a17 	ldw	fp,40(sp)
   2a548:	ddc00917 	ldw	r23,36(sp)
   2a54c:	dd800817 	ldw	r22,32(sp)
   2a550:	dd400717 	ldw	r21,28(sp)
   2a554:	dd000617 	ldw	r20,24(sp)
   2a558:	dcc00517 	ldw	r19,20(sp)
   2a55c:	dc800417 	ldw	r18,16(sp)
   2a560:	dc400317 	ldw	r17,12(sp)
   2a564:	dc000217 	ldw	r16,8(sp)
   2a568:	dec00c04 	addi	sp,sp,48
   2a56c:	f800283a 	ret
   2a570:	a809883a 	mov	r4,r21
   2a574:	800b883a 	mov	r5,r16
   2a578:	002802c0 	call	2802c <__swsetup_r>
   2a57c:	80c0030b 	ldhu	r3,12(r16)
   2a580:	103fd826 	beq	r2,zero,2a4e4 <__alt_data_end+0xfffea4e4>
   2a584:	18c01014 	ori	r3,r3,64
   2a588:	80c0030d 	sth	r3,12(r16)
   2a58c:	00c00244 	movi	r3,9
   2a590:	00bfffc4 	movi	r2,-1
   2a594:	a8c00015 	stw	r3,0(r21)
   2a598:	003fe906 	br	2a540 <__alt_data_end+0xfffea540>
   2a59c:	8d000017 	ldw	r20,0(r17)
   2a5a0:	8c800117 	ldw	r18,4(r17)
   2a5a4:	8c400204 	addi	r17,r17,8
   2a5a8:	003fd406 	br	2a4fc <__alt_data_end+0xfffea4fc>
   2a5ac:	0005883a 	mov	r2,zero
   2a5b0:	f800283a 	ret
   2a5b4:	1880004c 	andi	r2,r3,1
   2a5b8:	1000301e 	bne	r2,zero,2a67c <__sfvwrite_r+0x1ec>
   2a5bc:	002f883a 	mov	r23,zero
   2a5c0:	0025883a 	mov	r18,zero
   2a5c4:	90001c26 	beq	r18,zero,2a638 <__sfvwrite_r+0x1a8>
   2a5c8:	1880800c 	andi	r2,r3,512
   2a5cc:	85000217 	ldw	r20,8(r16)
   2a5d0:	10006c26 	beq	r2,zero,2a784 <__sfvwrite_r+0x2f4>
   2a5d4:	a02d883a 	mov	r22,r20
   2a5d8:	95008536 	bltu	r18,r20,2a7f0 <__sfvwrite_r+0x360>
   2a5dc:	1881200c 	andi	r2,r3,1152
   2a5e0:	10009d1e 	bne	r2,zero,2a858 <__sfvwrite_r+0x3c8>
   2a5e4:	81000017 	ldw	r4,0(r16)
   2a5e8:	a039883a 	mov	fp,r20
   2a5ec:	9029883a 	mov	r20,r18
   2a5f0:	b80b883a 	mov	r5,r23
   2a5f4:	b00d883a 	mov	r6,r22
   2a5f8:	002af5c0 	call	2af5c <memmove>
   2a5fc:	80c00217 	ldw	r3,8(r16)
   2a600:	81000017 	ldw	r4,0(r16)
   2a604:	9005883a 	mov	r2,r18
   2a608:	1f39c83a 	sub	fp,r3,fp
   2a60c:	258f883a 	add	r7,r4,r22
   2a610:	87000215 	stw	fp,8(r16)
   2a614:	81c00015 	stw	r7,0(r16)
   2a618:	98c00217 	ldw	r3,8(r19)
   2a61c:	b8af883a 	add	r23,r23,r2
   2a620:	90a5c83a 	sub	r18,r18,r2
   2a624:	1d05c83a 	sub	r2,r3,r20
   2a628:	98800215 	stw	r2,8(r19)
   2a62c:	103fc326 	beq	r2,zero,2a53c <__alt_data_end+0xfffea53c>
   2a630:	80c0030b 	ldhu	r3,12(r16)
   2a634:	903fe41e 	bne	r18,zero,2a5c8 <__alt_data_end+0xfffea5c8>
   2a638:	8dc00017 	ldw	r23,0(r17)
   2a63c:	8c800117 	ldw	r18,4(r17)
   2a640:	8c400204 	addi	r17,r17,8
   2a644:	003fdf06 	br	2a5c4 <__alt_data_end+0xfffea5c4>
   2a648:	002c1ac0 	call	2c1ac <_realloc_r>
   2a64c:	102d883a 	mov	r22,r2
   2a650:	1000a01e 	bne	r2,zero,2a8d4 <__sfvwrite_r+0x444>
   2a654:	81400417 	ldw	r5,16(r16)
   2a658:	a809883a 	mov	r4,r21
   2a65c:	002a1a00 	call	2a1a0 <_free_r>
   2a660:	00800304 	movi	r2,12
   2a664:	a8800015 	stw	r2,0(r21)
   2a668:	80c0030b 	ldhu	r3,12(r16)
   2a66c:	00bfffc4 	movi	r2,-1
   2a670:	18c01014 	ori	r3,r3,64
   2a674:	80c0030d 	sth	r3,12(r16)
   2a678:	003fb106 	br	2a540 <__alt_data_end+0xfffea540>
   2a67c:	0029883a 	mov	r20,zero
   2a680:	0011883a 	mov	r8,zero
   2a684:	0039883a 	mov	fp,zero
   2a688:	0025883a 	mov	r18,zero
   2a68c:	90001f26 	beq	r18,zero,2a70c <__sfvwrite_r+0x27c>
   2a690:	40006826 	beq	r8,zero,2a834 <__sfvwrite_r+0x3a4>
   2a694:	a02f883a 	mov	r23,r20
   2a698:	9500012e 	bgeu	r18,r20,2a6a0 <__sfvwrite_r+0x210>
   2a69c:	902f883a 	mov	r23,r18
   2a6a0:	81000017 	ldw	r4,0(r16)
   2a6a4:	80800417 	ldw	r2,16(r16)
   2a6a8:	b82d883a 	mov	r22,r23
   2a6ac:	81800217 	ldw	r6,8(r16)
   2a6b0:	81c00517 	ldw	r7,20(r16)
   2a6b4:	1100022e 	bgeu	r2,r4,2a6c0 <__sfvwrite_r+0x230>
   2a6b8:	31c7883a 	add	r3,r6,r7
   2a6bc:	1dc01816 	blt	r3,r23,2a720 <__sfvwrite_r+0x290>
   2a6c0:	b9c03f16 	blt	r23,r7,2a7c0 <__sfvwrite_r+0x330>
   2a6c4:	80800917 	ldw	r2,36(r16)
   2a6c8:	81400717 	ldw	r5,28(r16)
   2a6cc:	a809883a 	mov	r4,r21
   2a6d0:	da000115 	stw	r8,4(sp)
   2a6d4:	e00d883a 	mov	r6,fp
   2a6d8:	103ee83a 	callr	r2
   2a6dc:	102d883a 	mov	r22,r2
   2a6e0:	da000117 	ldw	r8,4(sp)
   2a6e4:	00bfe00e 	bge	zero,r2,2a668 <__alt_data_end+0xfffea668>
   2a6e8:	a5a9c83a 	sub	r20,r20,r22
   2a6ec:	a0001f26 	beq	r20,zero,2a76c <__sfvwrite_r+0x2dc>
   2a6f0:	98800217 	ldw	r2,8(r19)
   2a6f4:	e5b9883a 	add	fp,fp,r22
   2a6f8:	95a5c83a 	sub	r18,r18,r22
   2a6fc:	15adc83a 	sub	r22,r2,r22
   2a700:	9d800215 	stw	r22,8(r19)
   2a704:	b03f8d26 	beq	r22,zero,2a53c <__alt_data_end+0xfffea53c>
   2a708:	903fe11e 	bne	r18,zero,2a690 <__alt_data_end+0xfffea690>
   2a70c:	8f000017 	ldw	fp,0(r17)
   2a710:	8c800117 	ldw	r18,4(r17)
   2a714:	0011883a 	mov	r8,zero
   2a718:	8c400204 	addi	r17,r17,8
   2a71c:	003fdb06 	br	2a68c <__alt_data_end+0xfffea68c>
   2a720:	180d883a 	mov	r6,r3
   2a724:	e00b883a 	mov	r5,fp
   2a728:	da000115 	stw	r8,4(sp)
   2a72c:	d8c00015 	stw	r3,0(sp)
   2a730:	002af5c0 	call	2af5c <memmove>
   2a734:	d8c00017 	ldw	r3,0(sp)
   2a738:	80800017 	ldw	r2,0(r16)
   2a73c:	a809883a 	mov	r4,r21
   2a740:	800b883a 	mov	r5,r16
   2a744:	10c5883a 	add	r2,r2,r3
   2a748:	80800015 	stw	r2,0(r16)
   2a74c:	d8c00015 	stw	r3,0(sp)
   2a750:	0029a840 	call	29a84 <_fflush_r>
   2a754:	d8c00017 	ldw	r3,0(sp)
   2a758:	da000117 	ldw	r8,4(sp)
   2a75c:	103fc21e 	bne	r2,zero,2a668 <__alt_data_end+0xfffea668>
   2a760:	182d883a 	mov	r22,r3
   2a764:	a5a9c83a 	sub	r20,r20,r22
   2a768:	a03fe11e 	bne	r20,zero,2a6f0 <__alt_data_end+0xfffea6f0>
   2a76c:	a809883a 	mov	r4,r21
   2a770:	800b883a 	mov	r5,r16
   2a774:	0029a840 	call	29a84 <_fflush_r>
   2a778:	103fbb1e 	bne	r2,zero,2a668 <__alt_data_end+0xfffea668>
   2a77c:	0011883a 	mov	r8,zero
   2a780:	003fdb06 	br	2a6f0 <__alt_data_end+0xfffea6f0>
   2a784:	81000017 	ldw	r4,0(r16)
   2a788:	80800417 	ldw	r2,16(r16)
   2a78c:	1100012e 	bgeu	r2,r4,2a794 <__sfvwrite_r+0x304>
   2a790:	a4805a36 	bltu	r20,r18,2a8fc <__sfvwrite_r+0x46c>
   2a794:	81c00517 	ldw	r7,20(r16)
   2a798:	91c01a36 	bltu	r18,r7,2a804 <__sfvwrite_r+0x374>
   2a79c:	80800917 	ldw	r2,36(r16)
   2a7a0:	81400717 	ldw	r5,28(r16)
   2a7a4:	a809883a 	mov	r4,r21
   2a7a8:	b80d883a 	mov	r6,r23
   2a7ac:	103ee83a 	callr	r2
   2a7b0:	1029883a 	mov	r20,r2
   2a7b4:	00bfac0e 	bge	zero,r2,2a668 <__alt_data_end+0xfffea668>
   2a7b8:	a005883a 	mov	r2,r20
   2a7bc:	003f9606 	br	2a618 <__alt_data_end+0xfffea618>
   2a7c0:	b80d883a 	mov	r6,r23
   2a7c4:	e00b883a 	mov	r5,fp
   2a7c8:	da000115 	stw	r8,4(sp)
   2a7cc:	002af5c0 	call	2af5c <memmove>
   2a7d0:	80800217 	ldw	r2,8(r16)
   2a7d4:	80c00017 	ldw	r3,0(r16)
   2a7d8:	da000117 	ldw	r8,4(sp)
   2a7dc:	15c5c83a 	sub	r2,r2,r23
   2a7e0:	1def883a 	add	r23,r3,r23
   2a7e4:	80800215 	stw	r2,8(r16)
   2a7e8:	85c00015 	stw	r23,0(r16)
   2a7ec:	003fbe06 	br	2a6e8 <__alt_data_end+0xfffea6e8>
   2a7f0:	81000017 	ldw	r4,0(r16)
   2a7f4:	9039883a 	mov	fp,r18
   2a7f8:	9029883a 	mov	r20,r18
   2a7fc:	902d883a 	mov	r22,r18
   2a800:	003f7b06 	br	2a5f0 <__alt_data_end+0xfffea5f0>
   2a804:	b80b883a 	mov	r5,r23
   2a808:	900d883a 	mov	r6,r18
   2a80c:	002af5c0 	call	2af5c <memmove>
   2a810:	80c00217 	ldw	r3,8(r16)
   2a814:	80800017 	ldw	r2,0(r16)
   2a818:	9029883a 	mov	r20,r18
   2a81c:	1c87c83a 	sub	r3,r3,r18
   2a820:	1485883a 	add	r2,r2,r18
   2a824:	80800015 	stw	r2,0(r16)
   2a828:	80c00215 	stw	r3,8(r16)
   2a82c:	9005883a 	mov	r2,r18
   2a830:	003f7906 	br	2a618 <__alt_data_end+0xfffea618>
   2a834:	e009883a 	mov	r4,fp
   2a838:	01400284 	movi	r5,10
   2a83c:	900d883a 	mov	r6,r18
   2a840:	002ad3c0 	call	2ad3c <memchr>
   2a844:	10003826 	beq	r2,zero,2a928 <__sfvwrite_r+0x498>
   2a848:	10800044 	addi	r2,r2,1
   2a84c:	1729c83a 	sub	r20,r2,fp
   2a850:	02000044 	movi	r8,1
   2a854:	003f8f06 	br	2a694 <__alt_data_end+0xfffea694>
   2a858:	80800517 	ldw	r2,20(r16)
   2a85c:	81400417 	ldw	r5,16(r16)
   2a860:	87000017 	ldw	fp,0(r16)
   2a864:	10a9883a 	add	r20,r2,r2
   2a868:	a085883a 	add	r2,r20,r2
   2a86c:	1028d7fa 	srli	r20,r2,31
   2a870:	e179c83a 	sub	fp,fp,r5
   2a874:	e1000044 	addi	r4,fp,1
   2a878:	a085883a 	add	r2,r20,r2
   2a87c:	1029d07a 	srai	r20,r2,1
   2a880:	2485883a 	add	r2,r4,r18
   2a884:	a00d883a 	mov	r6,r20
   2a888:	a080022e 	bgeu	r20,r2,2a894 <__sfvwrite_r+0x404>
   2a88c:	1029883a 	mov	r20,r2
   2a890:	100d883a 	mov	r6,r2
   2a894:	18c1000c 	andi	r3,r3,1024
   2a898:	a809883a 	mov	r4,r21
   2a89c:	183f6a26 	beq	r3,zero,2a648 <__alt_data_end+0xfffea648>
   2a8a0:	300b883a 	mov	r5,r6
   2a8a4:	00255000 	call	25500 <_malloc_r>
   2a8a8:	102d883a 	mov	r22,r2
   2a8ac:	103f6c26 	beq	r2,zero,2a660 <__alt_data_end+0xfffea660>
   2a8b0:	81400417 	ldw	r5,16(r16)
   2a8b4:	1009883a 	mov	r4,r2
   2a8b8:	e00d883a 	mov	r6,fp
   2a8bc:	002ae240 	call	2ae24 <memcpy>
   2a8c0:	8080030b 	ldhu	r2,12(r16)
   2a8c4:	00fedfc4 	movi	r3,-1153
   2a8c8:	10c4703a 	and	r2,r2,r3
   2a8cc:	10802014 	ori	r2,r2,128
   2a8d0:	8080030d 	sth	r2,12(r16)
   2a8d4:	b709883a 	add	r4,r22,fp
   2a8d8:	a707c83a 	sub	r3,r20,fp
   2a8dc:	85800415 	stw	r22,16(r16)
   2a8e0:	85000515 	stw	r20,20(r16)
   2a8e4:	81000015 	stw	r4,0(r16)
   2a8e8:	9039883a 	mov	fp,r18
   2a8ec:	80c00215 	stw	r3,8(r16)
   2a8f0:	9029883a 	mov	r20,r18
   2a8f4:	902d883a 	mov	r22,r18
   2a8f8:	003f3d06 	br	2a5f0 <__alt_data_end+0xfffea5f0>
   2a8fc:	b80b883a 	mov	r5,r23
   2a900:	a00d883a 	mov	r6,r20
   2a904:	002af5c0 	call	2af5c <memmove>
   2a908:	80800017 	ldw	r2,0(r16)
   2a90c:	a809883a 	mov	r4,r21
   2a910:	800b883a 	mov	r5,r16
   2a914:	1505883a 	add	r2,r2,r20
   2a918:	80800015 	stw	r2,0(r16)
   2a91c:	0029a840 	call	29a84 <_fflush_r>
   2a920:	103fa526 	beq	r2,zero,2a7b8 <__alt_data_end+0xfffea7b8>
   2a924:	003f5006 	br	2a668 <__alt_data_end+0xfffea668>
   2a928:	95000044 	addi	r20,r18,1
   2a92c:	02000044 	movi	r8,1
   2a930:	003f5806 	br	2a694 <__alt_data_end+0xfffea694>

0002a934 <_fwalk>:
   2a934:	defff804 	addi	sp,sp,-32
   2a938:	dd400515 	stw	r21,20(sp)
   2a93c:	2540b804 	addi	r21,r4,736
   2a940:	dd800615 	stw	r22,24(sp)
   2a944:	dd000415 	stw	r20,16(sp)
   2a948:	dfc00715 	stw	ra,28(sp)
   2a94c:	dcc00315 	stw	r19,12(sp)
   2a950:	dc800215 	stw	r18,8(sp)
   2a954:	dc400115 	stw	r17,4(sp)
   2a958:	dc000015 	stw	r16,0(sp)
   2a95c:	2829883a 	mov	r20,r5
   2a960:	002d883a 	mov	r22,zero
   2a964:	002a03c0 	call	2a03c <__sfp_lock_acquire>
   2a968:	a8001426 	beq	r21,zero,2a9bc <_fwalk+0x88>
   2a96c:	04ffffc4 	movi	r19,-1
   2a970:	ac400117 	ldw	r17,4(r21)
   2a974:	ac800217 	ldw	r18,8(r21)
   2a978:	8c7fffc4 	addi	r17,r17,-1
   2a97c:	88000d16 	blt	r17,zero,2a9b4 <_fwalk+0x80>
   2a980:	94000304 	addi	r16,r18,12
   2a984:	94800384 	addi	r18,r18,14
   2a988:	80c0000f 	ldh	r3,0(r16)
   2a98c:	8c7fffc4 	addi	r17,r17,-1
   2a990:	813ffd04 	addi	r4,r16,-12
   2a994:	18000426 	beq	r3,zero,2a9a8 <_fwalk+0x74>
   2a998:	90c0000f 	ldh	r3,0(r18)
   2a99c:	1cc00226 	beq	r3,r19,2a9a8 <_fwalk+0x74>
   2a9a0:	a03ee83a 	callr	r20
   2a9a4:	b0acb03a 	or	r22,r22,r2
   2a9a8:	84001a04 	addi	r16,r16,104
   2a9ac:	94801a04 	addi	r18,r18,104
   2a9b0:	8cfff51e 	bne	r17,r19,2a988 <__alt_data_end+0xfffea988>
   2a9b4:	ad400017 	ldw	r21,0(r21)
   2a9b8:	a83fed1e 	bne	r21,zero,2a970 <__alt_data_end+0xfffea970>
   2a9bc:	002a0400 	call	2a040 <__sfp_lock_release>
   2a9c0:	b005883a 	mov	r2,r22
   2a9c4:	dfc00717 	ldw	ra,28(sp)
   2a9c8:	dd800617 	ldw	r22,24(sp)
   2a9cc:	dd400517 	ldw	r21,20(sp)
   2a9d0:	dd000417 	ldw	r20,16(sp)
   2a9d4:	dcc00317 	ldw	r19,12(sp)
   2a9d8:	dc800217 	ldw	r18,8(sp)
   2a9dc:	dc400117 	ldw	r17,4(sp)
   2a9e0:	dc000017 	ldw	r16,0(sp)
   2a9e4:	dec00804 	addi	sp,sp,32
   2a9e8:	f800283a 	ret

0002a9ec <_fwalk_reent>:
   2a9ec:	defff804 	addi	sp,sp,-32
   2a9f0:	dd400515 	stw	r21,20(sp)
   2a9f4:	2540b804 	addi	r21,r4,736
   2a9f8:	dd800615 	stw	r22,24(sp)
   2a9fc:	dd000415 	stw	r20,16(sp)
   2aa00:	dcc00315 	stw	r19,12(sp)
   2aa04:	dfc00715 	stw	ra,28(sp)
   2aa08:	dc800215 	stw	r18,8(sp)
   2aa0c:	dc400115 	stw	r17,4(sp)
   2aa10:	dc000015 	stw	r16,0(sp)
   2aa14:	2027883a 	mov	r19,r4
   2aa18:	2829883a 	mov	r20,r5
   2aa1c:	002d883a 	mov	r22,zero
   2aa20:	002a03c0 	call	2a03c <__sfp_lock_acquire>
   2aa24:	a8001326 	beq	r21,zero,2aa74 <_fwalk_reent+0x88>
   2aa28:	04bfffc4 	movi	r18,-1
   2aa2c:	ac400117 	ldw	r17,4(r21)
   2aa30:	ac000217 	ldw	r16,8(r21)
   2aa34:	8c7fffc4 	addi	r17,r17,-1
   2aa38:	88000c16 	blt	r17,zero,2aa6c <_fwalk_reent+0x80>
   2aa3c:	84000304 	addi	r16,r16,12
   2aa40:	80c0000f 	ldh	r3,0(r16)
   2aa44:	8c7fffc4 	addi	r17,r17,-1
   2aa48:	817ffd04 	addi	r5,r16,-12
   2aa4c:	18000526 	beq	r3,zero,2aa64 <_fwalk_reent+0x78>
   2aa50:	80c0008f 	ldh	r3,2(r16)
   2aa54:	9809883a 	mov	r4,r19
   2aa58:	1c800226 	beq	r3,r18,2aa64 <_fwalk_reent+0x78>
   2aa5c:	a03ee83a 	callr	r20
   2aa60:	b0acb03a 	or	r22,r22,r2
   2aa64:	84001a04 	addi	r16,r16,104
   2aa68:	8cbff51e 	bne	r17,r18,2aa40 <__alt_data_end+0xfffeaa40>
   2aa6c:	ad400017 	ldw	r21,0(r21)
   2aa70:	a83fee1e 	bne	r21,zero,2aa2c <__alt_data_end+0xfffeaa2c>
   2aa74:	002a0400 	call	2a040 <__sfp_lock_release>
   2aa78:	b005883a 	mov	r2,r22
   2aa7c:	dfc00717 	ldw	ra,28(sp)
   2aa80:	dd800617 	ldw	r22,24(sp)
   2aa84:	dd400517 	ldw	r21,20(sp)
   2aa88:	dd000417 	ldw	r20,16(sp)
   2aa8c:	dcc00317 	ldw	r19,12(sp)
   2aa90:	dc800217 	ldw	r18,8(sp)
   2aa94:	dc400117 	ldw	r17,4(sp)
   2aa98:	dc000017 	ldw	r16,0(sp)
   2aa9c:	dec00804 	addi	sp,sp,32
   2aaa0:	f800283a 	ret

0002aaa4 <_setlocale_r>:
   2aaa4:	30001b26 	beq	r6,zero,2ab14 <_setlocale_r+0x70>
   2aaa8:	014000f4 	movhi	r5,3
   2aaac:	defffe04 	addi	sp,sp,-8
   2aab0:	29533004 	addi	r5,r5,19648
   2aab4:	3009883a 	mov	r4,r6
   2aab8:	dc000015 	stw	r16,0(sp)
   2aabc:	dfc00115 	stw	ra,4(sp)
   2aac0:	3021883a 	mov	r16,r6
   2aac4:	002c8fc0 	call	2c8fc <strcmp>
   2aac8:	1000061e 	bne	r2,zero,2aae4 <_setlocale_r+0x40>
   2aacc:	008000f4 	movhi	r2,3
   2aad0:	10932f04 	addi	r2,r2,19644
   2aad4:	dfc00117 	ldw	ra,4(sp)
   2aad8:	dc000017 	ldw	r16,0(sp)
   2aadc:	dec00204 	addi	sp,sp,8
   2aae0:	f800283a 	ret
   2aae4:	014000f4 	movhi	r5,3
   2aae8:	29532f04 	addi	r5,r5,19644
   2aaec:	8009883a 	mov	r4,r16
   2aaf0:	002c8fc0 	call	2c8fc <strcmp>
   2aaf4:	103ff526 	beq	r2,zero,2aacc <__alt_data_end+0xfffeaacc>
   2aaf8:	014000f4 	movhi	r5,3
   2aafc:	29531a04 	addi	r5,r5,19560
   2ab00:	8009883a 	mov	r4,r16
   2ab04:	002c8fc0 	call	2c8fc <strcmp>
   2ab08:	103ff026 	beq	r2,zero,2aacc <__alt_data_end+0xfffeaacc>
   2ab0c:	0005883a 	mov	r2,zero
   2ab10:	003ff006 	br	2aad4 <__alt_data_end+0xfffeaad4>
   2ab14:	008000f4 	movhi	r2,3
   2ab18:	10932f04 	addi	r2,r2,19644
   2ab1c:	f800283a 	ret

0002ab20 <__locale_charset>:
   2ab20:	008000f4 	movhi	r2,3
   2ab24:	10978804 	addi	r2,r2,24096
   2ab28:	f800283a 	ret

0002ab2c <__locale_mb_cur_max>:
   2ab2c:	008000f4 	movhi	r2,3
   2ab30:	109c2704 	addi	r2,r2,28828
   2ab34:	10800017 	ldw	r2,0(r2)
   2ab38:	f800283a 	ret

0002ab3c <__locale_msgcharset>:
   2ab3c:	008000f4 	movhi	r2,3
   2ab40:	10978004 	addi	r2,r2,24064
   2ab44:	f800283a 	ret

0002ab48 <__locale_cjk_lang>:
   2ab48:	0005883a 	mov	r2,zero
   2ab4c:	f800283a 	ret

0002ab50 <_localeconv_r>:
   2ab50:	008000f4 	movhi	r2,3
   2ab54:	10979004 	addi	r2,r2,24128
   2ab58:	f800283a 	ret

0002ab5c <setlocale>:
   2ab5c:	00c000f4 	movhi	r3,3
   2ab60:	18dc2604 	addi	r3,r3,28824
   2ab64:	2005883a 	mov	r2,r4
   2ab68:	19000017 	ldw	r4,0(r3)
   2ab6c:	280d883a 	mov	r6,r5
   2ab70:	100b883a 	mov	r5,r2
   2ab74:	002aaa41 	jmpi	2aaa4 <_setlocale_r>

0002ab78 <localeconv>:
   2ab78:	008000f4 	movhi	r2,3
   2ab7c:	10979004 	addi	r2,r2,24128
   2ab80:	f800283a 	ret

0002ab84 <__smakebuf_r>:
   2ab84:	2880030b 	ldhu	r2,12(r5)
   2ab88:	10c0008c 	andi	r3,r2,2
   2ab8c:	1800401e 	bne	r3,zero,2ac90 <__smakebuf_r+0x10c>
   2ab90:	deffec04 	addi	sp,sp,-80
   2ab94:	dc000f15 	stw	r16,60(sp)
   2ab98:	2821883a 	mov	r16,r5
   2ab9c:	2940038f 	ldh	r5,14(r5)
   2aba0:	dc401015 	stw	r17,64(sp)
   2aba4:	dfc01315 	stw	ra,76(sp)
   2aba8:	dcc01215 	stw	r19,72(sp)
   2abac:	dc801115 	stw	r18,68(sp)
   2abb0:	2023883a 	mov	r17,r4
   2abb4:	28001b16 	blt	r5,zero,2ac24 <__smakebuf_r+0xa0>
   2abb8:	d80d883a 	mov	r6,sp
   2abbc:	002e4080 	call	2e408 <_fstat_r>
   2abc0:	10001716 	blt	r2,zero,2ac20 <__smakebuf_r+0x9c>
   2abc4:	d8800117 	ldw	r2,4(sp)
   2abc8:	00e00014 	movui	r3,32768
   2abcc:	10bc000c 	andi	r2,r2,61440
   2abd0:	10c03726 	beq	r2,r3,2acb0 <__smakebuf_r+0x12c>
   2abd4:	80c0030b 	ldhu	r3,12(r16)
   2abd8:	18c20014 	ori	r3,r3,2048
   2abdc:	80c0030d 	sth	r3,12(r16)
   2abe0:	00c80004 	movi	r3,8192
   2abe4:	10c03c1e 	bne	r2,r3,2acd8 <__smakebuf_r+0x154>
   2abe8:	8140038f 	ldh	r5,14(r16)
   2abec:	8809883a 	mov	r4,r17
   2abf0:	002e4600 	call	2e460 <_isatty_r>
   2abf4:	10004e26 	beq	r2,zero,2ad30 <__smakebuf_r+0x1ac>
   2abf8:	8080030b 	ldhu	r2,12(r16)
   2abfc:	04c00044 	movi	r19,1
   2ac00:	80c010c4 	addi	r3,r16,67
   2ac04:	14c4b03a 	or	r2,r2,r19
   2ac08:	8080030d 	sth	r2,12(r16)
   2ac0c:	80c00015 	stw	r3,0(r16)
   2ac10:	80c00415 	stw	r3,16(r16)
   2ac14:	84c00515 	stw	r19,20(r16)
   2ac18:	04810004 	movi	r18,1024
   2ac1c:	00000706 	br	2ac3c <__smakebuf_r+0xb8>
   2ac20:	8080030b 	ldhu	r2,12(r16)
   2ac24:	10c0200c 	andi	r3,r2,128
   2ac28:	18001f1e 	bne	r3,zero,2aca8 <__smakebuf_r+0x124>
   2ac2c:	04810004 	movi	r18,1024
   2ac30:	10820014 	ori	r2,r2,2048
   2ac34:	8080030d 	sth	r2,12(r16)
   2ac38:	0027883a 	mov	r19,zero
   2ac3c:	8809883a 	mov	r4,r17
   2ac40:	900b883a 	mov	r5,r18
   2ac44:	00255000 	call	25500 <_malloc_r>
   2ac48:	10002e26 	beq	r2,zero,2ad04 <__smakebuf_r+0x180>
   2ac4c:	80c0030b 	ldhu	r3,12(r16)
   2ac50:	010000f4 	movhi	r4,3
   2ac54:	21273b04 	addi	r4,r4,-25364
   2ac58:	89000f15 	stw	r4,60(r17)
   2ac5c:	18c02014 	ori	r3,r3,128
   2ac60:	80c0030d 	sth	r3,12(r16)
   2ac64:	80800015 	stw	r2,0(r16)
   2ac68:	80800415 	stw	r2,16(r16)
   2ac6c:	84800515 	stw	r18,20(r16)
   2ac70:	98001c1e 	bne	r19,zero,2ace4 <__smakebuf_r+0x160>
   2ac74:	dfc01317 	ldw	ra,76(sp)
   2ac78:	dcc01217 	ldw	r19,72(sp)
   2ac7c:	dc801117 	ldw	r18,68(sp)
   2ac80:	dc401017 	ldw	r17,64(sp)
   2ac84:	dc000f17 	ldw	r16,60(sp)
   2ac88:	dec01404 	addi	sp,sp,80
   2ac8c:	f800283a 	ret
   2ac90:	288010c4 	addi	r2,r5,67
   2ac94:	28800015 	stw	r2,0(r5)
   2ac98:	28800415 	stw	r2,16(r5)
   2ac9c:	00800044 	movi	r2,1
   2aca0:	28800515 	stw	r2,20(r5)
   2aca4:	f800283a 	ret
   2aca8:	04801004 	movi	r18,64
   2acac:	003fe006 	br	2ac30 <__alt_data_end+0xfffeac30>
   2acb0:	81000a17 	ldw	r4,40(r16)
   2acb4:	00c000f4 	movhi	r3,3
   2acb8:	18f22604 	addi	r3,r3,-14184
   2acbc:	20ffc51e 	bne	r4,r3,2abd4 <__alt_data_end+0xfffeabd4>
   2acc0:	80c0030b 	ldhu	r3,12(r16)
   2acc4:	01010004 	movi	r4,1024
   2acc8:	81001315 	stw	r4,76(r16)
   2accc:	1906b03a 	or	r3,r3,r4
   2acd0:	80c0030d 	sth	r3,12(r16)
   2acd4:	003fc206 	br	2abe0 <__alt_data_end+0xfffeabe0>
   2acd8:	0027883a 	mov	r19,zero
   2acdc:	04810004 	movi	r18,1024
   2ace0:	003fd606 	br	2ac3c <__alt_data_end+0xfffeac3c>
   2ace4:	8140038f 	ldh	r5,14(r16)
   2ace8:	8809883a 	mov	r4,r17
   2acec:	002e4600 	call	2e460 <_isatty_r>
   2acf0:	103fe026 	beq	r2,zero,2ac74 <__alt_data_end+0xfffeac74>
   2acf4:	8080030b 	ldhu	r2,12(r16)
   2acf8:	10800054 	ori	r2,r2,1
   2acfc:	8080030d 	sth	r2,12(r16)
   2ad00:	003fdc06 	br	2ac74 <__alt_data_end+0xfffeac74>
   2ad04:	8080030b 	ldhu	r2,12(r16)
   2ad08:	10c0800c 	andi	r3,r2,512
   2ad0c:	183fd91e 	bne	r3,zero,2ac74 <__alt_data_end+0xfffeac74>
   2ad10:	10800094 	ori	r2,r2,2
   2ad14:	80c010c4 	addi	r3,r16,67
   2ad18:	8080030d 	sth	r2,12(r16)
   2ad1c:	00800044 	movi	r2,1
   2ad20:	80c00015 	stw	r3,0(r16)
   2ad24:	80c00415 	stw	r3,16(r16)
   2ad28:	80800515 	stw	r2,20(r16)
   2ad2c:	003fd106 	br	2ac74 <__alt_data_end+0xfffeac74>
   2ad30:	04c00044 	movi	r19,1
   2ad34:	04810004 	movi	r18,1024
   2ad38:	003fc006 	br	2ac3c <__alt_data_end+0xfffeac3c>

0002ad3c <memchr>:
   2ad3c:	208000cc 	andi	r2,r4,3
   2ad40:	280f883a 	mov	r7,r5
   2ad44:	10003526 	beq	r2,zero,2ae1c <memchr+0xe0>
   2ad48:	30bfffc4 	addi	r2,r6,-1
   2ad4c:	30001b26 	beq	r6,zero,2adbc <memchr+0x80>
   2ad50:	21800003 	ldbu	r6,0(r4)
   2ad54:	28c03fcc 	andi	r3,r5,255
   2ad58:	30c01a26 	beq	r6,r3,2adc4 <memchr+0x88>
   2ad5c:	180d883a 	mov	r6,r3
   2ad60:	00000406 	br	2ad74 <memchr+0x38>
   2ad64:	10001526 	beq	r2,zero,2adbc <memchr+0x80>
   2ad68:	20c00003 	ldbu	r3,0(r4)
   2ad6c:	10bfffc4 	addi	r2,r2,-1
   2ad70:	19801426 	beq	r3,r6,2adc4 <memchr+0x88>
   2ad74:	21000044 	addi	r4,r4,1
   2ad78:	20c000cc 	andi	r3,r4,3
   2ad7c:	183ff91e 	bne	r3,zero,2ad64 <__alt_data_end+0xfffead64>
   2ad80:	024000c4 	movi	r9,3
   2ad84:	48801136 	bltu	r9,r2,2adcc <memchr+0x90>
   2ad88:	10000c26 	beq	r2,zero,2adbc <memchr+0x80>
   2ad8c:	20c00003 	ldbu	r3,0(r4)
   2ad90:	29403fcc 	andi	r5,r5,255
   2ad94:	19400b26 	beq	r3,r5,2adc4 <memchr+0x88>
   2ad98:	20c00044 	addi	r3,r4,1
   2ad9c:	2085883a 	add	r2,r4,r2
   2ada0:	39803fcc 	andi	r6,r7,255
   2ada4:	00000306 	br	2adb4 <memchr+0x78>
   2ada8:	18c00044 	addi	r3,r3,1
   2adac:	197fffc3 	ldbu	r5,-1(r3)
   2adb0:	29800426 	beq	r5,r6,2adc4 <memchr+0x88>
   2adb4:	1809883a 	mov	r4,r3
   2adb8:	18bffb1e 	bne	r3,r2,2ada8 <__alt_data_end+0xfffeada8>
   2adbc:	0005883a 	mov	r2,zero
   2adc0:	f800283a 	ret
   2adc4:	2005883a 	mov	r2,r4
   2adc8:	f800283a 	ret
   2adcc:	28c03fcc 	andi	r3,r5,255
   2add0:	1810923a 	slli	r8,r3,8
   2add4:	02ffbff4 	movhi	r11,65279
   2add8:	02a02074 	movhi	r10,32897
   2addc:	40c6b03a 	or	r3,r8,r3
   2ade0:	1810943a 	slli	r8,r3,16
   2ade4:	5affbfc4 	addi	r11,r11,-257
   2ade8:	52a02004 	addi	r10,r10,-32640
   2adec:	40d0b03a 	or	r8,r8,r3
   2adf0:	20c00017 	ldw	r3,0(r4)
   2adf4:	40c6f03a 	xor	r3,r8,r3
   2adf8:	1acd883a 	add	r6,r3,r11
   2adfc:	00c6303a 	nor	r3,zero,r3
   2ae00:	30c6703a 	and	r3,r6,r3
   2ae04:	1a86703a 	and	r3,r3,r10
   2ae08:	183fdf1e 	bne	r3,zero,2ad88 <__alt_data_end+0xfffead88>
   2ae0c:	10bfff04 	addi	r2,r2,-4
   2ae10:	21000104 	addi	r4,r4,4
   2ae14:	48bff636 	bltu	r9,r2,2adf0 <__alt_data_end+0xfffeadf0>
   2ae18:	003fdb06 	br	2ad88 <__alt_data_end+0xfffead88>
   2ae1c:	3005883a 	mov	r2,r6
   2ae20:	003fd706 	br	2ad80 <__alt_data_end+0xfffead80>

0002ae24 <memcpy>:
   2ae24:	deffff04 	addi	sp,sp,-4
   2ae28:	dc000015 	stw	r16,0(sp)
   2ae2c:	00c003c4 	movi	r3,15
   2ae30:	2005883a 	mov	r2,r4
   2ae34:	1980432e 	bgeu	r3,r6,2af44 <memcpy+0x120>
   2ae38:	2146b03a 	or	r3,r4,r5
   2ae3c:	18c000cc 	andi	r3,r3,3
   2ae40:	1800421e 	bne	r3,zero,2af4c <memcpy+0x128>
   2ae44:	343ffc04 	addi	r16,r6,-16
   2ae48:	8020d13a 	srli	r16,r16,4
   2ae4c:	28c00104 	addi	r3,r5,4
   2ae50:	23400104 	addi	r13,r4,4
   2ae54:	801e913a 	slli	r15,r16,4
   2ae58:	2b000204 	addi	r12,r5,8
   2ae5c:	22c00204 	addi	r11,r4,8
   2ae60:	7bc00504 	addi	r15,r15,20
   2ae64:	2a800304 	addi	r10,r5,12
   2ae68:	22400304 	addi	r9,r4,12
   2ae6c:	2bdf883a 	add	r15,r5,r15
   2ae70:	2811883a 	mov	r8,r5
   2ae74:	200f883a 	mov	r7,r4
   2ae78:	41000017 	ldw	r4,0(r8)
   2ae7c:	39c00404 	addi	r7,r7,16
   2ae80:	18c00404 	addi	r3,r3,16
   2ae84:	393ffc15 	stw	r4,-16(r7)
   2ae88:	1bbffc17 	ldw	r14,-16(r3)
   2ae8c:	6b400404 	addi	r13,r13,16
   2ae90:	5ac00404 	addi	r11,r11,16
   2ae94:	6bbffc15 	stw	r14,-16(r13)
   2ae98:	63800017 	ldw	r14,0(r12)
   2ae9c:	4a400404 	addi	r9,r9,16
   2aea0:	42000404 	addi	r8,r8,16
   2aea4:	5bbffc15 	stw	r14,-16(r11)
   2aea8:	53800017 	ldw	r14,0(r10)
   2aeac:	63000404 	addi	r12,r12,16
   2aeb0:	52800404 	addi	r10,r10,16
   2aeb4:	4bbffc15 	stw	r14,-16(r9)
   2aeb8:	1bffef1e 	bne	r3,r15,2ae78 <__alt_data_end+0xfffeae78>
   2aebc:	81c00044 	addi	r7,r16,1
   2aec0:	380e913a 	slli	r7,r7,4
   2aec4:	310003cc 	andi	r4,r6,15
   2aec8:	02c000c4 	movi	r11,3
   2aecc:	11c7883a 	add	r3,r2,r7
   2aed0:	29cb883a 	add	r5,r5,r7
   2aed4:	59001f2e 	bgeu	r11,r4,2af54 <memcpy+0x130>
   2aed8:	1813883a 	mov	r9,r3
   2aedc:	2811883a 	mov	r8,r5
   2aee0:	200f883a 	mov	r7,r4
   2aee4:	42800017 	ldw	r10,0(r8)
   2aee8:	4a400104 	addi	r9,r9,4
   2aeec:	39ffff04 	addi	r7,r7,-4
   2aef0:	4abfff15 	stw	r10,-4(r9)
   2aef4:	42000104 	addi	r8,r8,4
   2aef8:	59fffa36 	bltu	r11,r7,2aee4 <__alt_data_end+0xfffeaee4>
   2aefc:	213fff04 	addi	r4,r4,-4
   2af00:	2008d0ba 	srli	r4,r4,2
   2af04:	318000cc 	andi	r6,r6,3
   2af08:	21000044 	addi	r4,r4,1
   2af0c:	2109883a 	add	r4,r4,r4
   2af10:	2109883a 	add	r4,r4,r4
   2af14:	1907883a 	add	r3,r3,r4
   2af18:	290b883a 	add	r5,r5,r4
   2af1c:	30000626 	beq	r6,zero,2af38 <memcpy+0x114>
   2af20:	198d883a 	add	r6,r3,r6
   2af24:	29c00003 	ldbu	r7,0(r5)
   2af28:	18c00044 	addi	r3,r3,1
   2af2c:	29400044 	addi	r5,r5,1
   2af30:	19ffffc5 	stb	r7,-1(r3)
   2af34:	19bffb1e 	bne	r3,r6,2af24 <__alt_data_end+0xfffeaf24>
   2af38:	dc000017 	ldw	r16,0(sp)
   2af3c:	dec00104 	addi	sp,sp,4
   2af40:	f800283a 	ret
   2af44:	2007883a 	mov	r3,r4
   2af48:	003ff406 	br	2af1c <__alt_data_end+0xfffeaf1c>
   2af4c:	2007883a 	mov	r3,r4
   2af50:	003ff306 	br	2af20 <__alt_data_end+0xfffeaf20>
   2af54:	200d883a 	mov	r6,r4
   2af58:	003ff006 	br	2af1c <__alt_data_end+0xfffeaf1c>

0002af5c <memmove>:
   2af5c:	2005883a 	mov	r2,r4
   2af60:	29000b2e 	bgeu	r5,r4,2af90 <memmove+0x34>
   2af64:	298f883a 	add	r7,r5,r6
   2af68:	21c0092e 	bgeu	r4,r7,2af90 <memmove+0x34>
   2af6c:	2187883a 	add	r3,r4,r6
   2af70:	198bc83a 	sub	r5,r3,r6
   2af74:	30004b26 	beq	r6,zero,2b0a4 <memmove+0x148>
   2af78:	39ffffc4 	addi	r7,r7,-1
   2af7c:	39000003 	ldbu	r4,0(r7)
   2af80:	18ffffc4 	addi	r3,r3,-1
   2af84:	19000005 	stb	r4,0(r3)
   2af88:	197ffb1e 	bne	r3,r5,2af78 <__alt_data_end+0xfffeaf78>
   2af8c:	f800283a 	ret
   2af90:	00c003c4 	movi	r3,15
   2af94:	1980412e 	bgeu	r3,r6,2b09c <memmove+0x140>
   2af98:	1146b03a 	or	r3,r2,r5
   2af9c:	18c000cc 	andi	r3,r3,3
   2afa0:	1800411e 	bne	r3,zero,2b0a8 <memmove+0x14c>
   2afa4:	33fffc04 	addi	r15,r6,-16
   2afa8:	781ed13a 	srli	r15,r15,4
   2afac:	28c00104 	addi	r3,r5,4
   2afb0:	13400104 	addi	r13,r2,4
   2afb4:	781c913a 	slli	r14,r15,4
   2afb8:	2b000204 	addi	r12,r5,8
   2afbc:	12c00204 	addi	r11,r2,8
   2afc0:	73800504 	addi	r14,r14,20
   2afc4:	2a800304 	addi	r10,r5,12
   2afc8:	12400304 	addi	r9,r2,12
   2afcc:	2b9d883a 	add	r14,r5,r14
   2afd0:	2811883a 	mov	r8,r5
   2afd4:	100f883a 	mov	r7,r2
   2afd8:	41000017 	ldw	r4,0(r8)
   2afdc:	39c00404 	addi	r7,r7,16
   2afe0:	18c00404 	addi	r3,r3,16
   2afe4:	393ffc15 	stw	r4,-16(r7)
   2afe8:	193ffc17 	ldw	r4,-16(r3)
   2afec:	6b400404 	addi	r13,r13,16
   2aff0:	5ac00404 	addi	r11,r11,16
   2aff4:	693ffc15 	stw	r4,-16(r13)
   2aff8:	61000017 	ldw	r4,0(r12)
   2affc:	4a400404 	addi	r9,r9,16
   2b000:	42000404 	addi	r8,r8,16
   2b004:	593ffc15 	stw	r4,-16(r11)
   2b008:	51000017 	ldw	r4,0(r10)
   2b00c:	63000404 	addi	r12,r12,16
   2b010:	52800404 	addi	r10,r10,16
   2b014:	493ffc15 	stw	r4,-16(r9)
   2b018:	1bbfef1e 	bne	r3,r14,2afd8 <__alt_data_end+0xfffeafd8>
   2b01c:	79000044 	addi	r4,r15,1
   2b020:	2008913a 	slli	r4,r4,4
   2b024:	328003cc 	andi	r10,r6,15
   2b028:	02c000c4 	movi	r11,3
   2b02c:	1107883a 	add	r3,r2,r4
   2b030:	290b883a 	add	r5,r5,r4
   2b034:	5a801e2e 	bgeu	r11,r10,2b0b0 <memmove+0x154>
   2b038:	1813883a 	mov	r9,r3
   2b03c:	2811883a 	mov	r8,r5
   2b040:	500f883a 	mov	r7,r10
   2b044:	41000017 	ldw	r4,0(r8)
   2b048:	4a400104 	addi	r9,r9,4
   2b04c:	39ffff04 	addi	r7,r7,-4
   2b050:	493fff15 	stw	r4,-4(r9)
   2b054:	42000104 	addi	r8,r8,4
   2b058:	59fffa36 	bltu	r11,r7,2b044 <__alt_data_end+0xfffeb044>
   2b05c:	513fff04 	addi	r4,r10,-4
   2b060:	2008d0ba 	srli	r4,r4,2
   2b064:	318000cc 	andi	r6,r6,3
   2b068:	21000044 	addi	r4,r4,1
   2b06c:	2109883a 	add	r4,r4,r4
   2b070:	2109883a 	add	r4,r4,r4
   2b074:	1907883a 	add	r3,r3,r4
   2b078:	290b883a 	add	r5,r5,r4
   2b07c:	30000926 	beq	r6,zero,2b0a4 <memmove+0x148>
   2b080:	198d883a 	add	r6,r3,r6
   2b084:	29c00003 	ldbu	r7,0(r5)
   2b088:	18c00044 	addi	r3,r3,1
   2b08c:	29400044 	addi	r5,r5,1
   2b090:	19ffffc5 	stb	r7,-1(r3)
   2b094:	19bffb1e 	bne	r3,r6,2b084 <__alt_data_end+0xfffeb084>
   2b098:	f800283a 	ret
   2b09c:	1007883a 	mov	r3,r2
   2b0a0:	003ff606 	br	2b07c <__alt_data_end+0xfffeb07c>
   2b0a4:	f800283a 	ret
   2b0a8:	1007883a 	mov	r3,r2
   2b0ac:	003ff406 	br	2b080 <__alt_data_end+0xfffeb080>
   2b0b0:	500d883a 	mov	r6,r10
   2b0b4:	003ff106 	br	2b07c <__alt_data_end+0xfffeb07c>

0002b0b8 <_Balloc>:
   2b0b8:	20801317 	ldw	r2,76(r4)
   2b0bc:	defffc04 	addi	sp,sp,-16
   2b0c0:	dc400115 	stw	r17,4(sp)
   2b0c4:	dc000015 	stw	r16,0(sp)
   2b0c8:	dfc00315 	stw	ra,12(sp)
   2b0cc:	dc800215 	stw	r18,8(sp)
   2b0d0:	2023883a 	mov	r17,r4
   2b0d4:	2821883a 	mov	r16,r5
   2b0d8:	10000f26 	beq	r2,zero,2b118 <_Balloc+0x60>
   2b0dc:	8407883a 	add	r3,r16,r16
   2b0e0:	18c7883a 	add	r3,r3,r3
   2b0e4:	10c7883a 	add	r3,r2,r3
   2b0e8:	18800017 	ldw	r2,0(r3)
   2b0ec:	10001126 	beq	r2,zero,2b134 <_Balloc+0x7c>
   2b0f0:	11000017 	ldw	r4,0(r2)
   2b0f4:	19000015 	stw	r4,0(r3)
   2b0f8:	10000415 	stw	zero,16(r2)
   2b0fc:	10000315 	stw	zero,12(r2)
   2b100:	dfc00317 	ldw	ra,12(sp)
   2b104:	dc800217 	ldw	r18,8(sp)
   2b108:	dc400117 	ldw	r17,4(sp)
   2b10c:	dc000017 	ldw	r16,0(sp)
   2b110:	dec00404 	addi	sp,sp,16
   2b114:	f800283a 	ret
   2b118:	01400104 	movi	r5,4
   2b11c:	01800844 	movi	r6,33
   2b120:	002e0540 	call	2e054 <_calloc_r>
   2b124:	88801315 	stw	r2,76(r17)
   2b128:	103fec1e 	bne	r2,zero,2b0dc <__alt_data_end+0xfffeb0dc>
   2b12c:	0005883a 	mov	r2,zero
   2b130:	003ff306 	br	2b100 <__alt_data_end+0xfffeb100>
   2b134:	01400044 	movi	r5,1
   2b138:	2c24983a 	sll	r18,r5,r16
   2b13c:	8809883a 	mov	r4,r17
   2b140:	91800144 	addi	r6,r18,5
   2b144:	318d883a 	add	r6,r6,r6
   2b148:	318d883a 	add	r6,r6,r6
   2b14c:	002e0540 	call	2e054 <_calloc_r>
   2b150:	103ff626 	beq	r2,zero,2b12c <__alt_data_end+0xfffeb12c>
   2b154:	14000115 	stw	r16,4(r2)
   2b158:	14800215 	stw	r18,8(r2)
   2b15c:	003fe606 	br	2b0f8 <__alt_data_end+0xfffeb0f8>

0002b160 <_Bfree>:
   2b160:	28000826 	beq	r5,zero,2b184 <_Bfree+0x24>
   2b164:	28c00117 	ldw	r3,4(r5)
   2b168:	20801317 	ldw	r2,76(r4)
   2b16c:	18c7883a 	add	r3,r3,r3
   2b170:	18c7883a 	add	r3,r3,r3
   2b174:	10c5883a 	add	r2,r2,r3
   2b178:	10c00017 	ldw	r3,0(r2)
   2b17c:	28c00015 	stw	r3,0(r5)
   2b180:	11400015 	stw	r5,0(r2)
   2b184:	f800283a 	ret

0002b188 <__multadd>:
   2b188:	defffa04 	addi	sp,sp,-24
   2b18c:	dc000115 	stw	r16,4(sp)
   2b190:	2c000417 	ldw	r16,16(r5)
   2b194:	dc800315 	stw	r18,12(sp)
   2b198:	dc400215 	stw	r17,8(sp)
   2b19c:	dfc00515 	stw	ra,20(sp)
   2b1a0:	dcc00415 	stw	r19,16(sp)
   2b1a4:	2823883a 	mov	r17,r5
   2b1a8:	2025883a 	mov	r18,r4
   2b1ac:	2a400504 	addi	r9,r5,20
   2b1b0:	0015883a 	mov	r10,zero
   2b1b4:	4a000017 	ldw	r8,0(r9)
   2b1b8:	4a400104 	addi	r9,r9,4
   2b1bc:	52800044 	addi	r10,r10,1
   2b1c0:	40ffffcc 	andi	r3,r8,65535
   2b1c4:	1987383a 	mul	r3,r3,r6
   2b1c8:	4010d43a 	srli	r8,r8,16
   2b1cc:	19cf883a 	add	r7,r3,r7
   2b1d0:	4191383a 	mul	r8,r8,r6
   2b1d4:	3816d43a 	srli	r11,r7,16
   2b1d8:	38ffffcc 	andi	r3,r7,65535
   2b1dc:	5a0f883a 	add	r7,r11,r8
   2b1e0:	3810943a 	slli	r8,r7,16
   2b1e4:	380ed43a 	srli	r7,r7,16
   2b1e8:	40c7883a 	add	r3,r8,r3
   2b1ec:	48ffff15 	stw	r3,-4(r9)
   2b1f0:	543ff016 	blt	r10,r16,2b1b4 <__alt_data_end+0xfffeb1b4>
   2b1f4:	38000926 	beq	r7,zero,2b21c <__multadd+0x94>
   2b1f8:	88800217 	ldw	r2,8(r17)
   2b1fc:	80800f0e 	bge	r16,r2,2b23c <__multadd+0xb4>
   2b200:	80800144 	addi	r2,r16,5
   2b204:	1085883a 	add	r2,r2,r2
   2b208:	1085883a 	add	r2,r2,r2
   2b20c:	8885883a 	add	r2,r17,r2
   2b210:	11c00015 	stw	r7,0(r2)
   2b214:	84000044 	addi	r16,r16,1
   2b218:	8c000415 	stw	r16,16(r17)
   2b21c:	8805883a 	mov	r2,r17
   2b220:	dfc00517 	ldw	ra,20(sp)
   2b224:	dcc00417 	ldw	r19,16(sp)
   2b228:	dc800317 	ldw	r18,12(sp)
   2b22c:	dc400217 	ldw	r17,8(sp)
   2b230:	dc000117 	ldw	r16,4(sp)
   2b234:	dec00604 	addi	sp,sp,24
   2b238:	f800283a 	ret
   2b23c:	89400117 	ldw	r5,4(r17)
   2b240:	9009883a 	mov	r4,r18
   2b244:	d9c00015 	stw	r7,0(sp)
   2b248:	29400044 	addi	r5,r5,1
   2b24c:	002b0b80 	call	2b0b8 <_Balloc>
   2b250:	89800417 	ldw	r6,16(r17)
   2b254:	89400304 	addi	r5,r17,12
   2b258:	11000304 	addi	r4,r2,12
   2b25c:	31800084 	addi	r6,r6,2
   2b260:	318d883a 	add	r6,r6,r6
   2b264:	318d883a 	add	r6,r6,r6
   2b268:	1027883a 	mov	r19,r2
   2b26c:	002ae240 	call	2ae24 <memcpy>
   2b270:	89000117 	ldw	r4,4(r17)
   2b274:	90c01317 	ldw	r3,76(r18)
   2b278:	d9c00017 	ldw	r7,0(sp)
   2b27c:	2109883a 	add	r4,r4,r4
   2b280:	2109883a 	add	r4,r4,r4
   2b284:	1907883a 	add	r3,r3,r4
   2b288:	18800017 	ldw	r2,0(r3)
   2b28c:	88800015 	stw	r2,0(r17)
   2b290:	1c400015 	stw	r17,0(r3)
   2b294:	9823883a 	mov	r17,r19
   2b298:	003fd906 	br	2b200 <__alt_data_end+0xfffeb200>

0002b29c <__s2b>:
   2b29c:	defff904 	addi	sp,sp,-28
   2b2a0:	dc400115 	stw	r17,4(sp)
   2b2a4:	dc000015 	stw	r16,0(sp)
   2b2a8:	2023883a 	mov	r17,r4
   2b2ac:	2821883a 	mov	r16,r5
   2b2b0:	39000204 	addi	r4,r7,8
   2b2b4:	01400244 	movi	r5,9
   2b2b8:	dcc00315 	stw	r19,12(sp)
   2b2bc:	dc800215 	stw	r18,8(sp)
   2b2c0:	dfc00615 	stw	ra,24(sp)
   2b2c4:	dd400515 	stw	r21,20(sp)
   2b2c8:	dd000415 	stw	r20,16(sp)
   2b2cc:	3825883a 	mov	r18,r7
   2b2d0:	3027883a 	mov	r19,r6
   2b2d4:	0023df00 	call	23df0 <__divsi3>
   2b2d8:	00c00044 	movi	r3,1
   2b2dc:	000b883a 	mov	r5,zero
   2b2e0:	1880030e 	bge	r3,r2,2b2f0 <__s2b+0x54>
   2b2e4:	18c7883a 	add	r3,r3,r3
   2b2e8:	29400044 	addi	r5,r5,1
   2b2ec:	18bffd16 	blt	r3,r2,2b2e4 <__alt_data_end+0xfffeb2e4>
   2b2f0:	8809883a 	mov	r4,r17
   2b2f4:	002b0b80 	call	2b0b8 <_Balloc>
   2b2f8:	d8c00717 	ldw	r3,28(sp)
   2b2fc:	10c00515 	stw	r3,20(r2)
   2b300:	00c00044 	movi	r3,1
   2b304:	10c00415 	stw	r3,16(r2)
   2b308:	00c00244 	movi	r3,9
   2b30c:	1cc0210e 	bge	r3,r19,2b394 <__s2b+0xf8>
   2b310:	80eb883a 	add	r21,r16,r3
   2b314:	a829883a 	mov	r20,r21
   2b318:	84e1883a 	add	r16,r16,r19
   2b31c:	a1c00007 	ldb	r7,0(r20)
   2b320:	8809883a 	mov	r4,r17
   2b324:	a5000044 	addi	r20,r20,1
   2b328:	100b883a 	mov	r5,r2
   2b32c:	01800284 	movi	r6,10
   2b330:	39fff404 	addi	r7,r7,-48
   2b334:	002b1880 	call	2b188 <__multadd>
   2b338:	a43ff81e 	bne	r20,r16,2b31c <__alt_data_end+0xfffeb31c>
   2b33c:	ace1883a 	add	r16,r21,r19
   2b340:	843ffe04 	addi	r16,r16,-8
   2b344:	9c800a0e 	bge	r19,r18,2b370 <__s2b+0xd4>
   2b348:	94e5c83a 	sub	r18,r18,r19
   2b34c:	84a5883a 	add	r18,r16,r18
   2b350:	81c00007 	ldb	r7,0(r16)
   2b354:	8809883a 	mov	r4,r17
   2b358:	84000044 	addi	r16,r16,1
   2b35c:	100b883a 	mov	r5,r2
   2b360:	01800284 	movi	r6,10
   2b364:	39fff404 	addi	r7,r7,-48
   2b368:	002b1880 	call	2b188 <__multadd>
   2b36c:	84bff81e 	bne	r16,r18,2b350 <__alt_data_end+0xfffeb350>
   2b370:	dfc00617 	ldw	ra,24(sp)
   2b374:	dd400517 	ldw	r21,20(sp)
   2b378:	dd000417 	ldw	r20,16(sp)
   2b37c:	dcc00317 	ldw	r19,12(sp)
   2b380:	dc800217 	ldw	r18,8(sp)
   2b384:	dc400117 	ldw	r17,4(sp)
   2b388:	dc000017 	ldw	r16,0(sp)
   2b38c:	dec00704 	addi	sp,sp,28
   2b390:	f800283a 	ret
   2b394:	84000284 	addi	r16,r16,10
   2b398:	1827883a 	mov	r19,r3
   2b39c:	003fe906 	br	2b344 <__alt_data_end+0xfffeb344>

0002b3a0 <__hi0bits>:
   2b3a0:	20bfffec 	andhi	r2,r4,65535
   2b3a4:	1000141e 	bne	r2,zero,2b3f8 <__hi0bits+0x58>
   2b3a8:	2008943a 	slli	r4,r4,16
   2b3ac:	00800404 	movi	r2,16
   2b3b0:	20ffc02c 	andhi	r3,r4,65280
   2b3b4:	1800021e 	bne	r3,zero,2b3c0 <__hi0bits+0x20>
   2b3b8:	2008923a 	slli	r4,r4,8
   2b3bc:	10800204 	addi	r2,r2,8
   2b3c0:	20fc002c 	andhi	r3,r4,61440
   2b3c4:	1800021e 	bne	r3,zero,2b3d0 <__hi0bits+0x30>
   2b3c8:	2008913a 	slli	r4,r4,4
   2b3cc:	10800104 	addi	r2,r2,4
   2b3d0:	20f0002c 	andhi	r3,r4,49152
   2b3d4:	1800031e 	bne	r3,zero,2b3e4 <__hi0bits+0x44>
   2b3d8:	2109883a 	add	r4,r4,r4
   2b3dc:	10800084 	addi	r2,r2,2
   2b3e0:	2109883a 	add	r4,r4,r4
   2b3e4:	20000316 	blt	r4,zero,2b3f4 <__hi0bits+0x54>
   2b3e8:	2110002c 	andhi	r4,r4,16384
   2b3ec:	2000041e 	bne	r4,zero,2b400 <__hi0bits+0x60>
   2b3f0:	00800804 	movi	r2,32
   2b3f4:	f800283a 	ret
   2b3f8:	0005883a 	mov	r2,zero
   2b3fc:	003fec06 	br	2b3b0 <__alt_data_end+0xfffeb3b0>
   2b400:	10800044 	addi	r2,r2,1
   2b404:	f800283a 	ret

0002b408 <__lo0bits>:
   2b408:	20c00017 	ldw	r3,0(r4)
   2b40c:	188001cc 	andi	r2,r3,7
   2b410:	10000826 	beq	r2,zero,2b434 <__lo0bits+0x2c>
   2b414:	1880004c 	andi	r2,r3,1
   2b418:	1000211e 	bne	r2,zero,2b4a0 <__lo0bits+0x98>
   2b41c:	1880008c 	andi	r2,r3,2
   2b420:	1000211e 	bne	r2,zero,2b4a8 <__lo0bits+0xa0>
   2b424:	1806d0ba 	srli	r3,r3,2
   2b428:	00800084 	movi	r2,2
   2b42c:	20c00015 	stw	r3,0(r4)
   2b430:	f800283a 	ret
   2b434:	18bfffcc 	andi	r2,r3,65535
   2b438:	10001326 	beq	r2,zero,2b488 <__lo0bits+0x80>
   2b43c:	0005883a 	mov	r2,zero
   2b440:	19403fcc 	andi	r5,r3,255
   2b444:	2800021e 	bne	r5,zero,2b450 <__lo0bits+0x48>
   2b448:	1806d23a 	srli	r3,r3,8
   2b44c:	10800204 	addi	r2,r2,8
   2b450:	194003cc 	andi	r5,r3,15
   2b454:	2800021e 	bne	r5,zero,2b460 <__lo0bits+0x58>
   2b458:	1806d13a 	srli	r3,r3,4
   2b45c:	10800104 	addi	r2,r2,4
   2b460:	194000cc 	andi	r5,r3,3
   2b464:	2800021e 	bne	r5,zero,2b470 <__lo0bits+0x68>
   2b468:	1806d0ba 	srli	r3,r3,2
   2b46c:	10800084 	addi	r2,r2,2
   2b470:	1940004c 	andi	r5,r3,1
   2b474:	2800081e 	bne	r5,zero,2b498 <__lo0bits+0x90>
   2b478:	1806d07a 	srli	r3,r3,1
   2b47c:	1800051e 	bne	r3,zero,2b494 <__lo0bits+0x8c>
   2b480:	00800804 	movi	r2,32
   2b484:	f800283a 	ret
   2b488:	1806d43a 	srli	r3,r3,16
   2b48c:	00800404 	movi	r2,16
   2b490:	003feb06 	br	2b440 <__alt_data_end+0xfffeb440>
   2b494:	10800044 	addi	r2,r2,1
   2b498:	20c00015 	stw	r3,0(r4)
   2b49c:	f800283a 	ret
   2b4a0:	0005883a 	mov	r2,zero
   2b4a4:	f800283a 	ret
   2b4a8:	1806d07a 	srli	r3,r3,1
   2b4ac:	00800044 	movi	r2,1
   2b4b0:	20c00015 	stw	r3,0(r4)
   2b4b4:	f800283a 	ret

0002b4b8 <__i2b>:
   2b4b8:	defffd04 	addi	sp,sp,-12
   2b4bc:	dc000015 	stw	r16,0(sp)
   2b4c0:	04000044 	movi	r16,1
   2b4c4:	dc400115 	stw	r17,4(sp)
   2b4c8:	2823883a 	mov	r17,r5
   2b4cc:	800b883a 	mov	r5,r16
   2b4d0:	dfc00215 	stw	ra,8(sp)
   2b4d4:	002b0b80 	call	2b0b8 <_Balloc>
   2b4d8:	14400515 	stw	r17,20(r2)
   2b4dc:	14000415 	stw	r16,16(r2)
   2b4e0:	dfc00217 	ldw	ra,8(sp)
   2b4e4:	dc400117 	ldw	r17,4(sp)
   2b4e8:	dc000017 	ldw	r16,0(sp)
   2b4ec:	dec00304 	addi	sp,sp,12
   2b4f0:	f800283a 	ret

0002b4f4 <__multiply>:
   2b4f4:	defffa04 	addi	sp,sp,-24
   2b4f8:	dcc00315 	stw	r19,12(sp)
   2b4fc:	dc800215 	stw	r18,8(sp)
   2b500:	2cc00417 	ldw	r19,16(r5)
   2b504:	34800417 	ldw	r18,16(r6)
   2b508:	dd000415 	stw	r20,16(sp)
   2b50c:	dc400115 	stw	r17,4(sp)
   2b510:	dfc00515 	stw	ra,20(sp)
   2b514:	dc000015 	stw	r16,0(sp)
   2b518:	2829883a 	mov	r20,r5
   2b51c:	3023883a 	mov	r17,r6
   2b520:	9c807016 	blt	r19,r18,2b6e4 <__multiply+0x1f0>
   2b524:	9005883a 	mov	r2,r18
   2b528:	9825883a 	mov	r18,r19
   2b52c:	1027883a 	mov	r19,r2
   2b530:	a0800217 	ldw	r2,8(r20)
   2b534:	94e1883a 	add	r16,r18,r19
   2b538:	a1400117 	ldw	r5,4(r20)
   2b53c:	1400010e 	bge	r2,r16,2b544 <__multiply+0x50>
   2b540:	29400044 	addi	r5,r5,1
   2b544:	002b0b80 	call	2b0b8 <_Balloc>
   2b548:	8417883a 	add	r11,r16,r16
   2b54c:	13000504 	addi	r12,r2,20
   2b550:	5ad7883a 	add	r11,r11,r11
   2b554:	62d7883a 	add	r11,r12,r11
   2b558:	6007883a 	mov	r3,r12
   2b55c:	62c0032e 	bgeu	r12,r11,2b56c <__multiply+0x78>
   2b560:	18000015 	stw	zero,0(r3)
   2b564:	18c00104 	addi	r3,r3,4
   2b568:	1afffd36 	bltu	r3,r11,2b560 <__alt_data_end+0xfffeb560>
   2b56c:	9ce7883a 	add	r19,r19,r19
   2b570:	94a5883a 	add	r18,r18,r18
   2b574:	89800504 	addi	r6,r17,20
   2b578:	9ce7883a 	add	r19,r19,r19
   2b57c:	a3800504 	addi	r14,r20,20
   2b580:	94a5883a 	add	r18,r18,r18
   2b584:	34db883a 	add	r13,r6,r19
   2b588:	7495883a 	add	r10,r14,r18
   2b58c:	3340422e 	bgeu	r6,r13,2b698 <__multiply+0x1a4>
   2b590:	34400017 	ldw	r17,0(r6)
   2b594:	8cbfffcc 	andi	r18,r17,65535
   2b598:	90001b26 	beq	r18,zero,2b608 <__multiply+0x114>
   2b59c:	6013883a 	mov	r9,r12
   2b5a0:	7023883a 	mov	r17,r14
   2b5a4:	0011883a 	mov	r8,zero
   2b5a8:	88c00017 	ldw	r3,0(r17)
   2b5ac:	4bc00017 	ldw	r15,0(r9)
   2b5b0:	8c400104 	addi	r17,r17,4
   2b5b4:	19ffffcc 	andi	r7,r3,65535
   2b5b8:	3c8f383a 	mul	r7,r7,r18
   2b5bc:	1808d43a 	srli	r4,r3,16
   2b5c0:	797fffcc 	andi	r5,r15,65535
   2b5c4:	29cb883a 	add	r5,r5,r7
   2b5c8:	2a0b883a 	add	r5,r5,r8
   2b5cc:	2489383a 	mul	r4,r4,r18
   2b5d0:	7806d43a 	srli	r3,r15,16
   2b5d4:	2810d43a 	srli	r8,r5,16
   2b5d8:	297fffcc 	andi	r5,r5,65535
   2b5dc:	1907883a 	add	r3,r3,r4
   2b5e0:	1a07883a 	add	r3,r3,r8
   2b5e4:	1808943a 	slli	r4,r3,16
   2b5e8:	480f883a 	mov	r7,r9
   2b5ec:	1810d43a 	srli	r8,r3,16
   2b5f0:	214ab03a 	or	r5,r4,r5
   2b5f4:	49400015 	stw	r5,0(r9)
   2b5f8:	4a400104 	addi	r9,r9,4
   2b5fc:	8abfea36 	bltu	r17,r10,2b5a8 <__alt_data_end+0xfffeb5a8>
   2b600:	3a000115 	stw	r8,4(r7)
   2b604:	34400017 	ldw	r17,0(r6)
   2b608:	8822d43a 	srli	r17,r17,16
   2b60c:	88001f26 	beq	r17,zero,2b68c <__multiply+0x198>
   2b610:	60c00017 	ldw	r3,0(r12)
   2b614:	7013883a 	mov	r9,r14
   2b618:	601f883a 	mov	r15,r12
   2b61c:	1811883a 	mov	r8,r3
   2b620:	6027883a 	mov	r19,r12
   2b624:	000f883a 	mov	r7,zero
   2b628:	00000106 	br	2b630 <__multiply+0x13c>
   2b62c:	9027883a 	mov	r19,r18
   2b630:	4940000b 	ldhu	r5,0(r9)
   2b634:	4010d43a 	srli	r8,r8,16
   2b638:	193fffcc 	andi	r4,r3,65535
   2b63c:	2c4b383a 	mul	r5,r5,r17
   2b640:	7bc00104 	addi	r15,r15,4
   2b644:	4a400104 	addi	r9,r9,4
   2b648:	2a0b883a 	add	r5,r5,r8
   2b64c:	29cb883a 	add	r5,r5,r7
   2b650:	2806943a 	slli	r3,r5,16
   2b654:	9c800104 	addi	r18,r19,4
   2b658:	280ad43a 	srli	r5,r5,16
   2b65c:	1908b03a 	or	r4,r3,r4
   2b660:	793fff15 	stw	r4,-4(r15)
   2b664:	48ffff17 	ldw	r3,-4(r9)
   2b668:	92000017 	ldw	r8,0(r18)
   2b66c:	1806d43a 	srli	r3,r3,16
   2b670:	413fffcc 	andi	r4,r8,65535
   2b674:	1c47383a 	mul	r3,r3,r17
   2b678:	1907883a 	add	r3,r3,r4
   2b67c:	1947883a 	add	r3,r3,r5
   2b680:	180ed43a 	srli	r7,r3,16
   2b684:	4abfe936 	bltu	r9,r10,2b62c <__alt_data_end+0xfffeb62c>
   2b688:	98c00115 	stw	r3,4(r19)
   2b68c:	31800104 	addi	r6,r6,4
   2b690:	63000104 	addi	r12,r12,4
   2b694:	337fbe36 	bltu	r6,r13,2b590 <__alt_data_end+0xfffeb590>
   2b698:	0400090e 	bge	zero,r16,2b6c0 <__multiply+0x1cc>
   2b69c:	58ffff17 	ldw	r3,-4(r11)
   2b6a0:	5affff04 	addi	r11,r11,-4
   2b6a4:	18000326 	beq	r3,zero,2b6b4 <__multiply+0x1c0>
   2b6a8:	00000506 	br	2b6c0 <__multiply+0x1cc>
   2b6ac:	58c00017 	ldw	r3,0(r11)
   2b6b0:	1800031e 	bne	r3,zero,2b6c0 <__multiply+0x1cc>
   2b6b4:	843fffc4 	addi	r16,r16,-1
   2b6b8:	5affff04 	addi	r11,r11,-4
   2b6bc:	803ffb1e 	bne	r16,zero,2b6ac <__alt_data_end+0xfffeb6ac>
   2b6c0:	14000415 	stw	r16,16(r2)
   2b6c4:	dfc00517 	ldw	ra,20(sp)
   2b6c8:	dd000417 	ldw	r20,16(sp)
   2b6cc:	dcc00317 	ldw	r19,12(sp)
   2b6d0:	dc800217 	ldw	r18,8(sp)
   2b6d4:	dc400117 	ldw	r17,4(sp)
   2b6d8:	dc000017 	ldw	r16,0(sp)
   2b6dc:	dec00604 	addi	sp,sp,24
   2b6e0:	f800283a 	ret
   2b6e4:	3029883a 	mov	r20,r6
   2b6e8:	2823883a 	mov	r17,r5
   2b6ec:	003f9006 	br	2b530 <__alt_data_end+0xfffeb530>

0002b6f0 <__pow5mult>:
   2b6f0:	defffa04 	addi	sp,sp,-24
   2b6f4:	dcc00315 	stw	r19,12(sp)
   2b6f8:	dc800215 	stw	r18,8(sp)
   2b6fc:	dc000015 	stw	r16,0(sp)
   2b700:	dfc00515 	stw	ra,20(sp)
   2b704:	dd000415 	stw	r20,16(sp)
   2b708:	dc400115 	stw	r17,4(sp)
   2b70c:	308000cc 	andi	r2,r6,3
   2b710:	3021883a 	mov	r16,r6
   2b714:	2027883a 	mov	r19,r4
   2b718:	2825883a 	mov	r18,r5
   2b71c:	10002e1e 	bne	r2,zero,2b7d8 <__pow5mult+0xe8>
   2b720:	8021d0ba 	srai	r16,r16,2
   2b724:	80001a26 	beq	r16,zero,2b790 <__pow5mult+0xa0>
   2b728:	9c401217 	ldw	r17,72(r19)
   2b72c:	8800061e 	bne	r17,zero,2b748 <__pow5mult+0x58>
   2b730:	00003406 	br	2b804 <__pow5mult+0x114>
   2b734:	8021d07a 	srai	r16,r16,1
   2b738:	80001526 	beq	r16,zero,2b790 <__pow5mult+0xa0>
   2b73c:	88800017 	ldw	r2,0(r17)
   2b740:	10001c26 	beq	r2,zero,2b7b4 <__pow5mult+0xc4>
   2b744:	1023883a 	mov	r17,r2
   2b748:	80c0004c 	andi	r3,r16,1
   2b74c:	183ff926 	beq	r3,zero,2b734 <__alt_data_end+0xfffeb734>
   2b750:	900b883a 	mov	r5,r18
   2b754:	880d883a 	mov	r6,r17
   2b758:	9809883a 	mov	r4,r19
   2b75c:	002b4f40 	call	2b4f4 <__multiply>
   2b760:	90001b26 	beq	r18,zero,2b7d0 <__pow5mult+0xe0>
   2b764:	91c00117 	ldw	r7,4(r18)
   2b768:	98c01317 	ldw	r3,76(r19)
   2b76c:	8021d07a 	srai	r16,r16,1
   2b770:	39cf883a 	add	r7,r7,r7
   2b774:	39cf883a 	add	r7,r7,r7
   2b778:	19c7883a 	add	r3,r3,r7
   2b77c:	19000017 	ldw	r4,0(r3)
   2b780:	91000015 	stw	r4,0(r18)
   2b784:	1c800015 	stw	r18,0(r3)
   2b788:	1025883a 	mov	r18,r2
   2b78c:	803feb1e 	bne	r16,zero,2b73c <__alt_data_end+0xfffeb73c>
   2b790:	9005883a 	mov	r2,r18
   2b794:	dfc00517 	ldw	ra,20(sp)
   2b798:	dd000417 	ldw	r20,16(sp)
   2b79c:	dcc00317 	ldw	r19,12(sp)
   2b7a0:	dc800217 	ldw	r18,8(sp)
   2b7a4:	dc400117 	ldw	r17,4(sp)
   2b7a8:	dc000017 	ldw	r16,0(sp)
   2b7ac:	dec00604 	addi	sp,sp,24
   2b7b0:	f800283a 	ret
   2b7b4:	9809883a 	mov	r4,r19
   2b7b8:	880b883a 	mov	r5,r17
   2b7bc:	880d883a 	mov	r6,r17
   2b7c0:	002b4f40 	call	2b4f4 <__multiply>
   2b7c4:	88800015 	stw	r2,0(r17)
   2b7c8:	10000015 	stw	zero,0(r2)
   2b7cc:	003fdd06 	br	2b744 <__alt_data_end+0xfffeb744>
   2b7d0:	1025883a 	mov	r18,r2
   2b7d4:	003fd706 	br	2b734 <__alt_data_end+0xfffeb734>
   2b7d8:	10bfffc4 	addi	r2,r2,-1
   2b7dc:	1085883a 	add	r2,r2,r2
   2b7e0:	00c000f4 	movhi	r3,3
   2b7e4:	18d33304 	addi	r3,r3,19660
   2b7e8:	1085883a 	add	r2,r2,r2
   2b7ec:	1885883a 	add	r2,r3,r2
   2b7f0:	11800017 	ldw	r6,0(r2)
   2b7f4:	000f883a 	mov	r7,zero
   2b7f8:	002b1880 	call	2b188 <__multadd>
   2b7fc:	1025883a 	mov	r18,r2
   2b800:	003fc706 	br	2b720 <__alt_data_end+0xfffeb720>
   2b804:	05000044 	movi	r20,1
   2b808:	9809883a 	mov	r4,r19
   2b80c:	a00b883a 	mov	r5,r20
   2b810:	002b0b80 	call	2b0b8 <_Balloc>
   2b814:	1023883a 	mov	r17,r2
   2b818:	00809c44 	movi	r2,625
   2b81c:	88800515 	stw	r2,20(r17)
   2b820:	8d000415 	stw	r20,16(r17)
   2b824:	9c401215 	stw	r17,72(r19)
   2b828:	88000015 	stw	zero,0(r17)
   2b82c:	003fc606 	br	2b748 <__alt_data_end+0xfffeb748>

0002b830 <__lshift>:
   2b830:	defff904 	addi	sp,sp,-28
   2b834:	dd000415 	stw	r20,16(sp)
   2b838:	dcc00315 	stw	r19,12(sp)
   2b83c:	3029d17a 	srai	r20,r6,5
   2b840:	2cc00417 	ldw	r19,16(r5)
   2b844:	28800217 	ldw	r2,8(r5)
   2b848:	dd400515 	stw	r21,20(sp)
   2b84c:	a4e7883a 	add	r19,r20,r19
   2b850:	dc800215 	stw	r18,8(sp)
   2b854:	dc400115 	stw	r17,4(sp)
   2b858:	dc000015 	stw	r16,0(sp)
   2b85c:	dfc00615 	stw	ra,24(sp)
   2b860:	9c000044 	addi	r16,r19,1
   2b864:	2823883a 	mov	r17,r5
   2b868:	302b883a 	mov	r21,r6
   2b86c:	2025883a 	mov	r18,r4
   2b870:	29400117 	ldw	r5,4(r5)
   2b874:	1400030e 	bge	r2,r16,2b884 <__lshift+0x54>
   2b878:	1085883a 	add	r2,r2,r2
   2b87c:	29400044 	addi	r5,r5,1
   2b880:	143ffd16 	blt	r2,r16,2b878 <__alt_data_end+0xfffeb878>
   2b884:	9009883a 	mov	r4,r18
   2b888:	002b0b80 	call	2b0b8 <_Balloc>
   2b88c:	11c00504 	addi	r7,r2,20
   2b890:	0500090e 	bge	zero,r20,2b8b8 <__lshift+0x88>
   2b894:	3811883a 	mov	r8,r7
   2b898:	0007883a 	mov	r3,zero
   2b89c:	40000015 	stw	zero,0(r8)
   2b8a0:	18c00044 	addi	r3,r3,1
   2b8a4:	42000104 	addi	r8,r8,4
   2b8a8:	1d3ffc1e 	bne	r3,r20,2b89c <__alt_data_end+0xfffeb89c>
   2b8ac:	18c7883a 	add	r3,r3,r3
   2b8b0:	18c7883a 	add	r3,r3,r3
   2b8b4:	38cf883a 	add	r7,r7,r3
   2b8b8:	89000417 	ldw	r4,16(r17)
   2b8bc:	88c00504 	addi	r3,r17,20
   2b8c0:	a98007cc 	andi	r6,r21,31
   2b8c4:	2109883a 	add	r4,r4,r4
   2b8c8:	2109883a 	add	r4,r4,r4
   2b8cc:	1909883a 	add	r4,r3,r4
   2b8d0:	30002326 	beq	r6,zero,2b960 <__lshift+0x130>
   2b8d4:	01400804 	movi	r5,32
   2b8d8:	298bc83a 	sub	r5,r5,r6
   2b8dc:	0013883a 	mov	r9,zero
   2b8e0:	1a000017 	ldw	r8,0(r3)
   2b8e4:	3815883a 	mov	r10,r7
   2b8e8:	39c00104 	addi	r7,r7,4
   2b8ec:	4190983a 	sll	r8,r8,r6
   2b8f0:	18c00104 	addi	r3,r3,4
   2b8f4:	4a10b03a 	or	r8,r9,r8
   2b8f8:	3a3fff15 	stw	r8,-4(r7)
   2b8fc:	1a3fff17 	ldw	r8,-4(r3)
   2b900:	4152d83a 	srl	r9,r8,r5
   2b904:	193ff636 	bltu	r3,r4,2b8e0 <__alt_data_end+0xfffeb8e0>
   2b908:	52400115 	stw	r9,4(r10)
   2b90c:	48000126 	beq	r9,zero,2b914 <__lshift+0xe4>
   2b910:	9c000084 	addi	r16,r19,2
   2b914:	89000117 	ldw	r4,4(r17)
   2b918:	90c01317 	ldw	r3,76(r18)
   2b91c:	843fffc4 	addi	r16,r16,-1
   2b920:	2109883a 	add	r4,r4,r4
   2b924:	2109883a 	add	r4,r4,r4
   2b928:	1907883a 	add	r3,r3,r4
   2b92c:	19000017 	ldw	r4,0(r3)
   2b930:	14000415 	stw	r16,16(r2)
   2b934:	89000015 	stw	r4,0(r17)
   2b938:	1c400015 	stw	r17,0(r3)
   2b93c:	dfc00617 	ldw	ra,24(sp)
   2b940:	dd400517 	ldw	r21,20(sp)
   2b944:	dd000417 	ldw	r20,16(sp)
   2b948:	dcc00317 	ldw	r19,12(sp)
   2b94c:	dc800217 	ldw	r18,8(sp)
   2b950:	dc400117 	ldw	r17,4(sp)
   2b954:	dc000017 	ldw	r16,0(sp)
   2b958:	dec00704 	addi	sp,sp,28
   2b95c:	f800283a 	ret
   2b960:	19400017 	ldw	r5,0(r3)
   2b964:	39c00104 	addi	r7,r7,4
   2b968:	18c00104 	addi	r3,r3,4
   2b96c:	397fff15 	stw	r5,-4(r7)
   2b970:	193ffb36 	bltu	r3,r4,2b960 <__alt_data_end+0xfffeb960>
   2b974:	003fe706 	br	2b914 <__alt_data_end+0xfffeb914>

0002b978 <__mcmp>:
   2b978:	20800417 	ldw	r2,16(r4)
   2b97c:	28c00417 	ldw	r3,16(r5)
   2b980:	10c5c83a 	sub	r2,r2,r3
   2b984:	1000111e 	bne	r2,zero,2b9cc <__mcmp+0x54>
   2b988:	18c7883a 	add	r3,r3,r3
   2b98c:	18c7883a 	add	r3,r3,r3
   2b990:	21000504 	addi	r4,r4,20
   2b994:	29400504 	addi	r5,r5,20
   2b998:	20c5883a 	add	r2,r4,r3
   2b99c:	28cb883a 	add	r5,r5,r3
   2b9a0:	00000106 	br	2b9a8 <__mcmp+0x30>
   2b9a4:	20800a2e 	bgeu	r4,r2,2b9d0 <__mcmp+0x58>
   2b9a8:	10bfff04 	addi	r2,r2,-4
   2b9ac:	297fff04 	addi	r5,r5,-4
   2b9b0:	11800017 	ldw	r6,0(r2)
   2b9b4:	28c00017 	ldw	r3,0(r5)
   2b9b8:	30fffa26 	beq	r6,r3,2b9a4 <__alt_data_end+0xfffeb9a4>
   2b9bc:	30c00236 	bltu	r6,r3,2b9c8 <__mcmp+0x50>
   2b9c0:	00800044 	movi	r2,1
   2b9c4:	f800283a 	ret
   2b9c8:	00bfffc4 	movi	r2,-1
   2b9cc:	f800283a 	ret
   2b9d0:	0005883a 	mov	r2,zero
   2b9d4:	f800283a 	ret

0002b9d8 <__mdiff>:
   2b9d8:	defffb04 	addi	sp,sp,-20
   2b9dc:	dc000015 	stw	r16,0(sp)
   2b9e0:	2821883a 	mov	r16,r5
   2b9e4:	dcc00315 	stw	r19,12(sp)
   2b9e8:	300b883a 	mov	r5,r6
   2b9ec:	2027883a 	mov	r19,r4
   2b9f0:	8009883a 	mov	r4,r16
   2b9f4:	dc800215 	stw	r18,8(sp)
   2b9f8:	dfc00415 	stw	ra,16(sp)
   2b9fc:	dc400115 	stw	r17,4(sp)
   2ba00:	3025883a 	mov	r18,r6
   2ba04:	002b9780 	call	2b978 <__mcmp>
   2ba08:	10005226 	beq	r2,zero,2bb54 <__mdiff+0x17c>
   2ba0c:	10004c16 	blt	r2,zero,2bb40 <__mdiff+0x168>
   2ba10:	0023883a 	mov	r17,zero
   2ba14:	81400117 	ldw	r5,4(r16)
   2ba18:	9809883a 	mov	r4,r19
   2ba1c:	002b0b80 	call	2b0b8 <_Balloc>
   2ba20:	83400417 	ldw	r13,16(r16)
   2ba24:	93800417 	ldw	r14,16(r18)
   2ba28:	81000504 	addi	r4,r16,20
   2ba2c:	6b59883a 	add	r12,r13,r13
   2ba30:	739d883a 	add	r14,r14,r14
   2ba34:	6319883a 	add	r12,r12,r12
   2ba38:	91800504 	addi	r6,r18,20
   2ba3c:	739d883a 	add	r14,r14,r14
   2ba40:	14400315 	stw	r17,12(r2)
   2ba44:	2319883a 	add	r12,r4,r12
   2ba48:	339d883a 	add	r14,r6,r14
   2ba4c:	12400504 	addi	r9,r2,20
   2ba50:	0007883a 	mov	r3,zero
   2ba54:	22000017 	ldw	r8,0(r4)
   2ba58:	32800017 	ldw	r10,0(r6)
   2ba5c:	4ac00104 	addi	r11,r9,4
   2ba60:	41ffffcc 	andi	r7,r8,65535
   2ba64:	38c7883a 	add	r3,r7,r3
   2ba68:	51ffffcc 	andi	r7,r10,65535
   2ba6c:	19cfc83a 	sub	r7,r3,r7
   2ba70:	4010d43a 	srli	r8,r8,16
   2ba74:	5014d43a 	srli	r10,r10,16
   2ba78:	3807d43a 	srai	r3,r7,16
   2ba7c:	39ffffcc 	andi	r7,r7,65535
   2ba80:	4291c83a 	sub	r8,r8,r10
   2ba84:	40c7883a 	add	r3,r8,r3
   2ba88:	1810943a 	slli	r8,r3,16
   2ba8c:	31800104 	addi	r6,r6,4
   2ba90:	21000104 	addi	r4,r4,4
   2ba94:	41ceb03a 	or	r7,r8,r7
   2ba98:	49c00015 	stw	r7,0(r9)
   2ba9c:	1807d43a 	srai	r3,r3,16
   2baa0:	580b883a 	mov	r5,r11
   2baa4:	5813883a 	mov	r9,r11
   2baa8:	33bfea36 	bltu	r6,r14,2ba54 <__alt_data_end+0xfffeba54>
   2baac:	2011883a 	mov	r8,r4
   2bab0:	2300152e 	bgeu	r4,r12,2bb08 <__mdiff+0x130>
   2bab4:	21400017 	ldw	r5,0(r4)
   2bab8:	4a400104 	addi	r9,r9,4
   2babc:	21000104 	addi	r4,r4,4
   2bac0:	29ffffcc 	andi	r7,r5,65535
   2bac4:	38c7883a 	add	r3,r7,r3
   2bac8:	280ad43a 	srli	r5,r5,16
   2bacc:	180dd43a 	srai	r6,r3,16
   2bad0:	19ffffcc 	andi	r7,r3,65535
   2bad4:	3147883a 	add	r3,r6,r5
   2bad8:	180a943a 	slli	r5,r3,16
   2badc:	1807d43a 	srai	r3,r3,16
   2bae0:	29ceb03a 	or	r7,r5,r7
   2bae4:	49ffff15 	stw	r7,-4(r9)
   2bae8:	233ff236 	bltu	r4,r12,2bab4 <__alt_data_end+0xfffebab4>
   2baec:	0206303a 	nor	r3,zero,r8
   2baf0:	1b07883a 	add	r3,r3,r12
   2baf4:	1806d0ba 	srli	r3,r3,2
   2baf8:	18c00044 	addi	r3,r3,1
   2bafc:	18c7883a 	add	r3,r3,r3
   2bb00:	18c7883a 	add	r3,r3,r3
   2bb04:	58cb883a 	add	r5,r11,r3
   2bb08:	28ffff04 	addi	r3,r5,-4
   2bb0c:	3800041e 	bne	r7,zero,2bb20 <__mdiff+0x148>
   2bb10:	18ffff04 	addi	r3,r3,-4
   2bb14:	19000017 	ldw	r4,0(r3)
   2bb18:	6b7fffc4 	addi	r13,r13,-1
   2bb1c:	203ffc26 	beq	r4,zero,2bb10 <__alt_data_end+0xfffebb10>
   2bb20:	13400415 	stw	r13,16(r2)
   2bb24:	dfc00417 	ldw	ra,16(sp)
   2bb28:	dcc00317 	ldw	r19,12(sp)
   2bb2c:	dc800217 	ldw	r18,8(sp)
   2bb30:	dc400117 	ldw	r17,4(sp)
   2bb34:	dc000017 	ldw	r16,0(sp)
   2bb38:	dec00504 	addi	sp,sp,20
   2bb3c:	f800283a 	ret
   2bb40:	8005883a 	mov	r2,r16
   2bb44:	04400044 	movi	r17,1
   2bb48:	9021883a 	mov	r16,r18
   2bb4c:	1025883a 	mov	r18,r2
   2bb50:	003fb006 	br	2ba14 <__alt_data_end+0xfffeba14>
   2bb54:	9809883a 	mov	r4,r19
   2bb58:	000b883a 	mov	r5,zero
   2bb5c:	002b0b80 	call	2b0b8 <_Balloc>
   2bb60:	00c00044 	movi	r3,1
   2bb64:	10c00415 	stw	r3,16(r2)
   2bb68:	10000515 	stw	zero,20(r2)
   2bb6c:	003fed06 	br	2bb24 <__alt_data_end+0xfffebb24>

0002bb70 <__ulp>:
   2bb70:	295ffc2c 	andhi	r5,r5,32752
   2bb74:	00bf3034 	movhi	r2,64704
   2bb78:	2887883a 	add	r3,r5,r2
   2bb7c:	00c0020e 	bge	zero,r3,2bb88 <__ulp+0x18>
   2bb80:	0005883a 	mov	r2,zero
   2bb84:	f800283a 	ret
   2bb88:	00c7c83a 	sub	r3,zero,r3
   2bb8c:	180bd53a 	srai	r5,r3,20
   2bb90:	008004c4 	movi	r2,19
   2bb94:	11400a0e 	bge	r2,r5,2bbc0 <__ulp+0x50>
   2bb98:	00800c84 	movi	r2,50
   2bb9c:	0007883a 	mov	r3,zero
   2bba0:	11400516 	blt	r2,r5,2bbb8 <__ulp+0x48>
   2bba4:	00800cc4 	movi	r2,51
   2bba8:	114bc83a 	sub	r5,r2,r5
   2bbac:	00800044 	movi	r2,1
   2bbb0:	1144983a 	sll	r2,r2,r5
   2bbb4:	f800283a 	ret
   2bbb8:	00800044 	movi	r2,1
   2bbbc:	f800283a 	ret
   2bbc0:	00800234 	movhi	r2,8
   2bbc4:	1147d83a 	sra	r3,r2,r5
   2bbc8:	0005883a 	mov	r2,zero
   2bbcc:	f800283a 	ret

0002bbd0 <__b2d>:
   2bbd0:	defffa04 	addi	sp,sp,-24
   2bbd4:	dc000015 	stw	r16,0(sp)
   2bbd8:	24000417 	ldw	r16,16(r4)
   2bbdc:	dc400115 	stw	r17,4(sp)
   2bbe0:	24400504 	addi	r17,r4,20
   2bbe4:	8421883a 	add	r16,r16,r16
   2bbe8:	8421883a 	add	r16,r16,r16
   2bbec:	8c21883a 	add	r16,r17,r16
   2bbf0:	dc800215 	stw	r18,8(sp)
   2bbf4:	84bfff17 	ldw	r18,-4(r16)
   2bbf8:	dd000415 	stw	r20,16(sp)
   2bbfc:	dcc00315 	stw	r19,12(sp)
   2bc00:	9009883a 	mov	r4,r18
   2bc04:	2829883a 	mov	r20,r5
   2bc08:	dfc00515 	stw	ra,20(sp)
   2bc0c:	002b3a00 	call	2b3a0 <__hi0bits>
   2bc10:	00c00804 	movi	r3,32
   2bc14:	1887c83a 	sub	r3,r3,r2
   2bc18:	a0c00015 	stw	r3,0(r20)
   2bc1c:	00c00284 	movi	r3,10
   2bc20:	84ffff04 	addi	r19,r16,-4
   2bc24:	18801216 	blt	r3,r2,2bc70 <__b2d+0xa0>
   2bc28:	014002c4 	movi	r5,11
   2bc2c:	2889c83a 	sub	r4,r5,r2
   2bc30:	9106d83a 	srl	r3,r18,r4
   2bc34:	18cffc34 	orhi	r3,r3,16368
   2bc38:	8cc0282e 	bgeu	r17,r19,2bcdc <__b2d+0x10c>
   2bc3c:	817ffe17 	ldw	r5,-8(r16)
   2bc40:	290ad83a 	srl	r5,r5,r4
   2bc44:	10800544 	addi	r2,r2,21
   2bc48:	9084983a 	sll	r2,r18,r2
   2bc4c:	2884b03a 	or	r2,r5,r2
   2bc50:	dfc00517 	ldw	ra,20(sp)
   2bc54:	dd000417 	ldw	r20,16(sp)
   2bc58:	dcc00317 	ldw	r19,12(sp)
   2bc5c:	dc800217 	ldw	r18,8(sp)
   2bc60:	dc400117 	ldw	r17,4(sp)
   2bc64:	dc000017 	ldw	r16,0(sp)
   2bc68:	dec00604 	addi	sp,sp,24
   2bc6c:	f800283a 	ret
   2bc70:	113ffd44 	addi	r4,r2,-11
   2bc74:	8cc00f2e 	bgeu	r17,r19,2bcb4 <__b2d+0xe4>
   2bc78:	81bffe04 	addi	r6,r16,-8
   2bc7c:	817ffe17 	ldw	r5,-8(r16)
   2bc80:	20001326 	beq	r4,zero,2bcd0 <__b2d+0x100>
   2bc84:	00c00ac4 	movi	r3,43
   2bc88:	1885c83a 	sub	r2,r3,r2
   2bc8c:	2886d83a 	srl	r3,r5,r2
   2bc90:	9124983a 	sll	r18,r18,r4
   2bc94:	90e4b03a 	or	r18,r18,r3
   2bc98:	90cffc34 	orhi	r3,r18,16368
   2bc9c:	8980112e 	bgeu	r17,r6,2bce4 <__b2d+0x114>
   2bca0:	81bffd17 	ldw	r6,-12(r16)
   2bca4:	308cd83a 	srl	r6,r6,r2
   2bca8:	2904983a 	sll	r2,r5,r4
   2bcac:	1184b03a 	or	r2,r2,r6
   2bcb0:	003fe706 	br	2bc50 <__alt_data_end+0xfffebc50>
   2bcb4:	20000526 	beq	r4,zero,2bccc <__b2d+0xfc>
   2bcb8:	9124983a 	sll	r18,r18,r4
   2bcbc:	000d883a 	mov	r6,zero
   2bcc0:	000b883a 	mov	r5,zero
   2bcc4:	90cffc34 	orhi	r3,r18,16368
   2bcc8:	003ff706 	br	2bca8 <__alt_data_end+0xfffebca8>
   2bccc:	000b883a 	mov	r5,zero
   2bcd0:	90cffc34 	orhi	r3,r18,16368
   2bcd4:	2805883a 	mov	r2,r5
   2bcd8:	003fdd06 	br	2bc50 <__alt_data_end+0xfffebc50>
   2bcdc:	000b883a 	mov	r5,zero
   2bce0:	003fd806 	br	2bc44 <__alt_data_end+0xfffebc44>
   2bce4:	000d883a 	mov	r6,zero
   2bce8:	003fef06 	br	2bca8 <__alt_data_end+0xfffebca8>

0002bcec <__d2b>:
   2bcec:	defff704 	addi	sp,sp,-36
   2bcf0:	dc000215 	stw	r16,8(sp)
   2bcf4:	3021883a 	mov	r16,r6
   2bcf8:	dc400315 	stw	r17,12(sp)
   2bcfc:	8022907a 	slli	r17,r16,1
   2bd00:	dd400715 	stw	r21,28(sp)
   2bd04:	282b883a 	mov	r21,r5
   2bd08:	01400044 	movi	r5,1
   2bd0c:	dd000615 	stw	r20,24(sp)
   2bd10:	dcc00515 	stw	r19,20(sp)
   2bd14:	dc800415 	stw	r18,16(sp)
   2bd18:	dfc00815 	stw	ra,32(sp)
   2bd1c:	3829883a 	mov	r20,r7
   2bd20:	dc800917 	ldw	r18,36(sp)
   2bd24:	8822d57a 	srli	r17,r17,21
   2bd28:	002b0b80 	call	2b0b8 <_Balloc>
   2bd2c:	1027883a 	mov	r19,r2
   2bd30:	00800434 	movhi	r2,16
   2bd34:	10bfffc4 	addi	r2,r2,-1
   2bd38:	808c703a 	and	r6,r16,r2
   2bd3c:	88000126 	beq	r17,zero,2bd44 <__d2b+0x58>
   2bd40:	31800434 	orhi	r6,r6,16
   2bd44:	d9800015 	stw	r6,0(sp)
   2bd48:	a8001f26 	beq	r21,zero,2bdc8 <__d2b+0xdc>
   2bd4c:	d9000104 	addi	r4,sp,4
   2bd50:	dd400115 	stw	r21,4(sp)
   2bd54:	002b4080 	call	2b408 <__lo0bits>
   2bd58:	d8c00017 	ldw	r3,0(sp)
   2bd5c:	1000291e 	bne	r2,zero,2be04 <__d2b+0x118>
   2bd60:	d9000117 	ldw	r4,4(sp)
   2bd64:	99000515 	stw	r4,20(r19)
   2bd68:	1820c03a 	cmpne	r16,r3,zero
   2bd6c:	84000044 	addi	r16,r16,1
   2bd70:	98c00615 	stw	r3,24(r19)
   2bd74:	9c000415 	stw	r16,16(r19)
   2bd78:	88001b1e 	bne	r17,zero,2bde8 <__d2b+0xfc>
   2bd7c:	800690ba 	slli	r3,r16,2
   2bd80:	10bef384 	addi	r2,r2,-1074
   2bd84:	a0800015 	stw	r2,0(r20)
   2bd88:	98c5883a 	add	r2,r19,r3
   2bd8c:	11000417 	ldw	r4,16(r2)
   2bd90:	8020917a 	slli	r16,r16,5
   2bd94:	002b3a00 	call	2b3a0 <__hi0bits>
   2bd98:	8085c83a 	sub	r2,r16,r2
   2bd9c:	90800015 	stw	r2,0(r18)
   2bda0:	9805883a 	mov	r2,r19
   2bda4:	dfc00817 	ldw	ra,32(sp)
   2bda8:	dd400717 	ldw	r21,28(sp)
   2bdac:	dd000617 	ldw	r20,24(sp)
   2bdb0:	dcc00517 	ldw	r19,20(sp)
   2bdb4:	dc800417 	ldw	r18,16(sp)
   2bdb8:	dc400317 	ldw	r17,12(sp)
   2bdbc:	dc000217 	ldw	r16,8(sp)
   2bdc0:	dec00904 	addi	sp,sp,36
   2bdc4:	f800283a 	ret
   2bdc8:	d809883a 	mov	r4,sp
   2bdcc:	002b4080 	call	2b408 <__lo0bits>
   2bdd0:	d8c00017 	ldw	r3,0(sp)
   2bdd4:	04000044 	movi	r16,1
   2bdd8:	9c000415 	stw	r16,16(r19)
   2bddc:	98c00515 	stw	r3,20(r19)
   2bde0:	10800804 	addi	r2,r2,32
   2bde4:	883fe526 	beq	r17,zero,2bd7c <__alt_data_end+0xfffebd7c>
   2bde8:	8c7ef344 	addi	r17,r17,-1075
   2bdec:	88a3883a 	add	r17,r17,r2
   2bdf0:	00c00d44 	movi	r3,53
   2bdf4:	a4400015 	stw	r17,0(r20)
   2bdf8:	1885c83a 	sub	r2,r3,r2
   2bdfc:	90800015 	stw	r2,0(r18)
   2be00:	003fe706 	br	2bda0 <__alt_data_end+0xfffebda0>
   2be04:	01000804 	movi	r4,32
   2be08:	2089c83a 	sub	r4,r4,r2
   2be0c:	1908983a 	sll	r4,r3,r4
   2be10:	d9400117 	ldw	r5,4(sp)
   2be14:	1886d83a 	srl	r3,r3,r2
   2be18:	2148b03a 	or	r4,r4,r5
   2be1c:	99000515 	stw	r4,20(r19)
   2be20:	d8c00015 	stw	r3,0(sp)
   2be24:	003fd006 	br	2bd68 <__alt_data_end+0xfffebd68>

0002be28 <__ratio>:
   2be28:	defff904 	addi	sp,sp,-28
   2be2c:	dc400315 	stw	r17,12(sp)
   2be30:	2823883a 	mov	r17,r5
   2be34:	d9400104 	addi	r5,sp,4
   2be38:	dfc00615 	stw	ra,24(sp)
   2be3c:	dcc00515 	stw	r19,20(sp)
   2be40:	dc800415 	stw	r18,16(sp)
   2be44:	2027883a 	mov	r19,r4
   2be48:	dc000215 	stw	r16,8(sp)
   2be4c:	002bbd00 	call	2bbd0 <__b2d>
   2be50:	8809883a 	mov	r4,r17
   2be54:	d80b883a 	mov	r5,sp
   2be58:	1025883a 	mov	r18,r2
   2be5c:	1821883a 	mov	r16,r3
   2be60:	002bbd00 	call	2bbd0 <__b2d>
   2be64:	8a400417 	ldw	r9,16(r17)
   2be68:	9a000417 	ldw	r8,16(r19)
   2be6c:	100d883a 	mov	r6,r2
   2be70:	d8800017 	ldw	r2,0(sp)
   2be74:	4251c83a 	sub	r8,r8,r9
   2be78:	4012917a 	slli	r9,r8,5
   2be7c:	da000117 	ldw	r8,4(sp)
   2be80:	4091c83a 	sub	r8,r8,r2
   2be84:	4251883a 	add	r8,r8,r9
   2be88:	02000d0e 	bge	zero,r8,2bec0 <__ratio+0x98>
   2be8c:	4010953a 	slli	r8,r8,20
   2be90:	4421883a 	add	r16,r8,r16
   2be94:	9009883a 	mov	r4,r18
   2be98:	800b883a 	mov	r5,r16
   2be9c:	180f883a 	mov	r7,r3
   2bea0:	002fb580 	call	2fb58 <__divdf3>
   2bea4:	dfc00617 	ldw	ra,24(sp)
   2bea8:	dcc00517 	ldw	r19,20(sp)
   2beac:	dc800417 	ldw	r18,16(sp)
   2beb0:	dc400317 	ldw	r17,12(sp)
   2beb4:	dc000217 	ldw	r16,8(sp)
   2beb8:	dec00704 	addi	sp,sp,28
   2bebc:	f800283a 	ret
   2bec0:	4010953a 	slli	r8,r8,20
   2bec4:	1a07c83a 	sub	r3,r3,r8
   2bec8:	003ff206 	br	2be94 <__alt_data_end+0xfffebe94>

0002becc <_mprec_log10>:
   2becc:	defffe04 	addi	sp,sp,-8
   2bed0:	dc000015 	stw	r16,0(sp)
   2bed4:	dfc00115 	stw	ra,4(sp)
   2bed8:	008005c4 	movi	r2,23
   2bedc:	2021883a 	mov	r16,r4
   2bee0:	11000d0e 	bge	r2,r4,2bf18 <_mprec_log10+0x4c>
   2bee4:	0005883a 	mov	r2,zero
   2bee8:	00cffc34 	movhi	r3,16368
   2beec:	843fffc4 	addi	r16,r16,-1
   2bef0:	1009883a 	mov	r4,r2
   2bef4:	180b883a 	mov	r5,r3
   2bef8:	000d883a 	mov	r6,zero
   2befc:	01d00934 	movhi	r7,16420
   2bf00:	00306680 	call	30668 <__muldf3>
   2bf04:	803ff91e 	bne	r16,zero,2beec <__alt_data_end+0xfffebeec>
   2bf08:	dfc00117 	ldw	ra,4(sp)
   2bf0c:	dc000017 	ldw	r16,0(sp)
   2bf10:	dec00204 	addi	sp,sp,8
   2bf14:	f800283a 	ret
   2bf18:	202090fa 	slli	r16,r4,3
   2bf1c:	008000f4 	movhi	r2,3
   2bf20:	10934a04 	addi	r2,r2,19752
   2bf24:	1421883a 	add	r16,r2,r16
   2bf28:	80800017 	ldw	r2,0(r16)
   2bf2c:	80c00117 	ldw	r3,4(r16)
   2bf30:	dfc00117 	ldw	ra,4(sp)
   2bf34:	dc000017 	ldw	r16,0(sp)
   2bf38:	dec00204 	addi	sp,sp,8
   2bf3c:	f800283a 	ret

0002bf40 <__copybits>:
   2bf40:	297fffc4 	addi	r5,r5,-1
   2bf44:	280fd17a 	srai	r7,r5,5
   2bf48:	30c00417 	ldw	r3,16(r6)
   2bf4c:	30800504 	addi	r2,r6,20
   2bf50:	39c00044 	addi	r7,r7,1
   2bf54:	18c7883a 	add	r3,r3,r3
   2bf58:	39cf883a 	add	r7,r7,r7
   2bf5c:	18c7883a 	add	r3,r3,r3
   2bf60:	39cf883a 	add	r7,r7,r7
   2bf64:	10c7883a 	add	r3,r2,r3
   2bf68:	21cf883a 	add	r7,r4,r7
   2bf6c:	10c00d2e 	bgeu	r2,r3,2bfa4 <__copybits+0x64>
   2bf70:	200b883a 	mov	r5,r4
   2bf74:	12000017 	ldw	r8,0(r2)
   2bf78:	29400104 	addi	r5,r5,4
   2bf7c:	10800104 	addi	r2,r2,4
   2bf80:	2a3fff15 	stw	r8,-4(r5)
   2bf84:	10fffb36 	bltu	r2,r3,2bf74 <__alt_data_end+0xfffebf74>
   2bf88:	1985c83a 	sub	r2,r3,r6
   2bf8c:	10bffac4 	addi	r2,r2,-21
   2bf90:	1004d0ba 	srli	r2,r2,2
   2bf94:	10800044 	addi	r2,r2,1
   2bf98:	1085883a 	add	r2,r2,r2
   2bf9c:	1085883a 	add	r2,r2,r2
   2bfa0:	2089883a 	add	r4,r4,r2
   2bfa4:	21c0032e 	bgeu	r4,r7,2bfb4 <__copybits+0x74>
   2bfa8:	20000015 	stw	zero,0(r4)
   2bfac:	21000104 	addi	r4,r4,4
   2bfb0:	21fffd36 	bltu	r4,r7,2bfa8 <__alt_data_end+0xfffebfa8>
   2bfb4:	f800283a 	ret

0002bfb8 <__any_on>:
   2bfb8:	20c00417 	ldw	r3,16(r4)
   2bfbc:	2805d17a 	srai	r2,r5,5
   2bfc0:	21000504 	addi	r4,r4,20
   2bfc4:	18800d0e 	bge	r3,r2,2bffc <__any_on+0x44>
   2bfc8:	18c7883a 	add	r3,r3,r3
   2bfcc:	18c7883a 	add	r3,r3,r3
   2bfd0:	20c7883a 	add	r3,r4,r3
   2bfd4:	20c0192e 	bgeu	r4,r3,2c03c <__any_on+0x84>
   2bfd8:	18bfff17 	ldw	r2,-4(r3)
   2bfdc:	18ffff04 	addi	r3,r3,-4
   2bfe0:	1000041e 	bne	r2,zero,2bff4 <__any_on+0x3c>
   2bfe4:	20c0142e 	bgeu	r4,r3,2c038 <__any_on+0x80>
   2bfe8:	18ffff04 	addi	r3,r3,-4
   2bfec:	19400017 	ldw	r5,0(r3)
   2bff0:	283ffc26 	beq	r5,zero,2bfe4 <__alt_data_end+0xfffebfe4>
   2bff4:	00800044 	movi	r2,1
   2bff8:	f800283a 	ret
   2bffc:	10c00a0e 	bge	r2,r3,2c028 <__any_on+0x70>
   2c000:	1085883a 	add	r2,r2,r2
   2c004:	1085883a 	add	r2,r2,r2
   2c008:	294007cc 	andi	r5,r5,31
   2c00c:	2087883a 	add	r3,r4,r2
   2c010:	283ff026 	beq	r5,zero,2bfd4 <__alt_data_end+0xfffebfd4>
   2c014:	19800017 	ldw	r6,0(r3)
   2c018:	3144d83a 	srl	r2,r6,r5
   2c01c:	114a983a 	sll	r5,r2,r5
   2c020:	29bff41e 	bne	r5,r6,2bff4 <__alt_data_end+0xfffebff4>
   2c024:	003feb06 	br	2bfd4 <__alt_data_end+0xfffebfd4>
   2c028:	1085883a 	add	r2,r2,r2
   2c02c:	1085883a 	add	r2,r2,r2
   2c030:	2087883a 	add	r3,r4,r2
   2c034:	003fe706 	br	2bfd4 <__alt_data_end+0xfffebfd4>
   2c038:	f800283a 	ret
   2c03c:	0005883a 	mov	r2,zero
   2c040:	f800283a 	ret

0002c044 <_putc_r>:
   2c044:	defffc04 	addi	sp,sp,-16
   2c048:	dc000215 	stw	r16,8(sp)
   2c04c:	dfc00315 	stw	ra,12(sp)
   2c050:	2021883a 	mov	r16,r4
   2c054:	20000226 	beq	r4,zero,2c060 <_putc_r+0x1c>
   2c058:	20800e17 	ldw	r2,56(r4)
   2c05c:	10001b26 	beq	r2,zero,2c0cc <_putc_r+0x88>
   2c060:	30800217 	ldw	r2,8(r6)
   2c064:	10bfffc4 	addi	r2,r2,-1
   2c068:	30800215 	stw	r2,8(r6)
   2c06c:	10000a16 	blt	r2,zero,2c098 <_putc_r+0x54>
   2c070:	30800017 	ldw	r2,0(r6)
   2c074:	11400005 	stb	r5,0(r2)
   2c078:	30800017 	ldw	r2,0(r6)
   2c07c:	10c00044 	addi	r3,r2,1
   2c080:	30c00015 	stw	r3,0(r6)
   2c084:	10800003 	ldbu	r2,0(r2)
   2c088:	dfc00317 	ldw	ra,12(sp)
   2c08c:	dc000217 	ldw	r16,8(sp)
   2c090:	dec00404 	addi	sp,sp,16
   2c094:	f800283a 	ret
   2c098:	30c00617 	ldw	r3,24(r6)
   2c09c:	10c00616 	blt	r2,r3,2c0b8 <_putc_r+0x74>
   2c0a0:	30800017 	ldw	r2,0(r6)
   2c0a4:	00c00284 	movi	r3,10
   2c0a8:	11400005 	stb	r5,0(r2)
   2c0ac:	30800017 	ldw	r2,0(r6)
   2c0b0:	11400003 	ldbu	r5,0(r2)
   2c0b4:	28fff11e 	bne	r5,r3,2c07c <__alt_data_end+0xfffec07c>
   2c0b8:	8009883a 	mov	r4,r16
   2c0bc:	dfc00317 	ldw	ra,12(sp)
   2c0c0:	dc000217 	ldw	r16,8(sp)
   2c0c4:	dec00404 	addi	sp,sp,16
   2c0c8:	002de341 	jmpi	2de34 <__swbuf_r>
   2c0cc:	d9400015 	stw	r5,0(sp)
   2c0d0:	d9800115 	stw	r6,4(sp)
   2c0d4:	002a02c0 	call	2a02c <__sinit>
   2c0d8:	d9800117 	ldw	r6,4(sp)
   2c0dc:	d9400017 	ldw	r5,0(sp)
   2c0e0:	003fdf06 	br	2c060 <__alt_data_end+0xfffec060>

0002c0e4 <putc>:
   2c0e4:	defffc04 	addi	sp,sp,-16
   2c0e8:	dc400115 	stw	r17,4(sp)
   2c0ec:	044000f4 	movhi	r17,3
   2c0f0:	8c5c2604 	addi	r17,r17,28824
   2c0f4:	dc800215 	stw	r18,8(sp)
   2c0f8:	2025883a 	mov	r18,r4
   2c0fc:	89000017 	ldw	r4,0(r17)
   2c100:	dc000015 	stw	r16,0(sp)
   2c104:	dfc00315 	stw	ra,12(sp)
   2c108:	2821883a 	mov	r16,r5
   2c10c:	20000226 	beq	r4,zero,2c118 <putc+0x34>
   2c110:	20c00e17 	ldw	r3,56(r4)
   2c114:	18001a26 	beq	r3,zero,2c180 <putc+0x9c>
   2c118:	80800217 	ldw	r2,8(r16)
   2c11c:	10bfffc4 	addi	r2,r2,-1
   2c120:	80800215 	stw	r2,8(r16)
   2c124:	10000c16 	blt	r2,zero,2c158 <putc+0x74>
   2c128:	80800017 	ldw	r2,0(r16)
   2c12c:	14800005 	stb	r18,0(r2)
   2c130:	80800017 	ldw	r2,0(r16)
   2c134:	10c00044 	addi	r3,r2,1
   2c138:	80c00015 	stw	r3,0(r16)
   2c13c:	10800003 	ldbu	r2,0(r2)
   2c140:	dfc00317 	ldw	ra,12(sp)
   2c144:	dc800217 	ldw	r18,8(sp)
   2c148:	dc400117 	ldw	r17,4(sp)
   2c14c:	dc000017 	ldw	r16,0(sp)
   2c150:	dec00404 	addi	sp,sp,16
   2c154:	f800283a 	ret
   2c158:	80c00617 	ldw	r3,24(r16)
   2c15c:	10c00a16 	blt	r2,r3,2c188 <putc+0xa4>
   2c160:	80800017 	ldw	r2,0(r16)
   2c164:	00c00284 	movi	r3,10
   2c168:	14800005 	stb	r18,0(r2)
   2c16c:	80800017 	ldw	r2,0(r16)
   2c170:	11400003 	ldbu	r5,0(r2)
   2c174:	28ffef1e 	bne	r5,r3,2c134 <__alt_data_end+0xfffec134>
   2c178:	89000017 	ldw	r4,0(r17)
   2c17c:	00000406 	br	2c190 <putc+0xac>
   2c180:	002a02c0 	call	2a02c <__sinit>
   2c184:	003fe406 	br	2c118 <__alt_data_end+0xfffec118>
   2c188:	89000017 	ldw	r4,0(r17)
   2c18c:	900b883a 	mov	r5,r18
   2c190:	800d883a 	mov	r6,r16
   2c194:	dfc00317 	ldw	ra,12(sp)
   2c198:	dc800217 	ldw	r18,8(sp)
   2c19c:	dc400117 	ldw	r17,4(sp)
   2c1a0:	dc000017 	ldw	r16,0(sp)
   2c1a4:	dec00404 	addi	sp,sp,16
   2c1a8:	002de341 	jmpi	2de34 <__swbuf_r>

0002c1ac <_realloc_r>:
   2c1ac:	defff604 	addi	sp,sp,-40
   2c1b0:	dcc00315 	stw	r19,12(sp)
   2c1b4:	dc400115 	stw	r17,4(sp)
   2c1b8:	dfc00915 	stw	ra,36(sp)
   2c1bc:	df000815 	stw	fp,32(sp)
   2c1c0:	ddc00715 	stw	r23,28(sp)
   2c1c4:	dd800615 	stw	r22,24(sp)
   2c1c8:	dd400515 	stw	r21,20(sp)
   2c1cc:	dd000415 	stw	r20,16(sp)
   2c1d0:	dc800215 	stw	r18,8(sp)
   2c1d4:	dc000015 	stw	r16,0(sp)
   2c1d8:	2827883a 	mov	r19,r5
   2c1dc:	3023883a 	mov	r17,r6
   2c1e0:	2800bf26 	beq	r5,zero,2c4e0 <_realloc_r+0x334>
   2c1e4:	2025883a 	mov	r18,r4
   2c1e8:	0031e180 	call	31e18 <__malloc_lock>
   2c1ec:	98ffff17 	ldw	r3,-4(r19)
   2c1f0:	01bfff04 	movi	r6,-4
   2c1f4:	890002c4 	addi	r4,r17,11
   2c1f8:	01c00584 	movi	r7,22
   2c1fc:	9d7ffe04 	addi	r21,r19,-8
   2c200:	19a0703a 	and	r16,r3,r6
   2c204:	39003f2e 	bgeu	r7,r4,2c304 <_realloc_r+0x158>
   2c208:	053ffe04 	movi	r20,-8
   2c20c:	2528703a 	and	r20,r4,r20
   2c210:	a00f883a 	mov	r7,r20
   2c214:	a0008216 	blt	r20,zero,2c420 <_realloc_r+0x274>
   2c218:	a4408136 	bltu	r20,r17,2c420 <_realloc_r+0x274>
   2c21c:	81c03c0e 	bge	r16,r7,2c310 <_realloc_r+0x164>
   2c220:	070000f4 	movhi	fp,3
   2c224:	e7157504 	addi	fp,fp,21972
   2c228:	e1000217 	ldw	r4,8(fp)
   2c22c:	ac05883a 	add	r2,r21,r16
   2c230:	2080bf26 	beq	r4,r2,2c530 <_realloc_r+0x384>
   2c234:	11000117 	ldw	r4,4(r2)
   2c238:	023fff84 	movi	r8,-2
   2c23c:	2210703a 	and	r8,r4,r8
   2c240:	1211883a 	add	r8,r2,r8
   2c244:	41400117 	ldw	r5,4(r8)
   2c248:	2940004c 	andi	r5,r5,1
   2c24c:	28004a1e 	bne	r5,zero,2c378 <_realloc_r+0x1cc>
   2c250:	017fff04 	movi	r5,-4
   2c254:	2148703a 	and	r4,r4,r5
   2c258:	2409883a 	add	r4,r4,r16
   2c25c:	21c0ad0e 	bge	r4,r7,2c514 <_realloc_r+0x368>
   2c260:	18c0004c 	andi	r3,r3,1
   2c264:	18007f1e 	bne	r3,zero,2c464 <_realloc_r+0x2b8>
   2c268:	9dfffe17 	ldw	r23,-8(r19)
   2c26c:	adefc83a 	sub	r23,r21,r23
   2c270:	bd800117 	ldw	r22,4(r23)
   2c274:	b14a703a 	and	r5,r22,r5
   2c278:	216d883a 	add	r22,r4,r5
   2c27c:	b1c04516 	blt	r22,r7,2c394 <_realloc_r+0x1e8>
   2c280:	10c00317 	ldw	r3,12(r2)
   2c284:	10800217 	ldw	r2,8(r2)
   2c288:	81bfff04 	addi	r6,r16,-4
   2c28c:	bc400204 	addi	r17,r23,8
   2c290:	10c00315 	stw	r3,12(r2)
   2c294:	18800215 	stw	r2,8(r3)
   2c298:	b9400217 	ldw	r5,8(r23)
   2c29c:	b8c00317 	ldw	r3,12(r23)
   2c2a0:	00800904 	movi	r2,36
   2c2a4:	28c00315 	stw	r3,12(r5)
   2c2a8:	19400215 	stw	r5,8(r3)
   2c2ac:	1180ef36 	bltu	r2,r6,2c66c <_realloc_r+0x4c0>
   2c2b0:	008004c4 	movi	r2,19
   2c2b4:	1180da2e 	bgeu	r2,r6,2c620 <_realloc_r+0x474>
   2c2b8:	98800017 	ldw	r2,0(r19)
   2c2bc:	b8800215 	stw	r2,8(r23)
   2c2c0:	98800117 	ldw	r2,4(r19)
   2c2c4:	b8800315 	stw	r2,12(r23)
   2c2c8:	008006c4 	movi	r2,27
   2c2cc:	1180fc2e 	bgeu	r2,r6,2c6c0 <_realloc_r+0x514>
   2c2d0:	98800217 	ldw	r2,8(r19)
   2c2d4:	b8800415 	stw	r2,16(r23)
   2c2d8:	98800317 	ldw	r2,12(r19)
   2c2dc:	b8800515 	stw	r2,20(r23)
   2c2e0:	00800904 	movi	r2,36
   2c2e4:	3080421e 	bne	r6,r2,2c3f0 <_realloc_r+0x244>
   2c2e8:	98800417 	ldw	r2,16(r19)
   2c2ec:	9cc00604 	addi	r19,r19,24
   2c2f0:	b8c00804 	addi	r3,r23,32
   2c2f4:	b8800615 	stw	r2,24(r23)
   2c2f8:	98bfff17 	ldw	r2,-4(r19)
   2c2fc:	b8800715 	stw	r2,28(r23)
   2c300:	00003d06 	br	2c3f8 <_realloc_r+0x24c>
   2c304:	01c00404 	movi	r7,16
   2c308:	3829883a 	mov	r20,r7
   2c30c:	003fc206 	br	2c218 <__alt_data_end+0xfffec218>
   2c310:	9823883a 	mov	r17,r19
   2c314:	850fc83a 	sub	r7,r16,r20
   2c318:	008003c4 	movi	r2,15
   2c31c:	18c0004c 	andi	r3,r3,1
   2c320:	11c04336 	bltu	r2,r7,2c430 <_realloc_r+0x284>
   2c324:	1c06b03a 	or	r3,r3,r16
   2c328:	a8c00115 	stw	r3,4(r21)
   2c32c:	ac21883a 	add	r16,r21,r16
   2c330:	80c00117 	ldw	r3,4(r16)
   2c334:	18c00054 	ori	r3,r3,1
   2c338:	80c00115 	stw	r3,4(r16)
   2c33c:	9009883a 	mov	r4,r18
   2c340:	0031e380 	call	31e38 <__malloc_unlock>
   2c344:	8805883a 	mov	r2,r17
   2c348:	dfc00917 	ldw	ra,36(sp)
   2c34c:	df000817 	ldw	fp,32(sp)
   2c350:	ddc00717 	ldw	r23,28(sp)
   2c354:	dd800617 	ldw	r22,24(sp)
   2c358:	dd400517 	ldw	r21,20(sp)
   2c35c:	dd000417 	ldw	r20,16(sp)
   2c360:	dcc00317 	ldw	r19,12(sp)
   2c364:	dc800217 	ldw	r18,8(sp)
   2c368:	dc400117 	ldw	r17,4(sp)
   2c36c:	dc000017 	ldw	r16,0(sp)
   2c370:	dec00a04 	addi	sp,sp,40
   2c374:	f800283a 	ret
   2c378:	18c0004c 	andi	r3,r3,1
   2c37c:	1800391e 	bne	r3,zero,2c464 <_realloc_r+0x2b8>
   2c380:	9dfffe17 	ldw	r23,-8(r19)
   2c384:	00bfff04 	movi	r2,-4
   2c388:	adefc83a 	sub	r23,r21,r23
   2c38c:	b9400117 	ldw	r5,4(r23)
   2c390:	288a703a 	and	r5,r5,r2
   2c394:	2c2d883a 	add	r22,r5,r16
   2c398:	b1c03216 	blt	r22,r7,2c464 <_realloc_r+0x2b8>
   2c39c:	b8800317 	ldw	r2,12(r23)
   2c3a0:	b8c00217 	ldw	r3,8(r23)
   2c3a4:	81bfff04 	addi	r6,r16,-4
   2c3a8:	01000904 	movi	r4,36
   2c3ac:	18800315 	stw	r2,12(r3)
   2c3b0:	10c00215 	stw	r3,8(r2)
   2c3b4:	bc400204 	addi	r17,r23,8
   2c3b8:	2180ac36 	bltu	r4,r6,2c66c <_realloc_r+0x4c0>
   2c3bc:	008004c4 	movi	r2,19
   2c3c0:	1180972e 	bgeu	r2,r6,2c620 <_realloc_r+0x474>
   2c3c4:	98800017 	ldw	r2,0(r19)
   2c3c8:	b8800215 	stw	r2,8(r23)
   2c3cc:	98800117 	ldw	r2,4(r19)
   2c3d0:	b8800315 	stw	r2,12(r23)
   2c3d4:	008006c4 	movi	r2,27
   2c3d8:	1180b92e 	bgeu	r2,r6,2c6c0 <_realloc_r+0x514>
   2c3dc:	98800217 	ldw	r2,8(r19)
   2c3e0:	b8800415 	stw	r2,16(r23)
   2c3e4:	98800317 	ldw	r2,12(r19)
   2c3e8:	b8800515 	stw	r2,20(r23)
   2c3ec:	313fbe26 	beq	r6,r4,2c2e8 <__alt_data_end+0xfffec2e8>
   2c3f0:	b8c00604 	addi	r3,r23,24
   2c3f4:	9cc00404 	addi	r19,r19,16
   2c3f8:	98800017 	ldw	r2,0(r19)
   2c3fc:	b021883a 	mov	r16,r22
   2c400:	b82b883a 	mov	r21,r23
   2c404:	18800015 	stw	r2,0(r3)
   2c408:	98800117 	ldw	r2,4(r19)
   2c40c:	18800115 	stw	r2,4(r3)
   2c410:	98800217 	ldw	r2,8(r19)
   2c414:	18800215 	stw	r2,8(r3)
   2c418:	b8c00117 	ldw	r3,4(r23)
   2c41c:	003fbd06 	br	2c314 <__alt_data_end+0xfffec314>
   2c420:	00800304 	movi	r2,12
   2c424:	90800015 	stw	r2,0(r18)
   2c428:	0005883a 	mov	r2,zero
   2c42c:	003fc606 	br	2c348 <__alt_data_end+0xfffec348>
   2c430:	1d06b03a 	or	r3,r3,r20
   2c434:	ad0b883a 	add	r5,r21,r20
   2c438:	a8c00115 	stw	r3,4(r21)
   2c43c:	38800054 	ori	r2,r7,1
   2c440:	28800115 	stw	r2,4(r5)
   2c444:	29cf883a 	add	r7,r5,r7
   2c448:	38800117 	ldw	r2,4(r7)
   2c44c:	9009883a 	mov	r4,r18
   2c450:	29400204 	addi	r5,r5,8
   2c454:	10800054 	ori	r2,r2,1
   2c458:	38800115 	stw	r2,4(r7)
   2c45c:	002a1a00 	call	2a1a0 <_free_r>
   2c460:	003fb606 	br	2c33c <__alt_data_end+0xfffec33c>
   2c464:	880b883a 	mov	r5,r17
   2c468:	9009883a 	mov	r4,r18
   2c46c:	00255000 	call	25500 <_malloc_r>
   2c470:	1023883a 	mov	r17,r2
   2c474:	1000aa26 	beq	r2,zero,2c720 <_realloc_r+0x574>
   2c478:	98ffff17 	ldw	r3,-4(r19)
   2c47c:	113ffe04 	addi	r4,r2,-8
   2c480:	00bfff84 	movi	r2,-2
   2c484:	1884703a 	and	r2,r3,r2
   2c488:	a885883a 	add	r2,r21,r2
   2c48c:	20808626 	beq	r4,r2,2c6a8 <_realloc_r+0x4fc>
   2c490:	81bfff04 	addi	r6,r16,-4
   2c494:	00800904 	movi	r2,36
   2c498:	11807036 	bltu	r2,r6,2c65c <_realloc_r+0x4b0>
   2c49c:	00c004c4 	movi	r3,19
   2c4a0:	19805636 	bltu	r3,r6,2c5fc <_realloc_r+0x450>
   2c4a4:	8805883a 	mov	r2,r17
   2c4a8:	9807883a 	mov	r3,r19
   2c4ac:	19000017 	ldw	r4,0(r3)
   2c4b0:	11000015 	stw	r4,0(r2)
   2c4b4:	19000117 	ldw	r4,4(r3)
   2c4b8:	11000115 	stw	r4,4(r2)
   2c4bc:	18c00217 	ldw	r3,8(r3)
   2c4c0:	10c00215 	stw	r3,8(r2)
   2c4c4:	980b883a 	mov	r5,r19
   2c4c8:	9009883a 	mov	r4,r18
   2c4cc:	002a1a00 	call	2a1a0 <_free_r>
   2c4d0:	9009883a 	mov	r4,r18
   2c4d4:	0031e380 	call	31e38 <__malloc_unlock>
   2c4d8:	8805883a 	mov	r2,r17
   2c4dc:	003f9a06 	br	2c348 <__alt_data_end+0xfffec348>
   2c4e0:	300b883a 	mov	r5,r6
   2c4e4:	dfc00917 	ldw	ra,36(sp)
   2c4e8:	df000817 	ldw	fp,32(sp)
   2c4ec:	ddc00717 	ldw	r23,28(sp)
   2c4f0:	dd800617 	ldw	r22,24(sp)
   2c4f4:	dd400517 	ldw	r21,20(sp)
   2c4f8:	dd000417 	ldw	r20,16(sp)
   2c4fc:	dcc00317 	ldw	r19,12(sp)
   2c500:	dc800217 	ldw	r18,8(sp)
   2c504:	dc400117 	ldw	r17,4(sp)
   2c508:	dc000017 	ldw	r16,0(sp)
   2c50c:	dec00a04 	addi	sp,sp,40
   2c510:	00255001 	jmpi	25500 <_malloc_r>
   2c514:	11400317 	ldw	r5,12(r2)
   2c518:	10800217 	ldw	r2,8(r2)
   2c51c:	9823883a 	mov	r17,r19
   2c520:	2021883a 	mov	r16,r4
   2c524:	11400315 	stw	r5,12(r2)
   2c528:	28800215 	stw	r2,8(r5)
   2c52c:	003f7906 	br	2c314 <__alt_data_end+0xfffec314>
   2c530:	21000117 	ldw	r4,4(r4)
   2c534:	00bfff04 	movi	r2,-4
   2c538:	a1800404 	addi	r6,r20,16
   2c53c:	2088703a 	and	r4,r4,r2
   2c540:	2409883a 	add	r4,r4,r16
   2c544:	2180380e 	bge	r4,r6,2c628 <_realloc_r+0x47c>
   2c548:	18c0004c 	andi	r3,r3,1
   2c54c:	183fc51e 	bne	r3,zero,2c464 <__alt_data_end+0xfffec464>
   2c550:	9dfffe17 	ldw	r23,-8(r19)
   2c554:	adefc83a 	sub	r23,r21,r23
   2c558:	b9400117 	ldw	r5,4(r23)
   2c55c:	288a703a 	and	r5,r5,r2
   2c560:	216d883a 	add	r22,r4,r5
   2c564:	b1bf8b16 	blt	r22,r6,2c394 <__alt_data_end+0xfffec394>
   2c568:	b8800317 	ldw	r2,12(r23)
   2c56c:	b8c00217 	ldw	r3,8(r23)
   2c570:	81bfff04 	addi	r6,r16,-4
   2c574:	01000904 	movi	r4,36
   2c578:	18800315 	stw	r2,12(r3)
   2c57c:	10c00215 	stw	r3,8(r2)
   2c580:	bc400204 	addi	r17,r23,8
   2c584:	21805a36 	bltu	r4,r6,2c6f0 <_realloc_r+0x544>
   2c588:	008004c4 	movi	r2,19
   2c58c:	1180562e 	bgeu	r2,r6,2c6e8 <_realloc_r+0x53c>
   2c590:	98800017 	ldw	r2,0(r19)
   2c594:	b8800215 	stw	r2,8(r23)
   2c598:	98800117 	ldw	r2,4(r19)
   2c59c:	b8800315 	stw	r2,12(r23)
   2c5a0:	008006c4 	movi	r2,27
   2c5a4:	11805636 	bltu	r2,r6,2c700 <_realloc_r+0x554>
   2c5a8:	b8800404 	addi	r2,r23,16
   2c5ac:	9cc00204 	addi	r19,r19,8
   2c5b0:	98c00017 	ldw	r3,0(r19)
   2c5b4:	10c00015 	stw	r3,0(r2)
   2c5b8:	98c00117 	ldw	r3,4(r19)
   2c5bc:	10c00115 	stw	r3,4(r2)
   2c5c0:	98c00217 	ldw	r3,8(r19)
   2c5c4:	10c00215 	stw	r3,8(r2)
   2c5c8:	bd07883a 	add	r3,r23,r20
   2c5cc:	b505c83a 	sub	r2,r22,r20
   2c5d0:	e0c00215 	stw	r3,8(fp)
   2c5d4:	10800054 	ori	r2,r2,1
   2c5d8:	18800115 	stw	r2,4(r3)
   2c5dc:	b8800117 	ldw	r2,4(r23)
   2c5e0:	9009883a 	mov	r4,r18
   2c5e4:	1080004c 	andi	r2,r2,1
   2c5e8:	a0a8b03a 	or	r20,r20,r2
   2c5ec:	bd000115 	stw	r20,4(r23)
   2c5f0:	0031e380 	call	31e38 <__malloc_unlock>
   2c5f4:	8805883a 	mov	r2,r17
   2c5f8:	003f5306 	br	2c348 <__alt_data_end+0xfffec348>
   2c5fc:	98c00017 	ldw	r3,0(r19)
   2c600:	88c00015 	stw	r3,0(r17)
   2c604:	98c00117 	ldw	r3,4(r19)
   2c608:	88c00115 	stw	r3,4(r17)
   2c60c:	00c006c4 	movi	r3,27
   2c610:	19801d36 	bltu	r3,r6,2c688 <_realloc_r+0x4dc>
   2c614:	88800204 	addi	r2,r17,8
   2c618:	98c00204 	addi	r3,r19,8
   2c61c:	003fa306 	br	2c4ac <__alt_data_end+0xfffec4ac>
   2c620:	8807883a 	mov	r3,r17
   2c624:	003f7406 	br	2c3f8 <__alt_data_end+0xfffec3f8>
   2c628:	ad2b883a 	add	r21,r21,r20
   2c62c:	2505c83a 	sub	r2,r4,r20
   2c630:	e5400215 	stw	r21,8(fp)
   2c634:	10800054 	ori	r2,r2,1
   2c638:	a8800115 	stw	r2,4(r21)
   2c63c:	98bfff17 	ldw	r2,-4(r19)
   2c640:	9009883a 	mov	r4,r18
   2c644:	1080004c 	andi	r2,r2,1
   2c648:	a0a8b03a 	or	r20,r20,r2
   2c64c:	9d3fff15 	stw	r20,-4(r19)
   2c650:	0031e380 	call	31e38 <__malloc_unlock>
   2c654:	9805883a 	mov	r2,r19
   2c658:	003f3b06 	br	2c348 <__alt_data_end+0xfffec348>
   2c65c:	8809883a 	mov	r4,r17
   2c660:	980b883a 	mov	r5,r19
   2c664:	002af5c0 	call	2af5c <memmove>
   2c668:	003f9606 	br	2c4c4 <__alt_data_end+0xfffec4c4>
   2c66c:	8809883a 	mov	r4,r17
   2c670:	980b883a 	mov	r5,r19
   2c674:	002af5c0 	call	2af5c <memmove>
   2c678:	b8c00117 	ldw	r3,4(r23)
   2c67c:	b021883a 	mov	r16,r22
   2c680:	b82b883a 	mov	r21,r23
   2c684:	003f2306 	br	2c314 <__alt_data_end+0xfffec314>
   2c688:	98c00217 	ldw	r3,8(r19)
   2c68c:	88c00215 	stw	r3,8(r17)
   2c690:	98c00317 	ldw	r3,12(r19)
   2c694:	88c00315 	stw	r3,12(r17)
   2c698:	30800c26 	beq	r6,r2,2c6cc <_realloc_r+0x520>
   2c69c:	88800404 	addi	r2,r17,16
   2c6a0:	98c00404 	addi	r3,r19,16
   2c6a4:	003f8106 	br	2c4ac <__alt_data_end+0xfffec4ac>
   2c6a8:	893fff17 	ldw	r4,-4(r17)
   2c6ac:	00bfff04 	movi	r2,-4
   2c6b0:	9823883a 	mov	r17,r19
   2c6b4:	2084703a 	and	r2,r4,r2
   2c6b8:	80a1883a 	add	r16,r16,r2
   2c6bc:	003f1506 	br	2c314 <__alt_data_end+0xfffec314>
   2c6c0:	b8c00404 	addi	r3,r23,16
   2c6c4:	9cc00204 	addi	r19,r19,8
   2c6c8:	003f4b06 	br	2c3f8 <__alt_data_end+0xfffec3f8>
   2c6cc:	99000417 	ldw	r4,16(r19)
   2c6d0:	88800604 	addi	r2,r17,24
   2c6d4:	98c00604 	addi	r3,r19,24
   2c6d8:	89000415 	stw	r4,16(r17)
   2c6dc:	99000517 	ldw	r4,20(r19)
   2c6e0:	89000515 	stw	r4,20(r17)
   2c6e4:	003f7106 	br	2c4ac <__alt_data_end+0xfffec4ac>
   2c6e8:	8805883a 	mov	r2,r17
   2c6ec:	003fb006 	br	2c5b0 <__alt_data_end+0xfffec5b0>
   2c6f0:	8809883a 	mov	r4,r17
   2c6f4:	980b883a 	mov	r5,r19
   2c6f8:	002af5c0 	call	2af5c <memmove>
   2c6fc:	003fb206 	br	2c5c8 <__alt_data_end+0xfffec5c8>
   2c700:	98800217 	ldw	r2,8(r19)
   2c704:	b8800415 	stw	r2,16(r23)
   2c708:	98800317 	ldw	r2,12(r19)
   2c70c:	b8800515 	stw	r2,20(r23)
   2c710:	31000726 	beq	r6,r4,2c730 <_realloc_r+0x584>
   2c714:	b8800604 	addi	r2,r23,24
   2c718:	9cc00404 	addi	r19,r19,16
   2c71c:	003fa406 	br	2c5b0 <__alt_data_end+0xfffec5b0>
   2c720:	9009883a 	mov	r4,r18
   2c724:	0031e380 	call	31e38 <__malloc_unlock>
   2c728:	0005883a 	mov	r2,zero
   2c72c:	003f0606 	br	2c348 <__alt_data_end+0xfffec348>
   2c730:	98c00417 	ldw	r3,16(r19)
   2c734:	9cc00604 	addi	r19,r19,24
   2c738:	b8800804 	addi	r2,r23,32
   2c73c:	b8c00615 	stw	r3,24(r23)
   2c740:	98ffff17 	ldw	r3,-4(r19)
   2c744:	b8c00715 	stw	r3,28(r23)
   2c748:	003f9906 	br	2c5b0 <__alt_data_end+0xfffec5b0>

0002c74c <__fpclassifyd>:
   2c74c:	00a00034 	movhi	r2,32768
   2c750:	10bfffc4 	addi	r2,r2,-1
   2c754:	2884703a 	and	r2,r5,r2
   2c758:	10000726 	beq	r2,zero,2c778 <__fpclassifyd+0x2c>
   2c75c:	00fffc34 	movhi	r3,65520
   2c760:	019ff834 	movhi	r6,32736
   2c764:	28c7883a 	add	r3,r5,r3
   2c768:	31bfffc4 	addi	r6,r6,-1
   2c76c:	30c00536 	bltu	r6,r3,2c784 <__fpclassifyd+0x38>
   2c770:	00800104 	movi	r2,4
   2c774:	f800283a 	ret
   2c778:	2000021e 	bne	r4,zero,2c784 <__fpclassifyd+0x38>
   2c77c:	00800084 	movi	r2,2
   2c780:	f800283a 	ret
   2c784:	00dffc34 	movhi	r3,32752
   2c788:	019ff834 	movhi	r6,32736
   2c78c:	28cb883a 	add	r5,r5,r3
   2c790:	31bfffc4 	addi	r6,r6,-1
   2c794:	317ff62e 	bgeu	r6,r5,2c770 <__alt_data_end+0xfffec770>
   2c798:	01400434 	movhi	r5,16
   2c79c:	297fffc4 	addi	r5,r5,-1
   2c7a0:	28800236 	bltu	r5,r2,2c7ac <__fpclassifyd+0x60>
   2c7a4:	008000c4 	movi	r2,3
   2c7a8:	f800283a 	ret
   2c7ac:	10c00226 	beq	r2,r3,2c7b8 <__fpclassifyd+0x6c>
   2c7b0:	0005883a 	mov	r2,zero
   2c7b4:	f800283a 	ret
   2c7b8:	2005003a 	cmpeq	r2,r4,zero
   2c7bc:	f800283a 	ret

0002c7c0 <__sread>:
   2c7c0:	defffe04 	addi	sp,sp,-8
   2c7c4:	dc000015 	stw	r16,0(sp)
   2c7c8:	2821883a 	mov	r16,r5
   2c7cc:	2940038f 	ldh	r5,14(r5)
   2c7d0:	dfc00115 	stw	ra,4(sp)
   2c7d4:	002e5100 	call	2e510 <_read_r>
   2c7d8:	10000716 	blt	r2,zero,2c7f8 <__sread+0x38>
   2c7dc:	80c01417 	ldw	r3,80(r16)
   2c7e0:	1887883a 	add	r3,r3,r2
   2c7e4:	80c01415 	stw	r3,80(r16)
   2c7e8:	dfc00117 	ldw	ra,4(sp)
   2c7ec:	dc000017 	ldw	r16,0(sp)
   2c7f0:	dec00204 	addi	sp,sp,8
   2c7f4:	f800283a 	ret
   2c7f8:	80c0030b 	ldhu	r3,12(r16)
   2c7fc:	18fbffcc 	andi	r3,r3,61439
   2c800:	80c0030d 	sth	r3,12(r16)
   2c804:	dfc00117 	ldw	ra,4(sp)
   2c808:	dc000017 	ldw	r16,0(sp)
   2c80c:	dec00204 	addi	sp,sp,8
   2c810:	f800283a 	ret

0002c814 <__seofread>:
   2c814:	0005883a 	mov	r2,zero
   2c818:	f800283a 	ret

0002c81c <__swrite>:
   2c81c:	2880030b 	ldhu	r2,12(r5)
   2c820:	defffb04 	addi	sp,sp,-20
   2c824:	dcc00315 	stw	r19,12(sp)
   2c828:	dc800215 	stw	r18,8(sp)
   2c82c:	dc400115 	stw	r17,4(sp)
   2c830:	dc000015 	stw	r16,0(sp)
   2c834:	dfc00415 	stw	ra,16(sp)
   2c838:	10c0400c 	andi	r3,r2,256
   2c83c:	2821883a 	mov	r16,r5
   2c840:	2027883a 	mov	r19,r4
   2c844:	3025883a 	mov	r18,r6
   2c848:	3823883a 	mov	r17,r7
   2c84c:	18000526 	beq	r3,zero,2c864 <__swrite+0x48>
   2c850:	2940038f 	ldh	r5,14(r5)
   2c854:	000d883a 	mov	r6,zero
   2c858:	01c00084 	movi	r7,2
   2c85c:	002e4b40 	call	2e4b4 <_lseek_r>
   2c860:	8080030b 	ldhu	r2,12(r16)
   2c864:	8140038f 	ldh	r5,14(r16)
   2c868:	10bbffcc 	andi	r2,r2,61439
   2c86c:	9809883a 	mov	r4,r19
   2c870:	900d883a 	mov	r6,r18
   2c874:	880f883a 	mov	r7,r17
   2c878:	8080030d 	sth	r2,12(r16)
   2c87c:	dfc00417 	ldw	ra,16(sp)
   2c880:	dcc00317 	ldw	r19,12(sp)
   2c884:	dc800217 	ldw	r18,8(sp)
   2c888:	dc400117 	ldw	r17,4(sp)
   2c88c:	dc000017 	ldw	r16,0(sp)
   2c890:	dec00504 	addi	sp,sp,20
   2c894:	002dfa41 	jmpi	2dfa4 <_write_r>

0002c898 <__sseek>:
   2c898:	defffe04 	addi	sp,sp,-8
   2c89c:	dc000015 	stw	r16,0(sp)
   2c8a0:	2821883a 	mov	r16,r5
   2c8a4:	2940038f 	ldh	r5,14(r5)
   2c8a8:	dfc00115 	stw	ra,4(sp)
   2c8ac:	002e4b40 	call	2e4b4 <_lseek_r>
   2c8b0:	00ffffc4 	movi	r3,-1
   2c8b4:	10c00826 	beq	r2,r3,2c8d8 <__sseek+0x40>
   2c8b8:	80c0030b 	ldhu	r3,12(r16)
   2c8bc:	80801415 	stw	r2,80(r16)
   2c8c0:	18c40014 	ori	r3,r3,4096
   2c8c4:	80c0030d 	sth	r3,12(r16)
   2c8c8:	dfc00117 	ldw	ra,4(sp)
   2c8cc:	dc000017 	ldw	r16,0(sp)
   2c8d0:	dec00204 	addi	sp,sp,8
   2c8d4:	f800283a 	ret
   2c8d8:	80c0030b 	ldhu	r3,12(r16)
   2c8dc:	18fbffcc 	andi	r3,r3,61439
   2c8e0:	80c0030d 	sth	r3,12(r16)
   2c8e4:	dfc00117 	ldw	ra,4(sp)
   2c8e8:	dc000017 	ldw	r16,0(sp)
   2c8ec:	dec00204 	addi	sp,sp,8
   2c8f0:	f800283a 	ret

0002c8f4 <__sclose>:
   2c8f4:	2940038f 	ldh	r5,14(r5)
   2c8f8:	002e0001 	jmpi	2e000 <_close_r>

0002c8fc <strcmp>:
   2c8fc:	2144b03a 	or	r2,r4,r5
   2c900:	108000cc 	andi	r2,r2,3
   2c904:	1000171e 	bne	r2,zero,2c964 <strcmp+0x68>
   2c908:	20800017 	ldw	r2,0(r4)
   2c90c:	28c00017 	ldw	r3,0(r5)
   2c910:	10c0141e 	bne	r2,r3,2c964 <strcmp+0x68>
   2c914:	027fbff4 	movhi	r9,65279
   2c918:	4a7fbfc4 	addi	r9,r9,-257
   2c91c:	0086303a 	nor	r3,zero,r2
   2c920:	02202074 	movhi	r8,32897
   2c924:	1245883a 	add	r2,r2,r9
   2c928:	42202004 	addi	r8,r8,-32640
   2c92c:	10c4703a 	and	r2,r2,r3
   2c930:	1204703a 	and	r2,r2,r8
   2c934:	10000226 	beq	r2,zero,2c940 <strcmp+0x44>
   2c938:	00001706 	br	2c998 <strcmp+0x9c>
   2c93c:	1000161e 	bne	r2,zero,2c998 <strcmp+0x9c>
   2c940:	21000104 	addi	r4,r4,4
   2c944:	20c00017 	ldw	r3,0(r4)
   2c948:	29400104 	addi	r5,r5,4
   2c94c:	29800017 	ldw	r6,0(r5)
   2c950:	1a4f883a 	add	r7,r3,r9
   2c954:	00c4303a 	nor	r2,zero,r3
   2c958:	3884703a 	and	r2,r7,r2
   2c95c:	1204703a 	and	r2,r2,r8
   2c960:	19bff626 	beq	r3,r6,2c93c <__alt_data_end+0xfffec93c>
   2c964:	20800007 	ldb	r2,0(r4)
   2c968:	1000051e 	bne	r2,zero,2c980 <strcmp+0x84>
   2c96c:	00000606 	br	2c988 <strcmp+0x8c>
   2c970:	21000044 	addi	r4,r4,1
   2c974:	20800007 	ldb	r2,0(r4)
   2c978:	29400044 	addi	r5,r5,1
   2c97c:	10000226 	beq	r2,zero,2c988 <strcmp+0x8c>
   2c980:	28c00007 	ldb	r3,0(r5)
   2c984:	10fffa26 	beq	r2,r3,2c970 <__alt_data_end+0xfffec970>
   2c988:	20800003 	ldbu	r2,0(r4)
   2c98c:	28c00003 	ldbu	r3,0(r5)
   2c990:	10c5c83a 	sub	r2,r2,r3
   2c994:	f800283a 	ret
   2c998:	0005883a 	mov	r2,zero
   2c99c:	f800283a 	ret

0002c9a0 <__sprint_r.part.0>:
   2c9a0:	28801917 	ldw	r2,100(r5)
   2c9a4:	defff604 	addi	sp,sp,-40
   2c9a8:	dd400515 	stw	r21,20(sp)
   2c9ac:	dcc00315 	stw	r19,12(sp)
   2c9b0:	dfc00915 	stw	ra,36(sp)
   2c9b4:	df000815 	stw	fp,32(sp)
   2c9b8:	ddc00715 	stw	r23,28(sp)
   2c9bc:	dd800615 	stw	r22,24(sp)
   2c9c0:	dd000415 	stw	r20,16(sp)
   2c9c4:	dc800215 	stw	r18,8(sp)
   2c9c8:	dc400115 	stw	r17,4(sp)
   2c9cc:	dc000015 	stw	r16,0(sp)
   2c9d0:	1088000c 	andi	r2,r2,8192
   2c9d4:	2827883a 	mov	r19,r5
   2c9d8:	302b883a 	mov	r21,r6
   2c9dc:	10002d26 	beq	r2,zero,2ca94 <__sprint_r.part.0+0xf4>
   2c9e0:	30800217 	ldw	r2,8(r6)
   2c9e4:	35800017 	ldw	r22,0(r6)
   2c9e8:	10002826 	beq	r2,zero,2ca8c <__sprint_r.part.0+0xec>
   2c9ec:	2029883a 	mov	r20,r4
   2c9f0:	b5c00104 	addi	r23,r22,4
   2c9f4:	04bfffc4 	movi	r18,-1
   2c9f8:	bc400017 	ldw	r17,0(r23)
   2c9fc:	b4000017 	ldw	r16,0(r22)
   2ca00:	0039883a 	mov	fp,zero
   2ca04:	8822d0ba 	srli	r17,r17,2
   2ca08:	04400316 	blt	zero,r17,2ca18 <__sprint_r.part.0+0x78>
   2ca0c:	00001706 	br	2ca6c <__sprint_r.part.0+0xcc>
   2ca10:	84000104 	addi	r16,r16,4
   2ca14:	8f001526 	beq	r17,fp,2ca6c <__sprint_r.part.0+0xcc>
   2ca18:	81400017 	ldw	r5,0(r16)
   2ca1c:	a009883a 	mov	r4,r20
   2ca20:	980d883a 	mov	r6,r19
   2ca24:	002e22c0 	call	2e22c <_fputwc_r>
   2ca28:	e7000044 	addi	fp,fp,1
   2ca2c:	14bff81e 	bne	r2,r18,2ca10 <__alt_data_end+0xfffeca10>
   2ca30:	9005883a 	mov	r2,r18
   2ca34:	a8000215 	stw	zero,8(r21)
   2ca38:	a8000115 	stw	zero,4(r21)
   2ca3c:	dfc00917 	ldw	ra,36(sp)
   2ca40:	df000817 	ldw	fp,32(sp)
   2ca44:	ddc00717 	ldw	r23,28(sp)
   2ca48:	dd800617 	ldw	r22,24(sp)
   2ca4c:	dd400517 	ldw	r21,20(sp)
   2ca50:	dd000417 	ldw	r20,16(sp)
   2ca54:	dcc00317 	ldw	r19,12(sp)
   2ca58:	dc800217 	ldw	r18,8(sp)
   2ca5c:	dc400117 	ldw	r17,4(sp)
   2ca60:	dc000017 	ldw	r16,0(sp)
   2ca64:	dec00a04 	addi	sp,sp,40
   2ca68:	f800283a 	ret
   2ca6c:	a8c00217 	ldw	r3,8(r21)
   2ca70:	8c63883a 	add	r17,r17,r17
   2ca74:	8c63883a 	add	r17,r17,r17
   2ca78:	1c45c83a 	sub	r2,r3,r17
   2ca7c:	a8800215 	stw	r2,8(r21)
   2ca80:	b5800204 	addi	r22,r22,8
   2ca84:	bdc00204 	addi	r23,r23,8
   2ca88:	103fdb1e 	bne	r2,zero,2c9f8 <__alt_data_end+0xfffec9f8>
   2ca8c:	0005883a 	mov	r2,zero
   2ca90:	003fe806 	br	2ca34 <__alt_data_end+0xfffeca34>
   2ca94:	002a4900 	call	2a490 <__sfvwrite_r>
   2ca98:	003fe606 	br	2ca34 <__alt_data_end+0xfffeca34>

0002ca9c <__sprint_r>:
   2ca9c:	30c00217 	ldw	r3,8(r6)
   2caa0:	18000126 	beq	r3,zero,2caa8 <__sprint_r+0xc>
   2caa4:	002c9a01 	jmpi	2c9a0 <__sprint_r.part.0>
   2caa8:	30000115 	stw	zero,4(r6)
   2caac:	0005883a 	mov	r2,zero
   2cab0:	f800283a 	ret

0002cab4 <___vfiprintf_internal_r>:
   2cab4:	defeca04 	addi	sp,sp,-1240
   2cab8:	dd813215 	stw	r22,1224(sp)
   2cabc:	dd013015 	stw	r20,1216(sp)
   2cac0:	dfc13515 	stw	ra,1236(sp)
   2cac4:	df013415 	stw	fp,1232(sp)
   2cac8:	ddc13315 	stw	r23,1228(sp)
   2cacc:	dd413115 	stw	r21,1220(sp)
   2cad0:	dcc12f15 	stw	r19,1212(sp)
   2cad4:	dc812e15 	stw	r18,1208(sp)
   2cad8:	dc412d15 	stw	r17,1204(sp)
   2cadc:	dc012c15 	stw	r16,1200(sp)
   2cae0:	d9012015 	stw	r4,1152(sp)
   2cae4:	d9c12115 	stw	r7,1156(sp)
   2cae8:	2829883a 	mov	r20,r5
   2caec:	302d883a 	mov	r22,r6
   2caf0:	20000226 	beq	r4,zero,2cafc <___vfiprintf_internal_r+0x48>
   2caf4:	20800e17 	ldw	r2,56(r4)
   2caf8:	1001d326 	beq	r2,zero,2d248 <___vfiprintf_internal_r+0x794>
   2cafc:	a0c0030b 	ldhu	r3,12(r20)
   2cb00:	1908000c 	andi	r4,r3,8192
   2cb04:	1805883a 	mov	r2,r3
   2cb08:	2000071e 	bne	r4,zero,2cb28 <___vfiprintf_internal_r+0x74>
   2cb0c:	a1001917 	ldw	r4,100(r20)
   2cb10:	18880014 	ori	r2,r3,8192
   2cb14:	00f7ffc4 	movi	r3,-8193
   2cb18:	20c8703a 	and	r4,r4,r3
   2cb1c:	a080030d 	sth	r2,12(r20)
   2cb20:	1007883a 	mov	r3,r2
   2cb24:	a1001915 	stw	r4,100(r20)
   2cb28:	1100020c 	andi	r4,r2,8
   2cb2c:	20018926 	beq	r4,zero,2d154 <___vfiprintf_internal_r+0x6a0>
   2cb30:	a1000417 	ldw	r4,16(r20)
   2cb34:	20018726 	beq	r4,zero,2d154 <___vfiprintf_internal_r+0x6a0>
   2cb38:	1080068c 	andi	r2,r2,26
   2cb3c:	01000284 	movi	r4,10
   2cb40:	11018d26 	beq	r2,r4,2d178 <___vfiprintf_internal_r+0x6c4>
   2cb44:	da810a04 	addi	r10,sp,1064
   2cb48:	dac109c4 	addi	r11,sp,1063
   2cb4c:	070000f4 	movhi	fp,3
   2cb50:	05c000f4 	movhi	r23,3
   2cb54:	da811e15 	stw	r10,1144(sp)
   2cb58:	52d5c83a 	sub	r10,r10,r11
   2cb5c:	e7138004 	addi	fp,fp,19968
   2cb60:	bdd37c04 	addi	r23,r23,19952
   2cb64:	dac11f15 	stw	r11,1148(sp)
   2cb68:	dec11a15 	stw	sp,1128(sp)
   2cb6c:	d8011c15 	stw	zero,1136(sp)
   2cb70:	d8011b15 	stw	zero,1132(sp)
   2cb74:	d8012615 	stw	zero,1176(sp)
   2cb78:	d8012215 	stw	zero,1160(sp)
   2cb7c:	da812715 	stw	r10,1180(sp)
   2cb80:	d811883a 	mov	r8,sp
   2cb84:	b021883a 	mov	r16,r22
   2cb88:	80800007 	ldb	r2,0(r16)
   2cb8c:	10039c26 	beq	r2,zero,2da00 <___vfiprintf_internal_r+0xf4c>
   2cb90:	01000944 	movi	r4,37
   2cb94:	11039a26 	beq	r2,r4,2da00 <___vfiprintf_internal_r+0xf4c>
   2cb98:	8005883a 	mov	r2,r16
   2cb9c:	00000106 	br	2cba4 <___vfiprintf_internal_r+0xf0>
   2cba0:	19000326 	beq	r3,r4,2cbb0 <___vfiprintf_internal_r+0xfc>
   2cba4:	10800044 	addi	r2,r2,1
   2cba8:	10c00007 	ldb	r3,0(r2)
   2cbac:	183ffc1e 	bne	r3,zero,2cba0 <__alt_data_end+0xfffecba0>
   2cbb0:	1425c83a 	sub	r18,r2,r16
   2cbb4:	1023883a 	mov	r17,r2
   2cbb8:	90001026 	beq	r18,zero,2cbfc <___vfiprintf_internal_r+0x148>
   2cbbc:	d8c11c17 	ldw	r3,1136(sp)
   2cbc0:	d8811b17 	ldw	r2,1132(sp)
   2cbc4:	44000015 	stw	r16,0(r8)
   2cbc8:	90c7883a 	add	r3,r18,r3
   2cbcc:	10800044 	addi	r2,r2,1
   2cbd0:	44800115 	stw	r18,4(r8)
   2cbd4:	d8c11c15 	stw	r3,1136(sp)
   2cbd8:	d8811b15 	stw	r2,1132(sp)
   2cbdc:	010001c4 	movi	r4,7
   2cbe0:	2080750e 	bge	r4,r2,2cdb8 <___vfiprintf_internal_r+0x304>
   2cbe4:	18039d1e 	bne	r3,zero,2da5c <___vfiprintf_internal_r+0xfa8>
   2cbe8:	dac12217 	ldw	r11,1160(sp)
   2cbec:	d8011b15 	stw	zero,1132(sp)
   2cbf0:	d811883a 	mov	r8,sp
   2cbf4:	5c97883a 	add	r11,r11,r18
   2cbf8:	dac12215 	stw	r11,1160(sp)
   2cbfc:	88800007 	ldb	r2,0(r17)
   2cc00:	1002e026 	beq	r2,zero,2d784 <___vfiprintf_internal_r+0xcd0>
   2cc04:	88c00047 	ldb	r3,1(r17)
   2cc08:	8c000044 	addi	r16,r17,1
   2cc0c:	d8011d85 	stb	zero,1142(sp)
   2cc10:	000d883a 	mov	r6,zero
   2cc14:	027fffc4 	movi	r9,-1
   2cc18:	0027883a 	mov	r19,zero
   2cc1c:	002b883a 	mov	r21,zero
   2cc20:	01001604 	movi	r4,88
   2cc24:	01400244 	movi	r5,9
   2cc28:	03000a84 	movi	r12,42
   2cc2c:	01c01b04 	movi	r7,108
   2cc30:	84000044 	addi	r16,r16,1
   2cc34:	18bff804 	addi	r2,r3,-32
   2cc38:	20825f36 	bltu	r4,r2,2d5b8 <___vfiprintf_internal_r+0xb04>
   2cc3c:	100490ba 	slli	r2,r2,2
   2cc40:	028000f4 	movhi	r10,3
   2cc44:	52b31504 	addi	r10,r10,-13228
   2cc48:	1285883a 	add	r2,r2,r10
   2cc4c:	10800017 	ldw	r2,0(r2)
   2cc50:	1000683a 	jmp	r2
   2cc54:	0002d428 	cmpgeui	zero,zero,2896
   2cc58:	0002d5b8 	rdprs	zero,zero,2902
   2cc5c:	0002d5b8 	rdprs	zero,zero,2902
   2cc60:	0002d5ac 	andhi	zero,zero,2902
   2cc64:	0002d5b8 	rdprs	zero,zero,2902
   2cc68:	0002d5b8 	rdprs	zero,zero,2902
   2cc6c:	0002d5b8 	rdprs	zero,zero,2902
   2cc70:	0002d5b8 	rdprs	zero,zero,2902
   2cc74:	0002d5b8 	rdprs	zero,zero,2902
   2cc78:	0002d5b8 	rdprs	zero,zero,2902
   2cc7c:	0002d584 	movi	zero,2902
   2cc80:	0002d5a0 	cmpeqi	zero,zero,2902
   2cc84:	0002d5b8 	rdprs	zero,zero,2902
   2cc88:	0002d258 	cmpnei	zero,zero,2889
   2cc8c:	0002d3b8 	rdprs	zero,zero,2894
   2cc90:	0002d5b8 	rdprs	zero,zero,2902
   2cc94:	0002d33c 	xorhi	zero,zero,2892
   2cc98:	0002d348 	cmpgei	zero,zero,2893
   2cc9c:	0002d348 	cmpgei	zero,zero,2893
   2cca0:	0002d348 	cmpgei	zero,zero,2893
   2cca4:	0002d348 	cmpgei	zero,zero,2893
   2cca8:	0002d348 	cmpgei	zero,zero,2893
   2ccac:	0002d348 	cmpgei	zero,zero,2893
   2ccb0:	0002d348 	cmpgei	zero,zero,2893
   2ccb4:	0002d348 	cmpgei	zero,zero,2893
   2ccb8:	0002d348 	cmpgei	zero,zero,2893
   2ccbc:	0002d5b8 	rdprs	zero,zero,2902
   2ccc0:	0002d5b8 	rdprs	zero,zero,2902
   2ccc4:	0002d5b8 	rdprs	zero,zero,2902
   2ccc8:	0002d5b8 	rdprs	zero,zero,2902
   2cccc:	0002d5b8 	rdprs	zero,zero,2902
   2ccd0:	0002d5b8 	rdprs	zero,zero,2902
   2ccd4:	0002d5b8 	rdprs	zero,zero,2902
   2ccd8:	0002d5b8 	rdprs	zero,zero,2902
   2ccdc:	0002d5b8 	rdprs	zero,zero,2902
   2cce0:	0002d5b8 	rdprs	zero,zero,2902
   2cce4:	0002d374 	movhi	zero,2893
   2cce8:	0002d5b8 	rdprs	zero,zero,2902
   2ccec:	0002d5b8 	rdprs	zero,zero,2902
   2ccf0:	0002d5b8 	rdprs	zero,zero,2902
   2ccf4:	0002d5b8 	rdprs	zero,zero,2902
   2ccf8:	0002d5b8 	rdprs	zero,zero,2902
   2ccfc:	0002d5b8 	rdprs	zero,zero,2902
   2cd00:	0002d5b8 	rdprs	zero,zero,2902
   2cd04:	0002d5b8 	rdprs	zero,zero,2902
   2cd08:	0002d5b8 	rdprs	zero,zero,2902
   2cd0c:	0002d5b8 	rdprs	zero,zero,2902
   2cd10:	0002ce08 	cmpgei	zero,zero,2872
   2cd14:	0002d5b8 	rdprs	zero,zero,2902
   2cd18:	0002d5b8 	rdprs	zero,zero,2902
   2cd1c:	0002d5b8 	rdprs	zero,zero,2902
   2cd20:	0002d5b8 	rdprs	zero,zero,2902
   2cd24:	0002d5b8 	rdprs	zero,zero,2902
   2cd28:	0002cdcc 	andi	zero,zero,2871
   2cd2c:	0002d5b8 	rdprs	zero,zero,2902
   2cd30:	0002d5b8 	rdprs	zero,zero,2902
   2cd34:	0002d2b4 	movhi	zero,2890
   2cd38:	0002d5b8 	rdprs	zero,zero,2902
   2cd3c:	0002d5b8 	rdprs	zero,zero,2902
   2cd40:	0002d5b8 	rdprs	zero,zero,2902
   2cd44:	0002d5b8 	rdprs	zero,zero,2902
   2cd48:	0002d5b8 	rdprs	zero,zero,2902
   2cd4c:	0002d5b8 	rdprs	zero,zero,2902
   2cd50:	0002d5b8 	rdprs	zero,zero,2902
   2cd54:	0002d5b8 	rdprs	zero,zero,2902
   2cd58:	0002d5b8 	rdprs	zero,zero,2902
   2cd5c:	0002d5b8 	rdprs	zero,zero,2902
   2cd60:	0002d30c 	andi	zero,zero,2892
   2cd64:	0002d4a4 	muli	zero,zero,2898
   2cd68:	0002d5b8 	rdprs	zero,zero,2902
   2cd6c:	0002d5b8 	rdprs	zero,zero,2902
   2cd70:	0002d5b8 	rdprs	zero,zero,2902
   2cd74:	0002d52c 	andhi	zero,zero,2900
   2cd78:	0002d4a4 	muli	zero,zero,2898
   2cd7c:	0002d5b8 	rdprs	zero,zero,2902
   2cd80:	0002d5b8 	rdprs	zero,zero,2902
   2cd84:	0002d538 	rdprs	zero,zero,2900
   2cd88:	0002d5b8 	rdprs	zero,zero,2902
   2cd8c:	0002d3f8 	rdprs	zero,zero,2895
   2cd90:	0002ce0c 	andi	zero,zero,2872
   2cd94:	0002d4e0 	cmpeqi	zero,zero,2899
   2cd98:	0002d520 	cmpeqi	zero,zero,2900
   2cd9c:	0002d5b8 	rdprs	zero,zero,2902
   2cda0:	0002d444 	movi	zero,2897
   2cda4:	0002d5b8 	rdprs	zero,zero,2902
   2cda8:	0002cdd0 	cmplti	zero,zero,2871
   2cdac:	0002d5b8 	rdprs	zero,zero,2902
   2cdb0:	0002d5b8 	rdprs	zero,zero,2902
   2cdb4:	0002d548 	cmpgei	zero,zero,2901
   2cdb8:	42000204 	addi	r8,r8,8
   2cdbc:	dac12217 	ldw	r11,1160(sp)
   2cdc0:	5c97883a 	add	r11,r11,r18
   2cdc4:	dac12215 	stw	r11,1160(sp)
   2cdc8:	003f8c06 	br	2cbfc <__alt_data_end+0xfffecbfc>
   2cdcc:	ad400414 	ori	r21,r21,16
   2cdd0:	a880080c 	andi	r2,r21,32
   2cdd4:	10012f1e 	bne	r2,zero,2d294 <___vfiprintf_internal_r+0x7e0>
   2cdd8:	a880040c 	andi	r2,r21,16
   2cddc:	1001ff1e 	bne	r2,zero,2d5dc <___vfiprintf_internal_r+0xb28>
   2cde0:	a880100c 	andi	r2,r21,64
   2cde4:	1001fd26 	beq	r2,zero,2d5dc <___vfiprintf_internal_r+0xb28>
   2cde8:	da812117 	ldw	r10,1156(sp)
   2cdec:	002d883a 	mov	r22,zero
   2cdf0:	00800044 	movi	r2,1
   2cdf4:	5480000b 	ldhu	r18,0(r10)
   2cdf8:	52800104 	addi	r10,r10,4
   2cdfc:	da812115 	stw	r10,1156(sp)
   2ce00:	9009883a 	mov	r4,r18
   2ce04:	00000a06 	br	2ce30 <___vfiprintf_internal_r+0x37c>
   2ce08:	ad400414 	ori	r21,r21,16
   2ce0c:	a880080c 	andi	r2,r21,32
   2ce10:	10011426 	beq	r2,zero,2d264 <___vfiprintf_internal_r+0x7b0>
   2ce14:	da812117 	ldw	r10,1156(sp)
   2ce18:	0005883a 	mov	r2,zero
   2ce1c:	54800017 	ldw	r18,0(r10)
   2ce20:	55800117 	ldw	r22,4(r10)
   2ce24:	52800204 	addi	r10,r10,8
   2ce28:	da812115 	stw	r10,1156(sp)
   2ce2c:	9588b03a 	or	r4,r18,r22
   2ce30:	d8011d85 	stb	zero,1142(sp)
   2ce34:	4823883a 	mov	r17,r9
   2ce38:	0019883a 	mov	r12,zero
   2ce3c:	48000216 	blt	r9,zero,2ce48 <___vfiprintf_internal_r+0x394>
   2ce40:	00ffdfc4 	movi	r3,-129
   2ce44:	a8ea703a 	and	r21,r21,r3
   2ce48:	2002221e 	bne	r4,zero,2d6d4 <___vfiprintf_internal_r+0xc20>
   2ce4c:	4802c726 	beq	r9,zero,2d96c <___vfiprintf_internal_r+0xeb8>
   2ce50:	10803fcc 	andi	r2,r2,255
   2ce54:	00c00044 	movi	r3,1
   2ce58:	10c24426 	beq	r2,r3,2d76c <___vfiprintf_internal_r+0xcb8>
   2ce5c:	00c00084 	movi	r3,2
   2ce60:	10c2cc26 	beq	r2,r3,2d994 <___vfiprintf_internal_r+0xee0>
   2ce64:	d8c10a04 	addi	r3,sp,1064
   2ce68:	9008d0fa 	srli	r4,r18,3
   2ce6c:	b00a977a 	slli	r5,r22,29
   2ce70:	b02cd0fa 	srli	r22,r22,3
   2ce74:	948001cc 	andi	r18,r18,7
   2ce78:	90800c04 	addi	r2,r18,48
   2ce7c:	18ffffc4 	addi	r3,r3,-1
   2ce80:	2924b03a 	or	r18,r5,r4
   2ce84:	18800005 	stb	r2,0(r3)
   2ce88:	9588b03a 	or	r4,r18,r22
   2ce8c:	203ff61e 	bne	r4,zero,2ce68 <__alt_data_end+0xfffece68>
   2ce90:	a900004c 	andi	r4,r21,1
   2ce94:	d8c12415 	stw	r3,1168(sp)
   2ce98:	2002fb1e 	bne	r4,zero,2da88 <___vfiprintf_internal_r+0xfd4>
   2ce9c:	da811e17 	ldw	r10,1144(sp)
   2cea0:	50e3c83a 	sub	r17,r10,r3
   2cea4:	8825883a 	mov	r18,r17
   2cea8:	8a40010e 	bge	r17,r9,2ceb0 <___vfiprintf_internal_r+0x3fc>
   2ceac:	4825883a 	mov	r18,r9
   2ceb0:	63003fcc 	andi	r12,r12,255
   2ceb4:	6300201c 	xori	r12,r12,128
   2ceb8:	633fe004 	addi	r12,r12,-128
   2cebc:	60000126 	beq	r12,zero,2cec4 <___vfiprintf_internal_r+0x410>
   2cec0:	94800044 	addi	r18,r18,1
   2cec4:	ab80008c 	andi	r14,r21,2
   2cec8:	70000126 	beq	r14,zero,2ced0 <___vfiprintf_internal_r+0x41c>
   2cecc:	94800084 	addi	r18,r18,2
   2ced0:	ad80210c 	andi	r22,r21,132
   2ced4:	b001df1e 	bne	r22,zero,2d654 <___vfiprintf_internal_r+0xba0>
   2ced8:	9c8fc83a 	sub	r7,r19,r18
   2cedc:	01c1dd0e 	bge	zero,r7,2d654 <___vfiprintf_internal_r+0xba0>
   2cee0:	03000404 	movi	r12,16
   2cee4:	d8811c17 	ldw	r2,1136(sp)
   2cee8:	61c3920e 	bge	r12,r7,2dd34 <___vfiprintf_internal_r+0x1280>
   2ceec:	028000f4 	movhi	r10,3
   2cef0:	52938004 	addi	r10,r10,19968
   2cef4:	dc012915 	stw	r16,1188(sp)
   2cef8:	d9811b17 	ldw	r6,1132(sp)
   2cefc:	da812315 	stw	r10,1164(sp)
   2cf00:	00c001c4 	movi	r3,7
   2cf04:	da412515 	stw	r9,1172(sp)
   2cf08:	db812815 	stw	r14,1184(sp)
   2cf0c:	3821883a 	mov	r16,r7
   2cf10:	00000506 	br	2cf28 <___vfiprintf_internal_r+0x474>
   2cf14:	31400084 	addi	r5,r6,2
   2cf18:	42000204 	addi	r8,r8,8
   2cf1c:	200d883a 	mov	r6,r4
   2cf20:	843ffc04 	addi	r16,r16,-16
   2cf24:	64000d0e 	bge	r12,r16,2cf5c <___vfiprintf_internal_r+0x4a8>
   2cf28:	10800404 	addi	r2,r2,16
   2cf2c:	31000044 	addi	r4,r6,1
   2cf30:	47000015 	stw	fp,0(r8)
   2cf34:	43000115 	stw	r12,4(r8)
   2cf38:	d8811c15 	stw	r2,1136(sp)
   2cf3c:	d9011b15 	stw	r4,1132(sp)
   2cf40:	193ff40e 	bge	r3,r4,2cf14 <__alt_data_end+0xfffecf14>
   2cf44:	1001b51e 	bne	r2,zero,2d61c <___vfiprintf_internal_r+0xb68>
   2cf48:	843ffc04 	addi	r16,r16,-16
   2cf4c:	000d883a 	mov	r6,zero
   2cf50:	01400044 	movi	r5,1
   2cf54:	d811883a 	mov	r8,sp
   2cf58:	643ff316 	blt	r12,r16,2cf28 <__alt_data_end+0xfffecf28>
   2cf5c:	800f883a 	mov	r7,r16
   2cf60:	da412517 	ldw	r9,1172(sp)
   2cf64:	db812817 	ldw	r14,1184(sp)
   2cf68:	dc012917 	ldw	r16,1188(sp)
   2cf6c:	dac12317 	ldw	r11,1164(sp)
   2cf70:	3887883a 	add	r3,r7,r2
   2cf74:	41c00115 	stw	r7,4(r8)
   2cf78:	42c00015 	stw	r11,0(r8)
   2cf7c:	d8c11c15 	stw	r3,1136(sp)
   2cf80:	d9411b15 	stw	r5,1132(sp)
   2cf84:	008001c4 	movi	r2,7
   2cf88:	11429316 	blt	r2,r5,2d9d8 <___vfiprintf_internal_r+0xf24>
   2cf8c:	d9011d87 	ldb	r4,1142(sp)
   2cf90:	42000204 	addi	r8,r8,8
   2cf94:	28800044 	addi	r2,r5,1
   2cf98:	2001b31e 	bne	r4,zero,2d668 <___vfiprintf_internal_r+0xbb4>
   2cf9c:	70000c26 	beq	r14,zero,2cfd0 <___vfiprintf_internal_r+0x51c>
   2cfa0:	d9011d04 	addi	r4,sp,1140
   2cfa4:	18c00084 	addi	r3,r3,2
   2cfa8:	41000015 	stw	r4,0(r8)
   2cfac:	01000084 	movi	r4,2
   2cfb0:	41000115 	stw	r4,4(r8)
   2cfb4:	d8c11c15 	stw	r3,1136(sp)
   2cfb8:	d8811b15 	stw	r2,1132(sp)
   2cfbc:	010001c4 	movi	r4,7
   2cfc0:	20826516 	blt	r4,r2,2d958 <___vfiprintf_internal_r+0xea4>
   2cfc4:	100b883a 	mov	r5,r2
   2cfc8:	42000204 	addi	r8,r8,8
   2cfcc:	10800044 	addi	r2,r2,1
   2cfd0:	01002004 	movi	r4,128
   2cfd4:	b1021a26 	beq	r22,r4,2d840 <___vfiprintf_internal_r+0xd8c>
   2cfd8:	4c6dc83a 	sub	r22,r9,r17
   2cfdc:	0580230e 	bge	zero,r22,2d06c <___vfiprintf_internal_r+0x5b8>
   2cfe0:	01c00404 	movi	r7,16
   2cfe4:	3d83300e 	bge	r7,r22,2dca8 <___vfiprintf_internal_r+0x11f4>
   2cfe8:	008000f4 	movhi	r2,3
   2cfec:	10937c04 	addi	r2,r2,19952
   2cff0:	d8812315 	stw	r2,1164(sp)
   2cff4:	030001c4 	movi	r12,7
   2cff8:	00000506 	br	2d010 <___vfiprintf_internal_r+0x55c>
   2cffc:	28800084 	addi	r2,r5,2
   2d000:	42000204 	addi	r8,r8,8
   2d004:	200b883a 	mov	r5,r4
   2d008:	b5bffc04 	addi	r22,r22,-16
   2d00c:	3d800d0e 	bge	r7,r22,2d044 <___vfiprintf_internal_r+0x590>
   2d010:	18c00404 	addi	r3,r3,16
   2d014:	29000044 	addi	r4,r5,1
   2d018:	45c00015 	stw	r23,0(r8)
   2d01c:	41c00115 	stw	r7,4(r8)
   2d020:	d8c11c15 	stw	r3,1136(sp)
   2d024:	d9011b15 	stw	r4,1132(sp)
   2d028:	613ff40e 	bge	r12,r4,2cffc <__alt_data_end+0xfffecffc>
   2d02c:	18019b1e 	bne	r3,zero,2d69c <___vfiprintf_internal_r+0xbe8>
   2d030:	b5bffc04 	addi	r22,r22,-16
   2d034:	000b883a 	mov	r5,zero
   2d038:	00800044 	movi	r2,1
   2d03c:	d811883a 	mov	r8,sp
   2d040:	3dbff316 	blt	r7,r22,2d010 <__alt_data_end+0xfffed010>
   2d044:	da812317 	ldw	r10,1164(sp)
   2d048:	1d87883a 	add	r3,r3,r22
   2d04c:	45800115 	stw	r22,4(r8)
   2d050:	42800015 	stw	r10,0(r8)
   2d054:	d8c11c15 	stw	r3,1136(sp)
   2d058:	d8811b15 	stw	r2,1132(sp)
   2d05c:	010001c4 	movi	r4,7
   2d060:	2081dd16 	blt	r4,r2,2d7d8 <___vfiprintf_internal_r+0xd24>
   2d064:	42000204 	addi	r8,r8,8
   2d068:	10800044 	addi	r2,r2,1
   2d06c:	da812417 	ldw	r10,1168(sp)
   2d070:	1c47883a 	add	r3,r3,r17
   2d074:	44400115 	stw	r17,4(r8)
   2d078:	42800015 	stw	r10,0(r8)
   2d07c:	d8c11c15 	stw	r3,1136(sp)
   2d080:	d8811b15 	stw	r2,1132(sp)
   2d084:	010001c4 	movi	r4,7
   2d088:	2081dc0e 	bge	r4,r2,2d7fc <___vfiprintf_internal_r+0xd48>
   2d08c:	1802611e 	bne	r3,zero,2da14 <___vfiprintf_internal_r+0xf60>
   2d090:	d8011b15 	stw	zero,1132(sp)
   2d094:	aac0010c 	andi	r11,r21,4
   2d098:	58002726 	beq	r11,zero,2d138 <___vfiprintf_internal_r+0x684>
   2d09c:	9ca3c83a 	sub	r17,r19,r18
   2d0a0:	d811883a 	mov	r8,sp
   2d0a4:	0443510e 	bge	zero,r17,2ddec <___vfiprintf_internal_r+0x1338>
   2d0a8:	01c00404 	movi	r7,16
   2d0ac:	3c43320e 	bge	r7,r17,2dd78 <___vfiprintf_internal_r+0x12c4>
   2d0b0:	008000f4 	movhi	r2,3
   2d0b4:	10938004 	addi	r2,r2,19968
   2d0b8:	d9011b17 	ldw	r4,1132(sp)
   2d0bc:	d8812315 	stw	r2,1164(sp)
   2d0c0:	382d883a 	mov	r22,r7
   2d0c4:	054001c4 	movi	r21,7
   2d0c8:	00000506 	br	2d0e0 <___vfiprintf_internal_r+0x62c>
   2d0cc:	21400084 	addi	r5,r4,2
   2d0d0:	42000204 	addi	r8,r8,8
   2d0d4:	1009883a 	mov	r4,r2
   2d0d8:	8c7ffc04 	addi	r17,r17,-16
   2d0dc:	b4400d0e 	bge	r22,r17,2d114 <___vfiprintf_internal_r+0x660>
   2d0e0:	18c00404 	addi	r3,r3,16
   2d0e4:	20800044 	addi	r2,r4,1
   2d0e8:	47000015 	stw	fp,0(r8)
   2d0ec:	45800115 	stw	r22,4(r8)
   2d0f0:	d8c11c15 	stw	r3,1136(sp)
   2d0f4:	d8811b15 	stw	r2,1132(sp)
   2d0f8:	a8bff40e 	bge	r21,r2,2d0cc <__alt_data_end+0xfffed0cc>
   2d0fc:	1801ac1e 	bne	r3,zero,2d7b0 <___vfiprintf_internal_r+0xcfc>
   2d100:	8c7ffc04 	addi	r17,r17,-16
   2d104:	0009883a 	mov	r4,zero
   2d108:	01400044 	movi	r5,1
   2d10c:	d811883a 	mov	r8,sp
   2d110:	b47ff316 	blt	r22,r17,2d0e0 <__alt_data_end+0xfffed0e0>
   2d114:	da812317 	ldw	r10,1164(sp)
   2d118:	1c47883a 	add	r3,r3,r17
   2d11c:	44400115 	stw	r17,4(r8)
   2d120:	42800015 	stw	r10,0(r8)
   2d124:	d8c11c15 	stw	r3,1136(sp)
   2d128:	d9411b15 	stw	r5,1132(sp)
   2d12c:	008001c4 	movi	r2,7
   2d130:	1141b70e 	bge	r2,r5,2d810 <___vfiprintf_internal_r+0xd5c>
   2d134:	1802cf1e 	bne	r3,zero,2dc74 <___vfiprintf_internal_r+0x11c0>
   2d138:	94c2ca16 	blt	r18,r19,2dc64 <___vfiprintf_internal_r+0x11b0>
   2d13c:	dac12217 	ldw	r11,1160(sp)
   2d140:	5c97883a 	add	r11,r11,r18
   2d144:	dac12215 	stw	r11,1160(sp)
   2d148:	d8011b15 	stw	zero,1132(sp)
   2d14c:	d811883a 	mov	r8,sp
   2d150:	003e8d06 	br	2cb88 <__alt_data_end+0xfffecb88>
   2d154:	d9012017 	ldw	r4,1152(sp)
   2d158:	a00b883a 	mov	r5,r20
   2d15c:	002802c0 	call	2802c <__swsetup_r>
   2d160:	10002c1e 	bne	r2,zero,2d214 <___vfiprintf_internal_r+0x760>
   2d164:	a0c0030b 	ldhu	r3,12(r20)
   2d168:	01000284 	movi	r4,10
   2d16c:	1805883a 	mov	r2,r3
   2d170:	1080068c 	andi	r2,r2,26
   2d174:	113e731e 	bne	r2,r4,2cb44 <__alt_data_end+0xfffecb44>
   2d178:	a080038b 	ldhu	r2,14(r20)
   2d17c:	113fffcc 	andi	r4,r2,65535
   2d180:	2120001c 	xori	r4,r4,32768
   2d184:	21200004 	addi	r4,r4,-32768
   2d188:	203e6e16 	blt	r4,zero,2cb44 <__alt_data_end+0xfffecb44>
   2d18c:	a3001917 	ldw	r12,100(r20)
   2d190:	a2c00717 	ldw	r11,28(r20)
   2d194:	a2800917 	ldw	r10,36(r20)
   2d198:	d9012017 	ldw	r4,1152(sp)
   2d19c:	d9c12117 	ldw	r7,1156(sp)
   2d1a0:	02410004 	movi	r9,1024
   2d1a4:	18ffff4c 	andi	r3,r3,65533
   2d1a8:	da4b883a 	add	r5,sp,r9
   2d1ac:	b00d883a 	mov	r6,r22
   2d1b0:	d8c1030d 	sth	r3,1036(sp)
   2d1b4:	db011915 	stw	r12,1124(sp)
   2d1b8:	d881038d 	sth	r2,1038(sp)
   2d1bc:	dac10715 	stw	r11,1052(sp)
   2d1c0:	da810915 	stw	r10,1060(sp)
   2d1c4:	dec10015 	stw	sp,1024(sp)
   2d1c8:	dec10415 	stw	sp,1040(sp)
   2d1cc:	da410215 	stw	r9,1032(sp)
   2d1d0:	da410515 	stw	r9,1044(sp)
   2d1d4:	d8010615 	stw	zero,1048(sp)
   2d1d8:	002cab40 	call	2cab4 <___vfiprintf_internal_r>
   2d1dc:	1021883a 	mov	r16,r2
   2d1e0:	10000416 	blt	r2,zero,2d1f4 <___vfiprintf_internal_r+0x740>
   2d1e4:	d9012017 	ldw	r4,1152(sp)
   2d1e8:	d9410004 	addi	r5,sp,1024
   2d1ec:	0029a840 	call	29a84 <_fflush_r>
   2d1f0:	1002fc1e 	bne	r2,zero,2dde4 <___vfiprintf_internal_r+0x1330>
   2d1f4:	d881030b 	ldhu	r2,1036(sp)
   2d1f8:	1080100c 	andi	r2,r2,64
   2d1fc:	10000326 	beq	r2,zero,2d20c <___vfiprintf_internal_r+0x758>
   2d200:	a080030b 	ldhu	r2,12(r20)
   2d204:	10801014 	ori	r2,r2,64
   2d208:	a080030d 	sth	r2,12(r20)
   2d20c:	8005883a 	mov	r2,r16
   2d210:	00000106 	br	2d218 <___vfiprintf_internal_r+0x764>
   2d214:	00bfffc4 	movi	r2,-1
   2d218:	dfc13517 	ldw	ra,1236(sp)
   2d21c:	df013417 	ldw	fp,1232(sp)
   2d220:	ddc13317 	ldw	r23,1228(sp)
   2d224:	dd813217 	ldw	r22,1224(sp)
   2d228:	dd413117 	ldw	r21,1220(sp)
   2d22c:	dd013017 	ldw	r20,1216(sp)
   2d230:	dcc12f17 	ldw	r19,1212(sp)
   2d234:	dc812e17 	ldw	r18,1208(sp)
   2d238:	dc412d17 	ldw	r17,1204(sp)
   2d23c:	dc012c17 	ldw	r16,1200(sp)
   2d240:	dec13604 	addi	sp,sp,1240
   2d244:	f800283a 	ret
   2d248:	002a02c0 	call	2a02c <__sinit>
   2d24c:	003e2b06 	br	2cafc <__alt_data_end+0xfffecafc>
   2d250:	04e7c83a 	sub	r19,zero,r19
   2d254:	d8812115 	stw	r2,1156(sp)
   2d258:	ad400114 	ori	r21,r21,4
   2d25c:	80c00007 	ldb	r3,0(r16)
   2d260:	003e7306 	br	2cc30 <__alt_data_end+0xfffecc30>
   2d264:	a880040c 	andi	r2,r21,16
   2d268:	1000e41e 	bne	r2,zero,2d5fc <___vfiprintf_internal_r+0xb48>
   2d26c:	a880100c 	andi	r2,r21,64
   2d270:	1000e226 	beq	r2,zero,2d5fc <___vfiprintf_internal_r+0xb48>
   2d274:	da812117 	ldw	r10,1156(sp)
   2d278:	002d883a 	mov	r22,zero
   2d27c:	0005883a 	mov	r2,zero
   2d280:	5480000b 	ldhu	r18,0(r10)
   2d284:	52800104 	addi	r10,r10,4
   2d288:	da812115 	stw	r10,1156(sp)
   2d28c:	9009883a 	mov	r4,r18
   2d290:	003ee706 	br	2ce30 <__alt_data_end+0xfffece30>
   2d294:	da812117 	ldw	r10,1156(sp)
   2d298:	00800044 	movi	r2,1
   2d29c:	54800017 	ldw	r18,0(r10)
   2d2a0:	55800117 	ldw	r22,4(r10)
   2d2a4:	52800204 	addi	r10,r10,8
   2d2a8:	da812115 	stw	r10,1156(sp)
   2d2ac:	9588b03a 	or	r4,r18,r22
   2d2b0:	003edf06 	br	2ce30 <__alt_data_end+0xfffece30>
   2d2b4:	02c000f4 	movhi	r11,3
   2d2b8:	5ad31604 	addi	r11,r11,19544
   2d2bc:	d9811d85 	stb	r6,1142(sp)
   2d2c0:	dac12615 	stw	r11,1176(sp)
   2d2c4:	a900080c 	andi	r4,r21,32
   2d2c8:	d8812117 	ldw	r2,1156(sp)
   2d2cc:	2000a526 	beq	r4,zero,2d564 <___vfiprintf_internal_r+0xab0>
   2d2d0:	da812117 	ldw	r10,1156(sp)
   2d2d4:	14800017 	ldw	r18,0(r2)
   2d2d8:	15800117 	ldw	r22,4(r2)
   2d2dc:	52800204 	addi	r10,r10,8
   2d2e0:	da812115 	stw	r10,1156(sp)
   2d2e4:	a880004c 	andi	r2,r21,1
   2d2e8:	1001d926 	beq	r2,zero,2da50 <___vfiprintf_internal_r+0xf9c>
   2d2ec:	9588b03a 	or	r4,r18,r22
   2d2f0:	20024426 	beq	r4,zero,2dc04 <___vfiprintf_internal_r+0x1150>
   2d2f4:	00800c04 	movi	r2,48
   2d2f8:	d8811d05 	stb	r2,1140(sp)
   2d2fc:	d8c11d45 	stb	r3,1141(sp)
   2d300:	ad400094 	ori	r21,r21,2
   2d304:	00800084 	movi	r2,2
   2d308:	003ec906 	br	2ce30 <__alt_data_end+0xfffece30>
   2d30c:	da812117 	ldw	r10,1156(sp)
   2d310:	04800044 	movi	r18,1
   2d314:	dac10004 	addi	r11,sp,1024
   2d318:	50800017 	ldw	r2,0(r10)
   2d31c:	52800104 	addi	r10,r10,4
   2d320:	d8011d85 	stb	zero,1142(sp)
   2d324:	d8810005 	stb	r2,1024(sp)
   2d328:	da812115 	stw	r10,1156(sp)
   2d32c:	9023883a 	mov	r17,r18
   2d330:	dac12415 	stw	r11,1168(sp)
   2d334:	0013883a 	mov	r9,zero
   2d338:	003ee206 	br	2cec4 <__alt_data_end+0xfffecec4>
   2d33c:	ad402014 	ori	r21,r21,128
   2d340:	80c00007 	ldb	r3,0(r16)
   2d344:	003e3a06 	br	2cc30 <__alt_data_end+0xfffecc30>
   2d348:	8015883a 	mov	r10,r16
   2d34c:	0027883a 	mov	r19,zero
   2d350:	18bff404 	addi	r2,r3,-48
   2d354:	50c00007 	ldb	r3,0(r10)
   2d358:	9cc002a4 	muli	r19,r19,10
   2d35c:	84000044 	addi	r16,r16,1
   2d360:	8015883a 	mov	r10,r16
   2d364:	98a7883a 	add	r19,r19,r2
   2d368:	18bff404 	addi	r2,r3,-48
   2d36c:	28bff92e 	bgeu	r5,r2,2d354 <__alt_data_end+0xfffed354>
   2d370:	003e3006 	br	2cc34 <__alt_data_end+0xfffecc34>
   2d374:	ad400414 	ori	r21,r21,16
   2d378:	d9811d85 	stb	r6,1142(sp)
   2d37c:	a880080c 	andi	r2,r21,32
   2d380:	d8c12117 	ldw	r3,1156(sp)
   2d384:	10004b26 	beq	r2,zero,2d4b4 <___vfiprintf_internal_r+0xa00>
   2d388:	da812117 	ldw	r10,1156(sp)
   2d38c:	18800117 	ldw	r2,4(r3)
   2d390:	1c800017 	ldw	r18,0(r3)
   2d394:	52800204 	addi	r10,r10,8
   2d398:	da812115 	stw	r10,1156(sp)
   2d39c:	102d883a 	mov	r22,r2
   2d3a0:	1001f116 	blt	r2,zero,2db68 <___vfiprintf_internal_r+0x10b4>
   2d3a4:	db011d83 	ldbu	r12,1142(sp)
   2d3a8:	4823883a 	mov	r17,r9
   2d3ac:	00800044 	movi	r2,1
   2d3b0:	9588b03a 	or	r4,r18,r22
   2d3b4:	003ea106 	br	2ce3c <__alt_data_end+0xfffece3c>
   2d3b8:	80c00007 	ldb	r3,0(r16)
   2d3bc:	82800044 	addi	r10,r16,1
   2d3c0:	1b027f26 	beq	r3,r12,2ddc0 <___vfiprintf_internal_r+0x130c>
   2d3c4:	18bff404 	addi	r2,r3,-48
   2d3c8:	5021883a 	mov	r16,r10
   2d3cc:	0013883a 	mov	r9,zero
   2d3d0:	28be1836 	bltu	r5,r2,2cc34 <__alt_data_end+0xfffecc34>
   2d3d4:	80c00007 	ldb	r3,0(r16)
   2d3d8:	4a4002a4 	muli	r9,r9,10
   2d3dc:	84000044 	addi	r16,r16,1
   2d3e0:	1253883a 	add	r9,r2,r9
   2d3e4:	18bff404 	addi	r2,r3,-48
   2d3e8:	28bffa2e 	bgeu	r5,r2,2d3d4 <__alt_data_end+0xfffed3d4>
   2d3ec:	483e110e 	bge	r9,zero,2cc34 <__alt_data_end+0xfffecc34>
   2d3f0:	027fffc4 	movi	r9,-1
   2d3f4:	003e0f06 	br	2cc34 <__alt_data_end+0xfffecc34>
   2d3f8:	d9811d85 	stb	r6,1142(sp)
   2d3fc:	a880080c 	andi	r2,r21,32
   2d400:	1001ee26 	beq	r2,zero,2dbbc <___vfiprintf_internal_r+0x1108>
   2d404:	da812117 	ldw	r10,1156(sp)
   2d408:	dac12217 	ldw	r11,1160(sp)
   2d40c:	50800017 	ldw	r2,0(r10)
   2d410:	5807d7fa 	srai	r3,r11,31
   2d414:	52800104 	addi	r10,r10,4
   2d418:	da812115 	stw	r10,1156(sp)
   2d41c:	12c00015 	stw	r11,0(r2)
   2d420:	10c00115 	stw	r3,4(r2)
   2d424:	003dd806 	br	2cb88 <__alt_data_end+0xfffecb88>
   2d428:	30803fcc 	andi	r2,r6,255
   2d42c:	1080201c 	xori	r2,r2,128
   2d430:	10bfe004 	addi	r2,r2,-128
   2d434:	1001df1e 	bne	r2,zero,2dbb4 <___vfiprintf_internal_r+0x1100>
   2d438:	01800804 	movi	r6,32
   2d43c:	80c00007 	ldb	r3,0(r16)
   2d440:	003dfb06 	br	2cc30 <__alt_data_end+0xfffecc30>
   2d444:	da812117 	ldw	r10,1156(sp)
   2d448:	dac12117 	ldw	r11,1156(sp)
   2d44c:	d8011d85 	stb	zero,1142(sp)
   2d450:	52800017 	ldw	r10,0(r10)
   2d454:	5d800104 	addi	r22,r11,4
   2d458:	da812415 	stw	r10,1168(sp)
   2d45c:	50023b26 	beq	r10,zero,2dd4c <___vfiprintf_internal_r+0x1298>
   2d460:	d9012417 	ldw	r4,1168(sp)
   2d464:	48021f16 	blt	r9,zero,2dce4 <___vfiprintf_internal_r+0x1230>
   2d468:	480d883a 	mov	r6,r9
   2d46c:	000b883a 	mov	r5,zero
   2d470:	da012a15 	stw	r8,1192(sp)
   2d474:	da412b15 	stw	r9,1196(sp)
   2d478:	002ad3c0 	call	2ad3c <memchr>
   2d47c:	da012a17 	ldw	r8,1192(sp)
   2d480:	da412b17 	ldw	r9,1196(sp)
   2d484:	10024726 	beq	r2,zero,2dda4 <___vfiprintf_internal_r+0x12f0>
   2d488:	d8c12417 	ldw	r3,1168(sp)
   2d48c:	10e3c83a 	sub	r17,r2,r3
   2d490:	4c41f616 	blt	r9,r17,2dc6c <___vfiprintf_internal_r+0x11b8>
   2d494:	db011d83 	ldbu	r12,1142(sp)
   2d498:	dd812115 	stw	r22,1156(sp)
   2d49c:	0013883a 	mov	r9,zero
   2d4a0:	003e8006 	br	2cea4 <__alt_data_end+0xfffecea4>
   2d4a4:	d9811d85 	stb	r6,1142(sp)
   2d4a8:	a880080c 	andi	r2,r21,32
   2d4ac:	d8c12117 	ldw	r3,1156(sp)
   2d4b0:	103fb51e 	bne	r2,zero,2d388 <__alt_data_end+0xfffed388>
   2d4b4:	a880040c 	andi	r2,r21,16
   2d4b8:	10015e1e 	bne	r2,zero,2da34 <___vfiprintf_internal_r+0xf80>
   2d4bc:	a880100c 	andi	r2,r21,64
   2d4c0:	10015c26 	beq	r2,zero,2da34 <___vfiprintf_internal_r+0xf80>
   2d4c4:	1c80000f 	ldh	r18,0(r3)
   2d4c8:	da812117 	ldw	r10,1156(sp)
   2d4cc:	902dd7fa 	srai	r22,r18,31
   2d4d0:	52800104 	addi	r10,r10,4
   2d4d4:	da812115 	stw	r10,1156(sp)
   2d4d8:	b005883a 	mov	r2,r22
   2d4dc:	003fb006 	br	2d3a0 <__alt_data_end+0xfffed3a0>
   2d4e0:	da812117 	ldw	r10,1156(sp)
   2d4e4:	00800c04 	movi	r2,48
   2d4e8:	02c000f4 	movhi	r11,3
   2d4ec:	54800017 	ldw	r18,0(r10)
   2d4f0:	d8811d05 	stb	r2,1140(sp)
   2d4f4:	52800104 	addi	r10,r10,4
   2d4f8:	00801e04 	movi	r2,120
   2d4fc:	5ad31b04 	addi	r11,r11,19564
   2d500:	d8811d45 	stb	r2,1141(sp)
   2d504:	002d883a 	mov	r22,zero
   2d508:	ad400094 	ori	r21,r21,2
   2d50c:	da812115 	stw	r10,1156(sp)
   2d510:	dac12615 	stw	r11,1176(sp)
   2d514:	00800084 	movi	r2,2
   2d518:	9009883a 	mov	r4,r18
   2d51c:	003e4406 	br	2ce30 <__alt_data_end+0xfffece30>
   2d520:	ad400814 	ori	r21,r21,32
   2d524:	80c00007 	ldb	r3,0(r16)
   2d528:	003dc106 	br	2cc30 <__alt_data_end+0xfffecc30>
   2d52c:	ad401014 	ori	r21,r21,64
   2d530:	80c00007 	ldb	r3,0(r16)
   2d534:	003dbe06 	br	2cc30 <__alt_data_end+0xfffecc30>
   2d538:	80c00007 	ldb	r3,0(r16)
   2d53c:	19c1de26 	beq	r3,r7,2dcb8 <___vfiprintf_internal_r+0x1204>
   2d540:	ad400414 	ori	r21,r21,16
   2d544:	003dba06 	br	2cc30 <__alt_data_end+0xfffecc30>
   2d548:	008000f4 	movhi	r2,3
   2d54c:	10931b04 	addi	r2,r2,19564
   2d550:	d8812615 	stw	r2,1176(sp)
   2d554:	d9811d85 	stb	r6,1142(sp)
   2d558:	a900080c 	andi	r4,r21,32
   2d55c:	d8812117 	ldw	r2,1156(sp)
   2d560:	203f5b1e 	bne	r4,zero,2d2d0 <__alt_data_end+0xfffed2d0>
   2d564:	a900040c 	andi	r4,r21,16
   2d568:	2001a826 	beq	r4,zero,2dc0c <___vfiprintf_internal_r+0x1158>
   2d56c:	dac12117 	ldw	r11,1156(sp)
   2d570:	14800017 	ldw	r18,0(r2)
   2d574:	002d883a 	mov	r22,zero
   2d578:	5ac00104 	addi	r11,r11,4
   2d57c:	dac12115 	stw	r11,1156(sp)
   2d580:	003f5806 	br	2d2e4 <__alt_data_end+0xfffed2e4>
   2d584:	da812117 	ldw	r10,1156(sp)
   2d588:	54c00017 	ldw	r19,0(r10)
   2d58c:	50800104 	addi	r2,r10,4
   2d590:	983f2f16 	blt	r19,zero,2d250 <__alt_data_end+0xfffed250>
   2d594:	d8812115 	stw	r2,1156(sp)
   2d598:	80c00007 	ldb	r3,0(r16)
   2d59c:	003da406 	br	2cc30 <__alt_data_end+0xfffecc30>
   2d5a0:	01800ac4 	movi	r6,43
   2d5a4:	80c00007 	ldb	r3,0(r16)
   2d5a8:	003da106 	br	2cc30 <__alt_data_end+0xfffecc30>
   2d5ac:	ad400054 	ori	r21,r21,1
   2d5b0:	80c00007 	ldb	r3,0(r16)
   2d5b4:	003d9e06 	br	2cc30 <__alt_data_end+0xfffecc30>
   2d5b8:	d9811d85 	stb	r6,1142(sp)
   2d5bc:	18007126 	beq	r3,zero,2d784 <___vfiprintf_internal_r+0xcd0>
   2d5c0:	04800044 	movi	r18,1
   2d5c4:	d8c10005 	stb	r3,1024(sp)
   2d5c8:	d8c10004 	addi	r3,sp,1024
   2d5cc:	d8011d85 	stb	zero,1142(sp)
   2d5d0:	9023883a 	mov	r17,r18
   2d5d4:	d8c12415 	stw	r3,1168(sp)
   2d5d8:	003f5606 	br	2d334 <__alt_data_end+0xfffed334>
   2d5dc:	dac12117 	ldw	r11,1156(sp)
   2d5e0:	002d883a 	mov	r22,zero
   2d5e4:	00800044 	movi	r2,1
   2d5e8:	5c800017 	ldw	r18,0(r11)
   2d5ec:	5ac00104 	addi	r11,r11,4
   2d5f0:	dac12115 	stw	r11,1156(sp)
   2d5f4:	9009883a 	mov	r4,r18
   2d5f8:	003e0d06 	br	2ce30 <__alt_data_end+0xfffece30>
   2d5fc:	dac12117 	ldw	r11,1156(sp)
   2d600:	002d883a 	mov	r22,zero
   2d604:	0005883a 	mov	r2,zero
   2d608:	5c800017 	ldw	r18,0(r11)
   2d60c:	5ac00104 	addi	r11,r11,4
   2d610:	dac12115 	stw	r11,1156(sp)
   2d614:	9009883a 	mov	r4,r18
   2d618:	003e0506 	br	2ce30 <__alt_data_end+0xfffece30>
   2d61c:	d9012017 	ldw	r4,1152(sp)
   2d620:	a00b883a 	mov	r5,r20
   2d624:	d9811a04 	addi	r6,sp,1128
   2d628:	d8c12a15 	stw	r3,1192(sp)
   2d62c:	db012b15 	stw	r12,1196(sp)
   2d630:	002c9a00 	call	2c9a0 <__sprint_r.part.0>
   2d634:	d8c12a17 	ldw	r3,1192(sp)
   2d638:	db012b17 	ldw	r12,1196(sp)
   2d63c:	1000571e 	bne	r2,zero,2d79c <___vfiprintf_internal_r+0xce8>
   2d640:	d9811b17 	ldw	r6,1132(sp)
   2d644:	d8811c17 	ldw	r2,1136(sp)
   2d648:	d811883a 	mov	r8,sp
   2d64c:	31400044 	addi	r5,r6,1
   2d650:	003e3306 	br	2cf20 <__alt_data_end+0xfffecf20>
   2d654:	d9411b17 	ldw	r5,1132(sp)
   2d658:	d8c11c17 	ldw	r3,1136(sp)
   2d65c:	28800044 	addi	r2,r5,1
   2d660:	d9011d87 	ldb	r4,1142(sp)
   2d664:	203e4d26 	beq	r4,zero,2cf9c <__alt_data_end+0xfffecf9c>
   2d668:	01000044 	movi	r4,1
   2d66c:	d9411d84 	addi	r5,sp,1142
   2d670:	1907883a 	add	r3,r3,r4
   2d674:	41400015 	stw	r5,0(r8)
   2d678:	41000115 	stw	r4,4(r8)
   2d67c:	d8c11c15 	stw	r3,1136(sp)
   2d680:	d8811b15 	stw	r2,1132(sp)
   2d684:	014001c4 	movi	r5,7
   2d688:	2880aa16 	blt	r5,r2,2d934 <___vfiprintf_internal_r+0xe80>
   2d68c:	100b883a 	mov	r5,r2
   2d690:	42000204 	addi	r8,r8,8
   2d694:	10800044 	addi	r2,r2,1
   2d698:	003e4006 	br	2cf9c <__alt_data_end+0xfffecf9c>
   2d69c:	d9012017 	ldw	r4,1152(sp)
   2d6a0:	a00b883a 	mov	r5,r20
   2d6a4:	d9811a04 	addi	r6,sp,1128
   2d6a8:	d9c12a15 	stw	r7,1192(sp)
   2d6ac:	db012b15 	stw	r12,1196(sp)
   2d6b0:	002c9a00 	call	2c9a0 <__sprint_r.part.0>
   2d6b4:	d9c12a17 	ldw	r7,1192(sp)
   2d6b8:	db012b17 	ldw	r12,1196(sp)
   2d6bc:	1000371e 	bne	r2,zero,2d79c <___vfiprintf_internal_r+0xce8>
   2d6c0:	d9411b17 	ldw	r5,1132(sp)
   2d6c4:	d8c11c17 	ldw	r3,1136(sp)
   2d6c8:	d811883a 	mov	r8,sp
   2d6cc:	28800044 	addi	r2,r5,1
   2d6d0:	003e4d06 	br	2d008 <__alt_data_end+0xfffed008>
   2d6d4:	10803fcc 	andi	r2,r2,255
   2d6d8:	00c00044 	movi	r3,1
   2d6dc:	10fddf1e 	bne	r2,r3,2ce5c <__alt_data_end+0xfffece5c>
   2d6e0:	b000021e 	bne	r22,zero,2d6ec <___vfiprintf_internal_r+0xc38>
   2d6e4:	00800244 	movi	r2,9
   2d6e8:	1480202e 	bgeu	r2,r18,2d76c <___vfiprintf_internal_r+0xcb8>
   2d6ec:	dc012515 	stw	r16,1172(sp)
   2d6f0:	dc410a04 	addi	r17,sp,1064
   2d6f4:	9021883a 	mov	r16,r18
   2d6f8:	da012415 	stw	r8,1168(sp)
   2d6fc:	b025883a 	mov	r18,r22
   2d700:	da412315 	stw	r9,1164(sp)
   2d704:	602d883a 	mov	r22,r12
   2d708:	8009883a 	mov	r4,r16
   2d70c:	900b883a 	mov	r5,r18
   2d710:	01800284 	movi	r6,10
   2d714:	000f883a 	mov	r7,zero
   2d718:	002ed2c0 	call	2ed2c <__umoddi3>
   2d71c:	10800c04 	addi	r2,r2,48
   2d720:	8c7fffc4 	addi	r17,r17,-1
   2d724:	8009883a 	mov	r4,r16
   2d728:	900b883a 	mov	r5,r18
   2d72c:	01800284 	movi	r6,10
   2d730:	000f883a 	mov	r7,zero
   2d734:	88800005 	stb	r2,0(r17)
   2d738:	002e76c0 	call	2e76c <__udivdi3>
   2d73c:	1021883a 	mov	r16,r2
   2d740:	10c4b03a 	or	r2,r2,r3
   2d744:	1825883a 	mov	r18,r3
   2d748:	103fef1e 	bne	r2,zero,2d708 <__alt_data_end+0xfffed708>
   2d74c:	da811e17 	ldw	r10,1144(sp)
   2d750:	da012417 	ldw	r8,1168(sp)
   2d754:	da412317 	ldw	r9,1164(sp)
   2d758:	dc412415 	stw	r17,1168(sp)
   2d75c:	b019883a 	mov	r12,r22
   2d760:	dc012517 	ldw	r16,1172(sp)
   2d764:	5463c83a 	sub	r17,r10,r17
   2d768:	003dce06 	br	2cea4 <__alt_data_end+0xfffecea4>
   2d76c:	94800c04 	addi	r18,r18,48
   2d770:	d8c109c4 	addi	r3,sp,1063
   2d774:	dc8109c5 	stb	r18,1063(sp)
   2d778:	dc412717 	ldw	r17,1180(sp)
   2d77c:	d8c12415 	stw	r3,1168(sp)
   2d780:	003dc806 	br	2cea4 <__alt_data_end+0xfffecea4>
   2d784:	d8811c17 	ldw	r2,1136(sp)
   2d788:	10000426 	beq	r2,zero,2d79c <___vfiprintf_internal_r+0xce8>
   2d78c:	d9012017 	ldw	r4,1152(sp)
   2d790:	a00b883a 	mov	r5,r20
   2d794:	d9811a04 	addi	r6,sp,1128
   2d798:	002c9a00 	call	2c9a0 <__sprint_r.part.0>
   2d79c:	a080030b 	ldhu	r2,12(r20)
   2d7a0:	1080100c 	andi	r2,r2,64
   2d7a4:	103e9b1e 	bne	r2,zero,2d214 <__alt_data_end+0xfffed214>
   2d7a8:	d8812217 	ldw	r2,1160(sp)
   2d7ac:	003e9a06 	br	2d218 <__alt_data_end+0xfffed218>
   2d7b0:	d9012017 	ldw	r4,1152(sp)
   2d7b4:	a00b883a 	mov	r5,r20
   2d7b8:	d9811a04 	addi	r6,sp,1128
   2d7bc:	002c9a00 	call	2c9a0 <__sprint_r.part.0>
   2d7c0:	103ff61e 	bne	r2,zero,2d79c <__alt_data_end+0xfffed79c>
   2d7c4:	d9011b17 	ldw	r4,1132(sp)
   2d7c8:	d8c11c17 	ldw	r3,1136(sp)
   2d7cc:	d811883a 	mov	r8,sp
   2d7d0:	21400044 	addi	r5,r4,1
   2d7d4:	003e4006 	br	2d0d8 <__alt_data_end+0xfffed0d8>
   2d7d8:	1800d61e 	bne	r3,zero,2db34 <___vfiprintf_internal_r+0x1080>
   2d7dc:	dac12417 	ldw	r11,1168(sp)
   2d7e0:	00800044 	movi	r2,1
   2d7e4:	dc400115 	stw	r17,4(sp)
   2d7e8:	dac00015 	stw	r11,0(sp)
   2d7ec:	dc411c15 	stw	r17,1136(sp)
   2d7f0:	d8811b15 	stw	r2,1132(sp)
   2d7f4:	8807883a 	mov	r3,r17
   2d7f8:	d811883a 	mov	r8,sp
   2d7fc:	42000204 	addi	r8,r8,8
   2d800:	aac0010c 	andi	r11,r21,4
   2d804:	58000226 	beq	r11,zero,2d810 <___vfiprintf_internal_r+0xd5c>
   2d808:	9ca3c83a 	sub	r17,r19,r18
   2d80c:	047e2616 	blt	zero,r17,2d0a8 <__alt_data_end+0xfffed0a8>
   2d810:	94c0010e 	bge	r18,r19,2d818 <___vfiprintf_internal_r+0xd64>
   2d814:	9825883a 	mov	r18,r19
   2d818:	da812217 	ldw	r10,1160(sp)
   2d81c:	5495883a 	add	r10,r10,r18
   2d820:	da812215 	stw	r10,1160(sp)
   2d824:	183e4826 	beq	r3,zero,2d148 <__alt_data_end+0xfffed148>
   2d828:	d9012017 	ldw	r4,1152(sp)
   2d82c:	a00b883a 	mov	r5,r20
   2d830:	d9811a04 	addi	r6,sp,1128
   2d834:	002c9a00 	call	2c9a0 <__sprint_r.part.0>
   2d838:	103e4326 	beq	r2,zero,2d148 <__alt_data_end+0xfffed148>
   2d83c:	003fd706 	br	2d79c <__alt_data_end+0xfffed79c>
   2d840:	9cadc83a 	sub	r22,r19,r18
   2d844:	05bde40e 	bge	zero,r22,2cfd8 <__alt_data_end+0xfffecfd8>
   2d848:	03000404 	movi	r12,16
   2d84c:	6581500e 	bge	r12,r22,2dd90 <___vfiprintf_internal_r+0x12dc>
   2d850:	008000f4 	movhi	r2,3
   2d854:	10937c04 	addi	r2,r2,19952
   2d858:	d8812315 	stw	r2,1164(sp)
   2d85c:	8005883a 	mov	r2,r16
   2d860:	038001c4 	movi	r14,7
   2d864:	b021883a 	mov	r16,r22
   2d868:	da412515 	stw	r9,1172(sp)
   2d86c:	102d883a 	mov	r22,r2
   2d870:	00000506 	br	2d888 <___vfiprintf_internal_r+0xdd4>
   2d874:	29000084 	addi	r4,r5,2
   2d878:	42000204 	addi	r8,r8,8
   2d87c:	100b883a 	mov	r5,r2
   2d880:	843ffc04 	addi	r16,r16,-16
   2d884:	64000d0e 	bge	r12,r16,2d8bc <___vfiprintf_internal_r+0xe08>
   2d888:	18c00404 	addi	r3,r3,16
   2d88c:	28800044 	addi	r2,r5,1
   2d890:	45c00015 	stw	r23,0(r8)
   2d894:	43000115 	stw	r12,4(r8)
   2d898:	d8c11c15 	stw	r3,1136(sp)
   2d89c:	d8811b15 	stw	r2,1132(sp)
   2d8a0:	70bff40e 	bge	r14,r2,2d874 <__alt_data_end+0xfffed874>
   2d8a4:	1800151e 	bne	r3,zero,2d8fc <___vfiprintf_internal_r+0xe48>
   2d8a8:	843ffc04 	addi	r16,r16,-16
   2d8ac:	000b883a 	mov	r5,zero
   2d8b0:	01000044 	movi	r4,1
   2d8b4:	d811883a 	mov	r8,sp
   2d8b8:	643ff316 	blt	r12,r16,2d888 <__alt_data_end+0xfffed888>
   2d8bc:	da412517 	ldw	r9,1172(sp)
   2d8c0:	b005883a 	mov	r2,r22
   2d8c4:	802d883a 	mov	r22,r16
   2d8c8:	1021883a 	mov	r16,r2
   2d8cc:	da812317 	ldw	r10,1164(sp)
   2d8d0:	1d87883a 	add	r3,r3,r22
   2d8d4:	45800115 	stw	r22,4(r8)
   2d8d8:	42800015 	stw	r10,0(r8)
   2d8dc:	d8c11c15 	stw	r3,1136(sp)
   2d8e0:	d9011b15 	stw	r4,1132(sp)
   2d8e4:	008001c4 	movi	r2,7
   2d8e8:	11008d16 	blt	r2,r4,2db20 <___vfiprintf_internal_r+0x106c>
   2d8ec:	42000204 	addi	r8,r8,8
   2d8f0:	20800044 	addi	r2,r4,1
   2d8f4:	200b883a 	mov	r5,r4
   2d8f8:	003db706 	br	2cfd8 <__alt_data_end+0xfffecfd8>
   2d8fc:	d9012017 	ldw	r4,1152(sp)
   2d900:	a00b883a 	mov	r5,r20
   2d904:	d9811a04 	addi	r6,sp,1128
   2d908:	db012b15 	stw	r12,1196(sp)
   2d90c:	db812a15 	stw	r14,1192(sp)
   2d910:	002c9a00 	call	2c9a0 <__sprint_r.part.0>
   2d914:	db012b17 	ldw	r12,1196(sp)
   2d918:	db812a17 	ldw	r14,1192(sp)
   2d91c:	103f9f1e 	bne	r2,zero,2d79c <__alt_data_end+0xfffed79c>
   2d920:	d9411b17 	ldw	r5,1132(sp)
   2d924:	d8c11c17 	ldw	r3,1136(sp)
   2d928:	d811883a 	mov	r8,sp
   2d92c:	29000044 	addi	r4,r5,1
   2d930:	003fd306 	br	2d880 <__alt_data_end+0xfffed880>
   2d934:	18006c1e 	bne	r3,zero,2dae8 <___vfiprintf_internal_r+0x1034>
   2d938:	70004f26 	beq	r14,zero,2da78 <___vfiprintf_internal_r+0xfc4>
   2d93c:	d8811d04 	addi	r2,sp,1140
   2d940:	00c00084 	movi	r3,2
   2d944:	d8800015 	stw	r2,0(sp)
   2d948:	d8c00115 	stw	r3,4(sp)
   2d94c:	2005883a 	mov	r2,r4
   2d950:	d811883a 	mov	r8,sp
   2d954:	003d9b06 	br	2cfc4 <__alt_data_end+0xfffecfc4>
   2d958:	1800571e 	bne	r3,zero,2dab8 <___vfiprintf_internal_r+0x1004>
   2d95c:	000b883a 	mov	r5,zero
   2d960:	00800044 	movi	r2,1
   2d964:	d811883a 	mov	r8,sp
   2d968:	003d9906 	br	2cfd0 <__alt_data_end+0xfffecfd0>
   2d96c:	10803fcc 	andi	r2,r2,255
   2d970:	1000251e 	bne	r2,zero,2da08 <___vfiprintf_internal_r+0xf54>
   2d974:	a880004c 	andi	r2,r21,1
   2d978:	10007826 	beq	r2,zero,2db5c <___vfiprintf_internal_r+0x10a8>
   2d97c:	00800c04 	movi	r2,48
   2d980:	d8c109c4 	addi	r3,sp,1063
   2d984:	d88109c5 	stb	r2,1063(sp)
   2d988:	dc412717 	ldw	r17,1180(sp)
   2d98c:	d8c12415 	stw	r3,1168(sp)
   2d990:	003d4406 	br	2cea4 <__alt_data_end+0xfffecea4>
   2d994:	d9012617 	ldw	r4,1176(sp)
   2d998:	dc410a04 	addi	r17,sp,1064
   2d99c:	908003cc 	andi	r2,r18,15
   2d9a0:	b006973a 	slli	r3,r22,28
   2d9a4:	2085883a 	add	r2,r4,r2
   2d9a8:	9024d13a 	srli	r18,r18,4
   2d9ac:	10800003 	ldbu	r2,0(r2)
   2d9b0:	b02cd13a 	srli	r22,r22,4
   2d9b4:	8c7fffc4 	addi	r17,r17,-1
   2d9b8:	1ca4b03a 	or	r18,r3,r18
   2d9bc:	88800005 	stb	r2,0(r17)
   2d9c0:	9584b03a 	or	r2,r18,r22
   2d9c4:	103ff51e 	bne	r2,zero,2d99c <__alt_data_end+0xfffed99c>
   2d9c8:	dac11e17 	ldw	r11,1144(sp)
   2d9cc:	dc412415 	stw	r17,1168(sp)
   2d9d0:	5c63c83a 	sub	r17,r11,r17
   2d9d4:	003d3306 	br	2cea4 <__alt_data_end+0xfffecea4>
   2d9d8:	1800941e 	bne	r3,zero,2dc2c <___vfiprintf_internal_r+0x1178>
   2d9dc:	d8811d87 	ldb	r2,1142(sp)
   2d9e0:	10006b26 	beq	r2,zero,2db90 <___vfiprintf_internal_r+0x10dc>
   2d9e4:	00c00044 	movi	r3,1
   2d9e8:	d9011d84 	addi	r4,sp,1142
   2d9ec:	1805883a 	mov	r2,r3
   2d9f0:	d9000015 	stw	r4,0(sp)
   2d9f4:	d8c00115 	stw	r3,4(sp)
   2d9f8:	d811883a 	mov	r8,sp
   2d9fc:	003f2306 	br	2d68c <__alt_data_end+0xfffed68c>
   2da00:	8023883a 	mov	r17,r16
   2da04:	003c7d06 	br	2cbfc <__alt_data_end+0xfffecbfc>
   2da08:	da810a04 	addi	r10,sp,1064
   2da0c:	da812415 	stw	r10,1168(sp)
   2da10:	003d2406 	br	2cea4 <__alt_data_end+0xfffecea4>
   2da14:	d9012017 	ldw	r4,1152(sp)
   2da18:	a00b883a 	mov	r5,r20
   2da1c:	d9811a04 	addi	r6,sp,1128
   2da20:	002c9a00 	call	2c9a0 <__sprint_r.part.0>
   2da24:	103f5d1e 	bne	r2,zero,2d79c <__alt_data_end+0xfffed79c>
   2da28:	d8c11c17 	ldw	r3,1136(sp)
   2da2c:	d811883a 	mov	r8,sp
   2da30:	003f7306 	br	2d800 <__alt_data_end+0xfffed800>
   2da34:	1c800017 	ldw	r18,0(r3)
   2da38:	dac12117 	ldw	r11,1156(sp)
   2da3c:	902dd7fa 	srai	r22,r18,31
   2da40:	5ac00104 	addi	r11,r11,4
   2da44:	dac12115 	stw	r11,1156(sp)
   2da48:	b005883a 	mov	r2,r22
   2da4c:	003e5406 	br	2d3a0 <__alt_data_end+0xfffed3a0>
   2da50:	00800084 	movi	r2,2
   2da54:	9588b03a 	or	r4,r18,r22
   2da58:	003cf506 	br	2ce30 <__alt_data_end+0xfffece30>
   2da5c:	d9012017 	ldw	r4,1152(sp)
   2da60:	a00b883a 	mov	r5,r20
   2da64:	d9811a04 	addi	r6,sp,1128
   2da68:	002c9a00 	call	2c9a0 <__sprint_r.part.0>
   2da6c:	103f4b1e 	bne	r2,zero,2d79c <__alt_data_end+0xfffed79c>
   2da70:	d811883a 	mov	r8,sp
   2da74:	003cd106 	br	2cdbc <__alt_data_end+0xfffecdbc>
   2da78:	000b883a 	mov	r5,zero
   2da7c:	2005883a 	mov	r2,r4
   2da80:	d811883a 	mov	r8,sp
   2da84:	003d5206 	br	2cfd0 <__alt_data_end+0xfffecfd0>
   2da88:	10803fcc 	andi	r2,r2,255
   2da8c:	1080201c 	xori	r2,r2,128
   2da90:	10bfe004 	addi	r2,r2,-128
   2da94:	01000c04 	movi	r4,48
   2da98:	11008e26 	beq	r2,r4,2dcd4 <___vfiprintf_internal_r+0x1220>
   2da9c:	da812417 	ldw	r10,1168(sp)
   2daa0:	dac11e17 	ldw	r11,1144(sp)
   2daa4:	193fffc5 	stb	r4,-1(r3)
   2daa8:	52bfffc4 	addi	r10,r10,-1
   2daac:	da812415 	stw	r10,1168(sp)
   2dab0:	5aa3c83a 	sub	r17,r11,r10
   2dab4:	003cfb06 	br	2cea4 <__alt_data_end+0xfffecea4>
   2dab8:	d9012017 	ldw	r4,1152(sp)
   2dabc:	a00b883a 	mov	r5,r20
   2dac0:	d9811a04 	addi	r6,sp,1128
   2dac4:	da412b15 	stw	r9,1196(sp)
   2dac8:	002c9a00 	call	2c9a0 <__sprint_r.part.0>
   2dacc:	da412b17 	ldw	r9,1196(sp)
   2dad0:	103f321e 	bne	r2,zero,2d79c <__alt_data_end+0xfffed79c>
   2dad4:	d9411b17 	ldw	r5,1132(sp)
   2dad8:	d8c11c17 	ldw	r3,1136(sp)
   2dadc:	d811883a 	mov	r8,sp
   2dae0:	28800044 	addi	r2,r5,1
   2dae4:	003d3a06 	br	2cfd0 <__alt_data_end+0xfffecfd0>
   2dae8:	d9012017 	ldw	r4,1152(sp)
   2daec:	a00b883a 	mov	r5,r20
   2daf0:	d9811a04 	addi	r6,sp,1128
   2daf4:	da412b15 	stw	r9,1196(sp)
   2daf8:	db812a15 	stw	r14,1192(sp)
   2dafc:	002c9a00 	call	2c9a0 <__sprint_r.part.0>
   2db00:	da412b17 	ldw	r9,1196(sp)
   2db04:	db812a17 	ldw	r14,1192(sp)
   2db08:	103f241e 	bne	r2,zero,2d79c <__alt_data_end+0xfffed79c>
   2db0c:	d9411b17 	ldw	r5,1132(sp)
   2db10:	d8c11c17 	ldw	r3,1136(sp)
   2db14:	d811883a 	mov	r8,sp
   2db18:	28800044 	addi	r2,r5,1
   2db1c:	003d1f06 	br	2cf9c <__alt_data_end+0xfffecf9c>
   2db20:	1800781e 	bne	r3,zero,2dd04 <___vfiprintf_internal_r+0x1250>
   2db24:	000b883a 	mov	r5,zero
   2db28:	00800044 	movi	r2,1
   2db2c:	d811883a 	mov	r8,sp
   2db30:	003d2906 	br	2cfd8 <__alt_data_end+0xfffecfd8>
   2db34:	d9012017 	ldw	r4,1152(sp)
   2db38:	a00b883a 	mov	r5,r20
   2db3c:	d9811a04 	addi	r6,sp,1128
   2db40:	002c9a00 	call	2c9a0 <__sprint_r.part.0>
   2db44:	103f151e 	bne	r2,zero,2d79c <__alt_data_end+0xfffed79c>
   2db48:	d8811b17 	ldw	r2,1132(sp)
   2db4c:	d8c11c17 	ldw	r3,1136(sp)
   2db50:	d811883a 	mov	r8,sp
   2db54:	10800044 	addi	r2,r2,1
   2db58:	003d4406 	br	2d06c <__alt_data_end+0xfffed06c>
   2db5c:	dac10a04 	addi	r11,sp,1064
   2db60:	dac12415 	stw	r11,1168(sp)
   2db64:	003ccf06 	br	2cea4 <__alt_data_end+0xfffecea4>
   2db68:	04a5c83a 	sub	r18,zero,r18
   2db6c:	9004c03a 	cmpne	r2,r18,zero
   2db70:	05adc83a 	sub	r22,zero,r22
   2db74:	b0adc83a 	sub	r22,r22,r2
   2db78:	03000b44 	movi	r12,45
   2db7c:	db011d85 	stb	r12,1142(sp)
   2db80:	4823883a 	mov	r17,r9
   2db84:	00800044 	movi	r2,1
   2db88:	9588b03a 	or	r4,r18,r22
   2db8c:	003cab06 	br	2ce3c <__alt_data_end+0xfffece3c>
   2db90:	000b883a 	mov	r5,zero
   2db94:	00800044 	movi	r2,1
   2db98:	d811883a 	mov	r8,sp
   2db9c:	703d0c26 	beq	r14,zero,2cfd0 <__alt_data_end+0xfffecfd0>
   2dba0:	00c00084 	movi	r3,2
   2dba4:	d9011d04 	addi	r4,sp,1140
   2dba8:	d9000015 	stw	r4,0(sp)
   2dbac:	d8c00115 	stw	r3,4(sp)
   2dbb0:	003d0406 	br	2cfc4 <__alt_data_end+0xfffecfc4>
   2dbb4:	80c00007 	ldb	r3,0(r16)
   2dbb8:	003c1d06 	br	2cc30 <__alt_data_end+0xfffecc30>
   2dbbc:	a880040c 	andi	r2,r21,16
   2dbc0:	1000091e 	bne	r2,zero,2dbe8 <___vfiprintf_internal_r+0x1134>
   2dbc4:	aac0100c 	andi	r11,r21,64
   2dbc8:	58000726 	beq	r11,zero,2dbe8 <___vfiprintf_internal_r+0x1134>
   2dbcc:	da812117 	ldw	r10,1156(sp)
   2dbd0:	dac12217 	ldw	r11,1160(sp)
   2dbd4:	50800017 	ldw	r2,0(r10)
   2dbd8:	52800104 	addi	r10,r10,4
   2dbdc:	da812115 	stw	r10,1156(sp)
   2dbe0:	12c0000d 	sth	r11,0(r2)
   2dbe4:	003be806 	br	2cb88 <__alt_data_end+0xfffecb88>
   2dbe8:	da812117 	ldw	r10,1156(sp)
   2dbec:	dac12217 	ldw	r11,1160(sp)
   2dbf0:	50800017 	ldw	r2,0(r10)
   2dbf4:	52800104 	addi	r10,r10,4
   2dbf8:	da812115 	stw	r10,1156(sp)
   2dbfc:	12c00015 	stw	r11,0(r2)
   2dc00:	003be106 	br	2cb88 <__alt_data_end+0xfffecb88>
   2dc04:	00800084 	movi	r2,2
   2dc08:	003c8906 	br	2ce30 <__alt_data_end+0xfffece30>
   2dc0c:	a900100c 	andi	r4,r21,64
   2dc10:	20001f26 	beq	r4,zero,2dc90 <___vfiprintf_internal_r+0x11dc>
   2dc14:	da812117 	ldw	r10,1156(sp)
   2dc18:	1480000b 	ldhu	r18,0(r2)
   2dc1c:	002d883a 	mov	r22,zero
   2dc20:	52800104 	addi	r10,r10,4
   2dc24:	da812115 	stw	r10,1156(sp)
   2dc28:	003dae06 	br	2d2e4 <__alt_data_end+0xfffed2e4>
   2dc2c:	d9012017 	ldw	r4,1152(sp)
   2dc30:	a00b883a 	mov	r5,r20
   2dc34:	d9811a04 	addi	r6,sp,1128
   2dc38:	da412b15 	stw	r9,1196(sp)
   2dc3c:	db812a15 	stw	r14,1192(sp)
   2dc40:	002c9a00 	call	2c9a0 <__sprint_r.part.0>
   2dc44:	da412b17 	ldw	r9,1196(sp)
   2dc48:	db812a17 	ldw	r14,1192(sp)
   2dc4c:	103ed31e 	bne	r2,zero,2d79c <__alt_data_end+0xfffed79c>
   2dc50:	d9411b17 	ldw	r5,1132(sp)
   2dc54:	d8c11c17 	ldw	r3,1136(sp)
   2dc58:	d811883a 	mov	r8,sp
   2dc5c:	28800044 	addi	r2,r5,1
   2dc60:	003e7f06 	br	2d660 <__alt_data_end+0xfffed660>
   2dc64:	9825883a 	mov	r18,r19
   2dc68:	003d3406 	br	2d13c <__alt_data_end+0xfffed13c>
   2dc6c:	4823883a 	mov	r17,r9
   2dc70:	003e0806 	br	2d494 <__alt_data_end+0xfffed494>
   2dc74:	d9012017 	ldw	r4,1152(sp)
   2dc78:	a00b883a 	mov	r5,r20
   2dc7c:	d9811a04 	addi	r6,sp,1128
   2dc80:	002c9a00 	call	2c9a0 <__sprint_r.part.0>
   2dc84:	103ec51e 	bne	r2,zero,2d79c <__alt_data_end+0xfffed79c>
   2dc88:	d8c11c17 	ldw	r3,1136(sp)
   2dc8c:	003ee006 	br	2d810 <__alt_data_end+0xfffed810>
   2dc90:	dac12117 	ldw	r11,1156(sp)
   2dc94:	14800017 	ldw	r18,0(r2)
   2dc98:	002d883a 	mov	r22,zero
   2dc9c:	5ac00104 	addi	r11,r11,4
   2dca0:	dac12115 	stw	r11,1156(sp)
   2dca4:	003d8f06 	br	2d2e4 <__alt_data_end+0xfffed2e4>
   2dca8:	02c000f4 	movhi	r11,3
   2dcac:	5ad37c04 	addi	r11,r11,19952
   2dcb0:	dac12315 	stw	r11,1164(sp)
   2dcb4:	003ce306 	br	2d044 <__alt_data_end+0xfffed044>
   2dcb8:	80c00043 	ldbu	r3,1(r16)
   2dcbc:	ad400814 	ori	r21,r21,32
   2dcc0:	84000044 	addi	r16,r16,1
   2dcc4:	18c03fcc 	andi	r3,r3,255
   2dcc8:	18c0201c 	xori	r3,r3,128
   2dccc:	18ffe004 	addi	r3,r3,-128
   2dcd0:	003bd706 	br	2cc30 <__alt_data_end+0xfffecc30>
   2dcd4:	dac11e17 	ldw	r11,1144(sp)
   2dcd8:	d8c12417 	ldw	r3,1168(sp)
   2dcdc:	58e3c83a 	sub	r17,r11,r3
   2dce0:	003c7006 	br	2cea4 <__alt_data_end+0xfffecea4>
   2dce4:	da012a15 	stw	r8,1192(sp)
   2dce8:	0025f740 	call	25f74 <strlen>
   2dcec:	1023883a 	mov	r17,r2
   2dcf0:	db011d83 	ldbu	r12,1142(sp)
   2dcf4:	dd812115 	stw	r22,1156(sp)
   2dcf8:	0013883a 	mov	r9,zero
   2dcfc:	da012a17 	ldw	r8,1192(sp)
   2dd00:	003c6806 	br	2cea4 <__alt_data_end+0xfffecea4>
   2dd04:	d9012017 	ldw	r4,1152(sp)
   2dd08:	a00b883a 	mov	r5,r20
   2dd0c:	d9811a04 	addi	r6,sp,1128
   2dd10:	da412b15 	stw	r9,1196(sp)
   2dd14:	002c9a00 	call	2c9a0 <__sprint_r.part.0>
   2dd18:	da412b17 	ldw	r9,1196(sp)
   2dd1c:	103e9f1e 	bne	r2,zero,2d79c <__alt_data_end+0xfffed79c>
   2dd20:	d9411b17 	ldw	r5,1132(sp)
   2dd24:	d8c11c17 	ldw	r3,1136(sp)
   2dd28:	d811883a 	mov	r8,sp
   2dd2c:	28800044 	addi	r2,r5,1
   2dd30:	003ca906 	br	2cfd8 <__alt_data_end+0xfffecfd8>
   2dd34:	d9411b17 	ldw	r5,1132(sp)
   2dd38:	010000f4 	movhi	r4,3
   2dd3c:	21138004 	addi	r4,r4,19968
   2dd40:	d9012315 	stw	r4,1164(sp)
   2dd44:	29400044 	addi	r5,r5,1
   2dd48:	003c8806 	br	2cf6c <__alt_data_end+0xfffecf6c>
   2dd4c:	00800184 	movi	r2,6
   2dd50:	1240012e 	bgeu	r2,r9,2dd58 <___vfiprintf_internal_r+0x12a4>
   2dd54:	1013883a 	mov	r9,r2
   2dd58:	4823883a 	mov	r17,r9
   2dd5c:	4825883a 	mov	r18,r9
   2dd60:	48001516 	blt	r9,zero,2ddb8 <___vfiprintf_internal_r+0x1304>
   2dd64:	008000f4 	movhi	r2,3
   2dd68:	10932004 	addi	r2,r2,19584
   2dd6c:	dd812115 	stw	r22,1156(sp)
   2dd70:	d8812415 	stw	r2,1168(sp)
   2dd74:	003d6f06 	br	2d334 <__alt_data_end+0xfffed334>
   2dd78:	d9411b17 	ldw	r5,1132(sp)
   2dd7c:	02c000f4 	movhi	r11,3
   2dd80:	5ad38004 	addi	r11,r11,19968
   2dd84:	dac12315 	stw	r11,1164(sp)
   2dd88:	29400044 	addi	r5,r5,1
   2dd8c:	003ce106 	br	2d114 <__alt_data_end+0xfffed114>
   2dd90:	010000f4 	movhi	r4,3
   2dd94:	21137c04 	addi	r4,r4,19952
   2dd98:	d9012315 	stw	r4,1164(sp)
   2dd9c:	1009883a 	mov	r4,r2
   2dda0:	003eca06 	br	2d8cc <__alt_data_end+0xfffed8cc>
   2dda4:	4823883a 	mov	r17,r9
   2dda8:	db011d83 	ldbu	r12,1142(sp)
   2ddac:	dd812115 	stw	r22,1156(sp)
   2ddb0:	0013883a 	mov	r9,zero
   2ddb4:	003c3b06 	br	2cea4 <__alt_data_end+0xfffecea4>
   2ddb8:	0025883a 	mov	r18,zero
   2ddbc:	003fe906 	br	2dd64 <__alt_data_end+0xfffedd64>
   2ddc0:	dac12117 	ldw	r11,1156(sp)
   2ddc4:	8005883a 	mov	r2,r16
   2ddc8:	5021883a 	mov	r16,r10
   2ddcc:	5a400017 	ldw	r9,0(r11)
   2ddd0:	58c00104 	addi	r3,r11,4
   2ddd4:	d8c12115 	stw	r3,1156(sp)
   2ddd8:	48000a16 	blt	r9,zero,2de04 <___vfiprintf_internal_r+0x1350>
   2dddc:	10c00047 	ldb	r3,1(r2)
   2dde0:	003b9306 	br	2cc30 <__alt_data_end+0xfffecc30>
   2dde4:	043fffc4 	movi	r16,-1
   2dde8:	003d0206 	br	2d1f4 <__alt_data_end+0xfffed1f4>
   2ddec:	94c0010e 	bge	r18,r19,2ddf4 <___vfiprintf_internal_r+0x1340>
   2ddf0:	9825883a 	mov	r18,r19
   2ddf4:	da812217 	ldw	r10,1160(sp)
   2ddf8:	5495883a 	add	r10,r10,r18
   2ddfc:	da812215 	stw	r10,1160(sp)
   2de00:	003cd106 	br	2d148 <__alt_data_end+0xfffed148>
   2de04:	027fffc4 	movi	r9,-1
   2de08:	10c00047 	ldb	r3,1(r2)
   2de0c:	003b8806 	br	2cc30 <__alt_data_end+0xfffecc30>

0002de10 <__vfiprintf_internal>:
   2de10:	2007883a 	mov	r3,r4
   2de14:	010000f4 	movhi	r4,3
   2de18:	211c2604 	addi	r4,r4,28824
   2de1c:	21000017 	ldw	r4,0(r4)
   2de20:	2805883a 	mov	r2,r5
   2de24:	300f883a 	mov	r7,r6
   2de28:	180b883a 	mov	r5,r3
   2de2c:	100d883a 	mov	r6,r2
   2de30:	002cab41 	jmpi	2cab4 <___vfiprintf_internal_r>

0002de34 <__swbuf_r>:
   2de34:	defffc04 	addi	sp,sp,-16
   2de38:	dc800215 	stw	r18,8(sp)
   2de3c:	dc400115 	stw	r17,4(sp)
   2de40:	dc000015 	stw	r16,0(sp)
   2de44:	dfc00315 	stw	ra,12(sp)
   2de48:	2025883a 	mov	r18,r4
   2de4c:	2823883a 	mov	r17,r5
   2de50:	3021883a 	mov	r16,r6
   2de54:	20000226 	beq	r4,zero,2de60 <__swbuf_r+0x2c>
   2de58:	20800e17 	ldw	r2,56(r4)
   2de5c:	10004126 	beq	r2,zero,2df64 <__swbuf_r+0x130>
   2de60:	80c00617 	ldw	r3,24(r16)
   2de64:	8180030b 	ldhu	r6,12(r16)
   2de68:	80c00215 	stw	r3,8(r16)
   2de6c:	30c0020c 	andi	r3,r6,8
   2de70:	18003526 	beq	r3,zero,2df48 <__swbuf_r+0x114>
   2de74:	80c00417 	ldw	r3,16(r16)
   2de78:	18003326 	beq	r3,zero,2df48 <__swbuf_r+0x114>
   2de7c:	3088000c 	andi	r2,r6,8192
   2de80:	8c403fcc 	andi	r17,r17,255
   2de84:	10001726 	beq	r2,zero,2dee4 <__swbuf_r+0xb0>
   2de88:	80800017 	ldw	r2,0(r16)
   2de8c:	81000517 	ldw	r4,20(r16)
   2de90:	10c7c83a 	sub	r3,r2,r3
   2de94:	19001d0e 	bge	r3,r4,2df0c <__swbuf_r+0xd8>
   2de98:	18c00044 	addi	r3,r3,1
   2de9c:	81400217 	ldw	r5,8(r16)
   2dea0:	11000044 	addi	r4,r2,1
   2dea4:	81000015 	stw	r4,0(r16)
   2dea8:	297fffc4 	addi	r5,r5,-1
   2deac:	81400215 	stw	r5,8(r16)
   2deb0:	14400005 	stb	r17,0(r2)
   2deb4:	80800517 	ldw	r2,20(r16)
   2deb8:	10c01d26 	beq	r2,r3,2df30 <__swbuf_r+0xfc>
   2debc:	8080030b 	ldhu	r2,12(r16)
   2dec0:	1080004c 	andi	r2,r2,1
   2dec4:	1000181e 	bne	r2,zero,2df28 <__swbuf_r+0xf4>
   2dec8:	8805883a 	mov	r2,r17
   2decc:	dfc00317 	ldw	ra,12(sp)
   2ded0:	dc800217 	ldw	r18,8(sp)
   2ded4:	dc400117 	ldw	r17,4(sp)
   2ded8:	dc000017 	ldw	r16,0(sp)
   2dedc:	dec00404 	addi	sp,sp,16
   2dee0:	f800283a 	ret
   2dee4:	81001917 	ldw	r4,100(r16)
   2dee8:	00b7ffc4 	movi	r2,-8193
   2deec:	31880014 	ori	r6,r6,8192
   2def0:	2084703a 	and	r2,r4,r2
   2def4:	80801915 	stw	r2,100(r16)
   2def8:	80800017 	ldw	r2,0(r16)
   2defc:	81000517 	ldw	r4,20(r16)
   2df00:	8180030d 	sth	r6,12(r16)
   2df04:	10c7c83a 	sub	r3,r2,r3
   2df08:	193fe316 	blt	r3,r4,2de98 <__alt_data_end+0xfffede98>
   2df0c:	9009883a 	mov	r4,r18
   2df10:	800b883a 	mov	r5,r16
   2df14:	0029a840 	call	29a84 <_fflush_r>
   2df18:	1000091e 	bne	r2,zero,2df40 <__swbuf_r+0x10c>
   2df1c:	80800017 	ldw	r2,0(r16)
   2df20:	00c00044 	movi	r3,1
   2df24:	003fdd06 	br	2de9c <__alt_data_end+0xfffede9c>
   2df28:	00800284 	movi	r2,10
   2df2c:	88bfe61e 	bne	r17,r2,2dec8 <__alt_data_end+0xfffedec8>
   2df30:	9009883a 	mov	r4,r18
   2df34:	800b883a 	mov	r5,r16
   2df38:	0029a840 	call	29a84 <_fflush_r>
   2df3c:	103fe226 	beq	r2,zero,2dec8 <__alt_data_end+0xfffedec8>
   2df40:	00bfffc4 	movi	r2,-1
   2df44:	003fe106 	br	2decc <__alt_data_end+0xfffedecc>
   2df48:	9009883a 	mov	r4,r18
   2df4c:	800b883a 	mov	r5,r16
   2df50:	002802c0 	call	2802c <__swsetup_r>
   2df54:	1000051e 	bne	r2,zero,2df6c <__swbuf_r+0x138>
   2df58:	8180030b 	ldhu	r6,12(r16)
   2df5c:	80c00417 	ldw	r3,16(r16)
   2df60:	003fc606 	br	2de7c <__alt_data_end+0xfffede7c>
   2df64:	002a02c0 	call	2a02c <__sinit>
   2df68:	003fbd06 	br	2de60 <__alt_data_end+0xfffede60>
   2df6c:	80c0030b 	ldhu	r3,12(r16)
   2df70:	00bfffc4 	movi	r2,-1
   2df74:	18c01014 	ori	r3,r3,64
   2df78:	80c0030d 	sth	r3,12(r16)
   2df7c:	00c00244 	movi	r3,9
   2df80:	90c00015 	stw	r3,0(r18)
   2df84:	003fd106 	br	2decc <__alt_data_end+0xfffedecc>

0002df88 <__swbuf>:
   2df88:	00c000f4 	movhi	r3,3
   2df8c:	18dc2604 	addi	r3,r3,28824
   2df90:	2005883a 	mov	r2,r4
   2df94:	19000017 	ldw	r4,0(r3)
   2df98:	280d883a 	mov	r6,r5
   2df9c:	100b883a 	mov	r5,r2
   2dfa0:	002de341 	jmpi	2de34 <__swbuf_r>

0002dfa4 <_write_r>:
   2dfa4:	defffd04 	addi	sp,sp,-12
   2dfa8:	dc000015 	stw	r16,0(sp)
   2dfac:	04000134 	movhi	r16,4
   2dfb0:	dc400115 	stw	r17,4(sp)
   2dfb4:	8424da04 	addi	r16,r16,-27800
   2dfb8:	2023883a 	mov	r17,r4
   2dfbc:	2809883a 	mov	r4,r5
   2dfc0:	300b883a 	mov	r5,r6
   2dfc4:	380d883a 	mov	r6,r7
   2dfc8:	dfc00215 	stw	ra,8(sp)
   2dfcc:	80000015 	stw	zero,0(r16)
   2dfd0:	00322d00 	call	322d0 <write>
   2dfd4:	00ffffc4 	movi	r3,-1
   2dfd8:	10c00526 	beq	r2,r3,2dff0 <_write_r+0x4c>
   2dfdc:	dfc00217 	ldw	ra,8(sp)
   2dfe0:	dc400117 	ldw	r17,4(sp)
   2dfe4:	dc000017 	ldw	r16,0(sp)
   2dfe8:	dec00304 	addi	sp,sp,12
   2dfec:	f800283a 	ret
   2dff0:	80c00017 	ldw	r3,0(r16)
   2dff4:	183ff926 	beq	r3,zero,2dfdc <__alt_data_end+0xfffedfdc>
   2dff8:	88c00015 	stw	r3,0(r17)
   2dffc:	003ff706 	br	2dfdc <__alt_data_end+0xfffedfdc>

0002e000 <_close_r>:
   2e000:	defffd04 	addi	sp,sp,-12
   2e004:	dc000015 	stw	r16,0(sp)
   2e008:	04000134 	movhi	r16,4
   2e00c:	dc400115 	stw	r17,4(sp)
   2e010:	8424da04 	addi	r16,r16,-27800
   2e014:	2023883a 	mov	r17,r4
   2e018:	2809883a 	mov	r4,r5
   2e01c:	dfc00215 	stw	ra,8(sp)
   2e020:	80000015 	stw	zero,0(r16)
   2e024:	00318a80 	call	318a8 <close>
   2e028:	00ffffc4 	movi	r3,-1
   2e02c:	10c00526 	beq	r2,r3,2e044 <_close_r+0x44>
   2e030:	dfc00217 	ldw	ra,8(sp)
   2e034:	dc400117 	ldw	r17,4(sp)
   2e038:	dc000017 	ldw	r16,0(sp)
   2e03c:	dec00304 	addi	sp,sp,12
   2e040:	f800283a 	ret
   2e044:	80c00017 	ldw	r3,0(r16)
   2e048:	183ff926 	beq	r3,zero,2e030 <__alt_data_end+0xfffee030>
   2e04c:	88c00015 	stw	r3,0(r17)
   2e050:	003ff706 	br	2e030 <__alt_data_end+0xfffee030>

0002e054 <_calloc_r>:
   2e054:	298b383a 	mul	r5,r5,r6
   2e058:	defffe04 	addi	sp,sp,-8
   2e05c:	dc000015 	stw	r16,0(sp)
   2e060:	dfc00115 	stw	ra,4(sp)
   2e064:	00255000 	call	25500 <_malloc_r>
   2e068:	1021883a 	mov	r16,r2
   2e06c:	10002826 	beq	r2,zero,2e110 <_calloc_r+0xbc>
   2e070:	11bfff17 	ldw	r6,-4(r2)
   2e074:	00bfff04 	movi	r2,-4
   2e078:	00c00904 	movi	r3,36
   2e07c:	308c703a 	and	r6,r6,r2
   2e080:	308d883a 	add	r6,r6,r2
   2e084:	19801436 	bltu	r3,r6,2e0d8 <_calloc_r+0x84>
   2e088:	008004c4 	movi	r2,19
   2e08c:	11800936 	bltu	r2,r6,2e0b4 <_calloc_r+0x60>
   2e090:	8005883a 	mov	r2,r16
   2e094:	10000015 	stw	zero,0(r2)
   2e098:	10000115 	stw	zero,4(r2)
   2e09c:	10000215 	stw	zero,8(r2)
   2e0a0:	8005883a 	mov	r2,r16
   2e0a4:	dfc00117 	ldw	ra,4(sp)
   2e0a8:	dc000017 	ldw	r16,0(sp)
   2e0ac:	dec00204 	addi	sp,sp,8
   2e0b0:	f800283a 	ret
   2e0b4:	80000015 	stw	zero,0(r16)
   2e0b8:	80000115 	stw	zero,4(r16)
   2e0bc:	008006c4 	movi	r2,27
   2e0c0:	11800d2e 	bgeu	r2,r6,2e0f8 <_calloc_r+0xa4>
   2e0c4:	80000215 	stw	zero,8(r16)
   2e0c8:	80000315 	stw	zero,12(r16)
   2e0cc:	30c00c26 	beq	r6,r3,2e100 <_calloc_r+0xac>
   2e0d0:	80800404 	addi	r2,r16,16
   2e0d4:	003fef06 	br	2e094 <__alt_data_end+0xfffee094>
   2e0d8:	8009883a 	mov	r4,r16
   2e0dc:	000b883a 	mov	r5,zero
   2e0e0:	0025ca80 	call	25ca8 <memset>
   2e0e4:	8005883a 	mov	r2,r16
   2e0e8:	dfc00117 	ldw	ra,4(sp)
   2e0ec:	dc000017 	ldw	r16,0(sp)
   2e0f0:	dec00204 	addi	sp,sp,8
   2e0f4:	f800283a 	ret
   2e0f8:	80800204 	addi	r2,r16,8
   2e0fc:	003fe506 	br	2e094 <__alt_data_end+0xfffee094>
   2e100:	80000415 	stw	zero,16(r16)
   2e104:	80800604 	addi	r2,r16,24
   2e108:	80000515 	stw	zero,20(r16)
   2e10c:	003fe106 	br	2e094 <__alt_data_end+0xfffee094>
   2e110:	0005883a 	mov	r2,zero
   2e114:	003fe306 	br	2e0a4 <__alt_data_end+0xfffee0a4>

0002e118 <_fclose_r>:
   2e118:	28003226 	beq	r5,zero,2e1e4 <_fclose_r+0xcc>
   2e11c:	defffc04 	addi	sp,sp,-16
   2e120:	dc400115 	stw	r17,4(sp)
   2e124:	2023883a 	mov	r17,r4
   2e128:	dc000015 	stw	r16,0(sp)
   2e12c:	dfc00315 	stw	ra,12(sp)
   2e130:	dc800215 	stw	r18,8(sp)
   2e134:	2821883a 	mov	r16,r5
   2e138:	002a03c0 	call	2a03c <__sfp_lock_acquire>
   2e13c:	88000226 	beq	r17,zero,2e148 <_fclose_r+0x30>
   2e140:	88800e17 	ldw	r2,56(r17)
   2e144:	10002926 	beq	r2,zero,2e1ec <_fclose_r+0xd4>
   2e148:	8080030f 	ldh	r2,12(r16)
   2e14c:	10002226 	beq	r2,zero,2e1d8 <_fclose_r+0xc0>
   2e150:	8809883a 	mov	r4,r17
   2e154:	800b883a 	mov	r5,r16
   2e158:	0029a840 	call	29a84 <_fflush_r>
   2e15c:	1025883a 	mov	r18,r2
   2e160:	80800b17 	ldw	r2,44(r16)
   2e164:	10000426 	beq	r2,zero,2e178 <_fclose_r+0x60>
   2e168:	81400717 	ldw	r5,28(r16)
   2e16c:	8809883a 	mov	r4,r17
   2e170:	103ee83a 	callr	r2
   2e174:	10002616 	blt	r2,zero,2e210 <_fclose_r+0xf8>
   2e178:	8080030b 	ldhu	r2,12(r16)
   2e17c:	1080200c 	andi	r2,r2,128
   2e180:	10001f1e 	bne	r2,zero,2e200 <_fclose_r+0xe8>
   2e184:	81400c17 	ldw	r5,48(r16)
   2e188:	28000526 	beq	r5,zero,2e1a0 <_fclose_r+0x88>
   2e18c:	80801004 	addi	r2,r16,64
   2e190:	28800226 	beq	r5,r2,2e19c <_fclose_r+0x84>
   2e194:	8809883a 	mov	r4,r17
   2e198:	002a1a00 	call	2a1a0 <_free_r>
   2e19c:	80000c15 	stw	zero,48(r16)
   2e1a0:	81401117 	ldw	r5,68(r16)
   2e1a4:	28000326 	beq	r5,zero,2e1b4 <_fclose_r+0x9c>
   2e1a8:	8809883a 	mov	r4,r17
   2e1ac:	002a1a00 	call	2a1a0 <_free_r>
   2e1b0:	80001115 	stw	zero,68(r16)
   2e1b4:	8000030d 	sth	zero,12(r16)
   2e1b8:	002a0400 	call	2a040 <__sfp_lock_release>
   2e1bc:	9005883a 	mov	r2,r18
   2e1c0:	dfc00317 	ldw	ra,12(sp)
   2e1c4:	dc800217 	ldw	r18,8(sp)
   2e1c8:	dc400117 	ldw	r17,4(sp)
   2e1cc:	dc000017 	ldw	r16,0(sp)
   2e1d0:	dec00404 	addi	sp,sp,16
   2e1d4:	f800283a 	ret
   2e1d8:	002a0400 	call	2a040 <__sfp_lock_release>
   2e1dc:	0005883a 	mov	r2,zero
   2e1e0:	003ff706 	br	2e1c0 <__alt_data_end+0xfffee1c0>
   2e1e4:	0005883a 	mov	r2,zero
   2e1e8:	f800283a 	ret
   2e1ec:	8809883a 	mov	r4,r17
   2e1f0:	002a02c0 	call	2a02c <__sinit>
   2e1f4:	8080030f 	ldh	r2,12(r16)
   2e1f8:	103fd51e 	bne	r2,zero,2e150 <__alt_data_end+0xfffee150>
   2e1fc:	003ff606 	br	2e1d8 <__alt_data_end+0xfffee1d8>
   2e200:	81400417 	ldw	r5,16(r16)
   2e204:	8809883a 	mov	r4,r17
   2e208:	002a1a00 	call	2a1a0 <_free_r>
   2e20c:	003fdd06 	br	2e184 <__alt_data_end+0xfffee184>
   2e210:	04bfffc4 	movi	r18,-1
   2e214:	003fd806 	br	2e178 <__alt_data_end+0xfffee178>

0002e218 <fclose>:
   2e218:	008000f4 	movhi	r2,3
   2e21c:	109c2604 	addi	r2,r2,28824
   2e220:	200b883a 	mov	r5,r4
   2e224:	11000017 	ldw	r4,0(r2)
   2e228:	002e1181 	jmpi	2e118 <_fclose_r>

0002e22c <_fputwc_r>:
   2e22c:	3080030b 	ldhu	r2,12(r6)
   2e230:	defff804 	addi	sp,sp,-32
   2e234:	dcc00415 	stw	r19,16(sp)
   2e238:	dc800315 	stw	r18,12(sp)
   2e23c:	dc000115 	stw	r16,4(sp)
   2e240:	dfc00715 	stw	ra,28(sp)
   2e244:	dd400615 	stw	r21,24(sp)
   2e248:	dd000515 	stw	r20,20(sp)
   2e24c:	dc400215 	stw	r17,8(sp)
   2e250:	10c8000c 	andi	r3,r2,8192
   2e254:	3021883a 	mov	r16,r6
   2e258:	2027883a 	mov	r19,r4
   2e25c:	2825883a 	mov	r18,r5
   2e260:	1800051e 	bne	r3,zero,2e278 <_fputwc_r+0x4c>
   2e264:	30c01917 	ldw	r3,100(r6)
   2e268:	10880014 	ori	r2,r2,8192
   2e26c:	3080030d 	sth	r2,12(r6)
   2e270:	18880014 	ori	r2,r3,8192
   2e274:	30801915 	stw	r2,100(r6)
   2e278:	002ab2c0 	call	2ab2c <__locale_mb_cur_max>
   2e27c:	00c00044 	movi	r3,1
   2e280:	10c03e26 	beq	r2,r3,2e37c <_fputwc_r+0x150>
   2e284:	9809883a 	mov	r4,r19
   2e288:	d80b883a 	mov	r5,sp
   2e28c:	900d883a 	mov	r6,r18
   2e290:	81c01704 	addi	r7,r16,92
   2e294:	002e56c0 	call	2e56c <_wcrtomb_r>
   2e298:	1029883a 	mov	r20,r2
   2e29c:	00bfffc4 	movi	r2,-1
   2e2a0:	a0802026 	beq	r20,r2,2e324 <_fputwc_r+0xf8>
   2e2a4:	d9400003 	ldbu	r5,0(sp)
   2e2a8:	a0001c26 	beq	r20,zero,2e31c <_fputwc_r+0xf0>
   2e2ac:	0023883a 	mov	r17,zero
   2e2b0:	05400284 	movi	r21,10
   2e2b4:	00000906 	br	2e2dc <_fputwc_r+0xb0>
   2e2b8:	80800017 	ldw	r2,0(r16)
   2e2bc:	11400005 	stb	r5,0(r2)
   2e2c0:	80c00017 	ldw	r3,0(r16)
   2e2c4:	18c00044 	addi	r3,r3,1
   2e2c8:	80c00015 	stw	r3,0(r16)
   2e2cc:	8c400044 	addi	r17,r17,1
   2e2d0:	dc45883a 	add	r2,sp,r17
   2e2d4:	8d00112e 	bgeu	r17,r20,2e31c <_fputwc_r+0xf0>
   2e2d8:	11400003 	ldbu	r5,0(r2)
   2e2dc:	80c00217 	ldw	r3,8(r16)
   2e2e0:	18ffffc4 	addi	r3,r3,-1
   2e2e4:	80c00215 	stw	r3,8(r16)
   2e2e8:	183ff30e 	bge	r3,zero,2e2b8 <__alt_data_end+0xfffee2b8>
   2e2ec:	80800617 	ldw	r2,24(r16)
   2e2f0:	18801916 	blt	r3,r2,2e358 <_fputwc_r+0x12c>
   2e2f4:	80800017 	ldw	r2,0(r16)
   2e2f8:	11400005 	stb	r5,0(r2)
   2e2fc:	80800017 	ldw	r2,0(r16)
   2e300:	10c00003 	ldbu	r3,0(r2)
   2e304:	10800044 	addi	r2,r2,1
   2e308:	1d402326 	beq	r3,r21,2e398 <_fputwc_r+0x16c>
   2e30c:	80800015 	stw	r2,0(r16)
   2e310:	8c400044 	addi	r17,r17,1
   2e314:	dc45883a 	add	r2,sp,r17
   2e318:	8d3fef36 	bltu	r17,r20,2e2d8 <__alt_data_end+0xfffee2d8>
   2e31c:	9005883a 	mov	r2,r18
   2e320:	00000406 	br	2e334 <_fputwc_r+0x108>
   2e324:	80c0030b 	ldhu	r3,12(r16)
   2e328:	a005883a 	mov	r2,r20
   2e32c:	18c01014 	ori	r3,r3,64
   2e330:	80c0030d 	sth	r3,12(r16)
   2e334:	dfc00717 	ldw	ra,28(sp)
   2e338:	dd400617 	ldw	r21,24(sp)
   2e33c:	dd000517 	ldw	r20,20(sp)
   2e340:	dcc00417 	ldw	r19,16(sp)
   2e344:	dc800317 	ldw	r18,12(sp)
   2e348:	dc400217 	ldw	r17,8(sp)
   2e34c:	dc000117 	ldw	r16,4(sp)
   2e350:	dec00804 	addi	sp,sp,32
   2e354:	f800283a 	ret
   2e358:	9809883a 	mov	r4,r19
   2e35c:	29403fcc 	andi	r5,r5,255
   2e360:	800d883a 	mov	r6,r16
   2e364:	002de340 	call	2de34 <__swbuf_r>
   2e368:	10bfffe0 	cmpeqi	r2,r2,-1
   2e36c:	10803fcc 	andi	r2,r2,255
   2e370:	103fd626 	beq	r2,zero,2e2cc <__alt_data_end+0xfffee2cc>
   2e374:	00bfffc4 	movi	r2,-1
   2e378:	003fee06 	br	2e334 <__alt_data_end+0xfffee334>
   2e37c:	90ffffc4 	addi	r3,r18,-1
   2e380:	01003f84 	movi	r4,254
   2e384:	20ffbf36 	bltu	r4,r3,2e284 <__alt_data_end+0xfffee284>
   2e388:	900b883a 	mov	r5,r18
   2e38c:	dc800005 	stb	r18,0(sp)
   2e390:	1029883a 	mov	r20,r2
   2e394:	003fc506 	br	2e2ac <__alt_data_end+0xfffee2ac>
   2e398:	9809883a 	mov	r4,r19
   2e39c:	a80b883a 	mov	r5,r21
   2e3a0:	800d883a 	mov	r6,r16
   2e3a4:	002de340 	call	2de34 <__swbuf_r>
   2e3a8:	10bfffe0 	cmpeqi	r2,r2,-1
   2e3ac:	003fef06 	br	2e36c <__alt_data_end+0xfffee36c>

0002e3b0 <fputwc>:
   2e3b0:	defffc04 	addi	sp,sp,-16
   2e3b4:	dc000115 	stw	r16,4(sp)
   2e3b8:	040000f4 	movhi	r16,3
   2e3bc:	841c2604 	addi	r16,r16,28824
   2e3c0:	dc400215 	stw	r17,8(sp)
   2e3c4:	2023883a 	mov	r17,r4
   2e3c8:	81000017 	ldw	r4,0(r16)
   2e3cc:	dfc00315 	stw	ra,12(sp)
   2e3d0:	280d883a 	mov	r6,r5
   2e3d4:	20000626 	beq	r4,zero,2e3f0 <fputwc+0x40>
   2e3d8:	20800e17 	ldw	r2,56(r4)
   2e3dc:	1000041e 	bne	r2,zero,2e3f0 <fputwc+0x40>
   2e3e0:	d9400015 	stw	r5,0(sp)
   2e3e4:	002a02c0 	call	2a02c <__sinit>
   2e3e8:	81000017 	ldw	r4,0(r16)
   2e3ec:	d9800017 	ldw	r6,0(sp)
   2e3f0:	880b883a 	mov	r5,r17
   2e3f4:	dfc00317 	ldw	ra,12(sp)
   2e3f8:	dc400217 	ldw	r17,8(sp)
   2e3fc:	dc000117 	ldw	r16,4(sp)
   2e400:	dec00404 	addi	sp,sp,16
   2e404:	002e22c1 	jmpi	2e22c <_fputwc_r>

0002e408 <_fstat_r>:
   2e408:	defffd04 	addi	sp,sp,-12
   2e40c:	dc000015 	stw	r16,0(sp)
   2e410:	04000134 	movhi	r16,4
   2e414:	dc400115 	stw	r17,4(sp)
   2e418:	8424da04 	addi	r16,r16,-27800
   2e41c:	2023883a 	mov	r17,r4
   2e420:	2809883a 	mov	r4,r5
   2e424:	300b883a 	mov	r5,r6
   2e428:	dfc00215 	stw	ra,8(sp)
   2e42c:	80000015 	stw	zero,0(r16)
   2e430:	00319f40 	call	319f4 <fstat>
   2e434:	00ffffc4 	movi	r3,-1
   2e438:	10c00526 	beq	r2,r3,2e450 <_fstat_r+0x48>
   2e43c:	dfc00217 	ldw	ra,8(sp)
   2e440:	dc400117 	ldw	r17,4(sp)
   2e444:	dc000017 	ldw	r16,0(sp)
   2e448:	dec00304 	addi	sp,sp,12
   2e44c:	f800283a 	ret
   2e450:	80c00017 	ldw	r3,0(r16)
   2e454:	183ff926 	beq	r3,zero,2e43c <__alt_data_end+0xfffee43c>
   2e458:	88c00015 	stw	r3,0(r17)
   2e45c:	003ff706 	br	2e43c <__alt_data_end+0xfffee43c>

0002e460 <_isatty_r>:
   2e460:	defffd04 	addi	sp,sp,-12
   2e464:	dc000015 	stw	r16,0(sp)
   2e468:	04000134 	movhi	r16,4
   2e46c:	dc400115 	stw	r17,4(sp)
   2e470:	8424da04 	addi	r16,r16,-27800
   2e474:	2023883a 	mov	r17,r4
   2e478:	2809883a 	mov	r4,r5
   2e47c:	dfc00215 	stw	ra,8(sp)
   2e480:	80000015 	stw	zero,0(r16)
   2e484:	0031af40 	call	31af4 <isatty>
   2e488:	00ffffc4 	movi	r3,-1
   2e48c:	10c00526 	beq	r2,r3,2e4a4 <_isatty_r+0x44>
   2e490:	dfc00217 	ldw	ra,8(sp)
   2e494:	dc400117 	ldw	r17,4(sp)
   2e498:	dc000017 	ldw	r16,0(sp)
   2e49c:	dec00304 	addi	sp,sp,12
   2e4a0:	f800283a 	ret
   2e4a4:	80c00017 	ldw	r3,0(r16)
   2e4a8:	183ff926 	beq	r3,zero,2e490 <__alt_data_end+0xfffee490>
   2e4ac:	88c00015 	stw	r3,0(r17)
   2e4b0:	003ff706 	br	2e490 <__alt_data_end+0xfffee490>

0002e4b4 <_lseek_r>:
   2e4b4:	defffd04 	addi	sp,sp,-12
   2e4b8:	dc000015 	stw	r16,0(sp)
   2e4bc:	04000134 	movhi	r16,4
   2e4c0:	dc400115 	stw	r17,4(sp)
   2e4c4:	8424da04 	addi	r16,r16,-27800
   2e4c8:	2023883a 	mov	r17,r4
   2e4cc:	2809883a 	mov	r4,r5
   2e4d0:	300b883a 	mov	r5,r6
   2e4d4:	380d883a 	mov	r6,r7
   2e4d8:	dfc00215 	stw	ra,8(sp)
   2e4dc:	80000015 	stw	zero,0(r16)
   2e4e0:	0031ccc0 	call	31ccc <lseek>
   2e4e4:	00ffffc4 	movi	r3,-1
   2e4e8:	10c00526 	beq	r2,r3,2e500 <_lseek_r+0x4c>
   2e4ec:	dfc00217 	ldw	ra,8(sp)
   2e4f0:	dc400117 	ldw	r17,4(sp)
   2e4f4:	dc000017 	ldw	r16,0(sp)
   2e4f8:	dec00304 	addi	sp,sp,12
   2e4fc:	f800283a 	ret
   2e500:	80c00017 	ldw	r3,0(r16)
   2e504:	183ff926 	beq	r3,zero,2e4ec <__alt_data_end+0xfffee4ec>
   2e508:	88c00015 	stw	r3,0(r17)
   2e50c:	003ff706 	br	2e4ec <__alt_data_end+0xfffee4ec>

0002e510 <_read_r>:
   2e510:	defffd04 	addi	sp,sp,-12
   2e514:	dc000015 	stw	r16,0(sp)
   2e518:	04000134 	movhi	r16,4
   2e51c:	dc400115 	stw	r17,4(sp)
   2e520:	8424da04 	addi	r16,r16,-27800
   2e524:	2023883a 	mov	r17,r4
   2e528:	2809883a 	mov	r4,r5
   2e52c:	300b883a 	mov	r5,r6
   2e530:	380d883a 	mov	r6,r7
   2e534:	dfc00215 	stw	ra,8(sp)
   2e538:	80000015 	stw	zero,0(r16)
   2e53c:	0031ea80 	call	31ea8 <read>
   2e540:	00ffffc4 	movi	r3,-1
   2e544:	10c00526 	beq	r2,r3,2e55c <_read_r+0x4c>
   2e548:	dfc00217 	ldw	ra,8(sp)
   2e54c:	dc400117 	ldw	r17,4(sp)
   2e550:	dc000017 	ldw	r16,0(sp)
   2e554:	dec00304 	addi	sp,sp,12
   2e558:	f800283a 	ret
   2e55c:	80c00017 	ldw	r3,0(r16)
   2e560:	183ff926 	beq	r3,zero,2e548 <__alt_data_end+0xfffee548>
   2e564:	88c00015 	stw	r3,0(r17)
   2e568:	003ff706 	br	2e548 <__alt_data_end+0xfffee548>

0002e56c <_wcrtomb_r>:
   2e56c:	defff604 	addi	sp,sp,-40
   2e570:	008000f4 	movhi	r2,3
   2e574:	dc800815 	stw	r18,32(sp)
   2e578:	dc400715 	stw	r17,28(sp)
   2e57c:	dc000615 	stw	r16,24(sp)
   2e580:	109c2804 	addi	r2,r2,28832
   2e584:	dfc00915 	stw	ra,36(sp)
   2e588:	2021883a 	mov	r16,r4
   2e58c:	3823883a 	mov	r17,r7
   2e590:	14800017 	ldw	r18,0(r2)
   2e594:	28001426 	beq	r5,zero,2e5e8 <_wcrtomb_r+0x7c>
   2e598:	d9400415 	stw	r5,16(sp)
   2e59c:	d9800515 	stw	r6,20(sp)
   2e5a0:	002ab200 	call	2ab20 <__locale_charset>
   2e5a4:	d9400417 	ldw	r5,16(sp)
   2e5a8:	d9800517 	ldw	r6,20(sp)
   2e5ac:	8009883a 	mov	r4,r16
   2e5b0:	dc400015 	stw	r17,0(sp)
   2e5b4:	100f883a 	mov	r7,r2
   2e5b8:	903ee83a 	callr	r18
   2e5bc:	00ffffc4 	movi	r3,-1
   2e5c0:	10c0031e 	bne	r2,r3,2e5d0 <_wcrtomb_r+0x64>
   2e5c4:	88000015 	stw	zero,0(r17)
   2e5c8:	00c02284 	movi	r3,138
   2e5cc:	80c00015 	stw	r3,0(r16)
   2e5d0:	dfc00917 	ldw	ra,36(sp)
   2e5d4:	dc800817 	ldw	r18,32(sp)
   2e5d8:	dc400717 	ldw	r17,28(sp)
   2e5dc:	dc000617 	ldw	r16,24(sp)
   2e5e0:	dec00a04 	addi	sp,sp,40
   2e5e4:	f800283a 	ret
   2e5e8:	002ab200 	call	2ab20 <__locale_charset>
   2e5ec:	8009883a 	mov	r4,r16
   2e5f0:	dc400015 	stw	r17,0(sp)
   2e5f4:	d9400104 	addi	r5,sp,4
   2e5f8:	000d883a 	mov	r6,zero
   2e5fc:	100f883a 	mov	r7,r2
   2e600:	903ee83a 	callr	r18
   2e604:	003fed06 	br	2e5bc <__alt_data_end+0xfffee5bc>

0002e608 <wcrtomb>:
   2e608:	defff504 	addi	sp,sp,-44
   2e60c:	dc400515 	stw	r17,20(sp)
   2e610:	dc000415 	stw	r16,16(sp)
   2e614:	dfc00a15 	stw	ra,40(sp)
   2e618:	dd400915 	stw	r21,36(sp)
   2e61c:	dd000815 	stw	r20,32(sp)
   2e620:	dcc00715 	stw	r19,28(sp)
   2e624:	dc800615 	stw	r18,24(sp)
   2e628:	2021883a 	mov	r16,r4
   2e62c:	3023883a 	mov	r17,r6
   2e630:	20001d26 	beq	r4,zero,2e6a8 <wcrtomb+0xa0>
   2e634:	048000f4 	movhi	r18,3
   2e638:	949c2604 	addi	r18,r18,28824
   2e63c:	008000f4 	movhi	r2,3
   2e640:	95400017 	ldw	r21,0(r18)
   2e644:	109c2804 	addi	r2,r2,28832
   2e648:	15000017 	ldw	r20,0(r2)
   2e64c:	2827883a 	mov	r19,r5
   2e650:	002ab200 	call	2ab20 <__locale_charset>
   2e654:	a809883a 	mov	r4,r21
   2e658:	dc400015 	stw	r17,0(sp)
   2e65c:	800b883a 	mov	r5,r16
   2e660:	980d883a 	mov	r6,r19
   2e664:	100f883a 	mov	r7,r2
   2e668:	a03ee83a 	callr	r20
   2e66c:	00ffffc4 	movi	r3,-1
   2e670:	10c0041e 	bne	r2,r3,2e684 <wcrtomb+0x7c>
   2e674:	90c00017 	ldw	r3,0(r18)
   2e678:	01002284 	movi	r4,138
   2e67c:	88000015 	stw	zero,0(r17)
   2e680:	19000015 	stw	r4,0(r3)
   2e684:	dfc00a17 	ldw	ra,40(sp)
   2e688:	dd400917 	ldw	r21,36(sp)
   2e68c:	dd000817 	ldw	r20,32(sp)
   2e690:	dcc00717 	ldw	r19,28(sp)
   2e694:	dc800617 	ldw	r18,24(sp)
   2e698:	dc400517 	ldw	r17,20(sp)
   2e69c:	dc000417 	ldw	r16,16(sp)
   2e6a0:	dec00b04 	addi	sp,sp,44
   2e6a4:	f800283a 	ret
   2e6a8:	048000f4 	movhi	r18,3
   2e6ac:	949c2604 	addi	r18,r18,28824
   2e6b0:	008000f4 	movhi	r2,3
   2e6b4:	94c00017 	ldw	r19,0(r18)
   2e6b8:	109c2804 	addi	r2,r2,28832
   2e6bc:	14000017 	ldw	r16,0(r2)
   2e6c0:	002ab200 	call	2ab20 <__locale_charset>
   2e6c4:	9809883a 	mov	r4,r19
   2e6c8:	dc400015 	stw	r17,0(sp)
   2e6cc:	d9400104 	addi	r5,sp,4
   2e6d0:	000d883a 	mov	r6,zero
   2e6d4:	100f883a 	mov	r7,r2
   2e6d8:	803ee83a 	callr	r16
   2e6dc:	003fe306 	br	2e66c <__alt_data_end+0xfffee66c>

0002e6e0 <__ascii_wctomb>:
   2e6e0:	28000526 	beq	r5,zero,2e6f8 <__ascii_wctomb+0x18>
   2e6e4:	00803fc4 	movi	r2,255
   2e6e8:	11800536 	bltu	r2,r6,2e700 <__ascii_wctomb+0x20>
   2e6ec:	29800005 	stb	r6,0(r5)
   2e6f0:	00800044 	movi	r2,1
   2e6f4:	f800283a 	ret
   2e6f8:	0005883a 	mov	r2,zero
   2e6fc:	f800283a 	ret
   2e700:	00802284 	movi	r2,138
   2e704:	20800015 	stw	r2,0(r4)
   2e708:	00bfffc4 	movi	r2,-1
   2e70c:	f800283a 	ret

0002e710 <_wctomb_r>:
   2e710:	008000f4 	movhi	r2,3
   2e714:	defff904 	addi	sp,sp,-28
   2e718:	109c2804 	addi	r2,r2,28832
   2e71c:	dfc00615 	stw	ra,24(sp)
   2e720:	dc400515 	stw	r17,20(sp)
   2e724:	dc000415 	stw	r16,16(sp)
   2e728:	3823883a 	mov	r17,r7
   2e72c:	14000017 	ldw	r16,0(r2)
   2e730:	d9000115 	stw	r4,4(sp)
   2e734:	d9400215 	stw	r5,8(sp)
   2e738:	d9800315 	stw	r6,12(sp)
   2e73c:	002ab200 	call	2ab20 <__locale_charset>
   2e740:	d9000117 	ldw	r4,4(sp)
   2e744:	d9400217 	ldw	r5,8(sp)
   2e748:	d9800317 	ldw	r6,12(sp)
   2e74c:	dc400015 	stw	r17,0(sp)
   2e750:	100f883a 	mov	r7,r2
   2e754:	803ee83a 	callr	r16
   2e758:	dfc00617 	ldw	ra,24(sp)
   2e75c:	dc400517 	ldw	r17,20(sp)
   2e760:	dc000417 	ldw	r16,16(sp)
   2e764:	dec00704 	addi	sp,sp,28
   2e768:	f800283a 	ret

0002e76c <__udivdi3>:
   2e76c:	defff504 	addi	sp,sp,-44
   2e770:	dcc00415 	stw	r19,16(sp)
   2e774:	dc000115 	stw	r16,4(sp)
   2e778:	dfc00a15 	stw	ra,40(sp)
   2e77c:	df000915 	stw	fp,36(sp)
   2e780:	ddc00815 	stw	r23,32(sp)
   2e784:	dd800715 	stw	r22,28(sp)
   2e788:	dd400615 	stw	r21,24(sp)
   2e78c:	dd000515 	stw	r20,20(sp)
   2e790:	dc800315 	stw	r18,12(sp)
   2e794:	dc400215 	stw	r17,8(sp)
   2e798:	2027883a 	mov	r19,r4
   2e79c:	2821883a 	mov	r16,r5
   2e7a0:	3800421e 	bne	r7,zero,2e8ac <__udivdi3+0x140>
   2e7a4:	3025883a 	mov	r18,r6
   2e7a8:	2023883a 	mov	r17,r4
   2e7ac:	2980542e 	bgeu	r5,r6,2e900 <__udivdi3+0x194>
   2e7b0:	00bfffd4 	movui	r2,65535
   2e7b4:	282d883a 	mov	r22,r5
   2e7b8:	1180a836 	bltu	r2,r6,2ea5c <__udivdi3+0x2f0>
   2e7bc:	00803fc4 	movi	r2,255
   2e7c0:	1181422e 	bgeu	r2,r6,2eccc <__udivdi3+0x560>
   2e7c4:	00800204 	movi	r2,8
   2e7c8:	1007883a 	mov	r3,r2
   2e7cc:	3084d83a 	srl	r2,r6,r2
   2e7d0:	010000f4 	movhi	r4,3
   2e7d4:	2112d104 	addi	r4,r4,19268
   2e7d8:	2085883a 	add	r2,r4,r2
   2e7dc:	10800003 	ldbu	r2,0(r2)
   2e7e0:	10c7883a 	add	r3,r2,r3
   2e7e4:	00800804 	movi	r2,32
   2e7e8:	10c5c83a 	sub	r2,r2,r3
   2e7ec:	10000526 	beq	r2,zero,2e804 <__udivdi3+0x98>
   2e7f0:	80a0983a 	sll	r16,r16,r2
   2e7f4:	98c6d83a 	srl	r3,r19,r3
   2e7f8:	30a4983a 	sll	r18,r6,r2
   2e7fc:	98a2983a 	sll	r17,r19,r2
   2e800:	80ecb03a 	or	r22,r16,r3
   2e804:	902ad43a 	srli	r21,r18,16
   2e808:	b009883a 	mov	r4,r22
   2e80c:	953fffcc 	andi	r20,r18,65535
   2e810:	a80b883a 	mov	r5,r21
   2e814:	0023ea80 	call	23ea8 <__umodsi3>
   2e818:	b009883a 	mov	r4,r22
   2e81c:	a80b883a 	mov	r5,r21
   2e820:	1027883a 	mov	r19,r2
   2e824:	0023ea00 	call	23ea0 <__udivsi3>
   2e828:	1021883a 	mov	r16,r2
   2e82c:	8806d43a 	srli	r3,r17,16
   2e830:	9804943a 	slli	r2,r19,16
   2e834:	8527383a 	mul	r19,r16,r20
   2e838:	10c4b03a 	or	r2,r2,r3
   2e83c:	14c0052e 	bgeu	r2,r19,2e854 <__udivdi3+0xe8>
   2e840:	1485883a 	add	r2,r2,r18
   2e844:	80ffffc4 	addi	r3,r16,-1
   2e848:	14800136 	bltu	r2,r18,2e850 <__udivdi3+0xe4>
   2e84c:	14c13436 	bltu	r2,r19,2ed20 <__udivdi3+0x5b4>
   2e850:	1821883a 	mov	r16,r3
   2e854:	14e7c83a 	sub	r19,r2,r19
   2e858:	9809883a 	mov	r4,r19
   2e85c:	a80b883a 	mov	r5,r21
   2e860:	0023ea80 	call	23ea8 <__umodsi3>
   2e864:	102d883a 	mov	r22,r2
   2e868:	9809883a 	mov	r4,r19
   2e86c:	a80b883a 	mov	r5,r21
   2e870:	0023ea00 	call	23ea0 <__udivsi3>
   2e874:	b02c943a 	slli	r22,r22,16
   2e878:	1529383a 	mul	r20,r2,r20
   2e87c:	8c7fffcc 	andi	r17,r17,65535
   2e880:	b462b03a 	or	r17,r22,r17
   2e884:	8d00052e 	bgeu	r17,r20,2e89c <__udivdi3+0x130>
   2e888:	8ca3883a 	add	r17,r17,r18
   2e88c:	10ffffc4 	addi	r3,r2,-1
   2e890:	8c80f636 	bltu	r17,r18,2ec6c <__udivdi3+0x500>
   2e894:	8d00f52e 	bgeu	r17,r20,2ec6c <__udivdi3+0x500>
   2e898:	10bfff84 	addi	r2,r2,-2
   2e89c:	8020943a 	slli	r16,r16,16
   2e8a0:	0007883a 	mov	r3,zero
   2e8a4:	1404b03a 	or	r2,r2,r16
   2e8a8:	00005b06 	br	2ea18 <__udivdi3+0x2ac>
   2e8ac:	29c05836 	bltu	r5,r7,2ea10 <__udivdi3+0x2a4>
   2e8b0:	00bfffd4 	movui	r2,65535
   2e8b4:	11c0642e 	bgeu	r2,r7,2ea48 <__udivdi3+0x2dc>
   2e8b8:	00804034 	movhi	r2,256
   2e8bc:	10bfffc4 	addi	r2,r2,-1
   2e8c0:	11c0f32e 	bgeu	r2,r7,2ec90 <__udivdi3+0x524>
   2e8c4:	00c00604 	movi	r3,24
   2e8c8:	180b883a 	mov	r5,r3
   2e8cc:	38c6d83a 	srl	r3,r7,r3
   2e8d0:	008000f4 	movhi	r2,3
   2e8d4:	1092d104 	addi	r2,r2,19268
   2e8d8:	10c7883a 	add	r3,r2,r3
   2e8dc:	18c00003 	ldbu	r3,0(r3)
   2e8e0:	01000804 	movi	r4,32
   2e8e4:	1947883a 	add	r3,r3,r5
   2e8e8:	20e5c83a 	sub	r18,r4,r3
   2e8ec:	9000661e 	bne	r18,zero,2ea88 <__udivdi3+0x31c>
   2e8f0:	3c00f936 	bltu	r7,r16,2ecd8 <__udivdi3+0x56c>
   2e8f4:	9985403a 	cmpgeu	r2,r19,r6
   2e8f8:	0007883a 	mov	r3,zero
   2e8fc:	00004606 	br	2ea18 <__udivdi3+0x2ac>
   2e900:	3000041e 	bne	r6,zero,2e914 <__udivdi3+0x1a8>
   2e904:	01000044 	movi	r4,1
   2e908:	000b883a 	mov	r5,zero
   2e90c:	0023ea00 	call	23ea0 <__udivsi3>
   2e910:	1025883a 	mov	r18,r2
   2e914:	00bfffd4 	movui	r2,65535
   2e918:	1480562e 	bgeu	r2,r18,2ea74 <__udivdi3+0x308>
   2e91c:	00804034 	movhi	r2,256
   2e920:	10bfffc4 	addi	r2,r2,-1
   2e924:	1480e32e 	bgeu	r2,r18,2ecb4 <__udivdi3+0x548>
   2e928:	00800604 	movi	r2,24
   2e92c:	1007883a 	mov	r3,r2
   2e930:	9084d83a 	srl	r2,r18,r2
   2e934:	010000f4 	movhi	r4,3
   2e938:	2112d104 	addi	r4,r4,19268
   2e93c:	2085883a 	add	r2,r4,r2
   2e940:	10800003 	ldbu	r2,0(r2)
   2e944:	10c5883a 	add	r2,r2,r3
   2e948:	00c00804 	movi	r3,32
   2e94c:	1887c83a 	sub	r3,r3,r2
   2e950:	1800911e 	bne	r3,zero,2eb98 <__udivdi3+0x42c>
   2e954:	9028d43a 	srli	r20,r18,16
   2e958:	84a1c83a 	sub	r16,r16,r18
   2e95c:	957fffcc 	andi	r21,r18,65535
   2e960:	00c00044 	movi	r3,1
   2e964:	8009883a 	mov	r4,r16
   2e968:	a00b883a 	mov	r5,r20
   2e96c:	d8c00015 	stw	r3,0(sp)
   2e970:	0023ea80 	call	23ea8 <__umodsi3>
   2e974:	8009883a 	mov	r4,r16
   2e978:	a00b883a 	mov	r5,r20
   2e97c:	1027883a 	mov	r19,r2
   2e980:	0023ea00 	call	23ea0 <__udivsi3>
   2e984:	1021883a 	mov	r16,r2
   2e988:	880cd43a 	srli	r6,r17,16
   2e98c:	9804943a 	slli	r2,r19,16
   2e990:	8567383a 	mul	r19,r16,r21
   2e994:	d8c00017 	ldw	r3,0(sp)
   2e998:	1188b03a 	or	r4,r2,r6
   2e99c:	24c0052e 	bgeu	r4,r19,2e9b4 <__udivdi3+0x248>
   2e9a0:	2489883a 	add	r4,r4,r18
   2e9a4:	80bfffc4 	addi	r2,r16,-1
   2e9a8:	24800136 	bltu	r4,r18,2e9b0 <__udivdi3+0x244>
   2e9ac:	24c0d936 	bltu	r4,r19,2ed14 <__udivdi3+0x5a8>
   2e9b0:	1021883a 	mov	r16,r2
   2e9b4:	24e7c83a 	sub	r19,r4,r19
   2e9b8:	9809883a 	mov	r4,r19
   2e9bc:	a00b883a 	mov	r5,r20
   2e9c0:	d8c00015 	stw	r3,0(sp)
   2e9c4:	0023ea80 	call	23ea8 <__umodsi3>
   2e9c8:	102d883a 	mov	r22,r2
   2e9cc:	9809883a 	mov	r4,r19
   2e9d0:	a00b883a 	mov	r5,r20
   2e9d4:	0023ea00 	call	23ea0 <__udivsi3>
   2e9d8:	b02c943a 	slli	r22,r22,16
   2e9dc:	156b383a 	mul	r21,r2,r21
   2e9e0:	8c7fffcc 	andi	r17,r17,65535
   2e9e4:	b462b03a 	or	r17,r22,r17
   2e9e8:	d8c00017 	ldw	r3,0(sp)
   2e9ec:	8d40052e 	bgeu	r17,r21,2ea04 <__udivdi3+0x298>
   2e9f0:	8ca3883a 	add	r17,r17,r18
   2e9f4:	113fffc4 	addi	r4,r2,-1
   2e9f8:	8c809a36 	bltu	r17,r18,2ec64 <__udivdi3+0x4f8>
   2e9fc:	8d40992e 	bgeu	r17,r21,2ec64 <__udivdi3+0x4f8>
   2ea00:	10bfff84 	addi	r2,r2,-2
   2ea04:	8020943a 	slli	r16,r16,16
   2ea08:	1404b03a 	or	r2,r2,r16
   2ea0c:	00000206 	br	2ea18 <__udivdi3+0x2ac>
   2ea10:	0007883a 	mov	r3,zero
   2ea14:	0005883a 	mov	r2,zero
   2ea18:	dfc00a17 	ldw	ra,40(sp)
   2ea1c:	df000917 	ldw	fp,36(sp)
   2ea20:	ddc00817 	ldw	r23,32(sp)
   2ea24:	dd800717 	ldw	r22,28(sp)
   2ea28:	dd400617 	ldw	r21,24(sp)
   2ea2c:	dd000517 	ldw	r20,20(sp)
   2ea30:	dcc00417 	ldw	r19,16(sp)
   2ea34:	dc800317 	ldw	r18,12(sp)
   2ea38:	dc400217 	ldw	r17,8(sp)
   2ea3c:	dc000117 	ldw	r16,4(sp)
   2ea40:	dec00b04 	addi	sp,sp,44
   2ea44:	f800283a 	ret
   2ea48:	00803fc4 	movi	r2,255
   2ea4c:	11c0932e 	bgeu	r2,r7,2ec9c <__udivdi3+0x530>
   2ea50:	00c00204 	movi	r3,8
   2ea54:	180b883a 	mov	r5,r3
   2ea58:	003f9c06 	br	2e8cc <__alt_data_end+0xfffee8cc>
   2ea5c:	00804034 	movhi	r2,256
   2ea60:	10bfffc4 	addi	r2,r2,-1
   2ea64:	1180902e 	bgeu	r2,r6,2eca8 <__udivdi3+0x53c>
   2ea68:	00800604 	movi	r2,24
   2ea6c:	1007883a 	mov	r3,r2
   2ea70:	003f5606 	br	2e7cc <__alt_data_end+0xfffee7cc>
   2ea74:	00803fc4 	movi	r2,255
   2ea78:	1480912e 	bgeu	r2,r18,2ecc0 <__udivdi3+0x554>
   2ea7c:	00800204 	movi	r2,8
   2ea80:	1007883a 	mov	r3,r2
   2ea84:	003faa06 	br	2e930 <__alt_data_end+0xfffee930>
   2ea88:	30eed83a 	srl	r23,r6,r3
   2ea8c:	3c8e983a 	sll	r7,r7,r18
   2ea90:	80f8d83a 	srl	fp,r16,r3
   2ea94:	98c6d83a 	srl	r3,r19,r3
   2ea98:	3deeb03a 	or	r23,r7,r23
   2ea9c:	b828d43a 	srli	r20,r23,16
   2eaa0:	84a0983a 	sll	r16,r16,r18
   2eaa4:	e009883a 	mov	r4,fp
   2eaa8:	a00b883a 	mov	r5,r20
   2eaac:	80e2b03a 	or	r17,r16,r3
   2eab0:	34aa983a 	sll	r21,r6,r18
   2eab4:	0023ea80 	call	23ea8 <__umodsi3>
   2eab8:	e009883a 	mov	r4,fp
   2eabc:	a00b883a 	mov	r5,r20
   2eac0:	102d883a 	mov	r22,r2
   2eac4:	0023ea00 	call	23ea0 <__udivsi3>
   2eac8:	1021883a 	mov	r16,r2
   2eacc:	bf3fffcc 	andi	fp,r23,65535
   2ead0:	b004943a 	slli	r2,r22,16
   2ead4:	8808d43a 	srli	r4,r17,16
   2ead8:	872d383a 	mul	r22,r16,fp
   2eadc:	1104b03a 	or	r2,r2,r4
   2eae0:	1580042e 	bgeu	r2,r22,2eaf4 <__udivdi3+0x388>
   2eae4:	15c5883a 	add	r2,r2,r23
   2eae8:	80ffffc4 	addi	r3,r16,-1
   2eaec:	15c0812e 	bgeu	r2,r23,2ecf4 <__udivdi3+0x588>
   2eaf0:	1821883a 	mov	r16,r3
   2eaf4:	15adc83a 	sub	r22,r2,r22
   2eaf8:	b009883a 	mov	r4,r22
   2eafc:	a00b883a 	mov	r5,r20
   2eb00:	0023ea80 	call	23ea8 <__umodsi3>
   2eb04:	a00b883a 	mov	r5,r20
   2eb08:	b009883a 	mov	r4,r22
   2eb0c:	d8800015 	stw	r2,0(sp)
   2eb10:	0023ea00 	call	23ea0 <__udivsi3>
   2eb14:	d8c00017 	ldw	r3,0(sp)
   2eb18:	170b383a 	mul	r5,r2,fp
   2eb1c:	8c7fffcc 	andi	r17,r17,65535
   2eb20:	1806943a 	slli	r3,r3,16
   2eb24:	1c46b03a 	or	r3,r3,r17
   2eb28:	1940042e 	bgeu	r3,r5,2eb3c <__udivdi3+0x3d0>
   2eb2c:	1dc7883a 	add	r3,r3,r23
   2eb30:	113fffc4 	addi	r4,r2,-1
   2eb34:	1dc06b2e 	bgeu	r3,r23,2ece4 <__udivdi3+0x578>
   2eb38:	2005883a 	mov	r2,r4
   2eb3c:	8020943a 	slli	r16,r16,16
   2eb40:	a9ffffcc 	andi	r7,r21,65535
   2eb44:	a82ad43a 	srli	r21,r21,16
   2eb48:	1404b03a 	or	r2,r2,r16
   2eb4c:	113fffcc 	andi	r4,r2,65535
   2eb50:	100cd43a 	srli	r6,r2,16
   2eb54:	21d3383a 	mul	r9,r4,r7
   2eb58:	2549383a 	mul	r4,r4,r21
   2eb5c:	31cf383a 	mul	r7,r6,r7
   2eb60:	4810d43a 	srli	r8,r9,16
   2eb64:	1947c83a 	sub	r3,r3,r5
   2eb68:	3909883a 	add	r4,r7,r4
   2eb6c:	2209883a 	add	r4,r4,r8
   2eb70:	354d383a 	mul	r6,r6,r21
   2eb74:	21c0022e 	bgeu	r4,r7,2eb80 <__udivdi3+0x414>
   2eb78:	01400074 	movhi	r5,1
   2eb7c:	314d883a 	add	r6,r6,r5
   2eb80:	202ad43a 	srli	r21,r4,16
   2eb84:	354d883a 	add	r6,r6,r21
   2eb88:	19803f36 	bltu	r3,r6,2ec88 <__udivdi3+0x51c>
   2eb8c:	19803926 	beq	r3,r6,2ec74 <__udivdi3+0x508>
   2eb90:	0007883a 	mov	r3,zero
   2eb94:	003fa006 	br	2ea18 <__alt_data_end+0xfffeea18>
   2eb98:	90e4983a 	sll	r18,r18,r3
   2eb9c:	80aad83a 	srl	r21,r16,r2
   2eba0:	80e0983a 	sll	r16,r16,r3
   2eba4:	9028d43a 	srli	r20,r18,16
   2eba8:	9884d83a 	srl	r2,r19,r2
   2ebac:	a809883a 	mov	r4,r21
   2ebb0:	a00b883a 	mov	r5,r20
   2ebb4:	80acb03a 	or	r22,r16,r2
   2ebb8:	98e2983a 	sll	r17,r19,r3
   2ebbc:	0023ea80 	call	23ea8 <__umodsi3>
   2ebc0:	a809883a 	mov	r4,r21
   2ebc4:	a00b883a 	mov	r5,r20
   2ebc8:	1021883a 	mov	r16,r2
   2ebcc:	0023ea00 	call	23ea0 <__udivsi3>
   2ebd0:	957fffcc 	andi	r21,r18,65535
   2ebd4:	8020943a 	slli	r16,r16,16
   2ebd8:	b00ad43a 	srli	r5,r22,16
   2ebdc:	1567383a 	mul	r19,r2,r21
   2ebe0:	102f883a 	mov	r23,r2
   2ebe4:	8148b03a 	or	r4,r16,r5
   2ebe8:	24c0062e 	bgeu	r4,r19,2ec04 <__udivdi3+0x498>
   2ebec:	2489883a 	add	r4,r4,r18
   2ebf0:	10bfffc4 	addi	r2,r2,-1
   2ebf4:	24804536 	bltu	r4,r18,2ed0c <__udivdi3+0x5a0>
   2ebf8:	24c0442e 	bgeu	r4,r19,2ed0c <__udivdi3+0x5a0>
   2ebfc:	bdffff84 	addi	r23,r23,-2
   2ec00:	2489883a 	add	r4,r4,r18
   2ec04:	24e7c83a 	sub	r19,r4,r19
   2ec08:	9809883a 	mov	r4,r19
   2ec0c:	a00b883a 	mov	r5,r20
   2ec10:	0023ea80 	call	23ea8 <__umodsi3>
   2ec14:	1021883a 	mov	r16,r2
   2ec18:	9809883a 	mov	r4,r19
   2ec1c:	a00b883a 	mov	r5,r20
   2ec20:	0023ea00 	call	23ea0 <__udivsi3>
   2ec24:	8020943a 	slli	r16,r16,16
   2ec28:	1007883a 	mov	r3,r2
   2ec2c:	1545383a 	mul	r2,r2,r21
   2ec30:	b13fffcc 	andi	r4,r22,65535
   2ec34:	8108b03a 	or	r4,r16,r4
   2ec38:	2080062e 	bgeu	r4,r2,2ec54 <__udivdi3+0x4e8>
   2ec3c:	2489883a 	add	r4,r4,r18
   2ec40:	197fffc4 	addi	r5,r3,-1
   2ec44:	24802f36 	bltu	r4,r18,2ed04 <__udivdi3+0x598>
   2ec48:	20802e2e 	bgeu	r4,r2,2ed04 <__udivdi3+0x598>
   2ec4c:	18ffff84 	addi	r3,r3,-2
   2ec50:	2489883a 	add	r4,r4,r18
   2ec54:	b82e943a 	slli	r23,r23,16
   2ec58:	20a1c83a 	sub	r16,r4,r2
   2ec5c:	1dc6b03a 	or	r3,r3,r23
   2ec60:	003f4006 	br	2e964 <__alt_data_end+0xfffee964>
   2ec64:	2005883a 	mov	r2,r4
   2ec68:	003f6606 	br	2ea04 <__alt_data_end+0xfffeea04>
   2ec6c:	1805883a 	mov	r2,r3
   2ec70:	003f0a06 	br	2e89c <__alt_data_end+0xfffee89c>
   2ec74:	2006943a 	slli	r3,r4,16
   2ec78:	9c88983a 	sll	r4,r19,r18
   2ec7c:	4a7fffcc 	andi	r9,r9,65535
   2ec80:	1a47883a 	add	r3,r3,r9
   2ec84:	20ffc22e 	bgeu	r4,r3,2eb90 <__alt_data_end+0xfffeeb90>
   2ec88:	10bfffc4 	addi	r2,r2,-1
   2ec8c:	003fc006 	br	2eb90 <__alt_data_end+0xfffeeb90>
   2ec90:	00c00404 	movi	r3,16
   2ec94:	180b883a 	mov	r5,r3
   2ec98:	003f0c06 	br	2e8cc <__alt_data_end+0xfffee8cc>
   2ec9c:	0007883a 	mov	r3,zero
   2eca0:	000b883a 	mov	r5,zero
   2eca4:	003f0906 	br	2e8cc <__alt_data_end+0xfffee8cc>
   2eca8:	00800404 	movi	r2,16
   2ecac:	1007883a 	mov	r3,r2
   2ecb0:	003ec606 	br	2e7cc <__alt_data_end+0xfffee7cc>
   2ecb4:	00800404 	movi	r2,16
   2ecb8:	1007883a 	mov	r3,r2
   2ecbc:	003f1c06 	br	2e930 <__alt_data_end+0xfffee930>
   2ecc0:	0005883a 	mov	r2,zero
   2ecc4:	0007883a 	mov	r3,zero
   2ecc8:	003f1906 	br	2e930 <__alt_data_end+0xfffee930>
   2eccc:	0005883a 	mov	r2,zero
   2ecd0:	0007883a 	mov	r3,zero
   2ecd4:	003ebd06 	br	2e7cc <__alt_data_end+0xfffee7cc>
   2ecd8:	0007883a 	mov	r3,zero
   2ecdc:	00800044 	movi	r2,1
   2ece0:	003f4d06 	br	2ea18 <__alt_data_end+0xfffeea18>
   2ece4:	197f942e 	bgeu	r3,r5,2eb38 <__alt_data_end+0xfffeeb38>
   2ece8:	10bfff84 	addi	r2,r2,-2
   2ecec:	1dc7883a 	add	r3,r3,r23
   2ecf0:	003f9206 	br	2eb3c <__alt_data_end+0xfffeeb3c>
   2ecf4:	15bf7e2e 	bgeu	r2,r22,2eaf0 <__alt_data_end+0xfffeeaf0>
   2ecf8:	843fff84 	addi	r16,r16,-2
   2ecfc:	15c5883a 	add	r2,r2,r23
   2ed00:	003f7c06 	br	2eaf4 <__alt_data_end+0xfffeeaf4>
   2ed04:	2807883a 	mov	r3,r5
   2ed08:	003fd206 	br	2ec54 <__alt_data_end+0xfffeec54>
   2ed0c:	102f883a 	mov	r23,r2
   2ed10:	003fbc06 	br	2ec04 <__alt_data_end+0xfffeec04>
   2ed14:	843fff84 	addi	r16,r16,-2
   2ed18:	2489883a 	add	r4,r4,r18
   2ed1c:	003f2506 	br	2e9b4 <__alt_data_end+0xfffee9b4>
   2ed20:	843fff84 	addi	r16,r16,-2
   2ed24:	1485883a 	add	r2,r2,r18
   2ed28:	003eca06 	br	2e854 <__alt_data_end+0xfffee854>

0002ed2c <__umoddi3>:
   2ed2c:	defff404 	addi	sp,sp,-48
   2ed30:	ddc00915 	stw	r23,36(sp)
   2ed34:	dc400315 	stw	r17,12(sp)
   2ed38:	dc000215 	stw	r16,8(sp)
   2ed3c:	dfc00b15 	stw	ra,44(sp)
   2ed40:	df000a15 	stw	fp,40(sp)
   2ed44:	dd800815 	stw	r22,32(sp)
   2ed48:	dd400715 	stw	r21,28(sp)
   2ed4c:	dd000615 	stw	r20,24(sp)
   2ed50:	dcc00515 	stw	r19,20(sp)
   2ed54:	dc800415 	stw	r18,16(sp)
   2ed58:	2021883a 	mov	r16,r4
   2ed5c:	2823883a 	mov	r17,r5
   2ed60:	282f883a 	mov	r23,r5
   2ed64:	3800381e 	bne	r7,zero,2ee48 <__umoddi3+0x11c>
   2ed68:	3027883a 	mov	r19,r6
   2ed6c:	2029883a 	mov	r20,r4
   2ed70:	29804e2e 	bgeu	r5,r6,2eeac <__umoddi3+0x180>
   2ed74:	00bfffd4 	movui	r2,65535
   2ed78:	11809c36 	bltu	r2,r6,2efec <__umoddi3+0x2c0>
   2ed7c:	00803fc4 	movi	r2,255
   2ed80:	11813b2e 	bgeu	r2,r6,2f270 <__umoddi3+0x544>
   2ed84:	01400204 	movi	r5,8
   2ed88:	2805883a 	mov	r2,r5
   2ed8c:	314ad83a 	srl	r5,r6,r5
   2ed90:	00c000f4 	movhi	r3,3
   2ed94:	18d2d104 	addi	r3,r3,19268
   2ed98:	194b883a 	add	r5,r3,r5
   2ed9c:	29000003 	ldbu	r4,0(r5)
   2eda0:	2089883a 	add	r4,r4,r2
   2eda4:	00800804 	movi	r2,32
   2eda8:	1105c83a 	sub	r2,r2,r4
   2edac:	1000ec26 	beq	r2,zero,2f160 <__umoddi3+0x434>
   2edb0:	88a2983a 	sll	r17,r17,r2
   2edb4:	8108d83a 	srl	r4,r16,r4
   2edb8:	30a6983a 	sll	r19,r6,r2
   2edbc:	80a8983a 	sll	r20,r16,r2
   2edc0:	1025883a 	mov	r18,r2
   2edc4:	892eb03a 	or	r23,r17,r4
   2edc8:	982cd43a 	srli	r22,r19,16
   2edcc:	b809883a 	mov	r4,r23
   2edd0:	9d7fffcc 	andi	r21,r19,65535
   2edd4:	b00b883a 	mov	r5,r22
   2edd8:	0023ea80 	call	23ea8 <__umodsi3>
   2eddc:	b809883a 	mov	r4,r23
   2ede0:	b00b883a 	mov	r5,r22
   2ede4:	1021883a 	mov	r16,r2
   2ede8:	0023ea00 	call	23ea0 <__udivsi3>
   2edec:	8020943a 	slli	r16,r16,16
   2edf0:	a00cd43a 	srli	r6,r20,16
   2edf4:	1545383a 	mul	r2,r2,r21
   2edf8:	8188b03a 	or	r4,r16,r6
   2edfc:	2080042e 	bgeu	r4,r2,2ee10 <__umoddi3+0xe4>
   2ee00:	24c9883a 	add	r4,r4,r19
   2ee04:	24c00236 	bltu	r4,r19,2ee10 <__umoddi3+0xe4>
   2ee08:	2080012e 	bgeu	r4,r2,2ee10 <__umoddi3+0xe4>
   2ee0c:	24c9883a 	add	r4,r4,r19
   2ee10:	20a3c83a 	sub	r17,r4,r2
   2ee14:	8809883a 	mov	r4,r17
   2ee18:	b00b883a 	mov	r5,r22
   2ee1c:	0023ea80 	call	23ea8 <__umodsi3>
   2ee20:	8809883a 	mov	r4,r17
   2ee24:	b00b883a 	mov	r5,r22
   2ee28:	1021883a 	mov	r16,r2
   2ee2c:	0023ea00 	call	23ea0 <__udivsi3>
   2ee30:	8006943a 	slli	r3,r16,16
   2ee34:	1545383a 	mul	r2,r2,r21
   2ee38:	a13fffcc 	andi	r4,r20,65535
   2ee3c:	1906b03a 	or	r3,r3,r4
   2ee40:	1880532e 	bgeu	r3,r2,2ef90 <__umoddi3+0x264>
   2ee44:	00004e06 	br	2ef80 <__umoddi3+0x254>
   2ee48:	29c05536 	bltu	r5,r7,2efa0 <__umoddi3+0x274>
   2ee4c:	00bfffd4 	movui	r2,65535
   2ee50:	11c0612e 	bgeu	r2,r7,2efd8 <__umoddi3+0x2ac>
   2ee54:	00804034 	movhi	r2,256
   2ee58:	10bfffc4 	addi	r2,r2,-1
   2ee5c:	11c0f82e 	bgeu	r2,r7,2f240 <__umoddi3+0x514>
   2ee60:	01400604 	movi	r5,24
   2ee64:	282b883a 	mov	r21,r5
   2ee68:	394ad83a 	srl	r5,r7,r5
   2ee6c:	00c000f4 	movhi	r3,3
   2ee70:	18d2d104 	addi	r3,r3,19268
   2ee74:	194b883a 	add	r5,r3,r5
   2ee78:	28800003 	ldbu	r2,0(r5)
   2ee7c:	00c00804 	movi	r3,32
   2ee80:	156b883a 	add	r21,r2,r21
   2ee84:	1d69c83a 	sub	r20,r3,r21
   2ee88:	a000631e 	bne	r20,zero,2f018 <__umoddi3+0x2ec>
   2ee8c:	3c400136 	bltu	r7,r17,2ee94 <__umoddi3+0x168>
   2ee90:	81810436 	bltu	r16,r6,2f2a4 <__umoddi3+0x578>
   2ee94:	8185c83a 	sub	r2,r16,r6
   2ee98:	89e3c83a 	sub	r17,r17,r7
   2ee9c:	8087803a 	cmpltu	r3,r16,r2
   2eea0:	88efc83a 	sub	r23,r17,r3
   2eea4:	b807883a 	mov	r3,r23
   2eea8:	00003f06 	br	2efa8 <__umoddi3+0x27c>
   2eeac:	3000041e 	bne	r6,zero,2eec0 <__umoddi3+0x194>
   2eeb0:	01000044 	movi	r4,1
   2eeb4:	000b883a 	mov	r5,zero
   2eeb8:	0023ea00 	call	23ea0 <__udivsi3>
   2eebc:	1027883a 	mov	r19,r2
   2eec0:	00bfffd4 	movui	r2,65535
   2eec4:	14c04f2e 	bgeu	r2,r19,2f004 <__umoddi3+0x2d8>
   2eec8:	00804034 	movhi	r2,256
   2eecc:	10bfffc4 	addi	r2,r2,-1
   2eed0:	14c0e42e 	bgeu	r2,r19,2f264 <__umoddi3+0x538>
   2eed4:	00800604 	movi	r2,24
   2eed8:	1007883a 	mov	r3,r2
   2eedc:	9884d83a 	srl	r2,r19,r2
   2eee0:	010000f4 	movhi	r4,3
   2eee4:	2112d104 	addi	r4,r4,19268
   2eee8:	2085883a 	add	r2,r4,r2
   2eeec:	11000003 	ldbu	r4,0(r2)
   2eef0:	00800804 	movi	r2,32
   2eef4:	20c7883a 	add	r3,r4,r3
   2eef8:	10c5c83a 	sub	r2,r2,r3
   2eefc:	10009a1e 	bne	r2,zero,2f168 <__umoddi3+0x43c>
   2ef00:	982cd43a 	srli	r22,r19,16
   2ef04:	8ce3c83a 	sub	r17,r17,r19
   2ef08:	9c3fffcc 	andi	r16,r19,65535
   2ef0c:	0025883a 	mov	r18,zero
   2ef10:	8809883a 	mov	r4,r17
   2ef14:	b00b883a 	mov	r5,r22
   2ef18:	0023ea80 	call	23ea8 <__umodsi3>
   2ef1c:	8809883a 	mov	r4,r17
   2ef20:	b00b883a 	mov	r5,r22
   2ef24:	102b883a 	mov	r21,r2
   2ef28:	0023ea00 	call	23ea0 <__udivsi3>
   2ef2c:	a806943a 	slli	r3,r21,16
   2ef30:	a008d43a 	srli	r4,r20,16
   2ef34:	1405383a 	mul	r2,r2,r16
   2ef38:	190cb03a 	or	r6,r3,r4
   2ef3c:	3080032e 	bgeu	r6,r2,2ef4c <__umoddi3+0x220>
   2ef40:	34cd883a 	add	r6,r6,r19
   2ef44:	34c00136 	bltu	r6,r19,2ef4c <__umoddi3+0x220>
   2ef48:	3080d436 	bltu	r6,r2,2f29c <__umoddi3+0x570>
   2ef4c:	30abc83a 	sub	r21,r6,r2
   2ef50:	a809883a 	mov	r4,r21
   2ef54:	b00b883a 	mov	r5,r22
   2ef58:	0023ea80 	call	23ea8 <__umodsi3>
   2ef5c:	1023883a 	mov	r17,r2
   2ef60:	a809883a 	mov	r4,r21
   2ef64:	b00b883a 	mov	r5,r22
   2ef68:	0023ea00 	call	23ea0 <__udivsi3>
   2ef6c:	8822943a 	slli	r17,r17,16
   2ef70:	1405383a 	mul	r2,r2,r16
   2ef74:	a13fffcc 	andi	r4,r20,65535
   2ef78:	8906b03a 	or	r3,r17,r4
   2ef7c:	1880042e 	bgeu	r3,r2,2ef90 <__umoddi3+0x264>
   2ef80:	1cc7883a 	add	r3,r3,r19
   2ef84:	1cc00236 	bltu	r3,r19,2ef90 <__umoddi3+0x264>
   2ef88:	1880012e 	bgeu	r3,r2,2ef90 <__umoddi3+0x264>
   2ef8c:	1cc7883a 	add	r3,r3,r19
   2ef90:	1887c83a 	sub	r3,r3,r2
   2ef94:	1c84d83a 	srl	r2,r3,r18
   2ef98:	0007883a 	mov	r3,zero
   2ef9c:	00000206 	br	2efa8 <__umoddi3+0x27c>
   2efa0:	2005883a 	mov	r2,r4
   2efa4:	2807883a 	mov	r3,r5
   2efa8:	dfc00b17 	ldw	ra,44(sp)
   2efac:	df000a17 	ldw	fp,40(sp)
   2efb0:	ddc00917 	ldw	r23,36(sp)
   2efb4:	dd800817 	ldw	r22,32(sp)
   2efb8:	dd400717 	ldw	r21,28(sp)
   2efbc:	dd000617 	ldw	r20,24(sp)
   2efc0:	dcc00517 	ldw	r19,20(sp)
   2efc4:	dc800417 	ldw	r18,16(sp)
   2efc8:	dc400317 	ldw	r17,12(sp)
   2efcc:	dc000217 	ldw	r16,8(sp)
   2efd0:	dec00c04 	addi	sp,sp,48
   2efd4:	f800283a 	ret
   2efd8:	00803fc4 	movi	r2,255
   2efdc:	11c0952e 	bgeu	r2,r7,2f234 <__umoddi3+0x508>
   2efe0:	01400204 	movi	r5,8
   2efe4:	282b883a 	mov	r21,r5
   2efe8:	003f9f06 	br	2ee68 <__alt_data_end+0xfffeee68>
   2efec:	00804034 	movhi	r2,256
   2eff0:	10bfffc4 	addi	r2,r2,-1
   2eff4:	1180952e 	bgeu	r2,r6,2f24c <__umoddi3+0x520>
   2eff8:	01400604 	movi	r5,24
   2effc:	2805883a 	mov	r2,r5
   2f000:	003f6206 	br	2ed8c <__alt_data_end+0xfffeed8c>
   2f004:	00803fc4 	movi	r2,255
   2f008:	14c0932e 	bgeu	r2,r19,2f258 <__umoddi3+0x52c>
   2f00c:	00800204 	movi	r2,8
   2f010:	1007883a 	mov	r3,r2
   2f014:	003fb106 	br	2eedc <__alt_data_end+0xfffeeedc>
   2f018:	3548d83a 	srl	r4,r6,r21
   2f01c:	3d0e983a 	sll	r7,r7,r20
   2f020:	8d10983a 	sll	r8,r17,r20
   2f024:	8d6cd83a 	srl	r22,r17,r21
   2f028:	3922b03a 	or	r17,r7,r4
   2f02c:	882ed43a 	srli	r23,r17,16
   2f030:	8564d83a 	srl	r18,r16,r21
   2f034:	b009883a 	mov	r4,r22
   2f038:	b80b883a 	mov	r5,r23
   2f03c:	44a4b03a 	or	r18,r8,r18
   2f040:	3526983a 	sll	r19,r6,r20
   2f044:	0023ea80 	call	23ea8 <__umodsi3>
   2f048:	b009883a 	mov	r4,r22
   2f04c:	b80b883a 	mov	r5,r23
   2f050:	1039883a 	mov	fp,r2
   2f054:	0023ea00 	call	23ea0 <__udivsi3>
   2f058:	102d883a 	mov	r22,r2
   2f05c:	8a3fffcc 	andi	r8,r17,65535
   2f060:	e004943a 	slli	r2,fp,16
   2f064:	900cd43a 	srli	r6,r18,16
   2f068:	b239383a 	mul	fp,r22,r8
   2f06c:	8520983a 	sll	r16,r16,r20
   2f070:	118ab03a 	or	r5,r2,r6
   2f074:	2f00042e 	bgeu	r5,fp,2f088 <__umoddi3+0x35c>
   2f078:	2c4b883a 	add	r5,r5,r17
   2f07c:	b0bfffc4 	addi	r2,r22,-1
   2f080:	2c40822e 	bgeu	r5,r17,2f28c <__umoddi3+0x560>
   2f084:	102d883a 	mov	r22,r2
   2f088:	2f39c83a 	sub	fp,r5,fp
   2f08c:	e009883a 	mov	r4,fp
   2f090:	b80b883a 	mov	r5,r23
   2f094:	da000115 	stw	r8,4(sp)
   2f098:	0023ea80 	call	23ea8 <__umodsi3>
   2f09c:	e009883a 	mov	r4,fp
   2f0a0:	b80b883a 	mov	r5,r23
   2f0a4:	d8800015 	stw	r2,0(sp)
   2f0a8:	0023ea00 	call	23ea0 <__udivsi3>
   2f0ac:	d9800017 	ldw	r6,0(sp)
   2f0b0:	da000117 	ldw	r8,4(sp)
   2f0b4:	94bfffcc 	andi	r18,r18,65535
   2f0b8:	300c943a 	slli	r6,r6,16
   2f0bc:	1209383a 	mul	r4,r2,r8
   2f0c0:	3490b03a 	or	r8,r6,r18
   2f0c4:	4100042e 	bgeu	r8,r4,2f0d8 <__umoddi3+0x3ac>
   2f0c8:	4451883a 	add	r8,r8,r17
   2f0cc:	10ffffc4 	addi	r3,r2,-1
   2f0d0:	44406a2e 	bgeu	r8,r17,2f27c <__umoddi3+0x550>
   2f0d4:	1805883a 	mov	r2,r3
   2f0d8:	b012943a 	slli	r9,r22,16
   2f0dc:	9abfffcc 	andi	r10,r19,65535
   2f0e0:	980ed43a 	srli	r7,r19,16
   2f0e4:	124ab03a 	or	r5,r2,r9
   2f0e8:	2a7fffcc 	andi	r9,r5,65535
   2f0ec:	280ad43a 	srli	r5,r5,16
   2f0f0:	4a8d383a 	mul	r6,r9,r10
   2f0f4:	49d3383a 	mul	r9,r9,r7
   2f0f8:	2a95383a 	mul	r10,r5,r10
   2f0fc:	3004d43a 	srli	r2,r6,16
   2f100:	4111c83a 	sub	r8,r8,r4
   2f104:	5253883a 	add	r9,r10,r9
   2f108:	4893883a 	add	r9,r9,r2
   2f10c:	29cb383a 	mul	r5,r5,r7
   2f110:	4a80022e 	bgeu	r9,r10,2f11c <__umoddi3+0x3f0>
   2f114:	00800074 	movhi	r2,1
   2f118:	288b883a 	add	r5,r5,r2
   2f11c:	4808d43a 	srli	r4,r9,16
   2f120:	4812943a 	slli	r9,r9,16
   2f124:	31bfffcc 	andi	r6,r6,65535
   2f128:	290b883a 	add	r5,r5,r4
   2f12c:	498d883a 	add	r6,r9,r6
   2f130:	41403a36 	bltu	r8,r5,2f21c <__umoddi3+0x4f0>
   2f134:	41405d26 	beq	r8,r5,2f2ac <__umoddi3+0x580>
   2f138:	4149c83a 	sub	r4,r8,r5
   2f13c:	300f883a 	mov	r7,r6
   2f140:	81cfc83a 	sub	r7,r16,r7
   2f144:	81c7803a 	cmpltu	r3,r16,r7
   2f148:	20c7c83a 	sub	r3,r4,r3
   2f14c:	1d44983a 	sll	r2,r3,r21
   2f150:	3d0ed83a 	srl	r7,r7,r20
   2f154:	1d06d83a 	srl	r3,r3,r20
   2f158:	11c4b03a 	or	r2,r2,r7
   2f15c:	003f9206 	br	2efa8 <__alt_data_end+0xfffeefa8>
   2f160:	0025883a 	mov	r18,zero
   2f164:	003f1806 	br	2edc8 <__alt_data_end+0xfffeedc8>
   2f168:	98a6983a 	sll	r19,r19,r2
   2f16c:	88e8d83a 	srl	r20,r17,r3
   2f170:	80c6d83a 	srl	r3,r16,r3
   2f174:	982cd43a 	srli	r22,r19,16
   2f178:	88a2983a 	sll	r17,r17,r2
   2f17c:	a009883a 	mov	r4,r20
   2f180:	b00b883a 	mov	r5,r22
   2f184:	88eab03a 	or	r21,r17,r3
   2f188:	1025883a 	mov	r18,r2
   2f18c:	0023ea80 	call	23ea8 <__umodsi3>
   2f190:	a009883a 	mov	r4,r20
   2f194:	b00b883a 	mov	r5,r22
   2f198:	1023883a 	mov	r17,r2
   2f19c:	0023ea00 	call	23ea0 <__udivsi3>
   2f1a0:	9f3fffcc 	andi	fp,r19,65535
   2f1a4:	8822943a 	slli	r17,r17,16
   2f1a8:	a80ad43a 	srli	r5,r21,16
   2f1ac:	1705383a 	mul	r2,r2,fp
   2f1b0:	84a8983a 	sll	r20,r16,r18
   2f1b4:	8948b03a 	or	r4,r17,r5
   2f1b8:	2080042e 	bgeu	r4,r2,2f1cc <__umoddi3+0x4a0>
   2f1bc:	24c9883a 	add	r4,r4,r19
   2f1c0:	24c00236 	bltu	r4,r19,2f1cc <__umoddi3+0x4a0>
   2f1c4:	2080012e 	bgeu	r4,r2,2f1cc <__umoddi3+0x4a0>
   2f1c8:	24c9883a 	add	r4,r4,r19
   2f1cc:	20afc83a 	sub	r23,r4,r2
   2f1d0:	b809883a 	mov	r4,r23
   2f1d4:	b00b883a 	mov	r5,r22
   2f1d8:	0023ea80 	call	23ea8 <__umodsi3>
   2f1dc:	1023883a 	mov	r17,r2
   2f1e0:	b809883a 	mov	r4,r23
   2f1e4:	b00b883a 	mov	r5,r22
   2f1e8:	0023ea00 	call	23ea0 <__udivsi3>
   2f1ec:	8822943a 	slli	r17,r17,16
   2f1f0:	1705383a 	mul	r2,r2,fp
   2f1f4:	a93fffcc 	andi	r4,r21,65535
   2f1f8:	8908b03a 	or	r4,r17,r4
   2f1fc:	2080042e 	bgeu	r4,r2,2f210 <__umoddi3+0x4e4>
   2f200:	24c9883a 	add	r4,r4,r19
   2f204:	24c00236 	bltu	r4,r19,2f210 <__umoddi3+0x4e4>
   2f208:	2080012e 	bgeu	r4,r2,2f210 <__umoddi3+0x4e4>
   2f20c:	24c9883a 	add	r4,r4,r19
   2f210:	20a3c83a 	sub	r17,r4,r2
   2f214:	e021883a 	mov	r16,fp
   2f218:	003f3d06 	br	2ef10 <__alt_data_end+0xfffeef10>
   2f21c:	34cfc83a 	sub	r7,r6,r19
   2f220:	2c4bc83a 	sub	r5,r5,r17
   2f224:	31cd803a 	cmpltu	r6,r6,r7
   2f228:	298dc83a 	sub	r6,r5,r6
   2f22c:	4189c83a 	sub	r4,r8,r6
   2f230:	003fc306 	br	2f140 <__alt_data_end+0xfffef140>
   2f234:	000b883a 	mov	r5,zero
   2f238:	002b883a 	mov	r21,zero
   2f23c:	003f0a06 	br	2ee68 <__alt_data_end+0xfffeee68>
   2f240:	01400404 	movi	r5,16
   2f244:	282b883a 	mov	r21,r5
   2f248:	003f0706 	br	2ee68 <__alt_data_end+0xfffeee68>
   2f24c:	01400404 	movi	r5,16
   2f250:	2805883a 	mov	r2,r5
   2f254:	003ecd06 	br	2ed8c <__alt_data_end+0xfffeed8c>
   2f258:	0005883a 	mov	r2,zero
   2f25c:	0007883a 	mov	r3,zero
   2f260:	003f1e06 	br	2eedc <__alt_data_end+0xfffeeedc>
   2f264:	00800404 	movi	r2,16
   2f268:	1007883a 	mov	r3,r2
   2f26c:	003f1b06 	br	2eedc <__alt_data_end+0xfffeeedc>
   2f270:	000b883a 	mov	r5,zero
   2f274:	0005883a 	mov	r2,zero
   2f278:	003ec406 	br	2ed8c <__alt_data_end+0xfffeed8c>
   2f27c:	413f952e 	bgeu	r8,r4,2f0d4 <__alt_data_end+0xfffef0d4>
   2f280:	10bfff84 	addi	r2,r2,-2
   2f284:	4451883a 	add	r8,r8,r17
   2f288:	003f9306 	br	2f0d8 <__alt_data_end+0xfffef0d8>
   2f28c:	2f3f7d2e 	bgeu	r5,fp,2f084 <__alt_data_end+0xfffef084>
   2f290:	b5bfff84 	addi	r22,r22,-2
   2f294:	2c4b883a 	add	r5,r5,r17
   2f298:	003f7b06 	br	2f088 <__alt_data_end+0xfffef088>
   2f29c:	34cd883a 	add	r6,r6,r19
   2f2a0:	003f2a06 	br	2ef4c <__alt_data_end+0xfffeef4c>
   2f2a4:	8005883a 	mov	r2,r16
   2f2a8:	003efe06 	br	2eea4 <__alt_data_end+0xfffeeea4>
   2f2ac:	81bfdb36 	bltu	r16,r6,2f21c <__alt_data_end+0xfffef21c>
   2f2b0:	300f883a 	mov	r7,r6
   2f2b4:	0009883a 	mov	r4,zero
   2f2b8:	003fa106 	br	2f140 <__alt_data_end+0xfffef140>

0002f2bc <__adddf3>:
   2f2bc:	02000434 	movhi	r8,16
   2f2c0:	423fffc4 	addi	r8,r8,-1
   2f2c4:	defffb04 	addi	sp,sp,-20
   2f2c8:	2a12703a 	and	r9,r5,r8
   2f2cc:	2806d7fa 	srli	r3,r5,31
   2f2d0:	3a10703a 	and	r8,r7,r8
   2f2d4:	3804d53a 	srli	r2,r7,20
   2f2d8:	3014d77a 	srli	r10,r6,29
   2f2dc:	dc000015 	stw	r16,0(sp)
   2f2e0:	481290fa 	slli	r9,r9,3
   2f2e4:	2820d53a 	srli	r16,r5,20
   2f2e8:	401090fa 	slli	r8,r8,3
   2f2ec:	200ad77a 	srli	r5,r4,29
   2f2f0:	380ed7fa 	srli	r7,r7,31
   2f2f4:	dc800215 	stw	r18,8(sp)
   2f2f8:	dc400115 	stw	r17,4(sp)
   2f2fc:	dfc00415 	stw	ra,16(sp)
   2f300:	dcc00315 	stw	r19,12(sp)
   2f304:	1c803fcc 	andi	r18,r3,255
   2f308:	8401ffcc 	andi	r16,r16,2047
   2f30c:	494ab03a 	or	r5,r9,r5
   2f310:	202290fa 	slli	r17,r4,3
   2f314:	1081ffcc 	andi	r2,r2,2047
   2f318:	4290b03a 	or	r8,r8,r10
   2f31c:	300c90fa 	slli	r6,r6,3
   2f320:	91c07026 	beq	r18,r7,2f4e4 <__adddf3+0x228>
   2f324:	8087c83a 	sub	r3,r16,r2
   2f328:	00c0b30e 	bge	zero,r3,2f5f8 <__adddf3+0x33c>
   2f32c:	10002a1e 	bne	r2,zero,2f3d8 <__adddf3+0x11c>
   2f330:	4184b03a 	or	r2,r8,r6
   2f334:	1000991e 	bne	r2,zero,2f59c <__adddf3+0x2e0>
   2f338:	888001cc 	andi	r2,r17,7
   2f33c:	10005b26 	beq	r2,zero,2f4ac <__adddf3+0x1f0>
   2f340:	88c003cc 	andi	r3,r17,15
   2f344:	00800104 	movi	r2,4
   2f348:	18805826 	beq	r3,r2,2f4ac <__adddf3+0x1f0>
   2f34c:	89800104 	addi	r6,r17,4
   2f350:	3463803a 	cmpltu	r17,r6,r17
   2f354:	2c4b883a 	add	r5,r5,r17
   2f358:	2880202c 	andhi	r2,r5,128
   2f35c:	9007883a 	mov	r3,r18
   2f360:	3023883a 	mov	r17,r6
   2f364:	10005426 	beq	r2,zero,2f4b8 <__adddf3+0x1fc>
   2f368:	84000044 	addi	r16,r16,1
   2f36c:	0081ffc4 	movi	r2,2047
   2f370:	8080c126 	beq	r16,r2,2f678 <__adddf3+0x3bc>
   2f374:	013fe034 	movhi	r4,65408
   2f378:	213fffc4 	addi	r4,r4,-1
   2f37c:	290a703a 	and	r5,r5,r4
   2f380:	2804977a 	slli	r2,r5,29
   2f384:	280a927a 	slli	r5,r5,9
   2f388:	8822d0fa 	srli	r17,r17,3
   2f38c:	8401ffcc 	andi	r16,r16,2047
   2f390:	2808d33a 	srli	r4,r5,12
   2f394:	1444b03a 	or	r2,r2,r17
   2f398:	8401ffcc 	andi	r16,r16,2047
   2f39c:	800a953a 	slli	r5,r16,20
   2f3a0:	18c03fcc 	andi	r3,r3,255
   2f3a4:	04000434 	movhi	r16,16
   2f3a8:	180697fa 	slli	r3,r3,31
   2f3ac:	843fffc4 	addi	r16,r16,-1
   2f3b0:	2420703a 	and	r16,r4,r16
   2f3b4:	8160b03a 	or	r16,r16,r5
   2f3b8:	80c6b03a 	or	r3,r16,r3
   2f3bc:	dfc00417 	ldw	ra,16(sp)
   2f3c0:	dcc00317 	ldw	r19,12(sp)
   2f3c4:	dc800217 	ldw	r18,8(sp)
   2f3c8:	dc400117 	ldw	r17,4(sp)
   2f3cc:	dc000017 	ldw	r16,0(sp)
   2f3d0:	dec00504 	addi	sp,sp,20
   2f3d4:	f800283a 	ret
   2f3d8:	0081ffc4 	movi	r2,2047
   2f3dc:	80bfd626 	beq	r16,r2,2f338 <__alt_data_end+0xfffef338>
   2f3e0:	42002034 	orhi	r8,r8,128
   2f3e4:	00800e04 	movi	r2,56
   2f3e8:	10c0a616 	blt	r2,r3,2f684 <__adddf3+0x3c8>
   2f3ec:	008007c4 	movi	r2,31
   2f3f0:	10c0c916 	blt	r2,r3,2f718 <__adddf3+0x45c>
   2f3f4:	00800804 	movi	r2,32
   2f3f8:	10c5c83a 	sub	r2,r2,r3
   2f3fc:	408e983a 	sll	r7,r8,r2
   2f400:	30c8d83a 	srl	r4,r6,r3
   2f404:	3084983a 	sll	r2,r6,r2
   2f408:	40c6d83a 	srl	r3,r8,r3
   2f40c:	390cb03a 	or	r6,r7,r4
   2f410:	1004c03a 	cmpne	r2,r2,zero
   2f414:	308cb03a 	or	r6,r6,r2
   2f418:	898dc83a 	sub	r6,r17,r6
   2f41c:	89a3803a 	cmpltu	r17,r17,r6
   2f420:	28cbc83a 	sub	r5,r5,r3
   2f424:	2c4bc83a 	sub	r5,r5,r17
   2f428:	3023883a 	mov	r17,r6
   2f42c:	2880202c 	andhi	r2,r5,128
   2f430:	10006d26 	beq	r2,zero,2f5e8 <__adddf3+0x32c>
   2f434:	04c02034 	movhi	r19,128
   2f438:	9cffffc4 	addi	r19,r19,-1
   2f43c:	2ce6703a 	and	r19,r5,r19
   2f440:	98007e26 	beq	r19,zero,2f63c <__adddf3+0x380>
   2f444:	9809883a 	mov	r4,r19
   2f448:	00254740 	call	25474 <__clzsi2>
   2f44c:	10fffe04 	addi	r3,r2,-8
   2f450:	010007c4 	movi	r4,31
   2f454:	20c07f16 	blt	r4,r3,2f654 <__adddf3+0x398>
   2f458:	01400a04 	movi	r5,40
   2f45c:	2885c83a 	sub	r2,r5,r2
   2f460:	888ad83a 	srl	r5,r17,r2
   2f464:	98e6983a 	sll	r19,r19,r3
   2f468:	88e2983a 	sll	r17,r17,r3
   2f46c:	2ce6b03a 	or	r19,r5,r19
   2f470:	1c007c16 	blt	r3,r16,2f664 <__adddf3+0x3a8>
   2f474:	1c21c83a 	sub	r16,r3,r16
   2f478:	81400044 	addi	r5,r16,1
   2f47c:	00c007c4 	movi	r3,31
   2f480:	19409816 	blt	r3,r5,2f6e4 <__adddf3+0x428>
   2f484:	1c21c83a 	sub	r16,r3,r16
   2f488:	8c08983a 	sll	r4,r17,r16
   2f48c:	8946d83a 	srl	r3,r17,r5
   2f490:	9c20983a 	sll	r16,r19,r16
   2f494:	2008c03a 	cmpne	r4,r4,zero
   2f498:	994ad83a 	srl	r5,r19,r5
   2f49c:	1c06b03a 	or	r3,r3,r16
   2f4a0:	1922b03a 	or	r17,r3,r4
   2f4a4:	0021883a 	mov	r16,zero
   2f4a8:	003fa306 	br	2f338 <__alt_data_end+0xfffef338>
   2f4ac:	2880202c 	andhi	r2,r5,128
   2f4b0:	9007883a 	mov	r3,r18
   2f4b4:	103fac1e 	bne	r2,zero,2f368 <__alt_data_end+0xfffef368>
   2f4b8:	2804977a 	slli	r2,r5,29
   2f4bc:	8822d0fa 	srli	r17,r17,3
   2f4c0:	0101ffc4 	movi	r4,2047
   2f4c4:	280ad0fa 	srli	r5,r5,3
   2f4c8:	1444b03a 	or	r2,r2,r17
   2f4cc:	81002c26 	beq	r16,r4,2f580 <__adddf3+0x2c4>
   2f4d0:	8120703a 	and	r16,r16,r4
   2f4d4:	01000434 	movhi	r4,16
   2f4d8:	213fffc4 	addi	r4,r4,-1
   2f4dc:	2908703a 	and	r4,r5,r4
   2f4e0:	003fad06 	br	2f398 <__alt_data_end+0xfffef398>
   2f4e4:	8089c83a 	sub	r4,r16,r2
   2f4e8:	01006a0e 	bge	zero,r4,2f694 <__adddf3+0x3d8>
   2f4ec:	10003326 	beq	r2,zero,2f5bc <__adddf3+0x300>
   2f4f0:	0081ffc4 	movi	r2,2047
   2f4f4:	80bf9026 	beq	r16,r2,2f338 <__alt_data_end+0xfffef338>
   2f4f8:	42002034 	orhi	r8,r8,128
   2f4fc:	00800e04 	movi	r2,56
   2f500:	1100b116 	blt	r2,r4,2f7c8 <__adddf3+0x50c>
   2f504:	008007c4 	movi	r2,31
   2f508:	1100e216 	blt	r2,r4,2f894 <__adddf3+0x5d8>
   2f50c:	00800804 	movi	r2,32
   2f510:	1105c83a 	sub	r2,r2,r4
   2f514:	4092983a 	sll	r9,r8,r2
   2f518:	310ed83a 	srl	r7,r6,r4
   2f51c:	3084983a 	sll	r2,r6,r2
   2f520:	4110d83a 	srl	r8,r8,r4
   2f524:	49ccb03a 	or	r6,r9,r7
   2f528:	1004c03a 	cmpne	r2,r2,zero
   2f52c:	308cb03a 	or	r6,r6,r2
   2f530:	344d883a 	add	r6,r6,r17
   2f534:	3463803a 	cmpltu	r17,r6,r17
   2f538:	414b883a 	add	r5,r8,r5
   2f53c:	2c4b883a 	add	r5,r5,r17
   2f540:	3023883a 	mov	r17,r6
   2f544:	2880202c 	andhi	r2,r5,128
   2f548:	10002726 	beq	r2,zero,2f5e8 <__adddf3+0x32c>
   2f54c:	84000044 	addi	r16,r16,1
   2f550:	0081ffc4 	movi	r2,2047
   2f554:	8080ae26 	beq	r16,r2,2f810 <__adddf3+0x554>
   2f558:	00bfe034 	movhi	r2,65408
   2f55c:	10bfffc4 	addi	r2,r2,-1
   2f560:	288a703a 	and	r5,r5,r2
   2f564:	880cd07a 	srli	r6,r17,1
   2f568:	280897fa 	slli	r4,r5,31
   2f56c:	88c0004c 	andi	r3,r17,1
   2f570:	30e2b03a 	or	r17,r6,r3
   2f574:	280ad07a 	srli	r5,r5,1
   2f578:	8922b03a 	or	r17,r17,r4
   2f57c:	003f6e06 	br	2f338 <__alt_data_end+0xfffef338>
   2f580:	1148b03a 	or	r4,r2,r5
   2f584:	20003c26 	beq	r4,zero,2f678 <__adddf3+0x3bc>
   2f588:	29000234 	orhi	r4,r5,8
   2f58c:	01400434 	movhi	r5,16
   2f590:	297fffc4 	addi	r5,r5,-1
   2f594:	2148703a 	and	r4,r4,r5
   2f598:	003f7f06 	br	2f398 <__alt_data_end+0xfffef398>
   2f59c:	18ffffc4 	addi	r3,r3,-1
   2f5a0:	18004d1e 	bne	r3,zero,2f6d8 <__adddf3+0x41c>
   2f5a4:	898dc83a 	sub	r6,r17,r6
   2f5a8:	89a3803a 	cmpltu	r17,r17,r6
   2f5ac:	2a0bc83a 	sub	r5,r5,r8
   2f5b0:	2c4bc83a 	sub	r5,r5,r17
   2f5b4:	3023883a 	mov	r17,r6
   2f5b8:	003f9c06 	br	2f42c <__alt_data_end+0xfffef42c>
   2f5bc:	4184b03a 	or	r2,r8,r6
   2f5c0:	103f5d26 	beq	r2,zero,2f338 <__alt_data_end+0xfffef338>
   2f5c4:	213fffc4 	addi	r4,r4,-1
   2f5c8:	203fd926 	beq	r4,zero,2f530 <__alt_data_end+0xfffef530>
   2f5cc:	0081ffc4 	movi	r2,2047
   2f5d0:	80bfca1e 	bne	r16,r2,2f4fc <__alt_data_end+0xfffef4fc>
   2f5d4:	003f5806 	br	2f338 <__alt_data_end+0xfffef338>
   2f5d8:	10c8b03a 	or	r4,r2,r3
   2f5dc:	20008b26 	beq	r4,zero,2f80c <__adddf3+0x550>
   2f5e0:	100b883a 	mov	r5,r2
   2f5e4:	1823883a 	mov	r17,r3
   2f5e8:	888001cc 	andi	r2,r17,7
   2f5ec:	103f541e 	bne	r2,zero,2f340 <__alt_data_end+0xfffef340>
   2f5f0:	9007883a 	mov	r3,r18
   2f5f4:	003fb006 	br	2f4b8 <__alt_data_end+0xfffef4b8>
   2f5f8:	1800531e 	bne	r3,zero,2f748 <__adddf3+0x48c>
   2f5fc:	80800044 	addi	r2,r16,1
   2f600:	1081ffcc 	andi	r2,r2,2047
   2f604:	00c00044 	movi	r3,1
   2f608:	1880990e 	bge	r3,r2,2f870 <__adddf3+0x5b4>
   2f60c:	8985c83a 	sub	r2,r17,r6
   2f610:	8887803a 	cmpltu	r3,r17,r2
   2f614:	2a27c83a 	sub	r19,r5,r8
   2f618:	98e7c83a 	sub	r19,r19,r3
   2f61c:	98c0202c 	andhi	r3,r19,128
   2f620:	18006226 	beq	r3,zero,2f7ac <__adddf3+0x4f0>
   2f624:	3463c83a 	sub	r17,r6,r17
   2f628:	4151c83a 	sub	r8,r8,r5
   2f62c:	344d803a 	cmpltu	r6,r6,r17
   2f630:	41a7c83a 	sub	r19,r8,r6
   2f634:	3825883a 	mov	r18,r7
   2f638:	983f821e 	bne	r19,zero,2f444 <__alt_data_end+0xfffef444>
   2f63c:	8809883a 	mov	r4,r17
   2f640:	00254740 	call	25474 <__clzsi2>
   2f644:	10800804 	addi	r2,r2,32
   2f648:	10fffe04 	addi	r3,r2,-8
   2f64c:	010007c4 	movi	r4,31
   2f650:	20ff810e 	bge	r4,r3,2f458 <__alt_data_end+0xfffef458>
   2f654:	14fff604 	addi	r19,r2,-40
   2f658:	8ce6983a 	sll	r19,r17,r19
   2f65c:	0023883a 	mov	r17,zero
   2f660:	1c3f840e 	bge	r3,r16,2f474 <__alt_data_end+0xfffef474>
   2f664:	017fe034 	movhi	r5,65408
   2f668:	297fffc4 	addi	r5,r5,-1
   2f66c:	80e1c83a 	sub	r16,r16,r3
   2f670:	994a703a 	and	r5,r19,r5
   2f674:	003f3006 	br	2f338 <__alt_data_end+0xfffef338>
   2f678:	0009883a 	mov	r4,zero
   2f67c:	0005883a 	mov	r2,zero
   2f680:	003f4506 	br	2f398 <__alt_data_end+0xfffef398>
   2f684:	418cb03a 	or	r6,r8,r6
   2f688:	300cc03a 	cmpne	r6,r6,zero
   2f68c:	0007883a 	mov	r3,zero
   2f690:	003f6106 	br	2f418 <__alt_data_end+0xfffef418>
   2f694:	2000921e 	bne	r4,zero,2f8e0 <__adddf3+0x624>
   2f698:	80800044 	addi	r2,r16,1
   2f69c:	11c1ffcc 	andi	r7,r2,2047
   2f6a0:	01000044 	movi	r4,1
   2f6a4:	21c0610e 	bge	r4,r7,2f82c <__adddf3+0x570>
   2f6a8:	0101ffc4 	movi	r4,2047
   2f6ac:	1100a326 	beq	r2,r4,2f93c <__adddf3+0x680>
   2f6b0:	344d883a 	add	r6,r6,r17
   2f6b4:	3463803a 	cmpltu	r17,r6,r17
   2f6b8:	414b883a 	add	r5,r8,r5
   2f6bc:	2c4b883a 	add	r5,r5,r17
   2f6c0:	282297fa 	slli	r17,r5,31
   2f6c4:	300cd07a 	srli	r6,r6,1
   2f6c8:	280ad07a 	srli	r5,r5,1
   2f6cc:	1021883a 	mov	r16,r2
   2f6d0:	89a2b03a 	or	r17,r17,r6
   2f6d4:	003f1806 	br	2f338 <__alt_data_end+0xfffef338>
   2f6d8:	0081ffc4 	movi	r2,2047
   2f6dc:	80bf411e 	bne	r16,r2,2f3e4 <__alt_data_end+0xfffef3e4>
   2f6e0:	003f1506 	br	2f338 <__alt_data_end+0xfffef338>
   2f6e4:	80bff844 	addi	r2,r16,-31
   2f6e8:	00c00804 	movi	r3,32
   2f6ec:	9884d83a 	srl	r2,r19,r2
   2f6f0:	28c04a26 	beq	r5,r3,2f81c <__adddf3+0x560>
   2f6f4:	00c00fc4 	movi	r3,63
   2f6f8:	1c21c83a 	sub	r16,r3,r16
   2f6fc:	9c26983a 	sll	r19,r19,r16
   2f700:	9c62b03a 	or	r17,r19,r17
   2f704:	8822c03a 	cmpne	r17,r17,zero
   2f708:	88a2b03a 	or	r17,r17,r2
   2f70c:	000b883a 	mov	r5,zero
   2f710:	0021883a 	mov	r16,zero
   2f714:	003fb406 	br	2f5e8 <__alt_data_end+0xfffef5e8>
   2f718:	18bff804 	addi	r2,r3,-32
   2f71c:	01000804 	movi	r4,32
   2f720:	4084d83a 	srl	r2,r8,r2
   2f724:	19003f26 	beq	r3,r4,2f824 <__adddf3+0x568>
   2f728:	01001004 	movi	r4,64
   2f72c:	20c7c83a 	sub	r3,r4,r3
   2f730:	40d0983a 	sll	r8,r8,r3
   2f734:	418cb03a 	or	r6,r8,r6
   2f738:	300cc03a 	cmpne	r6,r6,zero
   2f73c:	308cb03a 	or	r6,r6,r2
   2f740:	0007883a 	mov	r3,zero
   2f744:	003f3406 	br	2f418 <__alt_data_end+0xfffef418>
   2f748:	80002326 	beq	r16,zero,2f7d8 <__adddf3+0x51c>
   2f74c:	0101ffc4 	movi	r4,2047
   2f750:	11005e26 	beq	r2,r4,2f8cc <__adddf3+0x610>
   2f754:	00c7c83a 	sub	r3,zero,r3
   2f758:	29402034 	orhi	r5,r5,128
   2f75c:	01000e04 	movi	r4,56
   2f760:	20c07216 	blt	r4,r3,2f92c <__adddf3+0x670>
   2f764:	010007c4 	movi	r4,31
   2f768:	20c0ce16 	blt	r4,r3,2faa4 <__adddf3+0x7e8>
   2f76c:	01000804 	movi	r4,32
   2f770:	20c9c83a 	sub	r4,r4,r3
   2f774:	2914983a 	sll	r10,r5,r4
   2f778:	88d2d83a 	srl	r9,r17,r3
   2f77c:	8908983a 	sll	r4,r17,r4
   2f780:	28c6d83a 	srl	r3,r5,r3
   2f784:	5262b03a 	or	r17,r10,r9
   2f788:	2008c03a 	cmpne	r4,r4,zero
   2f78c:	8922b03a 	or	r17,r17,r4
   2f790:	3463c83a 	sub	r17,r6,r17
   2f794:	40c7c83a 	sub	r3,r8,r3
   2f798:	344d803a 	cmpltu	r6,r6,r17
   2f79c:	198bc83a 	sub	r5,r3,r6
   2f7a0:	1021883a 	mov	r16,r2
   2f7a4:	3825883a 	mov	r18,r7
   2f7a8:	003f2006 	br	2f42c <__alt_data_end+0xfffef42c>
   2f7ac:	9886b03a 	or	r3,r19,r2
   2f7b0:	1800141e 	bne	r3,zero,2f804 <__adddf3+0x548>
   2f7b4:	0007883a 	mov	r3,zero
   2f7b8:	000b883a 	mov	r5,zero
   2f7bc:	0023883a 	mov	r17,zero
   2f7c0:	0021883a 	mov	r16,zero
   2f7c4:	003f3c06 	br	2f4b8 <__alt_data_end+0xfffef4b8>
   2f7c8:	418cb03a 	or	r6,r8,r6
   2f7cc:	300cc03a 	cmpne	r6,r6,zero
   2f7d0:	0011883a 	mov	r8,zero
   2f7d4:	003f5606 	br	2f530 <__alt_data_end+0xfffef530>
   2f7d8:	2c48b03a 	or	r4,r5,r17
   2f7dc:	20003b26 	beq	r4,zero,2f8cc <__adddf3+0x610>
   2f7e0:	00c6303a 	nor	r3,zero,r3
   2f7e4:	1800371e 	bne	r3,zero,2f8c4 <__adddf3+0x608>
   2f7e8:	3463c83a 	sub	r17,r6,r17
   2f7ec:	414bc83a 	sub	r5,r8,r5
   2f7f0:	344d803a 	cmpltu	r6,r6,r17
   2f7f4:	298bc83a 	sub	r5,r5,r6
   2f7f8:	1021883a 	mov	r16,r2
   2f7fc:	3825883a 	mov	r18,r7
   2f800:	003f0a06 	br	2f42c <__alt_data_end+0xfffef42c>
   2f804:	1023883a 	mov	r17,r2
   2f808:	003f0d06 	br	2f440 <__alt_data_end+0xfffef440>
   2f80c:	0007883a 	mov	r3,zero
   2f810:	000b883a 	mov	r5,zero
   2f814:	0023883a 	mov	r17,zero
   2f818:	003f2706 	br	2f4b8 <__alt_data_end+0xfffef4b8>
   2f81c:	0027883a 	mov	r19,zero
   2f820:	003fb706 	br	2f700 <__alt_data_end+0xfffef700>
   2f824:	0011883a 	mov	r8,zero
   2f828:	003fc206 	br	2f734 <__alt_data_end+0xfffef734>
   2f82c:	2c44b03a 	or	r2,r5,r17
   2f830:	8000871e 	bne	r16,zero,2fa50 <__adddf3+0x794>
   2f834:	1000b126 	beq	r2,zero,2fafc <__adddf3+0x840>
   2f838:	4184b03a 	or	r2,r8,r6
   2f83c:	103ebe26 	beq	r2,zero,2f338 <__alt_data_end+0xfffef338>
   2f840:	3445883a 	add	r2,r6,r17
   2f844:	1463803a 	cmpltu	r17,r2,r17
   2f848:	414b883a 	add	r5,r8,r5
   2f84c:	2c4b883a 	add	r5,r5,r17
   2f850:	28c0202c 	andhi	r3,r5,128
   2f854:	1023883a 	mov	r17,r2
   2f858:	183f6326 	beq	r3,zero,2f5e8 <__alt_data_end+0xfffef5e8>
   2f85c:	00bfe034 	movhi	r2,65408
   2f860:	10bfffc4 	addi	r2,r2,-1
   2f864:	2021883a 	mov	r16,r4
   2f868:	288a703a 	and	r5,r5,r2
   2f86c:	003eb206 	br	2f338 <__alt_data_end+0xfffef338>
   2f870:	2c44b03a 	or	r2,r5,r17
   2f874:	8000251e 	bne	r16,zero,2f90c <__adddf3+0x650>
   2f878:	10004b1e 	bne	r2,zero,2f9a8 <__adddf3+0x6ec>
   2f87c:	4184b03a 	or	r2,r8,r6
   2f880:	103fe226 	beq	r2,zero,2f80c <__alt_data_end+0xfffef80c>
   2f884:	400b883a 	mov	r5,r8
   2f888:	3023883a 	mov	r17,r6
   2f88c:	3825883a 	mov	r18,r7
   2f890:	003ea906 	br	2f338 <__alt_data_end+0xfffef338>
   2f894:	20bff804 	addi	r2,r4,-32
   2f898:	01c00804 	movi	r7,32
   2f89c:	4084d83a 	srl	r2,r8,r2
   2f8a0:	21c07e26 	beq	r4,r7,2fa9c <__adddf3+0x7e0>
   2f8a4:	01c01004 	movi	r7,64
   2f8a8:	3909c83a 	sub	r4,r7,r4
   2f8ac:	4110983a 	sll	r8,r8,r4
   2f8b0:	418cb03a 	or	r6,r8,r6
   2f8b4:	300cc03a 	cmpne	r6,r6,zero
   2f8b8:	308cb03a 	or	r6,r6,r2
   2f8bc:	0011883a 	mov	r8,zero
   2f8c0:	003f1b06 	br	2f530 <__alt_data_end+0xfffef530>
   2f8c4:	0101ffc4 	movi	r4,2047
   2f8c8:	113fa41e 	bne	r2,r4,2f75c <__alt_data_end+0xfffef75c>
   2f8cc:	400b883a 	mov	r5,r8
   2f8d0:	3023883a 	mov	r17,r6
   2f8d4:	1021883a 	mov	r16,r2
   2f8d8:	3825883a 	mov	r18,r7
   2f8dc:	003e9606 	br	2f338 <__alt_data_end+0xfffef338>
   2f8e0:	80001a1e 	bne	r16,zero,2f94c <__adddf3+0x690>
   2f8e4:	2c4eb03a 	or	r7,r5,r17
   2f8e8:	38005526 	beq	r7,zero,2fa40 <__adddf3+0x784>
   2f8ec:	0108303a 	nor	r4,zero,r4
   2f8f0:	2000511e 	bne	r4,zero,2fa38 <__adddf3+0x77c>
   2f8f4:	89a3883a 	add	r17,r17,r6
   2f8f8:	414b883a 	add	r5,r8,r5
   2f8fc:	898d803a 	cmpltu	r6,r17,r6
   2f900:	298b883a 	add	r5,r5,r6
   2f904:	1021883a 	mov	r16,r2
   2f908:	003f0e06 	br	2f544 <__alt_data_end+0xfffef544>
   2f90c:	1000341e 	bne	r2,zero,2f9e0 <__adddf3+0x724>
   2f910:	4184b03a 	or	r2,r8,r6
   2f914:	10006f26 	beq	r2,zero,2fad4 <__adddf3+0x818>
   2f918:	400b883a 	mov	r5,r8
   2f91c:	3023883a 	mov	r17,r6
   2f920:	3825883a 	mov	r18,r7
   2f924:	0401ffc4 	movi	r16,2047
   2f928:	003e8306 	br	2f338 <__alt_data_end+0xfffef338>
   2f92c:	2c62b03a 	or	r17,r5,r17
   2f930:	8822c03a 	cmpne	r17,r17,zero
   2f934:	0007883a 	mov	r3,zero
   2f938:	003f9506 	br	2f790 <__alt_data_end+0xfffef790>
   2f93c:	1021883a 	mov	r16,r2
   2f940:	000b883a 	mov	r5,zero
   2f944:	0023883a 	mov	r17,zero
   2f948:	003edb06 	br	2f4b8 <__alt_data_end+0xfffef4b8>
   2f94c:	01c1ffc4 	movi	r7,2047
   2f950:	11c03b26 	beq	r2,r7,2fa40 <__adddf3+0x784>
   2f954:	0109c83a 	sub	r4,zero,r4
   2f958:	29402034 	orhi	r5,r5,128
   2f95c:	01c00e04 	movi	r7,56
   2f960:	39006216 	blt	r7,r4,2faec <__adddf3+0x830>
   2f964:	01c007c4 	movi	r7,31
   2f968:	39006b16 	blt	r7,r4,2fb18 <__adddf3+0x85c>
   2f96c:	01c00804 	movi	r7,32
   2f970:	390fc83a 	sub	r7,r7,r4
   2f974:	29d4983a 	sll	r10,r5,r7
   2f978:	8912d83a 	srl	r9,r17,r4
   2f97c:	89ce983a 	sll	r7,r17,r7
   2f980:	2908d83a 	srl	r4,r5,r4
   2f984:	5262b03a 	or	r17,r10,r9
   2f988:	380ac03a 	cmpne	r5,r7,zero
   2f98c:	8962b03a 	or	r17,r17,r5
   2f990:	89a3883a 	add	r17,r17,r6
   2f994:	2211883a 	add	r8,r4,r8
   2f998:	898d803a 	cmpltu	r6,r17,r6
   2f99c:	418b883a 	add	r5,r8,r6
   2f9a0:	1021883a 	mov	r16,r2
   2f9a4:	003ee706 	br	2f544 <__alt_data_end+0xfffef544>
   2f9a8:	4184b03a 	or	r2,r8,r6
   2f9ac:	103e6226 	beq	r2,zero,2f338 <__alt_data_end+0xfffef338>
   2f9b0:	8987c83a 	sub	r3,r17,r6
   2f9b4:	88c9803a 	cmpltu	r4,r17,r3
   2f9b8:	2a05c83a 	sub	r2,r5,r8
   2f9bc:	1105c83a 	sub	r2,r2,r4
   2f9c0:	1100202c 	andhi	r4,r2,128
   2f9c4:	203f0426 	beq	r4,zero,2f5d8 <__alt_data_end+0xfffef5d8>
   2f9c8:	3463c83a 	sub	r17,r6,r17
   2f9cc:	414bc83a 	sub	r5,r8,r5
   2f9d0:	344d803a 	cmpltu	r6,r6,r17
   2f9d4:	298bc83a 	sub	r5,r5,r6
   2f9d8:	3825883a 	mov	r18,r7
   2f9dc:	003e5606 	br	2f338 <__alt_data_end+0xfffef338>
   2f9e0:	4184b03a 	or	r2,r8,r6
   2f9e4:	10002b26 	beq	r2,zero,2fa94 <__adddf3+0x7d8>
   2f9e8:	2804d0fa 	srli	r2,r5,3
   2f9ec:	8822d0fa 	srli	r17,r17,3
   2f9f0:	280a977a 	slli	r5,r5,29
   2f9f4:	10c0022c 	andhi	r3,r2,8
   2f9f8:	2c62b03a 	or	r17,r5,r17
   2f9fc:	18000826 	beq	r3,zero,2fa20 <__adddf3+0x764>
   2fa00:	4008d0fa 	srli	r4,r8,3
   2fa04:	20c0022c 	andhi	r3,r4,8
   2fa08:	1800051e 	bne	r3,zero,2fa20 <__adddf3+0x764>
   2fa0c:	300cd0fa 	srli	r6,r6,3
   2fa10:	4010977a 	slli	r8,r8,29
   2fa14:	2005883a 	mov	r2,r4
   2fa18:	3825883a 	mov	r18,r7
   2fa1c:	41a2b03a 	or	r17,r8,r6
   2fa20:	880ad77a 	srli	r5,r17,29
   2fa24:	100490fa 	slli	r2,r2,3
   2fa28:	882290fa 	slli	r17,r17,3
   2fa2c:	0401ffc4 	movi	r16,2047
   2fa30:	288ab03a 	or	r5,r5,r2
   2fa34:	003e4006 	br	2f338 <__alt_data_end+0xfffef338>
   2fa38:	01c1ffc4 	movi	r7,2047
   2fa3c:	11ffc71e 	bne	r2,r7,2f95c <__alt_data_end+0xfffef95c>
   2fa40:	400b883a 	mov	r5,r8
   2fa44:	3023883a 	mov	r17,r6
   2fa48:	1021883a 	mov	r16,r2
   2fa4c:	003e3a06 	br	2f338 <__alt_data_end+0xfffef338>
   2fa50:	10002d26 	beq	r2,zero,2fb08 <__adddf3+0x84c>
   2fa54:	4184b03a 	or	r2,r8,r6
   2fa58:	10000e26 	beq	r2,zero,2fa94 <__adddf3+0x7d8>
   2fa5c:	2804d0fa 	srli	r2,r5,3
   2fa60:	8822d0fa 	srli	r17,r17,3
   2fa64:	280a977a 	slli	r5,r5,29
   2fa68:	10c0022c 	andhi	r3,r2,8
   2fa6c:	2c62b03a 	or	r17,r5,r17
   2fa70:	183feb26 	beq	r3,zero,2fa20 <__alt_data_end+0xfffefa20>
   2fa74:	4008d0fa 	srli	r4,r8,3
   2fa78:	20c0022c 	andhi	r3,r4,8
   2fa7c:	183fe81e 	bne	r3,zero,2fa20 <__alt_data_end+0xfffefa20>
   2fa80:	300cd0fa 	srli	r6,r6,3
   2fa84:	4010977a 	slli	r8,r8,29
   2fa88:	2005883a 	mov	r2,r4
   2fa8c:	41a2b03a 	or	r17,r8,r6
   2fa90:	003fe306 	br	2fa20 <__alt_data_end+0xfffefa20>
   2fa94:	0401ffc4 	movi	r16,2047
   2fa98:	003e2706 	br	2f338 <__alt_data_end+0xfffef338>
   2fa9c:	0011883a 	mov	r8,zero
   2faa0:	003f8306 	br	2f8b0 <__alt_data_end+0xfffef8b0>
   2faa4:	193ff804 	addi	r4,r3,-32
   2faa8:	02400804 	movi	r9,32
   2faac:	2908d83a 	srl	r4,r5,r4
   2fab0:	1a402526 	beq	r3,r9,2fb48 <__adddf3+0x88c>
   2fab4:	02401004 	movi	r9,64
   2fab8:	48c7c83a 	sub	r3,r9,r3
   2fabc:	28ca983a 	sll	r5,r5,r3
   2fac0:	2c62b03a 	or	r17,r5,r17
   2fac4:	8822c03a 	cmpne	r17,r17,zero
   2fac8:	8922b03a 	or	r17,r17,r4
   2facc:	0007883a 	mov	r3,zero
   2fad0:	003f2f06 	br	2f790 <__alt_data_end+0xfffef790>
   2fad4:	01402034 	movhi	r5,128
   2fad8:	0007883a 	mov	r3,zero
   2fadc:	297fffc4 	addi	r5,r5,-1
   2fae0:	047ffe04 	movi	r17,-8
   2fae4:	0401ffc4 	movi	r16,2047
   2fae8:	003e7306 	br	2f4b8 <__alt_data_end+0xfffef4b8>
   2faec:	2c62b03a 	or	r17,r5,r17
   2faf0:	8822c03a 	cmpne	r17,r17,zero
   2faf4:	0009883a 	mov	r4,zero
   2faf8:	003fa506 	br	2f990 <__alt_data_end+0xfffef990>
   2fafc:	400b883a 	mov	r5,r8
   2fb00:	3023883a 	mov	r17,r6
   2fb04:	003e0c06 	br	2f338 <__alt_data_end+0xfffef338>
   2fb08:	400b883a 	mov	r5,r8
   2fb0c:	3023883a 	mov	r17,r6
   2fb10:	0401ffc4 	movi	r16,2047
   2fb14:	003e0806 	br	2f338 <__alt_data_end+0xfffef338>
   2fb18:	21fff804 	addi	r7,r4,-32
   2fb1c:	02400804 	movi	r9,32
   2fb20:	29ced83a 	srl	r7,r5,r7
   2fb24:	22400a26 	beq	r4,r9,2fb50 <__adddf3+0x894>
   2fb28:	02401004 	movi	r9,64
   2fb2c:	4909c83a 	sub	r4,r9,r4
   2fb30:	290a983a 	sll	r5,r5,r4
   2fb34:	2c62b03a 	or	r17,r5,r17
   2fb38:	8822c03a 	cmpne	r17,r17,zero
   2fb3c:	89e2b03a 	or	r17,r17,r7
   2fb40:	0009883a 	mov	r4,zero
   2fb44:	003f9206 	br	2f990 <__alt_data_end+0xfffef990>
   2fb48:	000b883a 	mov	r5,zero
   2fb4c:	003fdc06 	br	2fac0 <__alt_data_end+0xfffefac0>
   2fb50:	000b883a 	mov	r5,zero
   2fb54:	003ff706 	br	2fb34 <__alt_data_end+0xfffefb34>

0002fb58 <__divdf3>:
   2fb58:	defff204 	addi	sp,sp,-56
   2fb5c:	dd000815 	stw	r20,32(sp)
   2fb60:	2828d53a 	srli	r20,r5,20
   2fb64:	dd800a15 	stw	r22,40(sp)
   2fb68:	282cd7fa 	srli	r22,r5,31
   2fb6c:	dc000415 	stw	r16,16(sp)
   2fb70:	04000434 	movhi	r16,16
   2fb74:	df000c15 	stw	fp,48(sp)
   2fb78:	dcc00715 	stw	r19,28(sp)
   2fb7c:	dc800615 	stw	r18,24(sp)
   2fb80:	dc400515 	stw	r17,20(sp)
   2fb84:	843fffc4 	addi	r16,r16,-1
   2fb88:	dfc00d15 	stw	ra,52(sp)
   2fb8c:	ddc00b15 	stw	r23,44(sp)
   2fb90:	dd400915 	stw	r21,36(sp)
   2fb94:	a501ffcc 	andi	r20,r20,2047
   2fb98:	2025883a 	mov	r18,r4
   2fb9c:	2027883a 	mov	r19,r4
   2fba0:	2c22703a 	and	r17,r5,r16
   2fba4:	b7003fcc 	andi	fp,r22,255
   2fba8:	a0005e26 	beq	r20,zero,2fd24 <__divdf3+0x1cc>
   2fbac:	0081ffc4 	movi	r2,2047
   2fbb0:	a0803526 	beq	r20,r2,2fc88 <__divdf3+0x130>
   2fbb4:	8c000434 	orhi	r16,r17,16
   2fbb8:	2004d77a 	srli	r2,r4,29
   2fbbc:	802090fa 	slli	r16,r16,3
   2fbc0:	202690fa 	slli	r19,r4,3
   2fbc4:	a53f0044 	addi	r20,r20,-1023
   2fbc8:	80a2b03a 	or	r17,r16,r2
   2fbcc:	0025883a 	mov	r18,zero
   2fbd0:	0011883a 	mov	r8,zero
   2fbd4:	380ad53a 	srli	r5,r7,20
   2fbd8:	382ed7fa 	srli	r23,r7,31
   2fbdc:	04000434 	movhi	r16,16
   2fbe0:	843fffc4 	addi	r16,r16,-1
   2fbe4:	2941ffcc 	andi	r5,r5,2047
   2fbe8:	302b883a 	mov	r21,r6
   2fbec:	3c20703a 	and	r16,r7,r16
   2fbf0:	ba403fcc 	andi	r9,r23,255
   2fbf4:	28006726 	beq	r5,zero,2fd94 <__divdf3+0x23c>
   2fbf8:	0081ffc4 	movi	r2,2047
   2fbfc:	28805f26 	beq	r5,r2,2fd7c <__divdf3+0x224>
   2fc00:	84000434 	orhi	r16,r16,16
   2fc04:	3004d77a 	srli	r2,r6,29
   2fc08:	802090fa 	slli	r16,r16,3
   2fc0c:	302a90fa 	slli	r21,r6,3
   2fc10:	297f0044 	addi	r5,r5,-1023
   2fc14:	80a0b03a 	or	r16,r16,r2
   2fc18:	000f883a 	mov	r7,zero
   2fc1c:	3c86b03a 	or	r3,r7,r18
   2fc20:	180690ba 	slli	r3,r3,2
   2fc24:	008000f4 	movhi	r2,3
   2fc28:	10bf1204 	addi	r2,r2,-952
   2fc2c:	1887883a 	add	r3,r3,r2
   2fc30:	18c00017 	ldw	r3,0(r3)
   2fc34:	b5c8f03a 	xor	r4,r22,r23
   2fc38:	200d883a 	mov	r6,r4
   2fc3c:	24803fcc 	andi	r18,r4,255
   2fc40:	a169c83a 	sub	r20,r20,r5
   2fc44:	1800683a 	jmp	r3
   2fc48:	0002fe90 	cmplti	zero,zero,3066
   2fc4c:	0002fcc0 	call	2fcc <__alt_mem_onchip_memory2_0-0x1d034>
   2fc50:	0002fe54 	movui	zero,3065
   2fc54:	0002fca4 	muli	zero,zero,3058
   2fc58:	0002fe54 	movui	zero,3065
   2fc5c:	0002fe28 	cmpgeui	zero,zero,3064
   2fc60:	0002fe54 	movui	zero,3065
   2fc64:	0002fca4 	muli	zero,zero,3058
   2fc68:	0002fcc0 	call	2fcc <__alt_mem_onchip_memory2_0-0x1d034>
   2fc6c:	0002fcc0 	call	2fcc <__alt_mem_onchip_memory2_0-0x1d034>
   2fc70:	0002fe28 	cmpgeui	zero,zero,3064
   2fc74:	0002fca4 	muli	zero,zero,3058
   2fc78:	0002fcb4 	movhi	zero,3058
   2fc7c:	0002fcb4 	movhi	zero,3058
   2fc80:	0002fcb4 	movhi	zero,3058
   2fc84:	0002fe64 	muli	zero,zero,3065
   2fc88:	8904b03a 	or	r2,r17,r4
   2fc8c:	1000631e 	bne	r2,zero,2fe1c <__divdf3+0x2c4>
   2fc90:	04800204 	movi	r18,8
   2fc94:	0023883a 	mov	r17,zero
   2fc98:	0027883a 	mov	r19,zero
   2fc9c:	02000084 	movi	r8,2
   2fca0:	003fcc06 	br	2fbd4 <__alt_data_end+0xfffefbd4>
   2fca4:	8023883a 	mov	r17,r16
   2fca8:	a827883a 	mov	r19,r21
   2fcac:	4839883a 	mov	fp,r9
   2fcb0:	3811883a 	mov	r8,r7
   2fcb4:	00800084 	movi	r2,2
   2fcb8:	40812a1e 	bne	r8,r2,30164 <__divdf3+0x60c>
   2fcbc:	e025883a 	mov	r18,fp
   2fcc0:	9180004c 	andi	r6,r18,1
   2fcc4:	0101ffc4 	movi	r4,2047
   2fcc8:	000b883a 	mov	r5,zero
   2fccc:	0027883a 	mov	r19,zero
   2fcd0:	2008953a 	slli	r4,r4,20
   2fcd4:	30c03fcc 	andi	r3,r6,255
   2fcd8:	04000434 	movhi	r16,16
   2fcdc:	180697fa 	slli	r3,r3,31
   2fce0:	843fffc4 	addi	r16,r16,-1
   2fce4:	2c20703a 	and	r16,r5,r16
   2fce8:	8120b03a 	or	r16,r16,r4
   2fcec:	80c6b03a 	or	r3,r16,r3
   2fcf0:	9805883a 	mov	r2,r19
   2fcf4:	dfc00d17 	ldw	ra,52(sp)
   2fcf8:	df000c17 	ldw	fp,48(sp)
   2fcfc:	ddc00b17 	ldw	r23,44(sp)
   2fd00:	dd800a17 	ldw	r22,40(sp)
   2fd04:	dd400917 	ldw	r21,36(sp)
   2fd08:	dd000817 	ldw	r20,32(sp)
   2fd0c:	dcc00717 	ldw	r19,28(sp)
   2fd10:	dc800617 	ldw	r18,24(sp)
   2fd14:	dc400517 	ldw	r17,20(sp)
   2fd18:	dc000417 	ldw	r16,16(sp)
   2fd1c:	dec00e04 	addi	sp,sp,56
   2fd20:	f800283a 	ret
   2fd24:	8904b03a 	or	r2,r17,r4
   2fd28:	10003726 	beq	r2,zero,2fe08 <__divdf3+0x2b0>
   2fd2c:	88011c26 	beq	r17,zero,301a0 <__divdf3+0x648>
   2fd30:	8809883a 	mov	r4,r17
   2fd34:	d9800315 	stw	r6,12(sp)
   2fd38:	d9c00115 	stw	r7,4(sp)
   2fd3c:	00254740 	call	25474 <__clzsi2>
   2fd40:	d9800317 	ldw	r6,12(sp)
   2fd44:	d9c00117 	ldw	r7,4(sp)
   2fd48:	1007883a 	mov	r3,r2
   2fd4c:	01000a04 	movi	r4,40
   2fd50:	1cfffe04 	addi	r19,r3,-8
   2fd54:	20c9c83a 	sub	r4,r4,r3
   2fd58:	8cca983a 	sll	r5,r17,r19
   2fd5c:	9108d83a 	srl	r4,r18,r4
   2fd60:	94e6983a 	sll	r19,r18,r19
   2fd64:	2162b03a 	or	r17,r4,r5
   2fd68:	053f0344 	movi	r20,-1011
   2fd6c:	a0e9c83a 	sub	r20,r20,r3
   2fd70:	0025883a 	mov	r18,zero
   2fd74:	0011883a 	mov	r8,zero
   2fd78:	003f9606 	br	2fbd4 <__alt_data_end+0xfffefbd4>
   2fd7c:	8184b03a 	or	r2,r16,r6
   2fd80:	10001f1e 	bne	r2,zero,2fe00 <__divdf3+0x2a8>
   2fd84:	0021883a 	mov	r16,zero
   2fd88:	002b883a 	mov	r21,zero
   2fd8c:	01c00084 	movi	r7,2
   2fd90:	003fa206 	br	2fc1c <__alt_data_end+0xfffefc1c>
   2fd94:	8184b03a 	or	r2,r16,r6
   2fd98:	10001526 	beq	r2,zero,2fdf0 <__divdf3+0x298>
   2fd9c:	80010c26 	beq	r16,zero,301d0 <__divdf3+0x678>
   2fda0:	8009883a 	mov	r4,r16
   2fda4:	d9800315 	stw	r6,12(sp)
   2fda8:	da000215 	stw	r8,8(sp)
   2fdac:	da400015 	stw	r9,0(sp)
   2fdb0:	00254740 	call	25474 <__clzsi2>
   2fdb4:	d9800317 	ldw	r6,12(sp)
   2fdb8:	da000217 	ldw	r8,8(sp)
   2fdbc:	da400017 	ldw	r9,0(sp)
   2fdc0:	1007883a 	mov	r3,r2
   2fdc4:	01000a04 	movi	r4,40
   2fdc8:	1d7ffe04 	addi	r21,r3,-8
   2fdcc:	20c9c83a 	sub	r4,r4,r3
   2fdd0:	8560983a 	sll	r16,r16,r21
   2fdd4:	3108d83a 	srl	r4,r6,r4
   2fdd8:	356a983a 	sll	r21,r6,r21
   2fddc:	2420b03a 	or	r16,r4,r16
   2fde0:	017f0344 	movi	r5,-1011
   2fde4:	28cbc83a 	sub	r5,r5,r3
   2fde8:	000f883a 	mov	r7,zero
   2fdec:	003f8b06 	br	2fc1c <__alt_data_end+0xfffefc1c>
   2fdf0:	0021883a 	mov	r16,zero
   2fdf4:	002b883a 	mov	r21,zero
   2fdf8:	01c00044 	movi	r7,1
   2fdfc:	003f8706 	br	2fc1c <__alt_data_end+0xfffefc1c>
   2fe00:	01c000c4 	movi	r7,3
   2fe04:	003f8506 	br	2fc1c <__alt_data_end+0xfffefc1c>
   2fe08:	04800104 	movi	r18,4
   2fe0c:	0023883a 	mov	r17,zero
   2fe10:	0027883a 	mov	r19,zero
   2fe14:	02000044 	movi	r8,1
   2fe18:	003f6e06 	br	2fbd4 <__alt_data_end+0xfffefbd4>
   2fe1c:	04800304 	movi	r18,12
   2fe20:	020000c4 	movi	r8,3
   2fe24:	003f6b06 	br	2fbd4 <__alt_data_end+0xfffefbd4>
   2fe28:	01400434 	movhi	r5,16
   2fe2c:	000d883a 	mov	r6,zero
   2fe30:	297fffc4 	addi	r5,r5,-1
   2fe34:	04ffffc4 	movi	r19,-1
   2fe38:	0101ffc4 	movi	r4,2047
   2fe3c:	003fa406 	br	2fcd0 <__alt_data_end+0xfffefcd0>
   2fe40:	043f0084 	movi	r16,-1022
   2fe44:	8521c83a 	sub	r16,r16,r20
   2fe48:	00800e04 	movi	r2,56
   2fe4c:	1401200e 	bge	r2,r16,302d0 <__divdf3+0x778>
   2fe50:	9180004c 	andi	r6,r18,1
   2fe54:	0009883a 	mov	r4,zero
   2fe58:	000b883a 	mov	r5,zero
   2fe5c:	0027883a 	mov	r19,zero
   2fe60:	003f9b06 	br	2fcd0 <__alt_data_end+0xfffefcd0>
   2fe64:	8880022c 	andhi	r2,r17,8
   2fe68:	1000c726 	beq	r2,zero,30188 <__divdf3+0x630>
   2fe6c:	8080022c 	andhi	r2,r16,8
   2fe70:	1000c51e 	bne	r2,zero,30188 <__divdf3+0x630>
   2fe74:	00800434 	movhi	r2,16
   2fe78:	81400234 	orhi	r5,r16,8
   2fe7c:	10bfffc4 	addi	r2,r2,-1
   2fe80:	b80d883a 	mov	r6,r23
   2fe84:	288a703a 	and	r5,r5,r2
   2fe88:	a827883a 	mov	r19,r21
   2fe8c:	003fea06 	br	2fe38 <__alt_data_end+0xfffefe38>
   2fe90:	8440ea36 	bltu	r16,r17,3023c <__divdf3+0x6e4>
   2fe94:	8c00e826 	beq	r17,r16,30238 <__divdf3+0x6e0>
   2fe98:	a53fffc4 	addi	r20,r20,-1
   2fe9c:	882d883a 	mov	r22,r17
   2fea0:	000d883a 	mov	r6,zero
   2fea4:	a804d63a 	srli	r2,r21,24
   2fea8:	8020923a 	slli	r16,r16,8
   2feac:	b009883a 	mov	r4,r22
   2feb0:	d9800315 	stw	r6,12(sp)
   2feb4:	1420b03a 	or	r16,r2,r16
   2feb8:	802ed43a 	srli	r23,r16,16
   2febc:	873fffcc 	andi	fp,r16,65535
   2fec0:	a82a923a 	slli	r21,r21,8
   2fec4:	b80b883a 	mov	r5,r23
   2fec8:	0023ea00 	call	23ea0 <__udivsi3>
   2fecc:	b009883a 	mov	r4,r22
   2fed0:	b80b883a 	mov	r5,r23
   2fed4:	1023883a 	mov	r17,r2
   2fed8:	0023ea80 	call	23ea8 <__umodsi3>
   2fedc:	1004943a 	slli	r2,r2,16
   2fee0:	9808d43a 	srli	r4,r19,16
   2fee4:	8f2d383a 	mul	r22,r17,fp
   2fee8:	d9800317 	ldw	r6,12(sp)
   2feec:	1106b03a 	or	r3,r2,r4
   2fef0:	1d80062e 	bgeu	r3,r22,2ff0c <__divdf3+0x3b4>
   2fef4:	1c07883a 	add	r3,r3,r16
   2fef8:	88bfffc4 	addi	r2,r17,-1
   2fefc:	1c00dc36 	bltu	r3,r16,30270 <__divdf3+0x718>
   2ff00:	1d80db2e 	bgeu	r3,r22,30270 <__divdf3+0x718>
   2ff04:	8c7fff84 	addi	r17,r17,-2
   2ff08:	1c07883a 	add	r3,r3,r16
   2ff0c:	1dadc83a 	sub	r22,r3,r22
   2ff10:	b009883a 	mov	r4,r22
   2ff14:	b80b883a 	mov	r5,r23
   2ff18:	d9800315 	stw	r6,12(sp)
   2ff1c:	0023ea00 	call	23ea0 <__udivsi3>
   2ff20:	b009883a 	mov	r4,r22
   2ff24:	b80b883a 	mov	r5,r23
   2ff28:	d8800015 	stw	r2,0(sp)
   2ff2c:	0023ea80 	call	23ea8 <__umodsi3>
   2ff30:	da400017 	ldw	r9,0(sp)
   2ff34:	1004943a 	slli	r2,r2,16
   2ff38:	9cffffcc 	andi	r19,r19,65535
   2ff3c:	4f07383a 	mul	r3,r9,fp
   2ff40:	14c8b03a 	or	r4,r2,r19
   2ff44:	d9800317 	ldw	r6,12(sp)
   2ff48:	20c0062e 	bgeu	r4,r3,2ff64 <__divdf3+0x40c>
   2ff4c:	2409883a 	add	r4,r4,r16
   2ff50:	48bfffc4 	addi	r2,r9,-1
   2ff54:	2400c436 	bltu	r4,r16,30268 <__divdf3+0x710>
   2ff58:	20c0c32e 	bgeu	r4,r3,30268 <__divdf3+0x710>
   2ff5c:	4a7fff84 	addi	r9,r9,-2
   2ff60:	2409883a 	add	r4,r4,r16
   2ff64:	8822943a 	slli	r17,r17,16
   2ff68:	a80ed43a 	srli	r7,r21,16
   2ff6c:	aa3fffcc 	andi	r8,r21,65535
   2ff70:	4c62b03a 	or	r17,r9,r17
   2ff74:	8816d43a 	srli	r11,r17,16
   2ff78:	897fffcc 	andi	r5,r17,65535
   2ff7c:	2a15383a 	mul	r10,r5,r8
   2ff80:	5a19383a 	mul	r12,r11,r8
   2ff84:	29cb383a 	mul	r5,r5,r7
   2ff88:	5012d43a 	srli	r9,r10,16
   2ff8c:	20c5c83a 	sub	r2,r4,r3
   2ff90:	614b883a 	add	r5,r12,r5
   2ff94:	2a4b883a 	add	r5,r5,r9
   2ff98:	59c7383a 	mul	r3,r11,r7
   2ff9c:	2b00022e 	bgeu	r5,r12,2ffa8 <__divdf3+0x450>
   2ffa0:	01000074 	movhi	r4,1
   2ffa4:	1907883a 	add	r3,r3,r4
   2ffa8:	2808d43a 	srli	r4,r5,16
   2ffac:	280a943a 	slli	r5,r5,16
   2ffb0:	54ffffcc 	andi	r19,r10,65535
   2ffb4:	1907883a 	add	r3,r3,r4
   2ffb8:	2ccb883a 	add	r5,r5,r19
   2ffbc:	10c09336 	bltu	r2,r3,3020c <__divdf3+0x6b4>
   2ffc0:	10c0ad26 	beq	r2,r3,30278 <__divdf3+0x720>
   2ffc4:	10c7c83a 	sub	r3,r2,r3
   2ffc8:	3167c83a 	sub	r19,r6,r5
   2ffcc:	34ed803a 	cmpltu	r22,r6,r19
   2ffd0:	1dadc83a 	sub	r22,r3,r22
   2ffd4:	b400b226 	beq	r22,r16,302a0 <__divdf3+0x748>
   2ffd8:	b009883a 	mov	r4,r22
   2ffdc:	b80b883a 	mov	r5,r23
   2ffe0:	d9c00115 	stw	r7,4(sp)
   2ffe4:	da000215 	stw	r8,8(sp)
   2ffe8:	0023ea00 	call	23ea0 <__udivsi3>
   2ffec:	b009883a 	mov	r4,r22
   2fff0:	b80b883a 	mov	r5,r23
   2fff4:	d8800315 	stw	r2,12(sp)
   2fff8:	0023ea80 	call	23ea8 <__umodsi3>
   2fffc:	d9800317 	ldw	r6,12(sp)
   30000:	1004943a 	slli	r2,r2,16
   30004:	9808d43a 	srli	r4,r19,16
   30008:	372d383a 	mul	r22,r6,fp
   3000c:	d9c00117 	ldw	r7,4(sp)
   30010:	1106b03a 	or	r3,r2,r4
   30014:	da000217 	ldw	r8,8(sp)
   30018:	1d80062e 	bgeu	r3,r22,30034 <__divdf3+0x4dc>
   3001c:	1c07883a 	add	r3,r3,r16
   30020:	30bfffc4 	addi	r2,r6,-1
   30024:	1c00a036 	bltu	r3,r16,302a8 <__divdf3+0x750>
   30028:	1d809f2e 	bgeu	r3,r22,302a8 <__divdf3+0x750>
   3002c:	31bfff84 	addi	r6,r6,-2
   30030:	1c07883a 	add	r3,r3,r16
   30034:	1dadc83a 	sub	r22,r3,r22
   30038:	b009883a 	mov	r4,r22
   3003c:	b80b883a 	mov	r5,r23
   30040:	d9800315 	stw	r6,12(sp)
   30044:	d9c00115 	stw	r7,4(sp)
   30048:	da000215 	stw	r8,8(sp)
   3004c:	0023ea00 	call	23ea0 <__udivsi3>
   30050:	b009883a 	mov	r4,r22
   30054:	b80b883a 	mov	r5,r23
   30058:	d8800015 	stw	r2,0(sp)
   3005c:	0023ea80 	call	23ea8 <__umodsi3>
   30060:	da400017 	ldw	r9,0(sp)
   30064:	1004943a 	slli	r2,r2,16
   30068:	993fffcc 	andi	r4,r19,65535
   3006c:	4f39383a 	mul	fp,r9,fp
   30070:	1106b03a 	or	r3,r2,r4
   30074:	d9800317 	ldw	r6,12(sp)
   30078:	d9c00117 	ldw	r7,4(sp)
   3007c:	da000217 	ldw	r8,8(sp)
   30080:	1f00062e 	bgeu	r3,fp,3009c <__divdf3+0x544>
   30084:	1c07883a 	add	r3,r3,r16
   30088:	48bfffc4 	addi	r2,r9,-1
   3008c:	1c008836 	bltu	r3,r16,302b0 <__divdf3+0x758>
   30090:	1f00872e 	bgeu	r3,fp,302b0 <__divdf3+0x758>
   30094:	4a7fff84 	addi	r9,r9,-2
   30098:	1c07883a 	add	r3,r3,r16
   3009c:	3008943a 	slli	r4,r6,16
   300a0:	1f07c83a 	sub	r3,r3,fp
   300a4:	4926b03a 	or	r19,r9,r4
   300a8:	993fffcc 	andi	r4,r19,65535
   300ac:	980cd43a 	srli	r6,r19,16
   300b0:	220b383a 	mul	r5,r4,r8
   300b4:	21c5383a 	mul	r2,r4,r7
   300b8:	3211383a 	mul	r8,r6,r8
   300bc:	2808d43a 	srli	r4,r5,16
   300c0:	31cf383a 	mul	r7,r6,r7
   300c4:	4085883a 	add	r2,r8,r2
   300c8:	1105883a 	add	r2,r2,r4
   300cc:	1200022e 	bgeu	r2,r8,300d8 <__divdf3+0x580>
   300d0:	01000074 	movhi	r4,1
   300d4:	390f883a 	add	r7,r7,r4
   300d8:	1008d43a 	srli	r4,r2,16
   300dc:	1004943a 	slli	r2,r2,16
   300e0:	297fffcc 	andi	r5,r5,65535
   300e4:	390f883a 	add	r7,r7,r4
   300e8:	1145883a 	add	r2,r2,r5
   300ec:	19c06536 	bltu	r3,r7,30284 <__divdf3+0x72c>
   300f0:	19c09f26 	beq	r3,r7,30370 <__divdf3+0x818>
   300f4:	9cc00054 	ori	r19,r19,1
   300f8:	a100ffc4 	addi	r4,r20,1023
   300fc:	013f500e 	bge	zero,r4,2fe40 <__alt_data_end+0xfffefe40>
   30100:	988001cc 	andi	r2,r19,7
   30104:	10000726 	beq	r2,zero,30124 <__divdf3+0x5cc>
   30108:	98c003cc 	andi	r3,r19,15
   3010c:	00800104 	movi	r2,4
   30110:	18800426 	beq	r3,r2,30124 <__divdf3+0x5cc>
   30114:	9885883a 	add	r2,r19,r2
   30118:	14e1803a 	cmpltu	r16,r2,r19
   3011c:	8c23883a 	add	r17,r17,r16
   30120:	1027883a 	mov	r19,r2
   30124:	8880402c 	andhi	r2,r17,256
   30128:	10000426 	beq	r2,zero,3013c <__divdf3+0x5e4>
   3012c:	00bfc034 	movhi	r2,65280
   30130:	10bfffc4 	addi	r2,r2,-1
   30134:	a1010004 	addi	r4,r20,1024
   30138:	88a2703a 	and	r17,r17,r2
   3013c:	0081ff84 	movi	r2,2046
   30140:	113edf16 	blt	r2,r4,2fcc0 <__alt_data_end+0xfffefcc0>
   30144:	9826d0fa 	srli	r19,r19,3
   30148:	8804977a 	slli	r2,r17,29
   3014c:	8820927a 	slli	r16,r17,9
   30150:	2101ffcc 	andi	r4,r4,2047
   30154:	14e6b03a 	or	r19,r2,r19
   30158:	800ad33a 	srli	r5,r16,12
   3015c:	9180004c 	andi	r6,r18,1
   30160:	003edb06 	br	2fcd0 <__alt_data_end+0xfffefcd0>
   30164:	008000c4 	movi	r2,3
   30168:	4080a826 	beq	r8,r2,3040c <__divdf3+0x8b4>
   3016c:	00800044 	movi	r2,1
   30170:	4080551e 	bne	r8,r2,302c8 <__divdf3+0x770>
   30174:	e00d883a 	mov	r6,fp
   30178:	0009883a 	mov	r4,zero
   3017c:	000b883a 	mov	r5,zero
   30180:	0027883a 	mov	r19,zero
   30184:	003ed206 	br	2fcd0 <__alt_data_end+0xfffefcd0>
   30188:	00800434 	movhi	r2,16
   3018c:	89400234 	orhi	r5,r17,8
   30190:	10bfffc4 	addi	r2,r2,-1
   30194:	b00d883a 	mov	r6,r22
   30198:	288a703a 	and	r5,r5,r2
   3019c:	003f2606 	br	2fe38 <__alt_data_end+0xfffefe38>
   301a0:	d9800315 	stw	r6,12(sp)
   301a4:	d9c00115 	stw	r7,4(sp)
   301a8:	00254740 	call	25474 <__clzsi2>
   301ac:	10c00804 	addi	r3,r2,32
   301b0:	010009c4 	movi	r4,39
   301b4:	d9800317 	ldw	r6,12(sp)
   301b8:	d9c00117 	ldw	r7,4(sp)
   301bc:	20fee30e 	bge	r4,r3,2fd4c <__alt_data_end+0xfffefd4c>
   301c0:	117ffe04 	addi	r5,r2,-8
   301c4:	9162983a 	sll	r17,r18,r5
   301c8:	0027883a 	mov	r19,zero
   301cc:	003ee606 	br	2fd68 <__alt_data_end+0xfffefd68>
   301d0:	3009883a 	mov	r4,r6
   301d4:	d9800315 	stw	r6,12(sp)
   301d8:	da000215 	stw	r8,8(sp)
   301dc:	da400015 	stw	r9,0(sp)
   301e0:	00254740 	call	25474 <__clzsi2>
   301e4:	10c00804 	addi	r3,r2,32
   301e8:	010009c4 	movi	r4,39
   301ec:	d9800317 	ldw	r6,12(sp)
   301f0:	da000217 	ldw	r8,8(sp)
   301f4:	da400017 	ldw	r9,0(sp)
   301f8:	20fef20e 	bge	r4,r3,2fdc4 <__alt_data_end+0xfffefdc4>
   301fc:	10bffe04 	addi	r2,r2,-8
   30200:	a8a0983a 	sll	r16,r21,r2
   30204:	002b883a 	mov	r21,zero
   30208:	003ef506 	br	2fde0 <__alt_data_end+0xfffefde0>
   3020c:	354d883a 	add	r6,r6,r21
   30210:	3549803a 	cmpltu	r4,r6,r21
   30214:	2409883a 	add	r4,r4,r16
   30218:	2089883a 	add	r4,r4,r2
   3021c:	88bfffc4 	addi	r2,r17,-1
   30220:	81000c2e 	bgeu	r16,r4,30254 <__divdf3+0x6fc>
   30224:	20c04436 	bltu	r4,r3,30338 <__divdf3+0x7e0>
   30228:	19006f26 	beq	r3,r4,303e8 <__divdf3+0x890>
   3022c:	20c7c83a 	sub	r3,r4,r3
   30230:	1023883a 	mov	r17,r2
   30234:	003f6406 	br	2ffc8 <__alt_data_end+0xfffeffc8>
   30238:	9d7f1736 	bltu	r19,r21,2fe98 <__alt_data_end+0xfffefe98>
   3023c:	9806d07a 	srli	r3,r19,1
   30240:	880497fa 	slli	r2,r17,31
   30244:	980c97fa 	slli	r6,r19,31
   30248:	882cd07a 	srli	r22,r17,1
   3024c:	18a6b03a 	or	r19,r3,r2
   30250:	003f1406 	br	2fea4 <__alt_data_end+0xfffefea4>
   30254:	243ff51e 	bne	r4,r16,3022c <__alt_data_end+0xffff022c>
   30258:	357ff22e 	bgeu	r6,r21,30224 <__alt_data_end+0xffff0224>
   3025c:	80c7c83a 	sub	r3,r16,r3
   30260:	1023883a 	mov	r17,r2
   30264:	003f5806 	br	2ffc8 <__alt_data_end+0xfffeffc8>
   30268:	1013883a 	mov	r9,r2
   3026c:	003f3d06 	br	2ff64 <__alt_data_end+0xfffeff64>
   30270:	1023883a 	mov	r17,r2
   30274:	003f2506 	br	2ff0c <__alt_data_end+0xfffeff0c>
   30278:	317fe436 	bltu	r6,r5,3020c <__alt_data_end+0xffff020c>
   3027c:	0007883a 	mov	r3,zero
   30280:	003f5106 	br	2ffc8 <__alt_data_end+0xfffeffc8>
   30284:	1c07883a 	add	r3,r3,r16
   30288:	993fffc4 	addi	r4,r19,-1
   3028c:	1c000a2e 	bgeu	r3,r16,302b8 <__divdf3+0x760>
   30290:	2027883a 	mov	r19,r4
   30294:	19ff971e 	bne	r3,r7,300f4 <__alt_data_end+0xffff00f4>
   30298:	a8bf961e 	bne	r21,r2,300f4 <__alt_data_end+0xffff00f4>
   3029c:	003f9606 	br	300f8 <__alt_data_end+0xffff00f8>
   302a0:	04ffffc4 	movi	r19,-1
   302a4:	003f9406 	br	300f8 <__alt_data_end+0xffff00f8>
   302a8:	100d883a 	mov	r6,r2
   302ac:	003f6106 	br	30034 <__alt_data_end+0xffff0034>
   302b0:	1013883a 	mov	r9,r2
   302b4:	003f7906 	br	3009c <__alt_data_end+0xffff009c>
   302b8:	19c02636 	bltu	r3,r7,30354 <__divdf3+0x7fc>
   302bc:	38c04d26 	beq	r7,r3,303f4 <__divdf3+0x89c>
   302c0:	2027883a 	mov	r19,r4
   302c4:	003f8b06 	br	300f4 <__alt_data_end+0xffff00f4>
   302c8:	e025883a 	mov	r18,fp
   302cc:	003f8a06 	br	300f8 <__alt_data_end+0xffff00f8>
   302d0:	008007c4 	movi	r2,31
   302d4:	14002a16 	blt	r2,r16,30380 <__divdf3+0x828>
   302d8:	a5010784 	addi	r20,r20,1054
   302dc:	8d04983a 	sll	r2,r17,r20
   302e0:	9c06d83a 	srl	r3,r19,r16
   302e4:	9d28983a 	sll	r20,r19,r20
   302e8:	8c20d83a 	srl	r16,r17,r16
   302ec:	1886b03a 	or	r3,r3,r2
   302f0:	a004c03a 	cmpne	r2,r20,zero
   302f4:	1884b03a 	or	r2,r3,r2
   302f8:	10c001cc 	andi	r3,r2,7
   302fc:	18000726 	beq	r3,zero,3031c <__divdf3+0x7c4>
   30300:	110003cc 	andi	r4,r2,15
   30304:	00c00104 	movi	r3,4
   30308:	20c00426 	beq	r4,r3,3031c <__divdf3+0x7c4>
   3030c:	10c00104 	addi	r3,r2,4
   30310:	1885803a 	cmpltu	r2,r3,r2
   30314:	80a1883a 	add	r16,r16,r2
   30318:	1805883a 	mov	r2,r3
   3031c:	80c0202c 	andhi	r3,r16,128
   30320:	18002d26 	beq	r3,zero,303d8 <__divdf3+0x880>
   30324:	9180004c 	andi	r6,r18,1
   30328:	01000044 	movi	r4,1
   3032c:	000b883a 	mov	r5,zero
   30330:	0027883a 	mov	r19,zero
   30334:	003e6606 	br	2fcd0 <__alt_data_end+0xfffefcd0>
   30338:	354d883a 	add	r6,r6,r21
   3033c:	356d803a 	cmpltu	r22,r6,r21
   30340:	b42d883a 	add	r22,r22,r16
   30344:	b12d883a 	add	r22,r22,r4
   30348:	8c7fff84 	addi	r17,r17,-2
   3034c:	b0c7c83a 	sub	r3,r22,r3
   30350:	003f1d06 	br	2ffc8 <__alt_data_end+0xfffeffc8>
   30354:	ad4b883a 	add	r5,r21,r21
   30358:	2d6b803a 	cmpltu	r21,r5,r21
   3035c:	ac2b883a 	add	r21,r21,r16
   30360:	1d47883a 	add	r3,r3,r21
   30364:	993fff84 	addi	r4,r19,-2
   30368:	282b883a 	mov	r21,r5
   3036c:	003fc806 	br	30290 <__alt_data_end+0xffff0290>
   30370:	103fc41e 	bne	r2,zero,30284 <__alt_data_end+0xffff0284>
   30374:	002b883a 	mov	r21,zero
   30378:	a8bf5e1e 	bne	r21,r2,300f4 <__alt_data_end+0xffff00f4>
   3037c:	003f5e06 	br	300f8 <__alt_data_end+0xffff00f8>
   30380:	00bef884 	movi	r2,-1054
   30384:	1505c83a 	sub	r2,r2,r20
   30388:	00c00804 	movi	r3,32
   3038c:	8884d83a 	srl	r2,r17,r2
   30390:	80c01c26 	beq	r16,r3,30404 <__divdf3+0x8ac>
   30394:	a0c10f84 	addi	r3,r20,1086
   30398:	88c6983a 	sll	r3,r17,r3
   3039c:	1cc6b03a 	or	r3,r3,r19
   303a0:	1806c03a 	cmpne	r3,r3,zero
   303a4:	1884b03a 	or	r2,r3,r2
   303a8:	140001cc 	andi	r16,r2,7
   303ac:	8000061e 	bne	r16,zero,303c8 <__divdf3+0x870>
   303b0:	000b883a 	mov	r5,zero
   303b4:	1004d0fa 	srli	r2,r2,3
   303b8:	9180004c 	andi	r6,r18,1
   303bc:	0009883a 	mov	r4,zero
   303c0:	1426b03a 	or	r19,r2,r16
   303c4:	003e4206 	br	2fcd0 <__alt_data_end+0xfffefcd0>
   303c8:	110003cc 	andi	r4,r2,15
   303cc:	00c00104 	movi	r3,4
   303d0:	0021883a 	mov	r16,zero
   303d4:	20ffcd1e 	bne	r4,r3,3030c <__alt_data_end+0xffff030c>
   303d8:	800a927a 	slli	r5,r16,9
   303dc:	8020977a 	slli	r16,r16,29
   303e0:	280ad33a 	srli	r5,r5,12
   303e4:	003ff306 	br	303b4 <__alt_data_end+0xffff03b4>
   303e8:	317fd336 	bltu	r6,r5,30338 <__alt_data_end+0xffff0338>
   303ec:	1023883a 	mov	r17,r2
   303f0:	003fa206 	br	3027c <__alt_data_end+0xffff027c>
   303f4:	a8bfd736 	bltu	r21,r2,30354 <__alt_data_end+0xffff0354>
   303f8:	2027883a 	mov	r19,r4
   303fc:	a8bf3d1e 	bne	r21,r2,300f4 <__alt_data_end+0xffff00f4>
   30400:	003f3d06 	br	300f8 <__alt_data_end+0xffff00f8>
   30404:	0007883a 	mov	r3,zero
   30408:	003fe406 	br	3039c <__alt_data_end+0xffff039c>
   3040c:	00800434 	movhi	r2,16
   30410:	89400234 	orhi	r5,r17,8
   30414:	10bfffc4 	addi	r2,r2,-1
   30418:	e00d883a 	mov	r6,fp
   3041c:	288a703a 	and	r5,r5,r2
   30420:	003e8506 	br	2fe38 <__alt_data_end+0xfffefe38>

00030424 <__eqdf2>:
   30424:	2804d53a 	srli	r2,r5,20
   30428:	3806d53a 	srli	r3,r7,20
   3042c:	02000434 	movhi	r8,16
   30430:	423fffc4 	addi	r8,r8,-1
   30434:	1081ffcc 	andi	r2,r2,2047
   30438:	0241ffc4 	movi	r9,2047
   3043c:	2a14703a 	and	r10,r5,r8
   30440:	18c1ffcc 	andi	r3,r3,2047
   30444:	3a10703a 	and	r8,r7,r8
   30448:	280ad7fa 	srli	r5,r5,31
   3044c:	380ed7fa 	srli	r7,r7,31
   30450:	12400f26 	beq	r2,r9,30490 <__eqdf2+0x6c>
   30454:	0241ffc4 	movi	r9,2047
   30458:	1a400326 	beq	r3,r9,30468 <__eqdf2+0x44>
   3045c:	10c00526 	beq	r2,r3,30474 <__eqdf2+0x50>
   30460:	00800044 	movi	r2,1
   30464:	f800283a 	ret
   30468:	4192b03a 	or	r9,r8,r6
   3046c:	483ffc1e 	bne	r9,zero,30460 <__alt_data_end+0xffff0460>
   30470:	10fffb1e 	bne	r2,r3,30460 <__alt_data_end+0xffff0460>
   30474:	523ffa1e 	bne	r10,r8,30460 <__alt_data_end+0xffff0460>
   30478:	21bff91e 	bne	r4,r6,30460 <__alt_data_end+0xffff0460>
   3047c:	29c00826 	beq	r5,r7,304a0 <__eqdf2+0x7c>
   30480:	103ff71e 	bne	r2,zero,30460 <__alt_data_end+0xffff0460>
   30484:	5104b03a 	or	r2,r10,r4
   30488:	1004c03a 	cmpne	r2,r2,zero
   3048c:	f800283a 	ret
   30490:	5112b03a 	or	r9,r10,r4
   30494:	483fef26 	beq	r9,zero,30454 <__alt_data_end+0xffff0454>
   30498:	00800044 	movi	r2,1
   3049c:	f800283a 	ret
   304a0:	0005883a 	mov	r2,zero
   304a4:	f800283a 	ret

000304a8 <__gedf2>:
   304a8:	2804d53a 	srli	r2,r5,20
   304ac:	3806d53a 	srli	r3,r7,20
   304b0:	02000434 	movhi	r8,16
   304b4:	423fffc4 	addi	r8,r8,-1
   304b8:	0241ffc4 	movi	r9,2047
   304bc:	1081ffcc 	andi	r2,r2,2047
   304c0:	2a14703a 	and	r10,r5,r8
   304c4:	1a46703a 	and	r3,r3,r9
   304c8:	3a10703a 	and	r8,r7,r8
   304cc:	280ad7fa 	srli	r5,r5,31
   304d0:	380ed7fa 	srli	r7,r7,31
   304d4:	12400b26 	beq	r2,r9,30504 <__gedf2+0x5c>
   304d8:	1a401626 	beq	r3,r9,30534 <__gedf2+0x8c>
   304dc:	10000c1e 	bne	r2,zero,30510 <__gedf2+0x68>
   304e0:	5112b03a 	or	r9,r10,r4
   304e4:	4813003a 	cmpeq	r9,r9,zero
   304e8:	4817883a 	mov	r11,r9
   304ec:	18000c1e 	bne	r3,zero,30520 <__gedf2+0x78>
   304f0:	4198b03a 	or	r12,r8,r6
   304f4:	60000a1e 	bne	r12,zero,30520 <__gedf2+0x78>
   304f8:	48001326 	beq	r9,zero,30548 <__gedf2+0xa0>
   304fc:	0005883a 	mov	r2,zero
   30500:	f800283a 	ret
   30504:	5112b03a 	or	r9,r10,r4
   30508:	4800191e 	bne	r9,zero,30570 <__gedf2+0xc8>
   3050c:	18800926 	beq	r3,r2,30534 <__gedf2+0x8c>
   30510:	18000b1e 	bne	r3,zero,30540 <__gedf2+0x98>
   30514:	4192b03a 	or	r9,r8,r6
   30518:	0017883a 	mov	r11,zero
   3051c:	48000a26 	beq	r9,zero,30548 <__gedf2+0xa0>
   30520:	39c03fcc 	andi	r7,r7,255
   30524:	58000726 	beq	r11,zero,30544 <__gedf2+0x9c>
   30528:	3800081e 	bne	r7,zero,3054c <__gedf2+0xa4>
   3052c:	00bfffc4 	movi	r2,-1
   30530:	f800283a 	ret
   30534:	4192b03a 	or	r9,r8,r6
   30538:	48000d1e 	bne	r9,zero,30570 <__gedf2+0xc8>
   3053c:	103fe826 	beq	r2,zero,304e0 <__alt_data_end+0xffff04e0>
   30540:	39c03fcc 	andi	r7,r7,255
   30544:	29c00326 	beq	r5,r7,30554 <__gedf2+0xac>
   30548:	283ff81e 	bne	r5,zero,3052c <__alt_data_end+0xffff052c>
   3054c:	00800044 	movi	r2,1
   30550:	f800283a 	ret
   30554:	18bffc16 	blt	r3,r2,30548 <__alt_data_end+0xffff0548>
   30558:	10c00316 	blt	r2,r3,30568 <__gedf2+0xc0>
   3055c:	42bffa36 	bltu	r8,r10,30548 <__alt_data_end+0xffff0548>
   30560:	52000526 	beq	r10,r8,30578 <__gedf2+0xd0>
   30564:	523fe52e 	bgeu	r10,r8,304fc <__alt_data_end+0xffff04fc>
   30568:	283ff026 	beq	r5,zero,3052c <__alt_data_end+0xffff052c>
   3056c:	003ff706 	br	3054c <__alt_data_end+0xffff054c>
   30570:	00bfff84 	movi	r2,-2
   30574:	f800283a 	ret
   30578:	313ff336 	bltu	r6,r4,30548 <__alt_data_end+0xffff0548>
   3057c:	21bfdf2e 	bgeu	r4,r6,304fc <__alt_data_end+0xffff04fc>
   30580:	283fea26 	beq	r5,zero,3052c <__alt_data_end+0xffff052c>
   30584:	003ff106 	br	3054c <__alt_data_end+0xffff054c>

00030588 <__ledf2>:
   30588:	2804d53a 	srli	r2,r5,20
   3058c:	3810d53a 	srli	r8,r7,20
   30590:	00c00434 	movhi	r3,16
   30594:	18ffffc4 	addi	r3,r3,-1
   30598:	0241ffc4 	movi	r9,2047
   3059c:	1081ffcc 	andi	r2,r2,2047
   305a0:	28d4703a 	and	r10,r5,r3
   305a4:	4250703a 	and	r8,r8,r9
   305a8:	38c6703a 	and	r3,r7,r3
   305ac:	280ad7fa 	srli	r5,r5,31
   305b0:	380ed7fa 	srli	r7,r7,31
   305b4:	12400b26 	beq	r2,r9,305e4 <__ledf2+0x5c>
   305b8:	42401926 	beq	r8,r9,30620 <__ledf2+0x98>
   305bc:	10000c1e 	bne	r2,zero,305f0 <__ledf2+0x68>
   305c0:	5112b03a 	or	r9,r10,r4
   305c4:	4813003a 	cmpeq	r9,r9,zero
   305c8:	4817883a 	mov	r11,r9
   305cc:	40000f26 	beq	r8,zero,3060c <__ledf2+0x84>
   305d0:	39c03fcc 	andi	r7,r7,255
   305d4:	58001826 	beq	r11,zero,30638 <__ledf2+0xb0>
   305d8:	38000a1e 	bne	r7,zero,30604 <__ledf2+0x7c>
   305dc:	00bfffc4 	movi	r2,-1
   305e0:	f800283a 	ret
   305e4:	5112b03a 	or	r9,r10,r4
   305e8:	48000f1e 	bne	r9,zero,30628 <__ledf2+0xa0>
   305ec:	40800c26 	beq	r8,r2,30620 <__ledf2+0x98>
   305f0:	4000101e 	bne	r8,zero,30634 <__ledf2+0xac>
   305f4:	1992b03a 	or	r9,r3,r6
   305f8:	0017883a 	mov	r11,zero
   305fc:	483ff41e 	bne	r9,zero,305d0 <__alt_data_end+0xffff05d0>
   30600:	283ff61e 	bne	r5,zero,305dc <__alt_data_end+0xffff05dc>
   30604:	00800044 	movi	r2,1
   30608:	f800283a 	ret
   3060c:	1998b03a 	or	r12,r3,r6
   30610:	603fef1e 	bne	r12,zero,305d0 <__alt_data_end+0xffff05d0>
   30614:	483ffa26 	beq	r9,zero,30600 <__alt_data_end+0xffff0600>
   30618:	0005883a 	mov	r2,zero
   3061c:	f800283a 	ret
   30620:	1992b03a 	or	r9,r3,r6
   30624:	48000226 	beq	r9,zero,30630 <__ledf2+0xa8>
   30628:	00800084 	movi	r2,2
   3062c:	f800283a 	ret
   30630:	103fe326 	beq	r2,zero,305c0 <__alt_data_end+0xffff05c0>
   30634:	39c03fcc 	andi	r7,r7,255
   30638:	29fff11e 	bne	r5,r7,30600 <__alt_data_end+0xffff0600>
   3063c:	40bff016 	blt	r8,r2,30600 <__alt_data_end+0xffff0600>
   30640:	12000316 	blt	r2,r8,30650 <__ledf2+0xc8>
   30644:	1abfee36 	bltu	r3,r10,30600 <__alt_data_end+0xffff0600>
   30648:	50c00326 	beq	r10,r3,30658 <__ledf2+0xd0>
   3064c:	50fff22e 	bgeu	r10,r3,30618 <__alt_data_end+0xffff0618>
   30650:	283fe226 	beq	r5,zero,305dc <__alt_data_end+0xffff05dc>
   30654:	003feb06 	br	30604 <__alt_data_end+0xffff0604>
   30658:	313fe936 	bltu	r6,r4,30600 <__alt_data_end+0xffff0600>
   3065c:	21bfee2e 	bgeu	r4,r6,30618 <__alt_data_end+0xffff0618>
   30660:	283fde26 	beq	r5,zero,305dc <__alt_data_end+0xffff05dc>
   30664:	003fe706 	br	30604 <__alt_data_end+0xffff0604>

00030668 <__muldf3>:
   30668:	defff204 	addi	sp,sp,-56
   3066c:	2804d53a 	srli	r2,r5,20
   30670:	dd800a15 	stw	r22,40(sp)
   30674:	282cd7fa 	srli	r22,r5,31
   30678:	dc000415 	stw	r16,16(sp)
   3067c:	04000434 	movhi	r16,16
   30680:	df000c15 	stw	fp,48(sp)
   30684:	dd000815 	stw	r20,32(sp)
   30688:	dcc00715 	stw	r19,28(sp)
   3068c:	dc800615 	stw	r18,24(sp)
   30690:	dc400515 	stw	r17,20(sp)
   30694:	843fffc4 	addi	r16,r16,-1
   30698:	dfc00d15 	stw	ra,52(sp)
   3069c:	ddc00b15 	stw	r23,44(sp)
   306a0:	dd400915 	stw	r21,36(sp)
   306a4:	1501ffcc 	andi	r20,r2,2047
   306a8:	2023883a 	mov	r17,r4
   306ac:	2025883a 	mov	r18,r4
   306b0:	2c20703a 	and	r16,r5,r16
   306b4:	b027883a 	mov	r19,r22
   306b8:	b7003fcc 	andi	fp,r22,255
   306bc:	a0005926 	beq	r20,zero,30824 <__muldf3+0x1bc>
   306c0:	0081ffc4 	movi	r2,2047
   306c4:	a0803426 	beq	r20,r2,30798 <__muldf3+0x130>
   306c8:	84000434 	orhi	r16,r16,16
   306cc:	2004d77a 	srli	r2,r4,29
   306d0:	802090fa 	slli	r16,r16,3
   306d4:	202490fa 	slli	r18,r4,3
   306d8:	a53f0044 	addi	r20,r20,-1023
   306dc:	80a0b03a 	or	r16,r16,r2
   306e0:	002b883a 	mov	r21,zero
   306e4:	0015883a 	mov	r10,zero
   306e8:	3812d53a 	srli	r9,r7,20
   306ec:	3806d7fa 	srli	r3,r7,31
   306f0:	02000434 	movhi	r8,16
   306f4:	423fffc4 	addi	r8,r8,-1
   306f8:	4941ffcc 	andi	r5,r9,2047
   306fc:	302f883a 	mov	r23,r6
   30700:	3a22703a 	and	r17,r7,r8
   30704:	1ac03fcc 	andi	r11,r3,255
   30708:	28006226 	beq	r5,zero,30894 <__muldf3+0x22c>
   3070c:	0081ffc4 	movi	r2,2047
   30710:	28805a26 	beq	r5,r2,3087c <__muldf3+0x214>
   30714:	8a000434 	orhi	r8,r17,16
   30718:	3004d77a 	srli	r2,r6,29
   3071c:	401090fa 	slli	r8,r8,3
   30720:	302e90fa 	slli	r23,r6,3
   30724:	297f0044 	addi	r5,r5,-1023
   30728:	40a2b03a 	or	r17,r8,r2
   3072c:	0013883a 	mov	r9,zero
   30730:	4d4cb03a 	or	r6,r9,r21
   30734:	300c90ba 	slli	r6,r6,2
   30738:	020000f4 	movhi	r8,3
   3073c:	4201d604 	addi	r8,r8,1880
   30740:	320d883a 	add	r6,r6,r8
   30744:	31800017 	ldw	r6,0(r6)
   30748:	a14b883a 	add	r5,r20,r5
   3074c:	1dacf03a 	xor	r22,r3,r22
   30750:	2b000044 	addi	r12,r5,1
   30754:	3000683a 	jmp	r6
   30758:	00030994 	movui	zero,3110
   3075c:	00030980 	call	3098 <__alt_mem_onchip_memory2_0-0x1cf68>
   30760:	00030980 	call	3098 <__alt_mem_onchip_memory2_0-0x1cf68>
   30764:	0003096c 	andhi	zero,zero,3109
   30768:	000307b4 	movhi	zero,3102
   3076c:	000307b4 	movhi	zero,3102
   30770:	00030954 	movui	zero,3109
   30774:	0003096c 	andhi	zero,zero,3109
   30778:	000307b4 	movhi	zero,3102
   3077c:	00030954 	movui	zero,3109
   30780:	000307b4 	movhi	zero,3102
   30784:	0003096c 	andhi	zero,zero,3109
   30788:	000307b8 	rdprs	zero,zero,3102
   3078c:	000307b8 	rdprs	zero,zero,3102
   30790:	000307b8 	rdprs	zero,zero,3102
   30794:	00030b90 	cmplti	zero,zero,3118
   30798:	8104b03a 	or	r2,r16,r4
   3079c:	10006a1e 	bne	r2,zero,30948 <__muldf3+0x2e0>
   307a0:	05400204 	movi	r21,8
   307a4:	0021883a 	mov	r16,zero
   307a8:	0025883a 	mov	r18,zero
   307ac:	02800084 	movi	r10,2
   307b0:	003fcd06 	br	306e8 <__alt_data_end+0xffff06e8>
   307b4:	b039883a 	mov	fp,r22
   307b8:	00800084 	movi	r2,2
   307bc:	50804e1e 	bne	r10,r2,308f8 <__muldf3+0x290>
   307c0:	e4c0004c 	andi	r19,fp,1
   307c4:	0101ffc4 	movi	r4,2047
   307c8:	0021883a 	mov	r16,zero
   307cc:	0025883a 	mov	r18,zero
   307d0:	2008953a 	slli	r4,r4,20
   307d4:	98c03fcc 	andi	r3,r19,255
   307d8:	01400434 	movhi	r5,16
   307dc:	297fffc4 	addi	r5,r5,-1
   307e0:	180697fa 	slli	r3,r3,31
   307e4:	8160703a 	and	r16,r16,r5
   307e8:	8120b03a 	or	r16,r16,r4
   307ec:	80c6b03a 	or	r3,r16,r3
   307f0:	9005883a 	mov	r2,r18
   307f4:	dfc00d17 	ldw	ra,52(sp)
   307f8:	df000c17 	ldw	fp,48(sp)
   307fc:	ddc00b17 	ldw	r23,44(sp)
   30800:	dd800a17 	ldw	r22,40(sp)
   30804:	dd400917 	ldw	r21,36(sp)
   30808:	dd000817 	ldw	r20,32(sp)
   3080c:	dcc00717 	ldw	r19,28(sp)
   30810:	dc800617 	ldw	r18,24(sp)
   30814:	dc400517 	ldw	r17,20(sp)
   30818:	dc000417 	ldw	r16,16(sp)
   3081c:	dec00e04 	addi	sp,sp,56
   30820:	f800283a 	ret
   30824:	8104b03a 	or	r2,r16,r4
   30828:	10004226 	beq	r2,zero,30934 <__muldf3+0x2cc>
   3082c:	8000f926 	beq	r16,zero,30c14 <__muldf3+0x5ac>
   30830:	8009883a 	mov	r4,r16
   30834:	d9800315 	stw	r6,12(sp)
   30838:	d9c00015 	stw	r7,0(sp)
   3083c:	00254740 	call	25474 <__clzsi2>
   30840:	d9800317 	ldw	r6,12(sp)
   30844:	d9c00017 	ldw	r7,0(sp)
   30848:	1007883a 	mov	r3,r2
   3084c:	01000a04 	movi	r4,40
   30850:	18bffe04 	addi	r2,r3,-8
   30854:	20c9c83a 	sub	r4,r4,r3
   30858:	80a0983a 	sll	r16,r16,r2
   3085c:	8908d83a 	srl	r4,r17,r4
   30860:	88a4983a 	sll	r18,r17,r2
   30864:	2420b03a 	or	r16,r4,r16
   30868:	017f0344 	movi	r5,-1011
   3086c:	28e9c83a 	sub	r20,r5,r3
   30870:	002b883a 	mov	r21,zero
   30874:	0015883a 	mov	r10,zero
   30878:	003f9b06 	br	306e8 <__alt_data_end+0xffff06e8>
   3087c:	8984b03a 	or	r2,r17,r6
   30880:	10002a1e 	bne	r2,zero,3092c <__muldf3+0x2c4>
   30884:	0023883a 	mov	r17,zero
   30888:	002f883a 	mov	r23,zero
   3088c:	02400084 	movi	r9,2
   30890:	003fa706 	br	30730 <__alt_data_end+0xffff0730>
   30894:	8984b03a 	or	r2,r17,r6
   30898:	10002026 	beq	r2,zero,3091c <__muldf3+0x2b4>
   3089c:	8800cc26 	beq	r17,zero,30bd0 <__muldf3+0x568>
   308a0:	8809883a 	mov	r4,r17
   308a4:	d8c00215 	stw	r3,8(sp)
   308a8:	d9800315 	stw	r6,12(sp)
   308ac:	da800015 	stw	r10,0(sp)
   308b0:	dac00115 	stw	r11,4(sp)
   308b4:	00254740 	call	25474 <__clzsi2>
   308b8:	d8c00217 	ldw	r3,8(sp)
   308bc:	d9800317 	ldw	r6,12(sp)
   308c0:	da800017 	ldw	r10,0(sp)
   308c4:	dac00117 	ldw	r11,4(sp)
   308c8:	1009883a 	mov	r4,r2
   308cc:	01400a04 	movi	r5,40
   308d0:	25fffe04 	addi	r23,r4,-8
   308d4:	290bc83a 	sub	r5,r5,r4
   308d8:	8dd0983a 	sll	r8,r17,r23
   308dc:	314ad83a 	srl	r5,r6,r5
   308e0:	35ee983a 	sll	r23,r6,r23
   308e4:	2a22b03a 	or	r17,r5,r8
   308e8:	017f0344 	movi	r5,-1011
   308ec:	290bc83a 	sub	r5,r5,r4
   308f0:	0013883a 	mov	r9,zero
   308f4:	003f8e06 	br	30730 <__alt_data_end+0xffff0730>
   308f8:	008000c4 	movi	r2,3
   308fc:	50811d26 	beq	r10,r2,30d74 <__muldf3+0x70c>
   30900:	00800044 	movi	r2,1
   30904:	5080e01e 	bne	r10,r2,30c88 <__muldf3+0x620>
   30908:	e0a6703a 	and	r19,fp,r2
   3090c:	0009883a 	mov	r4,zero
   30910:	0021883a 	mov	r16,zero
   30914:	0025883a 	mov	r18,zero
   30918:	003fad06 	br	307d0 <__alt_data_end+0xffff07d0>
   3091c:	0023883a 	mov	r17,zero
   30920:	002f883a 	mov	r23,zero
   30924:	02400044 	movi	r9,1
   30928:	003f8106 	br	30730 <__alt_data_end+0xffff0730>
   3092c:	024000c4 	movi	r9,3
   30930:	003f7f06 	br	30730 <__alt_data_end+0xffff0730>
   30934:	05400104 	movi	r21,4
   30938:	0021883a 	mov	r16,zero
   3093c:	0025883a 	mov	r18,zero
   30940:	02800044 	movi	r10,1
   30944:	003f6806 	br	306e8 <__alt_data_end+0xffff06e8>
   30948:	05400304 	movi	r21,12
   3094c:	028000c4 	movi	r10,3
   30950:	003f6506 	br	306e8 <__alt_data_end+0xffff06e8>
   30954:	04000434 	movhi	r16,16
   30958:	0027883a 	mov	r19,zero
   3095c:	843fffc4 	addi	r16,r16,-1
   30960:	04bfffc4 	movi	r18,-1
   30964:	0101ffc4 	movi	r4,2047
   30968:	003f9906 	br	307d0 <__alt_data_end+0xffff07d0>
   3096c:	8821883a 	mov	r16,r17
   30970:	b825883a 	mov	r18,r23
   30974:	5839883a 	mov	fp,r11
   30978:	4815883a 	mov	r10,r9
   3097c:	003f8e06 	br	307b8 <__alt_data_end+0xffff07b8>
   30980:	8821883a 	mov	r16,r17
   30984:	b825883a 	mov	r18,r23
   30988:	b039883a 	mov	fp,r22
   3098c:	4815883a 	mov	r10,r9
   30990:	003f8906 	br	307b8 <__alt_data_end+0xffff07b8>
   30994:	b80cd43a 	srli	r6,r23,16
   30998:	9006d43a 	srli	r3,r18,16
   3099c:	90bfffcc 	andi	r2,r18,65535
   309a0:	bdffffcc 	andi	r23,r23,65535
   309a4:	b891383a 	mul	r8,r23,r2
   309a8:	b8c9383a 	mul	r4,r23,r3
   309ac:	309b383a 	mul	r13,r6,r2
   309b0:	400ed43a 	srli	r7,r8,16
   309b4:	30df383a 	mul	r15,r6,r3
   309b8:	235b883a 	add	r13,r4,r13
   309bc:	69db883a 	add	r13,r13,r7
   309c0:	6900022e 	bgeu	r13,r4,309cc <__muldf3+0x364>
   309c4:	01000074 	movhi	r4,1
   309c8:	791f883a 	add	r15,r15,r4
   309cc:	8828d43a 	srli	r20,r17,16
   309d0:	8c7fffcc 	andi	r17,r17,65535
   309d4:	888f383a 	mul	r7,r17,r2
   309d8:	88d3383a 	mul	r9,r17,r3
   309dc:	a0a5383a 	mul	r18,r20,r2
   309e0:	3816d43a 	srli	r11,r7,16
   309e4:	6814943a 	slli	r10,r13,16
   309e8:	4ca5883a 	add	r18,r9,r18
   309ec:	423fffcc 	andi	r8,r8,65535
   309f0:	92e5883a 	add	r18,r18,r11
   309f4:	6808d43a 	srli	r4,r13,16
   309f8:	5215883a 	add	r10,r10,r8
   309fc:	a0c7383a 	mul	r3,r20,r3
   30a00:	9240022e 	bgeu	r18,r9,30a0c <__muldf3+0x3a4>
   30a04:	00800074 	movhi	r2,1
   30a08:	1887883a 	add	r3,r3,r2
   30a0c:	802ad43a 	srli	r21,r16,16
   30a10:	80bfffcc 	andi	r2,r16,65535
   30a14:	b893383a 	mul	r9,r23,r2
   30a18:	3091383a 	mul	r8,r6,r2
   30a1c:	bd6f383a 	mul	r23,r23,r21
   30a20:	9026943a 	slli	r19,r18,16
   30a24:	481ad43a 	srli	r13,r9,16
   30a28:	9024d43a 	srli	r18,r18,16
   30a2c:	39ffffcc 	andi	r7,r7,65535
   30a30:	ba11883a 	add	r8,r23,r8
   30a34:	99e7883a 	add	r19,r19,r7
   30a38:	4351883a 	add	r8,r8,r13
   30a3c:	1c97883a 	add	r11,r3,r18
   30a40:	354d383a 	mul	r6,r6,r21
   30a44:	9925883a 	add	r18,r19,r4
   30a48:	45c0022e 	bgeu	r8,r23,30a54 <__muldf3+0x3ec>
   30a4c:	00c00074 	movhi	r3,1
   30a50:	30cd883a 	add	r6,r6,r3
   30a54:	8889383a 	mul	r4,r17,r2
   30a58:	8d63383a 	mul	r17,r17,r21
   30a5c:	a085383a 	mul	r2,r20,r2
   30a60:	200ed43a 	srli	r7,r4,16
   30a64:	401cd43a 	srli	r14,r8,16
   30a68:	401a943a 	slli	r13,r8,16
   30a6c:	8885883a 	add	r2,r17,r2
   30a70:	4a3fffcc 	andi	r8,r9,65535
   30a74:	11c5883a 	add	r2,r2,r7
   30a78:	339d883a 	add	r14,r6,r14
   30a7c:	6a11883a 	add	r8,r13,r8
   30a80:	a561383a 	mul	r16,r20,r21
   30a84:	1440022e 	bgeu	r2,r17,30a90 <__muldf3+0x428>
   30a88:	00c00074 	movhi	r3,1
   30a8c:	80e1883a 	add	r16,r16,r3
   30a90:	1006943a 	slli	r3,r2,16
   30a94:	213fffcc 	andi	r4,r4,65535
   30a98:	93db883a 	add	r13,r18,r15
   30a9c:	1909883a 	add	r4,r3,r4
   30aa0:	22c7883a 	add	r3,r4,r11
   30aa4:	6cd3803a 	cmpltu	r9,r13,r19
   30aa8:	6a09883a 	add	r4,r13,r8
   30aac:	1a5b883a 	add	r13,r3,r9
   30ab0:	2211803a 	cmpltu	r8,r4,r8
   30ab4:	734d883a 	add	r6,r14,r13
   30ab8:	100ed43a 	srli	r7,r2,16
   30abc:	6a53803a 	cmpltu	r9,r13,r9
   30ac0:	3205883a 	add	r2,r6,r8
   30ac4:	1ac7803a 	cmpltu	r3,r3,r11
   30ac8:	1211803a 	cmpltu	r8,r2,r8
   30acc:	48c6b03a 	or	r3,r9,r3
   30ad0:	338d803a 	cmpltu	r6,r6,r14
   30ad4:	19c7883a 	add	r3,r3,r7
   30ad8:	418cb03a 	or	r6,r8,r6
   30adc:	1987883a 	add	r3,r3,r6
   30ae0:	2024927a 	slli	r18,r4,9
   30ae4:	1c07883a 	add	r3,r3,r16
   30ae8:	1806927a 	slli	r3,r3,9
   30aec:	1020d5fa 	srli	r16,r2,23
   30af0:	2008d5fa 	srli	r4,r4,23
   30af4:	9294b03a 	or	r10,r18,r10
   30af8:	1004927a 	slli	r2,r2,9
   30afc:	5024c03a 	cmpne	r18,r10,zero
   30b00:	1c20b03a 	or	r16,r3,r16
   30b04:	9108b03a 	or	r4,r18,r4
   30b08:	80c0402c 	andhi	r3,r16,256
   30b0c:	20a4b03a 	or	r18,r4,r2
   30b10:	18000726 	beq	r3,zero,30b30 <__muldf3+0x4c8>
   30b14:	9006d07a 	srli	r3,r18,1
   30b18:	800897fa 	slli	r4,r16,31
   30b1c:	9080004c 	andi	r2,r18,1
   30b20:	8020d07a 	srli	r16,r16,1
   30b24:	10c4b03a 	or	r2,r2,r3
   30b28:	1124b03a 	or	r18,r2,r4
   30b2c:	600b883a 	mov	r5,r12
   30b30:	2900ffc4 	addi	r4,r5,1023
   30b34:	01004b0e 	bge	zero,r4,30c64 <__muldf3+0x5fc>
   30b38:	908001cc 	andi	r2,r18,7
   30b3c:	10000726 	beq	r2,zero,30b5c <__muldf3+0x4f4>
   30b40:	90c003cc 	andi	r3,r18,15
   30b44:	00800104 	movi	r2,4
   30b48:	18800426 	beq	r3,r2,30b5c <__muldf3+0x4f4>
   30b4c:	9087883a 	add	r3,r18,r2
   30b50:	1c85803a 	cmpltu	r2,r3,r18
   30b54:	80a1883a 	add	r16,r16,r2
   30b58:	1825883a 	mov	r18,r3
   30b5c:	8080402c 	andhi	r2,r16,256
   30b60:	10000426 	beq	r2,zero,30b74 <__muldf3+0x50c>
   30b64:	00bfc034 	movhi	r2,65280
   30b68:	10bfffc4 	addi	r2,r2,-1
   30b6c:	29010004 	addi	r4,r5,1024
   30b70:	80a0703a 	and	r16,r16,r2
   30b74:	0081ff84 	movi	r2,2046
   30b78:	1100320e 	bge	r2,r4,30c44 <__muldf3+0x5dc>
   30b7c:	b4c0004c 	andi	r19,r22,1
   30b80:	0101ffc4 	movi	r4,2047
   30b84:	0021883a 	mov	r16,zero
   30b88:	0025883a 	mov	r18,zero
   30b8c:	003f1006 	br	307d0 <__alt_data_end+0xffff07d0>
   30b90:	8080022c 	andhi	r2,r16,8
   30b94:	10000926 	beq	r2,zero,30bbc <__muldf3+0x554>
   30b98:	8880022c 	andhi	r2,r17,8
   30b9c:	1000071e 	bne	r2,zero,30bbc <__muldf3+0x554>
   30ba0:	00800434 	movhi	r2,16
   30ba4:	8c000234 	orhi	r16,r17,8
   30ba8:	10bfffc4 	addi	r2,r2,-1
   30bac:	1827883a 	mov	r19,r3
   30bb0:	80a0703a 	and	r16,r16,r2
   30bb4:	b825883a 	mov	r18,r23
   30bb8:	003f6a06 	br	30964 <__alt_data_end+0xffff0964>
   30bbc:	00800434 	movhi	r2,16
   30bc0:	84000234 	orhi	r16,r16,8
   30bc4:	10bfffc4 	addi	r2,r2,-1
   30bc8:	80a0703a 	and	r16,r16,r2
   30bcc:	003f6506 	br	30964 <__alt_data_end+0xffff0964>
   30bd0:	3009883a 	mov	r4,r6
   30bd4:	d8c00215 	stw	r3,8(sp)
   30bd8:	d9800315 	stw	r6,12(sp)
   30bdc:	da800015 	stw	r10,0(sp)
   30be0:	dac00115 	stw	r11,4(sp)
   30be4:	00254740 	call	25474 <__clzsi2>
   30be8:	11000804 	addi	r4,r2,32
   30bec:	014009c4 	movi	r5,39
   30bf0:	d8c00217 	ldw	r3,8(sp)
   30bf4:	d9800317 	ldw	r6,12(sp)
   30bf8:	da800017 	ldw	r10,0(sp)
   30bfc:	dac00117 	ldw	r11,4(sp)
   30c00:	293f320e 	bge	r5,r4,308cc <__alt_data_end+0xffff08cc>
   30c04:	10bffe04 	addi	r2,r2,-8
   30c08:	b8a2983a 	sll	r17,r23,r2
   30c0c:	002f883a 	mov	r23,zero
   30c10:	003f3506 	br	308e8 <__alt_data_end+0xffff08e8>
   30c14:	d9800315 	stw	r6,12(sp)
   30c18:	d9c00015 	stw	r7,0(sp)
   30c1c:	00254740 	call	25474 <__clzsi2>
   30c20:	10c00804 	addi	r3,r2,32
   30c24:	010009c4 	movi	r4,39
   30c28:	d9800317 	ldw	r6,12(sp)
   30c2c:	d9c00017 	ldw	r7,0(sp)
   30c30:	20ff060e 	bge	r4,r3,3084c <__alt_data_end+0xffff084c>
   30c34:	10bffe04 	addi	r2,r2,-8
   30c38:	88a0983a 	sll	r16,r17,r2
   30c3c:	0025883a 	mov	r18,zero
   30c40:	003f0906 	br	30868 <__alt_data_end+0xffff0868>
   30c44:	9004d0fa 	srli	r2,r18,3
   30c48:	8024977a 	slli	r18,r16,29
   30c4c:	8020927a 	slli	r16,r16,9
   30c50:	2101ffcc 	andi	r4,r4,2047
   30c54:	90a4b03a 	or	r18,r18,r2
   30c58:	8020d33a 	srli	r16,r16,12
   30c5c:	b4c0004c 	andi	r19,r22,1
   30c60:	003edb06 	br	307d0 <__alt_data_end+0xffff07d0>
   30c64:	00ff0084 	movi	r3,-1022
   30c68:	1947c83a 	sub	r3,r3,r5
   30c6c:	00800e04 	movi	r2,56
   30c70:	10c0080e 	bge	r2,r3,30c94 <__muldf3+0x62c>
   30c74:	b4c0004c 	andi	r19,r22,1
   30c78:	0009883a 	mov	r4,zero
   30c7c:	0021883a 	mov	r16,zero
   30c80:	0025883a 	mov	r18,zero
   30c84:	003ed206 	br	307d0 <__alt_data_end+0xffff07d0>
   30c88:	600b883a 	mov	r5,r12
   30c8c:	e02d883a 	mov	r22,fp
   30c90:	003fa706 	br	30b30 <__alt_data_end+0xffff0b30>
   30c94:	008007c4 	movi	r2,31
   30c98:	10c01816 	blt	r2,r3,30cfc <__muldf3+0x694>
   30c9c:	29410784 	addi	r5,r5,1054
   30ca0:	8144983a 	sll	r2,r16,r5
   30ca4:	90c8d83a 	srl	r4,r18,r3
   30ca8:	914a983a 	sll	r5,r18,r5
   30cac:	80c6d83a 	srl	r3,r16,r3
   30cb0:	2088b03a 	or	r4,r4,r2
   30cb4:	2804c03a 	cmpne	r2,r5,zero
   30cb8:	2084b03a 	or	r2,r4,r2
   30cbc:	110001cc 	andi	r4,r2,7
   30cc0:	20000726 	beq	r4,zero,30ce0 <__muldf3+0x678>
   30cc4:	114003cc 	andi	r5,r2,15
   30cc8:	01000104 	movi	r4,4
   30ccc:	29000426 	beq	r5,r4,30ce0 <__muldf3+0x678>
   30cd0:	11000104 	addi	r4,r2,4
   30cd4:	2085803a 	cmpltu	r2,r4,r2
   30cd8:	1887883a 	add	r3,r3,r2
   30cdc:	2005883a 	mov	r2,r4
   30ce0:	1900202c 	andhi	r4,r3,128
   30ce4:	20001826 	beq	r4,zero,30d48 <__muldf3+0x6e0>
   30ce8:	b4c0004c 	andi	r19,r22,1
   30cec:	01000044 	movi	r4,1
   30cf0:	0021883a 	mov	r16,zero
   30cf4:	0025883a 	mov	r18,zero
   30cf8:	003eb506 	br	307d0 <__alt_data_end+0xffff07d0>
   30cfc:	00bef884 	movi	r2,-1054
   30d00:	1145c83a 	sub	r2,r2,r5
   30d04:	8088d83a 	srl	r4,r16,r2
   30d08:	00800804 	movi	r2,32
   30d0c:	18801726 	beq	r3,r2,30d6c <__muldf3+0x704>
   30d10:	28810f84 	addi	r2,r5,1086
   30d14:	8084983a 	sll	r2,r16,r2
   30d18:	1484b03a 	or	r2,r2,r18
   30d1c:	1004c03a 	cmpne	r2,r2,zero
   30d20:	1104b03a 	or	r2,r2,r4
   30d24:	10c001cc 	andi	r3,r2,7
   30d28:	18000b1e 	bne	r3,zero,30d58 <__muldf3+0x6f0>
   30d2c:	0021883a 	mov	r16,zero
   30d30:	1004d0fa 	srli	r2,r2,3
   30d34:	b4c0004c 	andi	r19,r22,1
   30d38:	0009883a 	mov	r4,zero
   30d3c:	10e4b03a 	or	r18,r2,r3
   30d40:	003ea306 	br	307d0 <__alt_data_end+0xffff07d0>
   30d44:	0007883a 	mov	r3,zero
   30d48:	1820927a 	slli	r16,r3,9
   30d4c:	1806977a 	slli	r3,r3,29
   30d50:	8020d33a 	srli	r16,r16,12
   30d54:	003ff606 	br	30d30 <__alt_data_end+0xffff0d30>
   30d58:	110003cc 	andi	r4,r2,15
   30d5c:	00c00104 	movi	r3,4
   30d60:	20fff826 	beq	r4,r3,30d44 <__alt_data_end+0xffff0d44>
   30d64:	0007883a 	mov	r3,zero
   30d68:	003fd906 	br	30cd0 <__alt_data_end+0xffff0cd0>
   30d6c:	0005883a 	mov	r2,zero
   30d70:	003fe906 	br	30d18 <__alt_data_end+0xffff0d18>
   30d74:	00800434 	movhi	r2,16
   30d78:	84000234 	orhi	r16,r16,8
   30d7c:	10bfffc4 	addi	r2,r2,-1
   30d80:	e4c0004c 	andi	r19,fp,1
   30d84:	80a0703a 	and	r16,r16,r2
   30d88:	003ef606 	br	30964 <__alt_data_end+0xffff0964>

00030d8c <__subdf3>:
   30d8c:	00c00434 	movhi	r3,16
   30d90:	18ffffc4 	addi	r3,r3,-1
   30d94:	defffb04 	addi	sp,sp,-20
   30d98:	28d2703a 	and	r9,r5,r3
   30d9c:	3814d53a 	srli	r10,r7,20
   30da0:	38c6703a 	and	r3,r7,r3
   30da4:	3004d77a 	srli	r2,r6,29
   30da8:	dc800215 	stw	r18,8(sp)
   30dac:	dc000015 	stw	r16,0(sp)
   30db0:	2824d7fa 	srli	r18,r5,31
   30db4:	2820d53a 	srli	r16,r5,20
   30db8:	481290fa 	slli	r9,r9,3
   30dbc:	200ad77a 	srli	r5,r4,29
   30dc0:	180690fa 	slli	r3,r3,3
   30dc4:	dc400115 	stw	r17,4(sp)
   30dc8:	dfc00415 	stw	ra,16(sp)
   30dcc:	202290fa 	slli	r17,r4,3
   30dd0:	dcc00315 	stw	r19,12(sp)
   30dd4:	5281ffcc 	andi	r10,r10,2047
   30dd8:	0101ffc4 	movi	r4,2047
   30ddc:	9011883a 	mov	r8,r18
   30de0:	8401ffcc 	andi	r16,r16,2047
   30de4:	94803fcc 	andi	r18,r18,255
   30de8:	494ab03a 	or	r5,r9,r5
   30dec:	380ed7fa 	srli	r7,r7,31
   30df0:	1886b03a 	or	r3,r3,r2
   30df4:	300c90fa 	slli	r6,r6,3
   30df8:	51009026 	beq	r10,r4,3103c <__subdf3+0x2b0>
   30dfc:	39c0005c 	xori	r7,r7,1
   30e00:	8285c83a 	sub	r2,r16,r10
   30e04:	91c06f26 	beq	r18,r7,30fc4 <__subdf3+0x238>
   30e08:	0080b10e 	bge	zero,r2,310d0 <__subdf3+0x344>
   30e0c:	50002a1e 	bne	r10,zero,30eb8 <__subdf3+0x12c>
   30e10:	1988b03a 	or	r4,r3,r6
   30e14:	2000941e 	bne	r4,zero,31068 <__subdf3+0x2dc>
   30e18:	888001cc 	andi	r2,r17,7
   30e1c:	10005b26 	beq	r2,zero,30f8c <__subdf3+0x200>
   30e20:	88c003cc 	andi	r3,r17,15
   30e24:	00800104 	movi	r2,4
   30e28:	18805826 	beq	r3,r2,30f8c <__subdf3+0x200>
   30e2c:	88c00104 	addi	r3,r17,4
   30e30:	1c63803a 	cmpltu	r17,r3,r17
   30e34:	2c4b883a 	add	r5,r5,r17
   30e38:	2880202c 	andhi	r2,r5,128
   30e3c:	9200004c 	andi	r8,r18,1
   30e40:	1823883a 	mov	r17,r3
   30e44:	10005426 	beq	r2,zero,30f98 <__subdf3+0x20c>
   30e48:	84000044 	addi	r16,r16,1
   30e4c:	0081ffc4 	movi	r2,2047
   30e50:	8080bf26 	beq	r16,r2,31150 <__subdf3+0x3c4>
   30e54:	013fe034 	movhi	r4,65408
   30e58:	213fffc4 	addi	r4,r4,-1
   30e5c:	290a703a 	and	r5,r5,r4
   30e60:	2804977a 	slli	r2,r5,29
   30e64:	280a927a 	slli	r5,r5,9
   30e68:	8822d0fa 	srli	r17,r17,3
   30e6c:	8401ffcc 	andi	r16,r16,2047
   30e70:	2808d33a 	srli	r4,r5,12
   30e74:	1444b03a 	or	r2,r2,r17
   30e78:	8401ffcc 	andi	r16,r16,2047
   30e7c:	800a953a 	slli	r5,r16,20
   30e80:	40c03fcc 	andi	r3,r8,255
   30e84:	04000434 	movhi	r16,16
   30e88:	180697fa 	slli	r3,r3,31
   30e8c:	843fffc4 	addi	r16,r16,-1
   30e90:	2420703a 	and	r16,r4,r16
   30e94:	8160b03a 	or	r16,r16,r5
   30e98:	80c6b03a 	or	r3,r16,r3
   30e9c:	dfc00417 	ldw	ra,16(sp)
   30ea0:	dcc00317 	ldw	r19,12(sp)
   30ea4:	dc800217 	ldw	r18,8(sp)
   30ea8:	dc400117 	ldw	r17,4(sp)
   30eac:	dc000017 	ldw	r16,0(sp)
   30eb0:	dec00504 	addi	sp,sp,20
   30eb4:	f800283a 	ret
   30eb8:	0101ffc4 	movi	r4,2047
   30ebc:	813fd626 	beq	r16,r4,30e18 <__alt_data_end+0xffff0e18>
   30ec0:	18c02034 	orhi	r3,r3,128
   30ec4:	01000e04 	movi	r4,56
   30ec8:	2080a416 	blt	r4,r2,3115c <__subdf3+0x3d0>
   30ecc:	010007c4 	movi	r4,31
   30ed0:	2080c716 	blt	r4,r2,311f0 <__subdf3+0x464>
   30ed4:	01000804 	movi	r4,32
   30ed8:	2089c83a 	sub	r4,r4,r2
   30edc:	1910983a 	sll	r8,r3,r4
   30ee0:	308ed83a 	srl	r7,r6,r2
   30ee4:	3108983a 	sll	r4,r6,r4
   30ee8:	1884d83a 	srl	r2,r3,r2
   30eec:	41ccb03a 	or	r6,r8,r7
   30ef0:	2008c03a 	cmpne	r4,r4,zero
   30ef4:	310cb03a 	or	r6,r6,r4
   30ef8:	898dc83a 	sub	r6,r17,r6
   30efc:	89a3803a 	cmpltu	r17,r17,r6
   30f00:	288bc83a 	sub	r5,r5,r2
   30f04:	2c4bc83a 	sub	r5,r5,r17
   30f08:	3023883a 	mov	r17,r6
   30f0c:	2880202c 	andhi	r2,r5,128
   30f10:	10006b26 	beq	r2,zero,310c0 <__subdf3+0x334>
   30f14:	04c02034 	movhi	r19,128
   30f18:	9cffffc4 	addi	r19,r19,-1
   30f1c:	2ce6703a 	and	r19,r5,r19
   30f20:	98007c26 	beq	r19,zero,31114 <__subdf3+0x388>
   30f24:	9809883a 	mov	r4,r19
   30f28:	00254740 	call	25474 <__clzsi2>
   30f2c:	10fffe04 	addi	r3,r2,-8
   30f30:	010007c4 	movi	r4,31
   30f34:	20c07d16 	blt	r4,r3,3112c <__subdf3+0x3a0>
   30f38:	01400a04 	movi	r5,40
   30f3c:	2885c83a 	sub	r2,r5,r2
   30f40:	888ad83a 	srl	r5,r17,r2
   30f44:	98e6983a 	sll	r19,r19,r3
   30f48:	88e2983a 	sll	r17,r17,r3
   30f4c:	2ce6b03a 	or	r19,r5,r19
   30f50:	1c007a16 	blt	r3,r16,3113c <__subdf3+0x3b0>
   30f54:	1c21c83a 	sub	r16,r3,r16
   30f58:	81400044 	addi	r5,r16,1
   30f5c:	00c007c4 	movi	r3,31
   30f60:	19409616 	blt	r3,r5,311bc <__subdf3+0x430>
   30f64:	1c21c83a 	sub	r16,r3,r16
   30f68:	8c08983a 	sll	r4,r17,r16
   30f6c:	8946d83a 	srl	r3,r17,r5
   30f70:	9c20983a 	sll	r16,r19,r16
   30f74:	2008c03a 	cmpne	r4,r4,zero
   30f78:	994ad83a 	srl	r5,r19,r5
   30f7c:	1c06b03a 	or	r3,r3,r16
   30f80:	1922b03a 	or	r17,r3,r4
   30f84:	0021883a 	mov	r16,zero
   30f88:	003fa306 	br	30e18 <__alt_data_end+0xffff0e18>
   30f8c:	2880202c 	andhi	r2,r5,128
   30f90:	9200004c 	andi	r8,r18,1
   30f94:	103fac1e 	bne	r2,zero,30e48 <__alt_data_end+0xffff0e48>
   30f98:	2804977a 	slli	r2,r5,29
   30f9c:	8822d0fa 	srli	r17,r17,3
   30fa0:	00c1ffc4 	movi	r3,2047
   30fa4:	280ad0fa 	srli	r5,r5,3
   30fa8:	1444b03a 	or	r2,r2,r17
   30fac:	80c02726 	beq	r16,r3,3104c <__subdf3+0x2c0>
   30fb0:	01000434 	movhi	r4,16
   30fb4:	213fffc4 	addi	r4,r4,-1
   30fb8:	80e0703a 	and	r16,r16,r3
   30fbc:	2908703a 	and	r4,r5,r4
   30fc0:	003fad06 	br	30e78 <__alt_data_end+0xffff0e78>
   30fc4:	0080690e 	bge	zero,r2,3116c <__subdf3+0x3e0>
   30fc8:	50002f26 	beq	r10,zero,31088 <__subdf3+0x2fc>
   30fcc:	0101ffc4 	movi	r4,2047
   30fd0:	813f9126 	beq	r16,r4,30e18 <__alt_data_end+0xffff0e18>
   30fd4:	18c02034 	orhi	r3,r3,128
   30fd8:	01000e04 	movi	r4,56
   30fdc:	2080b00e 	bge	r4,r2,312a0 <__subdf3+0x514>
   30fe0:	198cb03a 	or	r6,r3,r6
   30fe4:	300ec03a 	cmpne	r7,r6,zero
   30fe8:	0005883a 	mov	r2,zero
   30fec:	3c4f883a 	add	r7,r7,r17
   30ff0:	3c63803a 	cmpltu	r17,r7,r17
   30ff4:	114b883a 	add	r5,r2,r5
   30ff8:	2c4b883a 	add	r5,r5,r17
   30ffc:	3823883a 	mov	r17,r7
   31000:	2880202c 	andhi	r2,r5,128
   31004:	10002e26 	beq	r2,zero,310c0 <__subdf3+0x334>
   31008:	84000044 	addi	r16,r16,1
   3100c:	0081ffc4 	movi	r2,2047
   31010:	8080de26 	beq	r16,r2,3138c <__subdf3+0x600>
   31014:	00bfe034 	movhi	r2,65408
   31018:	10bfffc4 	addi	r2,r2,-1
   3101c:	288a703a 	and	r5,r5,r2
   31020:	880cd07a 	srli	r6,r17,1
   31024:	280897fa 	slli	r4,r5,31
   31028:	88c0004c 	andi	r3,r17,1
   3102c:	30e2b03a 	or	r17,r6,r3
   31030:	280ad07a 	srli	r5,r5,1
   31034:	8922b03a 	or	r17,r17,r4
   31038:	003f7706 	br	30e18 <__alt_data_end+0xffff0e18>
   3103c:	1984b03a 	or	r2,r3,r6
   31040:	103f6e26 	beq	r2,zero,30dfc <__alt_data_end+0xffff0dfc>
   31044:	39c03fcc 	andi	r7,r7,255
   31048:	003f6d06 	br	30e00 <__alt_data_end+0xffff0e00>
   3104c:	1146b03a 	or	r3,r2,r5
   31050:	18003f26 	beq	r3,zero,31150 <__subdf3+0x3c4>
   31054:	00c00434 	movhi	r3,16
   31058:	29000234 	orhi	r4,r5,8
   3105c:	18ffffc4 	addi	r3,r3,-1
   31060:	20c8703a 	and	r4,r4,r3
   31064:	003f8406 	br	30e78 <__alt_data_end+0xffff0e78>
   31068:	10bfffc4 	addi	r2,r2,-1
   3106c:	1000501e 	bne	r2,zero,311b0 <__subdf3+0x424>
   31070:	898fc83a 	sub	r7,r17,r6
   31074:	89e3803a 	cmpltu	r17,r17,r7
   31078:	28cbc83a 	sub	r5,r5,r3
   3107c:	2c4bc83a 	sub	r5,r5,r17
   31080:	3823883a 	mov	r17,r7
   31084:	003fa106 	br	30f0c <__alt_data_end+0xffff0f0c>
   31088:	1988b03a 	or	r4,r3,r6
   3108c:	203f6226 	beq	r4,zero,30e18 <__alt_data_end+0xffff0e18>
   31090:	10bfffc4 	addi	r2,r2,-1
   31094:	10009b1e 	bne	r2,zero,31304 <__subdf3+0x578>
   31098:	344d883a 	add	r6,r6,r17
   3109c:	3463803a 	cmpltu	r17,r6,r17
   310a0:	194b883a 	add	r5,r3,r5
   310a4:	2c4b883a 	add	r5,r5,r17
   310a8:	3023883a 	mov	r17,r6
   310ac:	003fd406 	br	31000 <__alt_data_end+0xffff1000>
   310b0:	1106b03a 	or	r3,r2,r4
   310b4:	1800b426 	beq	r3,zero,31388 <__subdf3+0x5fc>
   310b8:	100b883a 	mov	r5,r2
   310bc:	2023883a 	mov	r17,r4
   310c0:	888001cc 	andi	r2,r17,7
   310c4:	103f561e 	bne	r2,zero,30e20 <__alt_data_end+0xffff0e20>
   310c8:	9200004c 	andi	r8,r18,1
   310cc:	003fb206 	br	30f98 <__alt_data_end+0xffff0f98>
   310d0:	1000531e 	bne	r2,zero,31220 <__subdf3+0x494>
   310d4:	80800044 	addi	r2,r16,1
   310d8:	1081ffcc 	andi	r2,r2,2047
   310dc:	01000044 	movi	r4,1
   310e0:	2080a00e 	bge	r4,r2,31364 <__subdf3+0x5d8>
   310e4:	8985c83a 	sub	r2,r17,r6
   310e8:	8889803a 	cmpltu	r4,r17,r2
   310ec:	28e7c83a 	sub	r19,r5,r3
   310f0:	9927c83a 	sub	r19,r19,r4
   310f4:	9900202c 	andhi	r4,r19,128
   310f8:	20006226 	beq	r4,zero,31284 <__subdf3+0x4f8>
   310fc:	3463c83a 	sub	r17,r6,r17
   31100:	194bc83a 	sub	r5,r3,r5
   31104:	344d803a 	cmpltu	r6,r6,r17
   31108:	29a7c83a 	sub	r19,r5,r6
   3110c:	3825883a 	mov	r18,r7
   31110:	983f841e 	bne	r19,zero,30f24 <__alt_data_end+0xffff0f24>
   31114:	8809883a 	mov	r4,r17
   31118:	00254740 	call	25474 <__clzsi2>
   3111c:	10800804 	addi	r2,r2,32
   31120:	10fffe04 	addi	r3,r2,-8
   31124:	010007c4 	movi	r4,31
   31128:	20ff830e 	bge	r4,r3,30f38 <__alt_data_end+0xffff0f38>
   3112c:	14fff604 	addi	r19,r2,-40
   31130:	8ce6983a 	sll	r19,r17,r19
   31134:	0023883a 	mov	r17,zero
   31138:	1c3f860e 	bge	r3,r16,30f54 <__alt_data_end+0xffff0f54>
   3113c:	017fe034 	movhi	r5,65408
   31140:	297fffc4 	addi	r5,r5,-1
   31144:	80e1c83a 	sub	r16,r16,r3
   31148:	994a703a 	and	r5,r19,r5
   3114c:	003f3206 	br	30e18 <__alt_data_end+0xffff0e18>
   31150:	0009883a 	mov	r4,zero
   31154:	0005883a 	mov	r2,zero
   31158:	003f4706 	br	30e78 <__alt_data_end+0xffff0e78>
   3115c:	198cb03a 	or	r6,r3,r6
   31160:	300cc03a 	cmpne	r6,r6,zero
   31164:	0005883a 	mov	r2,zero
   31168:	003f6306 	br	30ef8 <__alt_data_end+0xffff0ef8>
   3116c:	10009d1e 	bne	r2,zero,313e4 <__subdf3+0x658>
   31170:	81c00044 	addi	r7,r16,1
   31174:	3881ffcc 	andi	r2,r7,2047
   31178:	02400044 	movi	r9,1
   3117c:	4880680e 	bge	r9,r2,31320 <__subdf3+0x594>
   31180:	0081ffc4 	movi	r2,2047
   31184:	3880ae26 	beq	r7,r2,31440 <__subdf3+0x6b4>
   31188:	344d883a 	add	r6,r6,r17
   3118c:	3463803a 	cmpltu	r17,r6,r17
   31190:	194b883a 	add	r5,r3,r5
   31194:	2c4b883a 	add	r5,r5,r17
   31198:	282297fa 	slli	r17,r5,31
   3119c:	300cd07a 	srli	r6,r6,1
   311a0:	280ad07a 	srli	r5,r5,1
   311a4:	3821883a 	mov	r16,r7
   311a8:	89a2b03a 	or	r17,r17,r6
   311ac:	003f1a06 	br	30e18 <__alt_data_end+0xffff0e18>
   311b0:	0101ffc4 	movi	r4,2047
   311b4:	813f431e 	bne	r16,r4,30ec4 <__alt_data_end+0xffff0ec4>
   311b8:	003f1706 	br	30e18 <__alt_data_end+0xffff0e18>
   311bc:	80bff844 	addi	r2,r16,-31
   311c0:	00c00804 	movi	r3,32
   311c4:	9884d83a 	srl	r2,r19,r2
   311c8:	28c05126 	beq	r5,r3,31310 <__subdf3+0x584>
   311cc:	00c00fc4 	movi	r3,63
   311d0:	1c21c83a 	sub	r16,r3,r16
   311d4:	9c26983a 	sll	r19,r19,r16
   311d8:	9c62b03a 	or	r17,r19,r17
   311dc:	8822c03a 	cmpne	r17,r17,zero
   311e0:	88a2b03a 	or	r17,r17,r2
   311e4:	000b883a 	mov	r5,zero
   311e8:	0021883a 	mov	r16,zero
   311ec:	003fb406 	br	310c0 <__alt_data_end+0xffff10c0>
   311f0:	113ff804 	addi	r4,r2,-32
   311f4:	01c00804 	movi	r7,32
   311f8:	1908d83a 	srl	r4,r3,r4
   311fc:	11c04626 	beq	r2,r7,31318 <__subdf3+0x58c>
   31200:	01c01004 	movi	r7,64
   31204:	3885c83a 	sub	r2,r7,r2
   31208:	1884983a 	sll	r2,r3,r2
   3120c:	118cb03a 	or	r6,r2,r6
   31210:	300cc03a 	cmpne	r6,r6,zero
   31214:	310cb03a 	or	r6,r6,r4
   31218:	0005883a 	mov	r2,zero
   3121c:	003f3606 	br	30ef8 <__alt_data_end+0xffff0ef8>
   31220:	80002b26 	beq	r16,zero,312d0 <__subdf3+0x544>
   31224:	0101ffc4 	movi	r4,2047
   31228:	51006926 	beq	r10,r4,313d0 <__subdf3+0x644>
   3122c:	0085c83a 	sub	r2,zero,r2
   31230:	29402034 	orhi	r5,r5,128
   31234:	01000e04 	movi	r4,56
   31238:	20807d16 	blt	r4,r2,31430 <__subdf3+0x6a4>
   3123c:	010007c4 	movi	r4,31
   31240:	2080d916 	blt	r4,r2,315a8 <__subdf3+0x81c>
   31244:	01000804 	movi	r4,32
   31248:	2089c83a 	sub	r4,r4,r2
   3124c:	2912983a 	sll	r9,r5,r4
   31250:	8890d83a 	srl	r8,r17,r2
   31254:	8908983a 	sll	r4,r17,r4
   31258:	2884d83a 	srl	r2,r5,r2
   3125c:	4a22b03a 	or	r17,r9,r8
   31260:	2008c03a 	cmpne	r4,r4,zero
   31264:	8922b03a 	or	r17,r17,r4
   31268:	3463c83a 	sub	r17,r6,r17
   3126c:	1885c83a 	sub	r2,r3,r2
   31270:	344d803a 	cmpltu	r6,r6,r17
   31274:	118bc83a 	sub	r5,r2,r6
   31278:	5021883a 	mov	r16,r10
   3127c:	3825883a 	mov	r18,r7
   31280:	003f2206 	br	30f0c <__alt_data_end+0xffff0f0c>
   31284:	9886b03a 	or	r3,r19,r2
   31288:	18001c1e 	bne	r3,zero,312fc <__subdf3+0x570>
   3128c:	0011883a 	mov	r8,zero
   31290:	000b883a 	mov	r5,zero
   31294:	0023883a 	mov	r17,zero
   31298:	0021883a 	mov	r16,zero
   3129c:	003f3e06 	br	30f98 <__alt_data_end+0xffff0f98>
   312a0:	010007c4 	movi	r4,31
   312a4:	20803c16 	blt	r4,r2,31398 <__subdf3+0x60c>
   312a8:	01000804 	movi	r4,32
   312ac:	2089c83a 	sub	r4,r4,r2
   312b0:	1912983a 	sll	r9,r3,r4
   312b4:	308ed83a 	srl	r7,r6,r2
   312b8:	3108983a 	sll	r4,r6,r4
   312bc:	1884d83a 	srl	r2,r3,r2
   312c0:	49ceb03a 	or	r7,r9,r7
   312c4:	2008c03a 	cmpne	r4,r4,zero
   312c8:	390eb03a 	or	r7,r7,r4
   312cc:	003f4706 	br	30fec <__alt_data_end+0xffff0fec>
   312d0:	2c48b03a 	or	r4,r5,r17
   312d4:	20003e26 	beq	r4,zero,313d0 <__subdf3+0x644>
   312d8:	0084303a 	nor	r2,zero,r2
   312dc:	10003a1e 	bne	r2,zero,313c8 <__subdf3+0x63c>
   312e0:	3463c83a 	sub	r17,r6,r17
   312e4:	194bc83a 	sub	r5,r3,r5
   312e8:	344d803a 	cmpltu	r6,r6,r17
   312ec:	298bc83a 	sub	r5,r5,r6
   312f0:	5021883a 	mov	r16,r10
   312f4:	3825883a 	mov	r18,r7
   312f8:	003f0406 	br	30f0c <__alt_data_end+0xffff0f0c>
   312fc:	1023883a 	mov	r17,r2
   31300:	003f0706 	br	30f20 <__alt_data_end+0xffff0f20>
   31304:	0101ffc4 	movi	r4,2047
   31308:	813f331e 	bne	r16,r4,30fd8 <__alt_data_end+0xffff0fd8>
   3130c:	003ec206 	br	30e18 <__alt_data_end+0xffff0e18>
   31310:	0027883a 	mov	r19,zero
   31314:	003fb006 	br	311d8 <__alt_data_end+0xffff11d8>
   31318:	0005883a 	mov	r2,zero
   3131c:	003fbb06 	br	3120c <__alt_data_end+0xffff120c>
   31320:	2c44b03a 	or	r2,r5,r17
   31324:	80008b1e 	bne	r16,zero,31554 <__subdf3+0x7c8>
   31328:	1000b526 	beq	r2,zero,31600 <__subdf3+0x874>
   3132c:	1984b03a 	or	r2,r3,r6
   31330:	103eb926 	beq	r2,zero,30e18 <__alt_data_end+0xffff0e18>
   31334:	3449883a 	add	r4,r6,r17
   31338:	2463803a 	cmpltu	r17,r4,r17
   3133c:	194b883a 	add	r5,r3,r5
   31340:	2c4b883a 	add	r5,r5,r17
   31344:	2880202c 	andhi	r2,r5,128
   31348:	2023883a 	mov	r17,r4
   3134c:	103f5c26 	beq	r2,zero,310c0 <__alt_data_end+0xffff10c0>
   31350:	00bfe034 	movhi	r2,65408
   31354:	10bfffc4 	addi	r2,r2,-1
   31358:	4821883a 	mov	r16,r9
   3135c:	288a703a 	and	r5,r5,r2
   31360:	003ead06 	br	30e18 <__alt_data_end+0xffff0e18>
   31364:	2c44b03a 	or	r2,r5,r17
   31368:	8000291e 	bne	r16,zero,31410 <__subdf3+0x684>
   3136c:	10004f1e 	bne	r2,zero,314ac <__subdf3+0x720>
   31370:	1984b03a 	or	r2,r3,r6
   31374:	10000426 	beq	r2,zero,31388 <__subdf3+0x5fc>
   31378:	180b883a 	mov	r5,r3
   3137c:	3023883a 	mov	r17,r6
   31380:	3825883a 	mov	r18,r7
   31384:	003ea406 	br	30e18 <__alt_data_end+0xffff0e18>
   31388:	0011883a 	mov	r8,zero
   3138c:	000b883a 	mov	r5,zero
   31390:	0023883a 	mov	r17,zero
   31394:	003f0006 	br	30f98 <__alt_data_end+0xffff0f98>
   31398:	11fff804 	addi	r7,r2,-32
   3139c:	19c8d83a 	srl	r4,r3,r7
   313a0:	01c00804 	movi	r7,32
   313a4:	11c07e26 	beq	r2,r7,315a0 <__subdf3+0x814>
   313a8:	01c01004 	movi	r7,64
   313ac:	3885c83a 	sub	r2,r7,r2
   313b0:	1884983a 	sll	r2,r3,r2
   313b4:	118cb03a 	or	r6,r2,r6
   313b8:	300ec03a 	cmpne	r7,r6,zero
   313bc:	390eb03a 	or	r7,r7,r4
   313c0:	0005883a 	mov	r2,zero
   313c4:	003f0906 	br	30fec <__alt_data_end+0xffff0fec>
   313c8:	0101ffc4 	movi	r4,2047
   313cc:	513f991e 	bne	r10,r4,31234 <__alt_data_end+0xffff1234>
   313d0:	180b883a 	mov	r5,r3
   313d4:	3023883a 	mov	r17,r6
   313d8:	5021883a 	mov	r16,r10
   313dc:	3825883a 	mov	r18,r7
   313e0:	003e8d06 	br	30e18 <__alt_data_end+0xffff0e18>
   313e4:	80001a1e 	bne	r16,zero,31450 <__subdf3+0x6c4>
   313e8:	2c48b03a 	or	r4,r5,r17
   313ec:	20005526 	beq	r4,zero,31544 <__subdf3+0x7b8>
   313f0:	0084303a 	nor	r2,zero,r2
   313f4:	1000511e 	bne	r2,zero,3153c <__subdf3+0x7b0>
   313f8:	89a3883a 	add	r17,r17,r6
   313fc:	194b883a 	add	r5,r3,r5
   31400:	898d803a 	cmpltu	r6,r17,r6
   31404:	298b883a 	add	r5,r5,r6
   31408:	5021883a 	mov	r16,r10
   3140c:	003efc06 	br	31000 <__alt_data_end+0xffff1000>
   31410:	1000341e 	bne	r2,zero,314e4 <__subdf3+0x758>
   31414:	1984b03a 	or	r2,r3,r6
   31418:	10006f26 	beq	r2,zero,315d8 <__subdf3+0x84c>
   3141c:	180b883a 	mov	r5,r3
   31420:	3023883a 	mov	r17,r6
   31424:	3825883a 	mov	r18,r7
   31428:	0401ffc4 	movi	r16,2047
   3142c:	003e7a06 	br	30e18 <__alt_data_end+0xffff0e18>
   31430:	2c62b03a 	or	r17,r5,r17
   31434:	8822c03a 	cmpne	r17,r17,zero
   31438:	0005883a 	mov	r2,zero
   3143c:	003f8a06 	br	31268 <__alt_data_end+0xffff1268>
   31440:	3821883a 	mov	r16,r7
   31444:	000b883a 	mov	r5,zero
   31448:	0023883a 	mov	r17,zero
   3144c:	003ed206 	br	30f98 <__alt_data_end+0xffff0f98>
   31450:	0101ffc4 	movi	r4,2047
   31454:	51003b26 	beq	r10,r4,31544 <__subdf3+0x7b8>
   31458:	0085c83a 	sub	r2,zero,r2
   3145c:	29402034 	orhi	r5,r5,128
   31460:	01000e04 	movi	r4,56
   31464:	20806216 	blt	r4,r2,315f0 <__subdf3+0x864>
   31468:	010007c4 	movi	r4,31
   3146c:	20806b16 	blt	r4,r2,3161c <__subdf3+0x890>
   31470:	01000804 	movi	r4,32
   31474:	2089c83a 	sub	r4,r4,r2
   31478:	2912983a 	sll	r9,r5,r4
   3147c:	888ed83a 	srl	r7,r17,r2
   31480:	8908983a 	sll	r4,r17,r4
   31484:	2884d83a 	srl	r2,r5,r2
   31488:	49e2b03a 	or	r17,r9,r7
   3148c:	2008c03a 	cmpne	r4,r4,zero
   31490:	8922b03a 	or	r17,r17,r4
   31494:	89a3883a 	add	r17,r17,r6
   31498:	10c5883a 	add	r2,r2,r3
   3149c:	898d803a 	cmpltu	r6,r17,r6
   314a0:	118b883a 	add	r5,r2,r6
   314a4:	5021883a 	mov	r16,r10
   314a8:	003ed506 	br	31000 <__alt_data_end+0xffff1000>
   314ac:	1984b03a 	or	r2,r3,r6
   314b0:	103e5926 	beq	r2,zero,30e18 <__alt_data_end+0xffff0e18>
   314b4:	8989c83a 	sub	r4,r17,r6
   314b8:	8911803a 	cmpltu	r8,r17,r4
   314bc:	28c5c83a 	sub	r2,r5,r3
   314c0:	1205c83a 	sub	r2,r2,r8
   314c4:	1200202c 	andhi	r8,r2,128
   314c8:	403ef926 	beq	r8,zero,310b0 <__alt_data_end+0xffff10b0>
   314cc:	3463c83a 	sub	r17,r6,r17
   314d0:	194bc83a 	sub	r5,r3,r5
   314d4:	344d803a 	cmpltu	r6,r6,r17
   314d8:	298bc83a 	sub	r5,r5,r6
   314dc:	3825883a 	mov	r18,r7
   314e0:	003e4d06 	br	30e18 <__alt_data_end+0xffff0e18>
   314e4:	1984b03a 	or	r2,r3,r6
   314e8:	10002b26 	beq	r2,zero,31598 <__subdf3+0x80c>
   314ec:	2808d0fa 	srli	r4,r5,3
   314f0:	8822d0fa 	srli	r17,r17,3
   314f4:	280a977a 	slli	r5,r5,29
   314f8:	2080022c 	andhi	r2,r4,8
   314fc:	2c62b03a 	or	r17,r5,r17
   31500:	10000826 	beq	r2,zero,31524 <__subdf3+0x798>
   31504:	1810d0fa 	srli	r8,r3,3
   31508:	4080022c 	andhi	r2,r8,8
   3150c:	1000051e 	bne	r2,zero,31524 <__subdf3+0x798>
   31510:	300cd0fa 	srli	r6,r6,3
   31514:	1804977a 	slli	r2,r3,29
   31518:	4009883a 	mov	r4,r8
   3151c:	3825883a 	mov	r18,r7
   31520:	11a2b03a 	or	r17,r2,r6
   31524:	880ad77a 	srli	r5,r17,29
   31528:	200890fa 	slli	r4,r4,3
   3152c:	882290fa 	slli	r17,r17,3
   31530:	0401ffc4 	movi	r16,2047
   31534:	290ab03a 	or	r5,r5,r4
   31538:	003e3706 	br	30e18 <__alt_data_end+0xffff0e18>
   3153c:	0101ffc4 	movi	r4,2047
   31540:	513fc71e 	bne	r10,r4,31460 <__alt_data_end+0xffff1460>
   31544:	180b883a 	mov	r5,r3
   31548:	3023883a 	mov	r17,r6
   3154c:	5021883a 	mov	r16,r10
   31550:	003e3106 	br	30e18 <__alt_data_end+0xffff0e18>
   31554:	10002d26 	beq	r2,zero,3160c <__subdf3+0x880>
   31558:	1984b03a 	or	r2,r3,r6
   3155c:	10000e26 	beq	r2,zero,31598 <__subdf3+0x80c>
   31560:	2808d0fa 	srli	r4,r5,3
   31564:	8822d0fa 	srli	r17,r17,3
   31568:	280a977a 	slli	r5,r5,29
   3156c:	2080022c 	andhi	r2,r4,8
   31570:	2c62b03a 	or	r17,r5,r17
   31574:	103feb26 	beq	r2,zero,31524 <__alt_data_end+0xffff1524>
   31578:	180ed0fa 	srli	r7,r3,3
   3157c:	3880022c 	andhi	r2,r7,8
   31580:	103fe81e 	bne	r2,zero,31524 <__alt_data_end+0xffff1524>
   31584:	300cd0fa 	srli	r6,r6,3
   31588:	1804977a 	slli	r2,r3,29
   3158c:	3809883a 	mov	r4,r7
   31590:	11a2b03a 	or	r17,r2,r6
   31594:	003fe306 	br	31524 <__alt_data_end+0xffff1524>
   31598:	0401ffc4 	movi	r16,2047
   3159c:	003e1e06 	br	30e18 <__alt_data_end+0xffff0e18>
   315a0:	0005883a 	mov	r2,zero
   315a4:	003f8306 	br	313b4 <__alt_data_end+0xffff13b4>
   315a8:	113ff804 	addi	r4,r2,-32
   315ac:	02000804 	movi	r8,32
   315b0:	2908d83a 	srl	r4,r5,r4
   315b4:	12002526 	beq	r2,r8,3164c <__subdf3+0x8c0>
   315b8:	02001004 	movi	r8,64
   315bc:	4085c83a 	sub	r2,r8,r2
   315c0:	288a983a 	sll	r5,r5,r2
   315c4:	2c62b03a 	or	r17,r5,r17
   315c8:	8822c03a 	cmpne	r17,r17,zero
   315cc:	8922b03a 	or	r17,r17,r4
   315d0:	0005883a 	mov	r2,zero
   315d4:	003f2406 	br	31268 <__alt_data_end+0xffff1268>
   315d8:	01402034 	movhi	r5,128
   315dc:	0011883a 	mov	r8,zero
   315e0:	297fffc4 	addi	r5,r5,-1
   315e4:	047ffe04 	movi	r17,-8
   315e8:	0401ffc4 	movi	r16,2047
   315ec:	003e6a06 	br	30f98 <__alt_data_end+0xffff0f98>
   315f0:	2c62b03a 	or	r17,r5,r17
   315f4:	8822c03a 	cmpne	r17,r17,zero
   315f8:	0005883a 	mov	r2,zero
   315fc:	003fa506 	br	31494 <__alt_data_end+0xffff1494>
   31600:	180b883a 	mov	r5,r3
   31604:	3023883a 	mov	r17,r6
   31608:	003e0306 	br	30e18 <__alt_data_end+0xffff0e18>
   3160c:	180b883a 	mov	r5,r3
   31610:	3023883a 	mov	r17,r6
   31614:	0401ffc4 	movi	r16,2047
   31618:	003dff06 	br	30e18 <__alt_data_end+0xffff0e18>
   3161c:	113ff804 	addi	r4,r2,-32
   31620:	01c00804 	movi	r7,32
   31624:	2908d83a 	srl	r4,r5,r4
   31628:	11c00a26 	beq	r2,r7,31654 <__subdf3+0x8c8>
   3162c:	01c01004 	movi	r7,64
   31630:	3885c83a 	sub	r2,r7,r2
   31634:	288a983a 	sll	r5,r5,r2
   31638:	2c62b03a 	or	r17,r5,r17
   3163c:	8822c03a 	cmpne	r17,r17,zero
   31640:	8922b03a 	or	r17,r17,r4
   31644:	0005883a 	mov	r2,zero
   31648:	003f9206 	br	31494 <__alt_data_end+0xffff1494>
   3164c:	000b883a 	mov	r5,zero
   31650:	003fdc06 	br	315c4 <__alt_data_end+0xffff15c4>
   31654:	000b883a 	mov	r5,zero
   31658:	003ff706 	br	31638 <__alt_data_end+0xffff1638>

0003165c <__fixdfsi>:
   3165c:	2806d53a 	srli	r3,r5,20
   31660:	00800434 	movhi	r2,16
   31664:	10bfffc4 	addi	r2,r2,-1
   31668:	18c1ffcc 	andi	r3,r3,2047
   3166c:	0180ff84 	movi	r6,1022
   31670:	2884703a 	and	r2,r5,r2
   31674:	280ad7fa 	srli	r5,r5,31
   31678:	30c0130e 	bge	r6,r3,316c8 <__fixdfsi+0x6c>
   3167c:	01810744 	movi	r6,1053
   31680:	30c00d16 	blt	r6,r3,316b8 <__fixdfsi+0x5c>
   31684:	01810cc4 	movi	r6,1075
   31688:	30cdc83a 	sub	r6,r6,r3
   3168c:	01c007c4 	movi	r7,31
   31690:	10800434 	orhi	r2,r2,16
   31694:	39800e0e 	bge	r7,r6,316d0 <__fixdfsi+0x74>
   31698:	010104c4 	movi	r4,1043
   3169c:	20c7c83a 	sub	r3,r4,r3
   316a0:	10c6d83a 	srl	r3,r2,r3
   316a4:	29403fcc 	andi	r5,r5,255
   316a8:	0145c83a 	sub	r2,zero,r5
   316ac:	1884f03a 	xor	r2,r3,r2
   316b0:	1145883a 	add	r2,r2,r5
   316b4:	f800283a 	ret
   316b8:	00a00034 	movhi	r2,32768
   316bc:	10bfffc4 	addi	r2,r2,-1
   316c0:	2885883a 	add	r2,r5,r2
   316c4:	f800283a 	ret
   316c8:	0005883a 	mov	r2,zero
   316cc:	f800283a 	ret
   316d0:	18fefb44 	addi	r3,r3,-1043
   316d4:	2188d83a 	srl	r4,r4,r6
   316d8:	10c6983a 	sll	r3,r2,r3
   316dc:	20c6b03a 	or	r3,r4,r3
   316e0:	003ff006 	br	316a4 <__alt_data_end+0xffff16a4>

000316e4 <__floatsidf>:
   316e4:	defffd04 	addi	sp,sp,-12
   316e8:	dc400115 	stw	r17,4(sp)
   316ec:	dfc00215 	stw	ra,8(sp)
   316f0:	dc000015 	stw	r16,0(sp)
   316f4:	2023883a 	mov	r17,r4
   316f8:	20001426 	beq	r4,zero,3174c <__floatsidf+0x68>
   316fc:	2020d7fa 	srli	r16,r4,31
   31700:	80000126 	beq	r16,zero,31708 <__floatsidf+0x24>
   31704:	0123c83a 	sub	r17,zero,r4
   31708:	8809883a 	mov	r4,r17
   3170c:	00254740 	call	25474 <__clzsi2>
   31710:	01410784 	movi	r5,1054
   31714:	00c00284 	movi	r3,10
   31718:	288bc83a 	sub	r5,r5,r2
   3171c:	18801c16 	blt	r3,r2,31790 <__floatsidf+0xac>
   31720:	00c002c4 	movi	r3,11
   31724:	1887c83a 	sub	r3,r3,r2
   31728:	88c8d83a 	srl	r4,r17,r3
   3172c:	00c00434 	movhi	r3,16
   31730:	18ffffc4 	addi	r3,r3,-1
   31734:	10800544 	addi	r2,r2,21
   31738:	20c8703a 	and	r4,r4,r3
   3173c:	8884983a 	sll	r2,r17,r2
   31740:	28c1ffcc 	andi	r3,r5,2047
   31744:	800d883a 	mov	r6,r16
   31748:	00000406 	br	3175c <__floatsidf+0x78>
   3174c:	000d883a 	mov	r6,zero
   31750:	0007883a 	mov	r3,zero
   31754:	0009883a 	mov	r4,zero
   31758:	0005883a 	mov	r2,zero
   3175c:	180a953a 	slli	r5,r3,20
   31760:	31803fcc 	andi	r6,r6,255
   31764:	00c00434 	movhi	r3,16
   31768:	300c97fa 	slli	r6,r6,31
   3176c:	18ffffc4 	addi	r3,r3,-1
   31770:	20c6703a 	and	r3,r4,r3
   31774:	1946b03a 	or	r3,r3,r5
   31778:	1986b03a 	or	r3,r3,r6
   3177c:	dfc00217 	ldw	ra,8(sp)
   31780:	dc400117 	ldw	r17,4(sp)
   31784:	dc000017 	ldw	r16,0(sp)
   31788:	dec00304 	addi	sp,sp,12
   3178c:	f800283a 	ret
   31790:	10fffd44 	addi	r3,r2,-11
   31794:	88c8983a 	sll	r4,r17,r3
   31798:	00800434 	movhi	r2,16
   3179c:	10bfffc4 	addi	r2,r2,-1
   317a0:	2088703a 	and	r4,r4,r2
   317a4:	28c1ffcc 	andi	r3,r5,2047
   317a8:	800d883a 	mov	r6,r16
   317ac:	0005883a 	mov	r2,zero
   317b0:	003fea06 	br	3175c <__alt_data_end+0xffff175c>

000317b4 <__floatunsidf>:
   317b4:	defffe04 	addi	sp,sp,-8
   317b8:	dc000015 	stw	r16,0(sp)
   317bc:	dfc00115 	stw	ra,4(sp)
   317c0:	2021883a 	mov	r16,r4
   317c4:	20001026 	beq	r4,zero,31808 <__floatunsidf+0x54>
   317c8:	00254740 	call	25474 <__clzsi2>
   317cc:	01410784 	movi	r5,1054
   317d0:	100d883a 	mov	r6,r2
   317d4:	288bc83a 	sub	r5,r5,r2
   317d8:	00800284 	movi	r2,10
   317dc:	11801616 	blt	r2,r6,31838 <__floatunsidf+0x84>
   317e0:	008002c4 	movi	r2,11
   317e4:	1185c83a 	sub	r2,r2,r6
   317e8:	8084d83a 	srl	r2,r16,r2
   317ec:	00c00434 	movhi	r3,16
   317f0:	31c00544 	addi	r7,r6,21
   317f4:	18ffffc4 	addi	r3,r3,-1
   317f8:	81e0983a 	sll	r16,r16,r7
   317fc:	10cc703a 	and	r6,r2,r3
   31800:	2941ffcc 	andi	r5,r5,2047
   31804:	00000206 	br	31810 <__floatunsidf+0x5c>
   31808:	000b883a 	mov	r5,zero
   3180c:	000d883a 	mov	r6,zero
   31810:	280a953a 	slli	r5,r5,20
   31814:	00c00434 	movhi	r3,16
   31818:	18ffffc4 	addi	r3,r3,-1
   3181c:	30c6703a 	and	r3,r6,r3
   31820:	8005883a 	mov	r2,r16
   31824:	1946b03a 	or	r3,r3,r5
   31828:	dfc00117 	ldw	ra,4(sp)
   3182c:	dc000017 	ldw	r16,0(sp)
   31830:	dec00204 	addi	sp,sp,8
   31834:	f800283a 	ret
   31838:	31bffd44 	addi	r6,r6,-11
   3183c:	818c983a 	sll	r6,r16,r6
   31840:	00800434 	movhi	r2,16
   31844:	10bfffc4 	addi	r2,r2,-1
   31848:	2941ffcc 	andi	r5,r5,2047
   3184c:	0021883a 	mov	r16,zero
   31850:	308c703a 	and	r6,r6,r2
   31854:	003fee06 	br	31810 <__alt_data_end+0xffff1810>

00031858 <alt_get_errno>:
#undef errno

extern int errno;

static ALT_INLINE int* alt_get_errno(void)
{
   31858:	defffe04 	addi	sp,sp,-8
   3185c:	dfc00115 	stw	ra,4(sp)
   31860:	df000015 	stw	fp,0(sp)
   31864:	d839883a 	mov	fp,sp
  return ((alt_errno) ? alt_errno() : &errno);
   31868:	008000f4 	movhi	r2,3
   3186c:	109c2e04 	addi	r2,r2,28856
   31870:	10800017 	ldw	r2,0(r2)
   31874:	10000526 	beq	r2,zero,3188c <alt_get_errno+0x34>
   31878:	008000f4 	movhi	r2,3
   3187c:	109c2e04 	addi	r2,r2,28856
   31880:	10800017 	ldw	r2,0(r2)
   31884:	103ee83a 	callr	r2
   31888:	00000206 	br	31894 <alt_get_errno+0x3c>
   3188c:	00800134 	movhi	r2,4
   31890:	10a4da04 	addi	r2,r2,-27800
}
   31894:	e037883a 	mov	sp,fp
   31898:	dfc00117 	ldw	ra,4(sp)
   3189c:	df000017 	ldw	fp,0(sp)
   318a0:	dec00204 	addi	sp,sp,8
   318a4:	f800283a 	ret

000318a8 <close>:
 *
 * ALT_CLOSE is mapped onto the close() system call in alt_syscall.h
 */
 
int ALT_CLOSE (int fildes)
{
   318a8:	defffb04 	addi	sp,sp,-20
   318ac:	dfc00415 	stw	ra,16(sp)
   318b0:	df000315 	stw	fp,12(sp)
   318b4:	df000304 	addi	fp,sp,12
   318b8:	e13fff15 	stw	r4,-4(fp)
   * A common error case is that when the file descriptor was created, the call
   * to open() failed resulting in a negative file descriptor. This is trapped
   * below so that we don't try and process an invalid file descriptor.
   */

  fd = (fildes < 0) ? NULL : &alt_fd_list[fildes];
   318bc:	e0bfff17 	ldw	r2,-4(fp)
   318c0:	10000616 	blt	r2,zero,318dc <close+0x34>
   318c4:	e0bfff17 	ldw	r2,-4(fp)
   318c8:	10c00324 	muli	r3,r2,12
   318cc:	008000f4 	movhi	r2,3
   318d0:	1097a804 	addi	r2,r2,24224
   318d4:	1885883a 	add	r2,r3,r2
   318d8:	00000106 	br	318e0 <close+0x38>
   318dc:	0005883a 	mov	r2,zero
   318e0:	e0bffd15 	stw	r2,-12(fp)

  if (fd)
   318e4:	e0bffd17 	ldw	r2,-12(fp)
   318e8:	10001926 	beq	r2,zero,31950 <close+0xa8>
    /*
     * If the associated file system/device has a close function, call it so 
     * that any necessary cleanup code can run.
     */

    rval = (fd->dev->close) ? fd->dev->close(fd) : 0;
   318ec:	e0bffd17 	ldw	r2,-12(fp)
   318f0:	10800017 	ldw	r2,0(r2)
   318f4:	10800417 	ldw	r2,16(r2)
   318f8:	10000626 	beq	r2,zero,31914 <close+0x6c>
   318fc:	e0bffd17 	ldw	r2,-12(fp)
   31900:	10800017 	ldw	r2,0(r2)
   31904:	10800417 	ldw	r2,16(r2)
   31908:	e13ffd17 	ldw	r4,-12(fp)
   3190c:	103ee83a 	callr	r2
   31910:	00000106 	br	31918 <close+0x70>
   31914:	0005883a 	mov	r2,zero
   31918:	e0bffe15 	stw	r2,-8(fp)

    /* Free the file descriptor structure and return. */

    alt_release_fd (fildes);
   3191c:	e13fff17 	ldw	r4,-4(fp)
   31920:	0031fa40 	call	31fa4 <alt_release_fd>
    if (rval < 0)
   31924:	e0bffe17 	ldw	r2,-8(fp)
   31928:	1000070e 	bge	r2,zero,31948 <close+0xa0>
    {
      ALT_ERRNO = -rval;
   3192c:	00318580 	call	31858 <alt_get_errno>
   31930:	1007883a 	mov	r3,r2
   31934:	e0bffe17 	ldw	r2,-8(fp)
   31938:	0085c83a 	sub	r2,zero,r2
   3193c:	18800015 	stw	r2,0(r3)
      return -1;
   31940:	00bfffc4 	movi	r2,-1
   31944:	00000706 	br	31964 <close+0xbc>
    }
    return 0;
   31948:	0005883a 	mov	r2,zero
   3194c:	00000506 	br	31964 <close+0xbc>
  }
  else
  {
    ALT_ERRNO = EBADFD;
   31950:	00318580 	call	31858 <alt_get_errno>
   31954:	1007883a 	mov	r3,r2
   31958:	00801444 	movi	r2,81
   3195c:	18800015 	stw	r2,0(r3)
    return -1;
   31960:	00bfffc4 	movi	r2,-1
  }
}
   31964:	e037883a 	mov	sp,fp
   31968:	dfc00117 	ldw	ra,4(sp)
   3196c:	df000017 	ldw	fp,0(sp)
   31970:	dec00204 	addi	sp,sp,8
   31974:	f800283a 	ret

00031978 <alt_dev_null_write>:
 * by the alt_dev_null device. It simple discards all data passed to it, and
 * indicates that the data has been successfully transmitted.
 */

static int alt_dev_null_write (alt_fd* fd, const char* ptr, int len)
{
   31978:	defffc04 	addi	sp,sp,-16
   3197c:	df000315 	stw	fp,12(sp)
   31980:	df000304 	addi	fp,sp,12
   31984:	e13ffd15 	stw	r4,-12(fp)
   31988:	e17ffe15 	stw	r5,-8(fp)
   3198c:	e1bfff15 	stw	r6,-4(fp)
  return len;
   31990:	e0bfff17 	ldw	r2,-4(fp)
}
   31994:	e037883a 	mov	sp,fp
   31998:	df000017 	ldw	fp,0(sp)
   3199c:	dec00104 	addi	sp,sp,4
   319a0:	f800283a 	ret

000319a4 <alt_get_errno>:
#undef errno

extern int errno;

static ALT_INLINE int* alt_get_errno(void)
{
   319a4:	defffe04 	addi	sp,sp,-8
   319a8:	dfc00115 	stw	ra,4(sp)
   319ac:	df000015 	stw	fp,0(sp)
   319b0:	d839883a 	mov	fp,sp
  return ((alt_errno) ? alt_errno() : &errno);
   319b4:	008000f4 	movhi	r2,3
   319b8:	109c2e04 	addi	r2,r2,28856
   319bc:	10800017 	ldw	r2,0(r2)
   319c0:	10000526 	beq	r2,zero,319d8 <alt_get_errno+0x34>
   319c4:	008000f4 	movhi	r2,3
   319c8:	109c2e04 	addi	r2,r2,28856
   319cc:	10800017 	ldw	r2,0(r2)
   319d0:	103ee83a 	callr	r2
   319d4:	00000206 	br	319e0 <alt_get_errno+0x3c>
   319d8:	00800134 	movhi	r2,4
   319dc:	10a4da04 	addi	r2,r2,-27800
}
   319e0:	e037883a 	mov	sp,fp
   319e4:	dfc00117 	ldw	ra,4(sp)
   319e8:	df000017 	ldw	fp,0(sp)
   319ec:	dec00204 	addi	sp,sp,8
   319f0:	f800283a 	ret

000319f4 <fstat>:
}

#else /* !ALT_USE_DIRECT_DRIVERS */

int ALT_FSTAT (int file, struct stat *st)
{
   319f4:	defffb04 	addi	sp,sp,-20
   319f8:	dfc00415 	stw	ra,16(sp)
   319fc:	df000315 	stw	fp,12(sp)
   31a00:	df000304 	addi	fp,sp,12
   31a04:	e13ffe15 	stw	r4,-8(fp)
   31a08:	e17fff15 	stw	r5,-4(fp)
   * A common error case is that when the file descriptor was created, the call
   * to open() failed resulting in a negative file descriptor. This is trapped
   * below so that we don't try and process an invalid file descriptor.
   */

  fd = (file < 0) ? NULL : &alt_fd_list[file];
   31a0c:	e0bffe17 	ldw	r2,-8(fp)
   31a10:	10000616 	blt	r2,zero,31a2c <fstat+0x38>
   31a14:	e0bffe17 	ldw	r2,-8(fp)
   31a18:	10c00324 	muli	r3,r2,12
   31a1c:	008000f4 	movhi	r2,3
   31a20:	1097a804 	addi	r2,r2,24224
   31a24:	1885883a 	add	r2,r3,r2
   31a28:	00000106 	br	31a30 <fstat+0x3c>
   31a2c:	0005883a 	mov	r2,zero
   31a30:	e0bffd15 	stw	r2,-12(fp)
  
  if (fd)
   31a34:	e0bffd17 	ldw	r2,-12(fp)
   31a38:	10001026 	beq	r2,zero,31a7c <fstat+0x88>
  {
    /* Call the drivers fstat() function to fill out the "st" structure. */

    if (fd->dev->fstat)
   31a3c:	e0bffd17 	ldw	r2,-12(fp)
   31a40:	10800017 	ldw	r2,0(r2)
   31a44:	10800817 	ldw	r2,32(r2)
   31a48:	10000726 	beq	r2,zero,31a68 <fstat+0x74>
    {
      return fd->dev->fstat(fd, st);
   31a4c:	e0bffd17 	ldw	r2,-12(fp)
   31a50:	10800017 	ldw	r2,0(r2)
   31a54:	10800817 	ldw	r2,32(r2)
   31a58:	e13ffd17 	ldw	r4,-12(fp)
   31a5c:	e17fff17 	ldw	r5,-4(fp)
   31a60:	103ee83a 	callr	r2
   31a64:	00000a06 	br	31a90 <fstat+0x9c>
     * device.
     */
 
    else
    {
      st->st_mode = _IFCHR;
   31a68:	e0bfff17 	ldw	r2,-4(fp)
   31a6c:	00c80004 	movi	r3,8192
   31a70:	10c00115 	stw	r3,4(r2)
      return 0;
   31a74:	0005883a 	mov	r2,zero
   31a78:	00000506 	br	31a90 <fstat+0x9c>
    }
  }
  else
  {
    ALT_ERRNO = EBADFD;
   31a7c:	00319a40 	call	319a4 <alt_get_errno>
   31a80:	1007883a 	mov	r3,r2
   31a84:	00801444 	movi	r2,81
   31a88:	18800015 	stw	r2,0(r3)
    return -1;
   31a8c:	00bfffc4 	movi	r2,-1
  }
}
   31a90:	e037883a 	mov	sp,fp
   31a94:	dfc00117 	ldw	ra,4(sp)
   31a98:	df000017 	ldw	fp,0(sp)
   31a9c:	dec00204 	addi	sp,sp,8
   31aa0:	f800283a 	ret

00031aa4 <alt_get_errno>:
#undef errno

extern int errno;

static ALT_INLINE int* alt_get_errno(void)
{
   31aa4:	defffe04 	addi	sp,sp,-8
   31aa8:	dfc00115 	stw	ra,4(sp)
   31aac:	df000015 	stw	fp,0(sp)
   31ab0:	d839883a 	mov	fp,sp
  return ((alt_errno) ? alt_errno() : &errno);
   31ab4:	008000f4 	movhi	r2,3
   31ab8:	109c2e04 	addi	r2,r2,28856
   31abc:	10800017 	ldw	r2,0(r2)
   31ac0:	10000526 	beq	r2,zero,31ad8 <alt_get_errno+0x34>
   31ac4:	008000f4 	movhi	r2,3
   31ac8:	109c2e04 	addi	r2,r2,28856
   31acc:	10800017 	ldw	r2,0(r2)
   31ad0:	103ee83a 	callr	r2
   31ad4:	00000206 	br	31ae0 <alt_get_errno+0x3c>
   31ad8:	00800134 	movhi	r2,4
   31adc:	10a4da04 	addi	r2,r2,-27800
}
   31ae0:	e037883a 	mov	sp,fp
   31ae4:	dfc00117 	ldw	ra,4(sp)
   31ae8:	df000017 	ldw	fp,0(sp)
   31aec:	dec00204 	addi	sp,sp,8
   31af0:	f800283a 	ret

00031af4 <isatty>:
 *
 * ALT_ISATTY is mapped onto the isatty() system call in alt_syscall.h
 */
 
int ALT_ISATTY (int file)
{
   31af4:	deffed04 	addi	sp,sp,-76
   31af8:	dfc01215 	stw	ra,72(sp)
   31afc:	df001115 	stw	fp,68(sp)
   31b00:	df001104 	addi	fp,sp,68
   31b04:	e13fff15 	stw	r4,-4(fp)
   * A common error case is that when the file descriptor was created, the call
   * to open() failed resulting in a negative file descriptor. This is trapped
   * below so that we don't try and process an invalid file descriptor.
   */

  fd = (file < 0) ? NULL : &alt_fd_list[file];
   31b08:	e0bfff17 	ldw	r2,-4(fp)
   31b0c:	10000616 	blt	r2,zero,31b28 <isatty+0x34>
   31b10:	e0bfff17 	ldw	r2,-4(fp)
   31b14:	10c00324 	muli	r3,r2,12
   31b18:	008000f4 	movhi	r2,3
   31b1c:	1097a804 	addi	r2,r2,24224
   31b20:	1885883a 	add	r2,r3,r2
   31b24:	00000106 	br	31b2c <isatty+0x38>
   31b28:	0005883a 	mov	r2,zero
   31b2c:	e0bfef15 	stw	r2,-68(fp)
  
  if (fd)
   31b30:	e0bfef17 	ldw	r2,-68(fp)
   31b34:	10000e26 	beq	r2,zero,31b70 <isatty+0x7c>
    /*
     * If a device driver does not provide an fstat() function, then it is 
     * treated as a terminal device by default.
     */

    if (!fd->dev->fstat)
   31b38:	e0bfef17 	ldw	r2,-68(fp)
   31b3c:	10800017 	ldw	r2,0(r2)
   31b40:	10800817 	ldw	r2,32(r2)
   31b44:	1000021e 	bne	r2,zero,31b50 <isatty+0x5c>
    {
      return 1;
   31b48:	00800044 	movi	r2,1
   31b4c:	00000d06 	br	31b84 <isatty+0x90>
     * this is called so that the device can identify itself.
     */ 

    else
    {
      fstat (file, &stat);
   31b50:	e0bff004 	addi	r2,fp,-64
   31b54:	e13fff17 	ldw	r4,-4(fp)
   31b58:	100b883a 	mov	r5,r2
   31b5c:	00319f40 	call	319f4 <fstat>
      return (stat.st_mode == _IFCHR) ? 1 : 0;
   31b60:	e0bff117 	ldw	r2,-60(fp)
   31b64:	10880020 	cmpeqi	r2,r2,8192
   31b68:	10803fcc 	andi	r2,r2,255
   31b6c:	00000506 	br	31b84 <isatty+0x90>
    }
  }
  else
  {
    ALT_ERRNO = EBADFD;
   31b70:	0031aa40 	call	31aa4 <alt_get_errno>
   31b74:	1007883a 	mov	r3,r2
   31b78:	00801444 	movi	r2,81
   31b7c:	18800015 	stw	r2,0(r3)
    return 0;
   31b80:	0005883a 	mov	r2,zero
  }
}
   31b84:	e037883a 	mov	sp,fp
   31b88:	dfc00117 	ldw	ra,4(sp)
   31b8c:	df000017 	ldw	fp,0(sp)
   31b90:	dec00204 	addi	sp,sp,8
   31b94:	f800283a 	ret

00031b98 <alt_load_section>:
 */

static void ALT_INLINE alt_load_section (alt_u32* from, 
                                         alt_u32* to, 
                                         alt_u32* end)
{
   31b98:	defffc04 	addi	sp,sp,-16
   31b9c:	df000315 	stw	fp,12(sp)
   31ba0:	df000304 	addi	fp,sp,12
   31ba4:	e13ffd15 	stw	r4,-12(fp)
   31ba8:	e17ffe15 	stw	r5,-8(fp)
   31bac:	e1bfff15 	stw	r6,-4(fp)
  if (to != from)
   31bb0:	e0fffe17 	ldw	r3,-8(fp)
   31bb4:	e0bffd17 	ldw	r2,-12(fp)
   31bb8:	18800c26 	beq	r3,r2,31bec <alt_load_section+0x54>
  {
    while( to != end )
   31bbc:	00000806 	br	31be0 <alt_load_section+0x48>
    {
      *to++ = *from++;
   31bc0:	e0bffe17 	ldw	r2,-8(fp)
   31bc4:	10c00104 	addi	r3,r2,4
   31bc8:	e0fffe15 	stw	r3,-8(fp)
   31bcc:	e0fffd17 	ldw	r3,-12(fp)
   31bd0:	19000104 	addi	r4,r3,4
   31bd4:	e13ffd15 	stw	r4,-12(fp)
   31bd8:	18c00017 	ldw	r3,0(r3)
   31bdc:	10c00015 	stw	r3,0(r2)
                                         alt_u32* to, 
                                         alt_u32* end)
{
  if (to != from)
  {
    while( to != end )
   31be0:	e0fffe17 	ldw	r3,-8(fp)
   31be4:	e0bfff17 	ldw	r2,-4(fp)
   31be8:	18bff51e 	bne	r3,r2,31bc0 <__alt_data_end+0xffff1bc0>
    {
      *to++ = *from++;
    }
  }
}
   31bec:	e037883a 	mov	sp,fp
   31bf0:	df000017 	ldw	fp,0(sp)
   31bf4:	dec00104 	addi	sp,sp,4
   31bf8:	f800283a 	ret

00031bfc <alt_load>:
 * there is no bootloader, so this application is responsible for loading to
 * RAM any sections that are required.
 */  

void alt_load (void)
{
   31bfc:	defffe04 	addi	sp,sp,-8
   31c00:	dfc00115 	stw	ra,4(sp)
   31c04:	df000015 	stw	fp,0(sp)
   31c08:	d839883a 	mov	fp,sp
  /* 
   * Copy the .rwdata section. 
   */

  alt_load_section (&__flash_rwdata_start, 
   31c0c:	010000f4 	movhi	r4,3
   31c10:	211c3304 	addi	r4,r4,28876
   31c14:	014000f4 	movhi	r5,3
   31c18:	29538f04 	addi	r5,r5,20028
   31c1c:	018000f4 	movhi	r6,3
   31c20:	319c3304 	addi	r6,r6,28876
   31c24:	0031b980 	call	31b98 <alt_load_section>

  /*
   * Copy the exception handler.
   */

  alt_load_section (&__flash_exceptions_start, 
   31c28:	010000b4 	movhi	r4,2
   31c2c:	21000804 	addi	r4,r4,32
   31c30:	014000b4 	movhi	r5,2
   31c34:	29400804 	addi	r5,r5,32
   31c38:	018000b4 	movhi	r6,2
   31c3c:	31809004 	addi	r6,r6,576
   31c40:	0031b980 	call	31b98 <alt_load_section>

  /*
   * Copy the .rodata section.
   */

  alt_load_section (&__flash_rodata_start, 
   31c44:	010000f4 	movhi	r4,3
   31c48:	21109504 	addi	r4,r4,16980
   31c4c:	014000f4 	movhi	r5,3
   31c50:	29509504 	addi	r5,r5,16980
   31c54:	018000f4 	movhi	r6,3
   31c58:	31938f04 	addi	r6,r6,20028
   31c5c:	0031b980 	call	31b98 <alt_load_section>
  
  /*
   * Now ensure that the caches are in synch.
   */
  
  alt_dcache_flush_all();
   31c60:	00332740 	call	33274 <alt_dcache_flush_all>
  alt_icache_flush_all();
   31c64:	00334640 	call	33464 <alt_icache_flush_all>
}
   31c68:	e037883a 	mov	sp,fp
   31c6c:	dfc00117 	ldw	ra,4(sp)
   31c70:	df000017 	ldw	fp,0(sp)
   31c74:	dec00204 	addi	sp,sp,8
   31c78:	f800283a 	ret

00031c7c <alt_get_errno>:
#undef errno

extern int errno;

static ALT_INLINE int* alt_get_errno(void)
{
   31c7c:	defffe04 	addi	sp,sp,-8
   31c80:	dfc00115 	stw	ra,4(sp)
   31c84:	df000015 	stw	fp,0(sp)
   31c88:	d839883a 	mov	fp,sp
  return ((alt_errno) ? alt_errno() : &errno);
   31c8c:	008000f4 	movhi	r2,3
   31c90:	109c2e04 	addi	r2,r2,28856
   31c94:	10800017 	ldw	r2,0(r2)
   31c98:	10000526 	beq	r2,zero,31cb0 <alt_get_errno+0x34>
   31c9c:	008000f4 	movhi	r2,3
   31ca0:	109c2e04 	addi	r2,r2,28856
   31ca4:	10800017 	ldw	r2,0(r2)
   31ca8:	103ee83a 	callr	r2
   31cac:	00000206 	br	31cb8 <alt_get_errno+0x3c>
   31cb0:	00800134 	movhi	r2,4
   31cb4:	10a4da04 	addi	r2,r2,-27800
}
   31cb8:	e037883a 	mov	sp,fp
   31cbc:	dfc00117 	ldw	ra,4(sp)
   31cc0:	df000017 	ldw	fp,0(sp)
   31cc4:	dec00204 	addi	sp,sp,8
   31cc8:	f800283a 	ret

00031ccc <lseek>:
 * ALT_LSEEK is mapped onto the lseek() system call in alt_syscall.h
 *
 */

off_t ALT_LSEEK (int file, off_t ptr, int dir)
{
   31ccc:	defff904 	addi	sp,sp,-28
   31cd0:	dfc00615 	stw	ra,24(sp)
   31cd4:	df000515 	stw	fp,20(sp)
   31cd8:	df000504 	addi	fp,sp,20
   31cdc:	e13ffd15 	stw	r4,-12(fp)
   31ce0:	e17ffe15 	stw	r5,-8(fp)
   31ce4:	e1bfff15 	stw	r6,-4(fp)
  alt_fd* fd;
  off_t   rc = 0; 
   31ce8:	e03ffb15 	stw	zero,-20(fp)
   * A common error case is that when the file descriptor was created, the call
   * to open() failed resulting in a negative file descriptor. This is trapped
   * below so that we don't try and process an invalid file descriptor.
   */

  fd = (file < 0) ? NULL : &alt_fd_list[file];
   31cec:	e0bffd17 	ldw	r2,-12(fp)
   31cf0:	10000616 	blt	r2,zero,31d0c <lseek+0x40>
   31cf4:	e0bffd17 	ldw	r2,-12(fp)
   31cf8:	10c00324 	muli	r3,r2,12
   31cfc:	008000f4 	movhi	r2,3
   31d00:	1097a804 	addi	r2,r2,24224
   31d04:	1885883a 	add	r2,r3,r2
   31d08:	00000106 	br	31d10 <lseek+0x44>
   31d0c:	0005883a 	mov	r2,zero
   31d10:	e0bffc15 	stw	r2,-16(fp)
  
  if (fd) 
   31d14:	e0bffc17 	ldw	r2,-16(fp)
   31d18:	10001026 	beq	r2,zero,31d5c <lseek+0x90>
    /*
     * If the device driver provides an implementation of the lseek() function,
     * then call that to process the request.
     */
 
    if (fd->dev->lseek)
   31d1c:	e0bffc17 	ldw	r2,-16(fp)
   31d20:	10800017 	ldw	r2,0(r2)
   31d24:	10800717 	ldw	r2,28(r2)
   31d28:	10000926 	beq	r2,zero,31d50 <lseek+0x84>
    {
      rc = fd->dev->lseek(fd, ptr, dir);
   31d2c:	e0bffc17 	ldw	r2,-16(fp)
   31d30:	10800017 	ldw	r2,0(r2)
   31d34:	10800717 	ldw	r2,28(r2)
   31d38:	e13ffc17 	ldw	r4,-16(fp)
   31d3c:	e17ffe17 	ldw	r5,-8(fp)
   31d40:	e1bfff17 	ldw	r6,-4(fp)
   31d44:	103ee83a 	callr	r2
   31d48:	e0bffb15 	stw	r2,-20(fp)
   31d4c:	00000506 	br	31d64 <lseek+0x98>
     * Otherwise return an error.
     */

    else
    {
      rc = -ENOTSUP;
   31d50:	00bfde84 	movi	r2,-134
   31d54:	e0bffb15 	stw	r2,-20(fp)
   31d58:	00000206 	br	31d64 <lseek+0x98>
    }
  }
  else  
  {
    rc = -EBADFD;
   31d5c:	00bfebc4 	movi	r2,-81
   31d60:	e0bffb15 	stw	r2,-20(fp)
  }

  if (rc < 0)
   31d64:	e0bffb17 	ldw	r2,-20(fp)
   31d68:	1000070e 	bge	r2,zero,31d88 <lseek+0xbc>
  {
    ALT_ERRNO = -rc;
   31d6c:	0031c7c0 	call	31c7c <alt_get_errno>
   31d70:	1007883a 	mov	r3,r2
   31d74:	e0bffb17 	ldw	r2,-20(fp)
   31d78:	0085c83a 	sub	r2,zero,r2
   31d7c:	18800015 	stw	r2,0(r3)
    rc = -1;
   31d80:	00bfffc4 	movi	r2,-1
   31d84:	e0bffb15 	stw	r2,-20(fp)
  }

  return rc;
   31d88:	e0bffb17 	ldw	r2,-20(fp)
}
   31d8c:	e037883a 	mov	sp,fp
   31d90:	dfc00117 	ldw	ra,4(sp)
   31d94:	df000017 	ldw	fp,0(sp)
   31d98:	dec00204 	addi	sp,sp,8
   31d9c:	f800283a 	ret

00031da0 <alt_main>:
 * devices/filesystems/components in the system; and call the entry point for
 * the users application, i.e. main().
 */

void alt_main (void)
{
   31da0:	defffd04 	addi	sp,sp,-12
   31da4:	dfc00215 	stw	ra,8(sp)
   31da8:	df000115 	stw	fp,4(sp)
   31dac:	df000104 	addi	fp,sp,4
#endif

  /* ALT LOG - please see HAL/sys/alt_log_printf.h for details */
  ALT_LOG_PRINT_BOOT("[alt_main.c] Entering alt_main, calling alt_irq_init.\r\n");
  /* Initialize the interrupt controller. */
  alt_irq_init (NULL);
   31db0:	0009883a 	mov	r4,zero
   31db4:	00324000 	call	32400 <alt_irq_init>

  /* Initialize the operating system */
  ALT_LOG_PRINT_BOOT("[alt_main.c] Done alt_irq_init, calling alt_os_init.\r\n");
  ALT_OS_INIT();
   31db8:	0001883a 	nop
  ALT_LOG_PRINT_BOOT("[alt_main.c] Done OS Init, calling alt_sem_create.\r\n");
  ALT_SEM_CREATE (&alt_fd_list_lock, 1);

  /* Initialize the device drivers/software components. */
  ALT_LOG_PRINT_BOOT("[alt_main.c] Calling alt_sys_init.\r\n");
  alt_sys_init();
   31dbc:	00324340 	call	32434 <alt_sys_init>
   * devices be present (not equal to /dev/null) and if direct drivers
   * aren't being used.
   */

    ALT_LOG_PRINT_BOOT("[alt_main.c] Redirecting IO.\r\n");
    alt_io_redirect(ALT_STDOUT, ALT_STDIN, ALT_STDERR);
   31dc0:	010000f4 	movhi	r4,3
   31dc4:	21138704 	addi	r4,r4,19996
   31dc8:	014000f4 	movhi	r5,3
   31dcc:	29538704 	addi	r5,r5,19996
   31dd0:	018000f4 	movhi	r6,3
   31dd4:	31938704 	addi	r6,r6,19996
   31dd8:	00338240 	call	33824 <alt_io_redirect>
  /* 
   * Call the C++ constructors 
   */

  ALT_LOG_PRINT_BOOT("[alt_main.c] Calling C++ constructors.\r\n");
  _do_ctors ();
   31ddc:	00333ac0 	call	333ac <_do_ctors>
   * redefined as _exit()). This is in the interest of reducing code footprint,
   * in that the atexit() overhead is removed when it's not needed.
   */

  ALT_LOG_PRINT_BOOT("[alt_main.c] Calling atexit.\r\n");
  atexit (_do_dtors);
   31de0:	010000f4 	movhi	r4,3
   31de4:	210d0204 	addi	r4,r4,13320
   31de8:	0033eb00 	call	33eb0 <atexit>
  ALT_LOG_PRINT_BOOT("[alt_main.c] Calling main.\r\n");

#ifdef ALT_NO_EXIT
  main (alt_argc, alt_argv, alt_envp);
#else
  result = main (alt_argc, alt_argv, alt_envp);
   31dec:	d128be17 	ldw	r4,-23816(gp)
   31df0:	d0e8bf17 	ldw	r3,-23812(gp)
   31df4:	d0a8c017 	ldw	r2,-23808(gp)
   31df8:	180b883a 	mov	r5,r3
   31dfc:	100d883a 	mov	r6,r2
   31e00:	00217a00 	call	217a0 <main>
   31e04:	e0bfff15 	stw	r2,-4(fp)
  close(STDOUT_FILENO);
   31e08:	01000044 	movi	r4,1
   31e0c:	00318a80 	call	318a8 <close>
  exit (result);
   31e10:	e13fff17 	ldw	r4,-4(fp)
   31e14:	0033ec40 	call	33ec4 <exit>

00031e18 <__malloc_lock>:
 * configuration is single threaded, so there is nothing to do here. Note that 
 * this requires that malloc is never called by an interrupt service routine.
 */

void __malloc_lock ( struct _reent *_r )
{
   31e18:	defffe04 	addi	sp,sp,-8
   31e1c:	df000115 	stw	fp,4(sp)
   31e20:	df000104 	addi	fp,sp,4
   31e24:	e13fff15 	stw	r4,-4(fp)
}
   31e28:	e037883a 	mov	sp,fp
   31e2c:	df000017 	ldw	fp,0(sp)
   31e30:	dec00104 	addi	sp,sp,4
   31e34:	f800283a 	ret

00031e38 <__malloc_unlock>:
/*
 *
 */

void __malloc_unlock ( struct _reent *_r )
{
   31e38:	defffe04 	addi	sp,sp,-8
   31e3c:	df000115 	stw	fp,4(sp)
   31e40:	df000104 	addi	fp,sp,4
   31e44:	e13fff15 	stw	r4,-4(fp)
}
   31e48:	e037883a 	mov	sp,fp
   31e4c:	df000017 	ldw	fp,0(sp)
   31e50:	dec00104 	addi	sp,sp,4
   31e54:	f800283a 	ret

00031e58 <alt_get_errno>:
#undef errno

extern int errno;

static ALT_INLINE int* alt_get_errno(void)
{
   31e58:	defffe04 	addi	sp,sp,-8
   31e5c:	dfc00115 	stw	ra,4(sp)
   31e60:	df000015 	stw	fp,0(sp)
   31e64:	d839883a 	mov	fp,sp
  return ((alt_errno) ? alt_errno() : &errno);
   31e68:	008000f4 	movhi	r2,3
   31e6c:	109c2e04 	addi	r2,r2,28856
   31e70:	10800017 	ldw	r2,0(r2)
   31e74:	10000526 	beq	r2,zero,31e8c <alt_get_errno+0x34>
   31e78:	008000f4 	movhi	r2,3
   31e7c:	109c2e04 	addi	r2,r2,28856
   31e80:	10800017 	ldw	r2,0(r2)
   31e84:	103ee83a 	callr	r2
   31e88:	00000206 	br	31e94 <alt_get_errno+0x3c>
   31e8c:	00800134 	movhi	r2,4
   31e90:	10a4da04 	addi	r2,r2,-27800
}
   31e94:	e037883a 	mov	sp,fp
   31e98:	dfc00117 	ldw	ra,4(sp)
   31e9c:	df000017 	ldw	fp,0(sp)
   31ea0:	dec00204 	addi	sp,sp,8
   31ea4:	f800283a 	ret

00031ea8 <read>:
}

#else /* !ALT_USE_DIRECT_DRIVERS */

int ALT_READ (int file, void *ptr, size_t len)
{
   31ea8:	defff904 	addi	sp,sp,-28
   31eac:	dfc00615 	stw	ra,24(sp)
   31eb0:	df000515 	stw	fp,20(sp)
   31eb4:	df000504 	addi	fp,sp,20
   31eb8:	e13ffd15 	stw	r4,-12(fp)
   31ebc:	e17ffe15 	stw	r5,-8(fp)
   31ec0:	e1bfff15 	stw	r6,-4(fp)
   * A common error case is that when the file descriptor was created, the call
   * to open() failed resulting in a negative file descriptor. This is trapped
   * below so that we don't try and process an invalid file descriptor.
   */

  fd = (file < 0) ? NULL : &alt_fd_list[file];
   31ec4:	e0bffd17 	ldw	r2,-12(fp)
   31ec8:	10000616 	blt	r2,zero,31ee4 <read+0x3c>
   31ecc:	e0bffd17 	ldw	r2,-12(fp)
   31ed0:	10c00324 	muli	r3,r2,12
   31ed4:	008000f4 	movhi	r2,3
   31ed8:	1097a804 	addi	r2,r2,24224
   31edc:	1885883a 	add	r2,r3,r2
   31ee0:	00000106 	br	31ee8 <read+0x40>
   31ee4:	0005883a 	mov	r2,zero
   31ee8:	e0bffb15 	stw	r2,-20(fp)
  
  if (fd)
   31eec:	e0bffb17 	ldw	r2,-20(fp)
   31ef0:	10002226 	beq	r2,zero,31f7c <read+0xd4>
     * If the file has not been opened with read access, or if the driver does
     * not provide an implementation of read(), generate an error. Otherwise
     * call the drivers read() function to process the request.
     */

    if (((fd->fd_flags & O_ACCMODE) != O_WRONLY) && 
   31ef4:	e0bffb17 	ldw	r2,-20(fp)
   31ef8:	10800217 	ldw	r2,8(r2)
   31efc:	108000cc 	andi	r2,r2,3
   31f00:	10800060 	cmpeqi	r2,r2,1
   31f04:	1000181e 	bne	r2,zero,31f68 <read+0xc0>
        (fd->dev->read))
   31f08:	e0bffb17 	ldw	r2,-20(fp)
   31f0c:	10800017 	ldw	r2,0(r2)
   31f10:	10800517 	ldw	r2,20(r2)
     * If the file has not been opened with read access, or if the driver does
     * not provide an implementation of read(), generate an error. Otherwise
     * call the drivers read() function to process the request.
     */

    if (((fd->fd_flags & O_ACCMODE) != O_WRONLY) && 
   31f14:	10001426 	beq	r2,zero,31f68 <read+0xc0>
        (fd->dev->read))
      {
        if ((rval = fd->dev->read(fd, ptr, len)) < 0)
   31f18:	e0bffb17 	ldw	r2,-20(fp)
   31f1c:	10800017 	ldw	r2,0(r2)
   31f20:	10800517 	ldw	r2,20(r2)
   31f24:	e0ffff17 	ldw	r3,-4(fp)
   31f28:	e13ffb17 	ldw	r4,-20(fp)
   31f2c:	e17ffe17 	ldw	r5,-8(fp)
   31f30:	180d883a 	mov	r6,r3
   31f34:	103ee83a 	callr	r2
   31f38:	e0bffc15 	stw	r2,-16(fp)
   31f3c:	e0bffc17 	ldw	r2,-16(fp)
   31f40:	1000070e 	bge	r2,zero,31f60 <read+0xb8>
        {
          ALT_ERRNO = -rval;
   31f44:	0031e580 	call	31e58 <alt_get_errno>
   31f48:	1007883a 	mov	r3,r2
   31f4c:	e0bffc17 	ldw	r2,-16(fp)
   31f50:	0085c83a 	sub	r2,zero,r2
   31f54:	18800015 	stw	r2,0(r3)
          return -1;
   31f58:	00bfffc4 	movi	r2,-1
   31f5c:	00000c06 	br	31f90 <read+0xe8>
        }
        return rval;
   31f60:	e0bffc17 	ldw	r2,-16(fp)
   31f64:	00000a06 	br	31f90 <read+0xe8>
      }
      else
      {
        ALT_ERRNO = EACCES;
   31f68:	0031e580 	call	31e58 <alt_get_errno>
   31f6c:	1007883a 	mov	r3,r2
   31f70:	00800344 	movi	r2,13
   31f74:	18800015 	stw	r2,0(r3)
   31f78:	00000406 	br	31f8c <read+0xe4>
      }
    }
  else
  {
    ALT_ERRNO = EBADFD;
   31f7c:	0031e580 	call	31e58 <alt_get_errno>
   31f80:	1007883a 	mov	r3,r2
   31f84:	00801444 	movi	r2,81
   31f88:	18800015 	stw	r2,0(r3)
  }
  return -1;
   31f8c:	00bfffc4 	movi	r2,-1
}
   31f90:	e037883a 	mov	sp,fp
   31f94:	dfc00117 	ldw	ra,4(sp)
   31f98:	df000017 	ldw	fp,0(sp)
   31f9c:	dec00204 	addi	sp,sp,8
   31fa0:	f800283a 	ret

00031fa4 <alt_release_fd>:
 * File descriptors correcponding to standard in, standard out and standard 
 * error cannont be released backed to the pool. They are always reserved.
 */

void alt_release_fd (int fd)
{
   31fa4:	defffe04 	addi	sp,sp,-8
   31fa8:	df000115 	stw	fp,4(sp)
   31fac:	df000104 	addi	fp,sp,4
   31fb0:	e13fff15 	stw	r4,-4(fp)
  if (fd > 2)
   31fb4:	e0bfff17 	ldw	r2,-4(fp)
   31fb8:	108000d0 	cmplti	r2,r2,3
   31fbc:	10000d1e 	bne	r2,zero,31ff4 <alt_release_fd+0x50>
  {
    alt_fd_list[fd].fd_flags = 0;
   31fc0:	008000f4 	movhi	r2,3
   31fc4:	1097a804 	addi	r2,r2,24224
   31fc8:	e0ffff17 	ldw	r3,-4(fp)
   31fcc:	18c00324 	muli	r3,r3,12
   31fd0:	10c5883a 	add	r2,r2,r3
   31fd4:	10800204 	addi	r2,r2,8
   31fd8:	10000015 	stw	zero,0(r2)
    alt_fd_list[fd].dev      = 0;
   31fdc:	008000f4 	movhi	r2,3
   31fe0:	1097a804 	addi	r2,r2,24224
   31fe4:	e0ffff17 	ldw	r3,-4(fp)
   31fe8:	18c00324 	muli	r3,r3,12
   31fec:	10c5883a 	add	r2,r2,r3
   31ff0:	10000015 	stw	zero,0(r2)
  }
}
   31ff4:	e037883a 	mov	sp,fp
   31ff8:	df000017 	ldw	fp,0(sp)
   31ffc:	dec00104 	addi	sp,sp,4
   32000:	f800283a 	ret

00032004 <sbrk>:
#endif
 
caddr_t ALT_SBRK (int incr) __attribute__ ((no_instrument_function ));

caddr_t ALT_SBRK (int incr)
{ 
   32004:	defff904 	addi	sp,sp,-28
   32008:	df000615 	stw	fp,24(sp)
   3200c:	df000604 	addi	fp,sp,24
   32010:	e13fff15 	stw	r4,-4(fp)
static ALT_INLINE alt_irq_context ALT_ALWAYS_INLINE 
       alt_irq_disable_all (void)
{
  alt_irq_context context;

  NIOS2_READ_STATUS (context);
   32014:	0005303a 	rdctl	r2,status
   32018:	e0bffc15 	stw	r2,-16(fp)

  NIOS2_WRITE_STATUS (context & ~NIOS2_STATUS_PIE_MSK);
   3201c:	e0fffc17 	ldw	r3,-16(fp)
   32020:	00bfff84 	movi	r2,-2
   32024:	1884703a 	and	r2,r3,r2
   32028:	1001703a 	wrctl	status,r2
  
  return context;
   3202c:	e0bffc17 	ldw	r2,-16(fp)
  alt_irq_context context;
  char *prev_heap_end; 

  context = alt_irq_disable_all();
   32030:	e0bffa15 	stw	r2,-24(fp)

  /* Always return data aligned on a word boundary */
  heap_end = (char *)(((unsigned int)heap_end + 3) & ~3);
   32034:	d0a00f17 	ldw	r2,-32708(gp)
   32038:	10c000c4 	addi	r3,r2,3
   3203c:	00bfff04 	movi	r2,-4
   32040:	1884703a 	and	r2,r3,r2
   32044:	d0a00f15 	stw	r2,-32708(gp)
  if (((heap_end + incr) - __alt_heap_start) > ALT_MAX_HEAP_BYTES) {
    alt_irq_enable_all(context);
    return (caddr_t)-1;
  }
#else
  if ((heap_end + incr) > __alt_heap_limit) {
   32048:	d0e00f17 	ldw	r3,-32708(gp)
   3204c:	e0bfff17 	ldw	r2,-4(fp)
   32050:	1887883a 	add	r3,r3,r2
   32054:	00800134 	movhi	r2,4
   32058:	10800004 	addi	r2,r2,0
   3205c:	10c0062e 	bgeu	r2,r3,32078 <sbrk+0x74>
   32060:	e0bffa17 	ldw	r2,-24(fp)
   32064:	e0bffd15 	stw	r2,-12(fp)
  status &= ~NIOS2_STATUS_PIE_MSK;
  status |= (context & NIOS2_STATUS_PIE_MSK);
  
  NIOS2_WRITE_STATUS (status);
#else
  NIOS2_WRITE_STATUS (context);
   32068:	e0bffd17 	ldw	r2,-12(fp)
   3206c:	1001703a 	wrctl	status,r2
    alt_irq_enable_all(context);
    return (caddr_t)-1;
   32070:	00bfffc4 	movi	r2,-1
   32074:	00000b06 	br	320a4 <sbrk+0xa0>
  }
#endif

  prev_heap_end = heap_end; 
   32078:	d0a00f17 	ldw	r2,-32708(gp)
   3207c:	e0bffb15 	stw	r2,-20(fp)
  heap_end += incr; 
   32080:	d0e00f17 	ldw	r3,-32708(gp)
   32084:	e0bfff17 	ldw	r2,-4(fp)
   32088:	1885883a 	add	r2,r3,r2
   3208c:	d0a00f15 	stw	r2,-32708(gp)
   32090:	e0bffa17 	ldw	r2,-24(fp)
   32094:	e0bffe15 	stw	r2,-8(fp)
   32098:	e0bffe17 	ldw	r2,-8(fp)
   3209c:	1001703a 	wrctl	status,r2

#endif

  alt_irq_enable_all(context);

  return (caddr_t) prev_heap_end; 
   320a0:	e0bffb17 	ldw	r2,-20(fp)
} 
   320a4:	e037883a 	mov	sp,fp
   320a8:	df000017 	ldw	fp,0(sp)
   320ac:	dec00104 	addi	sp,sp,4
   320b0:	f800283a 	ret

000320b4 <alt_alarm_stop>:
 * alarms. Alternatively an alarm can unregister itself by returning zero when 
 * the alarm executes.
 */

void alt_alarm_stop (alt_alarm* alarm)
{
   320b4:	defffa04 	addi	sp,sp,-24
   320b8:	df000515 	stw	fp,20(sp)
   320bc:	df000504 	addi	fp,sp,20
   320c0:	e13fff15 	stw	r4,-4(fp)
static ALT_INLINE alt_irq_context ALT_ALWAYS_INLINE 
       alt_irq_disable_all (void)
{
  alt_irq_context context;

  NIOS2_READ_STATUS (context);
   320c4:	0005303a 	rdctl	r2,status
   320c8:	e0bffc15 	stw	r2,-16(fp)

  NIOS2_WRITE_STATUS (context & ~NIOS2_STATUS_PIE_MSK);
   320cc:	e0fffc17 	ldw	r3,-16(fp)
   320d0:	00bfff84 	movi	r2,-2
   320d4:	1884703a 	and	r2,r3,r2
   320d8:	1001703a 	wrctl	status,r2
  
  return context;
   320dc:	e0bffc17 	ldw	r2,-16(fp)
  alt_irq_context irq_context;

  irq_context = alt_irq_disable_all();
   320e0:	e0bffb15 	stw	r2,-20(fp)
  alt_llist_remove (&alarm->llist);
   320e4:	e0bfff17 	ldw	r2,-4(fp)
   320e8:	e0bffd15 	stw	r2,-12(fp)
 * input argument is the element to remove.
 */
     
static ALT_INLINE void ALT_ALWAYS_INLINE alt_llist_remove(alt_llist* entry)
{
  entry->next->previous = entry->previous;
   320ec:	e0bffd17 	ldw	r2,-12(fp)
   320f0:	10800017 	ldw	r2,0(r2)
   320f4:	e0fffd17 	ldw	r3,-12(fp)
   320f8:	18c00117 	ldw	r3,4(r3)
   320fc:	10c00115 	stw	r3,4(r2)
  entry->previous->next = entry->next;
   32100:	e0bffd17 	ldw	r2,-12(fp)
   32104:	10800117 	ldw	r2,4(r2)
   32108:	e0fffd17 	ldw	r3,-12(fp)
   3210c:	18c00017 	ldw	r3,0(r3)
   32110:	10c00015 	stw	r3,0(r2)
  /* 
   * Set the entry to point to itself, so that any further calls to
   * alt_llist_remove() are harmless.
   */

  entry->previous = entry;
   32114:	e0bffd17 	ldw	r2,-12(fp)
   32118:	e0fffd17 	ldw	r3,-12(fp)
   3211c:	10c00115 	stw	r3,4(r2)
  entry->next     = entry;
   32120:	e0bffd17 	ldw	r2,-12(fp)
   32124:	e0fffd17 	ldw	r3,-12(fp)
   32128:	10c00015 	stw	r3,0(r2)
   3212c:	e0bffb17 	ldw	r2,-20(fp)
   32130:	e0bffe15 	stw	r2,-8(fp)
  status &= ~NIOS2_STATUS_PIE_MSK;
  status |= (context & NIOS2_STATUS_PIE_MSK);
  
  NIOS2_WRITE_STATUS (status);
#else
  NIOS2_WRITE_STATUS (context);
   32134:	e0bffe17 	ldw	r2,-8(fp)
   32138:	1001703a 	wrctl	status,r2
  alt_irq_enable_all (irq_context);
}
   3213c:	e037883a 	mov	sp,fp
   32140:	df000017 	ldw	fp,0(sp)
   32144:	dec00104 	addi	sp,sp,4
   32148:	f800283a 	ret

0003214c <alt_tick>:
 * 
 * alt_tick() is expected to run at interrupt level.
 */

void alt_tick (void)
{
   3214c:	defffb04 	addi	sp,sp,-20
   32150:	dfc00415 	stw	ra,16(sp)
   32154:	df000315 	stw	fp,12(sp)
   32158:	df000304 	addi	fp,sp,12
  alt_alarm* next;
  alt_alarm* alarm = (alt_alarm*) alt_alarm_list.next;
   3215c:	d0a01017 	ldw	r2,-32704(gp)
   32160:	e0bffd15 	stw	r2,-12(fp)

  alt_u32    next_callback;

  /* update the tick counter */

  _alt_nticks++;
   32164:	d0a8c217 	ldw	r2,-23800(gp)
   32168:	10800044 	addi	r2,r2,1
   3216c:	d0a8c215 	stw	r2,-23800(gp)

  /* process the registered callbacks */

  while (alarm != (alt_alarm*) &alt_alarm_list)
   32170:	00002e06 	br	3222c <alt_tick+0xe0>
  {
    next = (alt_alarm*) alarm->llist.next;
   32174:	e0bffd17 	ldw	r2,-12(fp)
   32178:	10800017 	ldw	r2,0(r2)
   3217c:	e0bffe15 	stw	r2,-8(fp)
    /* 
     * Upon the tick-counter rolling over it is safe to clear the 
     * roll-over flag; once the flag is cleared this (or subsequnt)
     * tick events are enabled to generate an alarm event. 
     */
    if ((alarm->rollover) && (_alt_nticks == 0))
   32180:	e0bffd17 	ldw	r2,-12(fp)
   32184:	10800403 	ldbu	r2,16(r2)
   32188:	10803fcc 	andi	r2,r2,255
   3218c:	10000426 	beq	r2,zero,321a0 <alt_tick+0x54>
   32190:	d0a8c217 	ldw	r2,-23800(gp)
   32194:	1000021e 	bne	r2,zero,321a0 <alt_tick+0x54>
    {
      alarm->rollover = 0;
   32198:	e0bffd17 	ldw	r2,-12(fp)
   3219c:	10000405 	stb	zero,16(r2)
    }
    
    /* if the alarm period has expired, make the callback */    
    if ((alarm->time <= _alt_nticks) && (alarm->rollover == 0))
   321a0:	e0bffd17 	ldw	r2,-12(fp)
   321a4:	10800217 	ldw	r2,8(r2)
   321a8:	d0e8c217 	ldw	r3,-23800(gp)
   321ac:	18801d36 	bltu	r3,r2,32224 <alt_tick+0xd8>
   321b0:	e0bffd17 	ldw	r2,-12(fp)
   321b4:	10800403 	ldbu	r2,16(r2)
   321b8:	10803fcc 	andi	r2,r2,255
   321bc:	1000191e 	bne	r2,zero,32224 <alt_tick+0xd8>
    {
      next_callback = alarm->callback (alarm->context);
   321c0:	e0bffd17 	ldw	r2,-12(fp)
   321c4:	10800317 	ldw	r2,12(r2)
   321c8:	e0fffd17 	ldw	r3,-12(fp)
   321cc:	18c00517 	ldw	r3,20(r3)
   321d0:	1809883a 	mov	r4,r3
   321d4:	103ee83a 	callr	r2
   321d8:	e0bfff15 	stw	r2,-4(fp)

      /* deactivate the alarm if the return value is zero */

      if (next_callback == 0)
   321dc:	e0bfff17 	ldw	r2,-4(fp)
   321e0:	1000031e 	bne	r2,zero,321f0 <alt_tick+0xa4>
      {
        alt_alarm_stop (alarm);
   321e4:	e13ffd17 	ldw	r4,-12(fp)
   321e8:	00320b40 	call	320b4 <alt_alarm_stop>
   321ec:	00000d06 	br	32224 <alt_tick+0xd8>
      }
      else
      {
        alarm->time += next_callback;
   321f0:	e0bffd17 	ldw	r2,-12(fp)
   321f4:	10c00217 	ldw	r3,8(r2)
   321f8:	e0bfff17 	ldw	r2,-4(fp)
   321fc:	1887883a 	add	r3,r3,r2
   32200:	e0bffd17 	ldw	r2,-12(fp)
   32204:	10c00215 	stw	r3,8(r2)
        /* 
         * If the desired alarm time causes a roll-over, set the rollover
         * flag. This will prevent the subsequent tick event from causing
         * an alarm too early.
         */
        if(alarm->time < _alt_nticks)
   32208:	e0bffd17 	ldw	r2,-12(fp)
   3220c:	10c00217 	ldw	r3,8(r2)
   32210:	d0a8c217 	ldw	r2,-23800(gp)
   32214:	1880032e 	bgeu	r3,r2,32224 <alt_tick+0xd8>
        {
          alarm->rollover = 1;
   32218:	e0bffd17 	ldw	r2,-12(fp)
   3221c:	00c00044 	movi	r3,1
   32220:	10c00405 	stb	r3,16(r2)
        }
      }
    }
    alarm = next;
   32224:	e0bffe17 	ldw	r2,-8(fp)
   32228:	e0bffd15 	stw	r2,-12(fp)

  _alt_nticks++;

  /* process the registered callbacks */

  while (alarm != (alt_alarm*) &alt_alarm_list)
   3222c:	e0fffd17 	ldw	r3,-12(fp)
   32230:	d0a01004 	addi	r2,gp,-32704
   32234:	18bfcf1e 	bne	r3,r2,32174 <__alt_data_end+0xffff2174>

  /* 
   * Update the operating system specific timer facilities.
   */

  ALT_OS_TIME_TICK();
   32238:	0001883a 	nop
}
   3223c:	e037883a 	mov	sp,fp
   32240:	dfc00117 	ldw	ra,4(sp)
   32244:	df000017 	ldw	fp,0(sp)
   32248:	dec00204 	addi	sp,sp,8
   3224c:	f800283a 	ret

00032250 <usleep>:
#if defined (__GNUC__) && __GNUC__ >= 4
int ALT_USLEEP (useconds_t us)
#else
unsigned int ALT_USLEEP (unsigned int us)
#endif
{
   32250:	defffd04 	addi	sp,sp,-12
   32254:	dfc00215 	stw	ra,8(sp)
   32258:	df000115 	stw	fp,4(sp)
   3225c:	df000104 	addi	fp,sp,4
   32260:	e13fff15 	stw	r4,-4(fp)
  return alt_busy_sleep(us);
   32264:	e13fff17 	ldw	r4,-4(fp)
   32268:	003311c0 	call	3311c <alt_busy_sleep>
}
   3226c:	e037883a 	mov	sp,fp
   32270:	dfc00117 	ldw	ra,4(sp)
   32274:	df000017 	ldw	fp,0(sp)
   32278:	dec00204 	addi	sp,sp,8
   3227c:	f800283a 	ret

00032280 <alt_get_errno>:
#undef errno

extern int errno;

static ALT_INLINE int* alt_get_errno(void)
{
   32280:	defffe04 	addi	sp,sp,-8
   32284:	dfc00115 	stw	ra,4(sp)
   32288:	df000015 	stw	fp,0(sp)
   3228c:	d839883a 	mov	fp,sp
  return ((alt_errno) ? alt_errno() : &errno);
   32290:	008000f4 	movhi	r2,3
   32294:	109c2e04 	addi	r2,r2,28856
   32298:	10800017 	ldw	r2,0(r2)
   3229c:	10000526 	beq	r2,zero,322b4 <alt_get_errno+0x34>
   322a0:	008000f4 	movhi	r2,3
   322a4:	109c2e04 	addi	r2,r2,28856
   322a8:	10800017 	ldw	r2,0(r2)
   322ac:	103ee83a 	callr	r2
   322b0:	00000206 	br	322bc <alt_get_errno+0x3c>
   322b4:	00800134 	movhi	r2,4
   322b8:	10a4da04 	addi	r2,r2,-27800
}
   322bc:	e037883a 	mov	sp,fp
   322c0:	dfc00117 	ldw	ra,4(sp)
   322c4:	df000017 	ldw	fp,0(sp)
   322c8:	dec00204 	addi	sp,sp,8
   322cc:	f800283a 	ret

000322d0 <write>:
}

#else /* !ALT_USE_DIRECT_DRIVERS */

int ALT_WRITE (int file, const void *ptr, size_t len)
{
   322d0:	defff904 	addi	sp,sp,-28
   322d4:	dfc00615 	stw	ra,24(sp)
   322d8:	df000515 	stw	fp,20(sp)
   322dc:	df000504 	addi	fp,sp,20
   322e0:	e13ffd15 	stw	r4,-12(fp)
   322e4:	e17ffe15 	stw	r5,-8(fp)
   322e8:	e1bfff15 	stw	r6,-4(fp)
   * A common error case is that when the file descriptor was created, the call
   * to open() failed resulting in a negative file descriptor. This is trapped
   * below so that we don't try and process an invalid file descriptor.
   */

  fd = (file < 0) ? NULL : &alt_fd_list[file];
   322ec:	e0bffd17 	ldw	r2,-12(fp)
   322f0:	10000616 	blt	r2,zero,3230c <write+0x3c>
   322f4:	e0bffd17 	ldw	r2,-12(fp)
   322f8:	10c00324 	muli	r3,r2,12
   322fc:	008000f4 	movhi	r2,3
   32300:	1097a804 	addi	r2,r2,24224
   32304:	1885883a 	add	r2,r3,r2
   32308:	00000106 	br	32310 <write+0x40>
   3230c:	0005883a 	mov	r2,zero
   32310:	e0bffb15 	stw	r2,-20(fp)
  
  if (fd)
   32314:	e0bffb17 	ldw	r2,-20(fp)
   32318:	10002126 	beq	r2,zero,323a0 <write+0xd0>
     * If the file has not been opened with write access, or if the driver does
     * not provide an implementation of write(), generate an error. Otherwise
     * call the drivers write() function to process the request.
     */

    if (((fd->fd_flags & O_ACCMODE) != O_RDONLY) && fd->dev->write)
   3231c:	e0bffb17 	ldw	r2,-20(fp)
   32320:	10800217 	ldw	r2,8(r2)
   32324:	108000cc 	andi	r2,r2,3
   32328:	10001826 	beq	r2,zero,3238c <write+0xbc>
   3232c:	e0bffb17 	ldw	r2,-20(fp)
   32330:	10800017 	ldw	r2,0(r2)
   32334:	10800617 	ldw	r2,24(r2)
   32338:	10001426 	beq	r2,zero,3238c <write+0xbc>
    {
      
      /* ALT_LOG - see altera_hal/HAL/inc/sys/alt_log_printf.h */
      ALT_LOG_WRITE_FUNCTION(ptr,len);

      if ((rval = fd->dev->write(fd, ptr, len)) < 0)
   3233c:	e0bffb17 	ldw	r2,-20(fp)
   32340:	10800017 	ldw	r2,0(r2)
   32344:	10800617 	ldw	r2,24(r2)
   32348:	e0ffff17 	ldw	r3,-4(fp)
   3234c:	e13ffb17 	ldw	r4,-20(fp)
   32350:	e17ffe17 	ldw	r5,-8(fp)
   32354:	180d883a 	mov	r6,r3
   32358:	103ee83a 	callr	r2
   3235c:	e0bffc15 	stw	r2,-16(fp)
   32360:	e0bffc17 	ldw	r2,-16(fp)
   32364:	1000070e 	bge	r2,zero,32384 <write+0xb4>
      {
        ALT_ERRNO = -rval;
   32368:	00322800 	call	32280 <alt_get_errno>
   3236c:	1007883a 	mov	r3,r2
   32370:	e0bffc17 	ldw	r2,-16(fp)
   32374:	0085c83a 	sub	r2,zero,r2
   32378:	18800015 	stw	r2,0(r3)
        return -1;
   3237c:	00bfffc4 	movi	r2,-1
   32380:	00000c06 	br	323b4 <write+0xe4>
      }
      return rval;
   32384:	e0bffc17 	ldw	r2,-16(fp)
   32388:	00000a06 	br	323b4 <write+0xe4>
    }
    else
    {
      ALT_ERRNO = EACCES;
   3238c:	00322800 	call	32280 <alt_get_errno>
   32390:	1007883a 	mov	r3,r2
   32394:	00800344 	movi	r2,13
   32398:	18800015 	stw	r2,0(r3)
   3239c:	00000406 	br	323b0 <write+0xe0>
    }
  }
  else  
  {
    ALT_ERRNO = EBADFD;
   323a0:	00322800 	call	32280 <alt_get_errno>
   323a4:	1007883a 	mov	r3,r2
   323a8:	00801444 	movi	r2,81
   323ac:	18800015 	stw	r2,0(r3)
  }
  return -1;
   323b0:	00bfffc4 	movi	r2,-1
}
   323b4:	e037883a 	mov	sp,fp
   323b8:	dfc00117 	ldw	ra,4(sp)
   323bc:	df000017 	ldw	fp,0(sp)
   323c0:	dec00204 	addi	sp,sp,8
   323c4:	f800283a 	ret

000323c8 <alt_dev_reg>:
 */

extern int alt_fs_reg  (alt_dev* dev); 

static ALT_INLINE int alt_dev_reg (alt_dev* dev)
{
   323c8:	defffd04 	addi	sp,sp,-12
   323cc:	dfc00215 	stw	ra,8(sp)
   323d0:	df000115 	stw	fp,4(sp)
   323d4:	df000104 	addi	fp,sp,4
   323d8:	e13fff15 	stw	r4,-4(fp)
  extern alt_llist alt_dev_list;

  return alt_dev_llist_insert ((alt_dev_llist*) dev, &alt_dev_list);
   323dc:	e13fff17 	ldw	r4,-4(fp)
   323e0:	014000f4 	movhi	r5,3
   323e4:	295c2b04 	addi	r5,r5,28844
   323e8:	00333080 	call	33308 <alt_dev_llist_insert>
}
   323ec:	e037883a 	mov	sp,fp
   323f0:	dfc00117 	ldw	ra,4(sp)
   323f4:	df000017 	ldw	fp,0(sp)
   323f8:	dec00204 	addi	sp,sp,8
   323fc:	f800283a 	ret

00032400 <alt_irq_init>:
 * The "base" parameter is ignored and only
 * present for backwards-compatibility.
 */

void alt_irq_init ( const void* base )
{
   32400:	defffd04 	addi	sp,sp,-12
   32404:	dfc00215 	stw	ra,8(sp)
   32408:	df000115 	stw	fp,4(sp)
   3240c:	df000104 	addi	fp,sp,4
   32410:	e13fff15 	stw	r4,-4(fp)
    ALTERA_NIOS2_GEN2_IRQ_INIT ( NIOS2_GEN2, nios2_gen2);
   32414:	0033b100 	call	33b10 <altera_nios2_gen2_irq_init>
 * alt_irq_cpu_enable_interrupts() enables the CPU to start taking interrupts.
 */
static ALT_INLINE void ALT_ALWAYS_INLINE 
       alt_irq_cpu_enable_interrupts (void)
{
    NIOS2_WRITE_STATUS(NIOS2_STATUS_PIE_MSK
   32418:	00800044 	movi	r2,1
   3241c:	1001703a 	wrctl	status,r2
    alt_irq_cpu_enable_interrupts();
}
   32420:	e037883a 	mov	sp,fp
   32424:	dfc00117 	ldw	ra,4(sp)
   32428:	df000017 	ldw	fp,0(sp)
   3242c:	dec00204 	addi	sp,sp,8
   32430:	f800283a 	ret

00032434 <alt_sys_init>:
 * Initialize the non-interrupt controller devices.
 * Called after alt_irq_init().
 */

void alt_sys_init( void )
{
   32434:	defffe04 	addi	sp,sp,-8
   32438:	dfc00115 	stw	ra,4(sp)
   3243c:	df000015 	stw	fp,0(sp)
   32440:	d839883a 	mov	fp,sp
    ALTERA_AVALON_TIMER_INIT ( TIMER, timer);
   32444:	01000134 	movhi	r4,4
   32448:	21054004 	addi	r4,r4,5376
   3244c:	000b883a 	mov	r5,zero
   32450:	018000c4 	movi	r6,3
   32454:	01c0fa04 	movi	r7,1000
   32458:	0032f540 	call	32f54 <alt_avalon_timer_sc_init>
    ALTERA_AVALON_JTAG_UART_INIT ( JTAG_UART, jtag_uart);
   3245c:	010000f4 	movhi	r4,3
   32460:	21181204 	addi	r4,r4,24648
   32464:	000b883a 	mov	r5,zero
   32468:	01800084 	movi	r6,2
   3246c:	00325f80 	call	325f8 <altera_avalon_jtag_uart_init>
   32470:	010000f4 	movhi	r4,3
   32474:	21180804 	addi	r4,r4,24608
   32478:	00323c80 	call	323c8 <alt_dev_reg>
    ALTERA_AVALON_SYSID_QSYS_INIT ( SYSID_QSYS, sysid_qsys);
   3247c:	0001883a 	nop
}
   32480:	e037883a 	mov	sp,fp
   32484:	dfc00117 	ldw	ra,4(sp)
   32488:	df000017 	ldw	fp,0(sp)
   3248c:	dec00204 	addi	sp,sp,8
   32490:	f800283a 	ret

00032494 <altera_avalon_jtag_uart_read_fd>:
 *
 */

int 
altera_avalon_jtag_uart_read_fd(alt_fd* fd, char* buffer, int space)
{
   32494:	defffa04 	addi	sp,sp,-24
   32498:	dfc00515 	stw	ra,20(sp)
   3249c:	df000415 	stw	fp,16(sp)
   324a0:	df000404 	addi	fp,sp,16
   324a4:	e13ffd15 	stw	r4,-12(fp)
   324a8:	e17ffe15 	stw	r5,-8(fp)
   324ac:	e1bfff15 	stw	r6,-4(fp)
    altera_avalon_jtag_uart_dev* dev = (altera_avalon_jtag_uart_dev*) fd->dev; 
   324b0:	e0bffd17 	ldw	r2,-12(fp)
   324b4:	10800017 	ldw	r2,0(r2)
   324b8:	e0bffc15 	stw	r2,-16(fp)

    return altera_avalon_jtag_uart_read(&dev->state, buffer, space,
   324bc:	e0bffc17 	ldw	r2,-16(fp)
   324c0:	10c00a04 	addi	r3,r2,40
   324c4:	e0bffd17 	ldw	r2,-12(fp)
   324c8:	10800217 	ldw	r2,8(r2)
   324cc:	1809883a 	mov	r4,r3
   324d0:	e17ffe17 	ldw	r5,-8(fp)
   324d4:	e1bfff17 	ldw	r6,-4(fp)
   324d8:	100f883a 	mov	r7,r2
   324dc:	0032abc0 	call	32abc <altera_avalon_jtag_uart_read>
      fd->fd_flags);
}
   324e0:	e037883a 	mov	sp,fp
   324e4:	dfc00117 	ldw	ra,4(sp)
   324e8:	df000017 	ldw	fp,0(sp)
   324ec:	dec00204 	addi	sp,sp,8
   324f0:	f800283a 	ret

000324f4 <altera_avalon_jtag_uart_write_fd>:

int 
altera_avalon_jtag_uart_write_fd(alt_fd* fd, const char* buffer, int space)
{
   324f4:	defffa04 	addi	sp,sp,-24
   324f8:	dfc00515 	stw	ra,20(sp)
   324fc:	df000415 	stw	fp,16(sp)
   32500:	df000404 	addi	fp,sp,16
   32504:	e13ffd15 	stw	r4,-12(fp)
   32508:	e17ffe15 	stw	r5,-8(fp)
   3250c:	e1bfff15 	stw	r6,-4(fp)
    altera_avalon_jtag_uart_dev* dev = (altera_avalon_jtag_uart_dev*) fd->dev; 
   32510:	e0bffd17 	ldw	r2,-12(fp)
   32514:	10800017 	ldw	r2,0(r2)
   32518:	e0bffc15 	stw	r2,-16(fp)

    return altera_avalon_jtag_uart_write(&dev->state, buffer, space,
   3251c:	e0bffc17 	ldw	r2,-16(fp)
   32520:	10c00a04 	addi	r3,r2,40
   32524:	e0bffd17 	ldw	r2,-12(fp)
   32528:	10800217 	ldw	r2,8(r2)
   3252c:	1809883a 	mov	r4,r3
   32530:	e17ffe17 	ldw	r5,-8(fp)
   32534:	e1bfff17 	ldw	r6,-4(fp)
   32538:	100f883a 	mov	r7,r2
   3253c:	0032cc80 	call	32cc8 <altera_avalon_jtag_uart_write>
      fd->fd_flags);
}
   32540:	e037883a 	mov	sp,fp
   32544:	dfc00117 	ldw	ra,4(sp)
   32548:	df000017 	ldw	fp,0(sp)
   3254c:	dec00204 	addi	sp,sp,8
   32550:	f800283a 	ret

00032554 <altera_avalon_jtag_uart_close_fd>:

#ifndef ALTERA_AVALON_JTAG_UART_SMALL

int 
altera_avalon_jtag_uart_close_fd(alt_fd* fd)
{
   32554:	defffc04 	addi	sp,sp,-16
   32558:	dfc00315 	stw	ra,12(sp)
   3255c:	df000215 	stw	fp,8(sp)
   32560:	df000204 	addi	fp,sp,8
   32564:	e13fff15 	stw	r4,-4(fp)
    altera_avalon_jtag_uart_dev* dev = (altera_avalon_jtag_uart_dev*) fd->dev; 
   32568:	e0bfff17 	ldw	r2,-4(fp)
   3256c:	10800017 	ldw	r2,0(r2)
   32570:	e0bffe15 	stw	r2,-8(fp)

    return altera_avalon_jtag_uart_close(&dev->state, fd->fd_flags);
   32574:	e0bffe17 	ldw	r2,-8(fp)
   32578:	10c00a04 	addi	r3,r2,40
   3257c:	e0bfff17 	ldw	r2,-4(fp)
   32580:	10800217 	ldw	r2,8(r2)
   32584:	1809883a 	mov	r4,r3
   32588:	100b883a 	mov	r5,r2
   3258c:	00329680 	call	32968 <altera_avalon_jtag_uart_close>
}
   32590:	e037883a 	mov	sp,fp
   32594:	dfc00117 	ldw	ra,4(sp)
   32598:	df000017 	ldw	fp,0(sp)
   3259c:	dec00204 	addi	sp,sp,8
   325a0:	f800283a 	ret

000325a4 <altera_avalon_jtag_uart_ioctl_fd>:

int 
altera_avalon_jtag_uart_ioctl_fd(alt_fd* fd, int req, void* arg)
{
   325a4:	defffa04 	addi	sp,sp,-24
   325a8:	dfc00515 	stw	ra,20(sp)
   325ac:	df000415 	stw	fp,16(sp)
   325b0:	df000404 	addi	fp,sp,16
   325b4:	e13ffd15 	stw	r4,-12(fp)
   325b8:	e17ffe15 	stw	r5,-8(fp)
   325bc:	e1bfff15 	stw	r6,-4(fp)
    altera_avalon_jtag_uart_dev* dev = (altera_avalon_jtag_uart_dev*) fd->dev;
   325c0:	e0bffd17 	ldw	r2,-12(fp)
   325c4:	10800017 	ldw	r2,0(r2)
   325c8:	e0bffc15 	stw	r2,-16(fp)

    return altera_avalon_jtag_uart_ioctl(&dev->state, req, arg);
   325cc:	e0bffc17 	ldw	r2,-16(fp)
   325d0:	10800a04 	addi	r2,r2,40
   325d4:	1009883a 	mov	r4,r2
   325d8:	e17ffe17 	ldw	r5,-8(fp)
   325dc:	e1bfff17 	ldw	r6,-4(fp)
   325e0:	00329d00 	call	329d0 <altera_avalon_jtag_uart_ioctl>
}
   325e4:	e037883a 	mov	sp,fp
   325e8:	dfc00117 	ldw	ra,4(sp)
   325ec:	df000017 	ldw	fp,0(sp)
   325f0:	dec00204 	addi	sp,sp,8
   325f4:	f800283a 	ret

000325f8 <altera_avalon_jtag_uart_init>:
 * Return 1 on sucessful IRQ register and 0 on failure.
 */

void altera_avalon_jtag_uart_init(altera_avalon_jtag_uart_state* sp, 
                                  int irq_controller_id, int irq)
{
   325f8:	defffa04 	addi	sp,sp,-24
   325fc:	dfc00515 	stw	ra,20(sp)
   32600:	df000415 	stw	fp,16(sp)
   32604:	df000404 	addi	fp,sp,16
   32608:	e13ffd15 	stw	r4,-12(fp)
   3260c:	e17ffe15 	stw	r5,-8(fp)
   32610:	e1bfff15 	stw	r6,-4(fp)
  ALT_FLAG_CREATE(&sp->events, 0);
  ALT_SEM_CREATE(&sp->read_lock, 1);
  ALT_SEM_CREATE(&sp->write_lock, 1);

  /* enable read interrupts at the device */
  sp->irq_enable = ALTERA_AVALON_JTAG_UART_CONTROL_RE_MSK;
   32614:	e0bffd17 	ldw	r2,-12(fp)
   32618:	00c00044 	movi	r3,1
   3261c:	10c00815 	stw	r3,32(r2)

  IOWR_ALTERA_AVALON_JTAG_UART_CONTROL(sp->base, sp->irq_enable); 
   32620:	e0bffd17 	ldw	r2,-12(fp)
   32624:	10800017 	ldw	r2,0(r2)
   32628:	10800104 	addi	r2,r2,4
   3262c:	1007883a 	mov	r3,r2
   32630:	e0bffd17 	ldw	r2,-12(fp)
   32634:	10800817 	ldw	r2,32(r2)
   32638:	18800035 	stwio	r2,0(r3)
  
  /* register the interrupt handler */
#ifdef ALT_ENHANCED_INTERRUPT_API_PRESENT
  alt_ic_isr_register(irq_controller_id, irq, altera_avalon_jtag_uart_irq, 
   3263c:	e0fffe17 	ldw	r3,-8(fp)
   32640:	e0bfff17 	ldw	r2,-4(fp)
   32644:	d8000015 	stw	zero,0(sp)
   32648:	1809883a 	mov	r4,r3
   3264c:	100b883a 	mov	r5,r2
   32650:	018000f4 	movhi	r6,3
   32654:	3189af04 	addi	r6,r6,9916
   32658:	e1fffd17 	ldw	r7,-12(fp)
   3265c:	00334940 	call	33494 <alt_ic_isr_register>
#else
  alt_irq_register(irq, sp, altera_avalon_jtag_uart_irq);
#endif  

  /* Register an alarm to go off every second to check for presence of host */
  sp->host_inactive = 0;
   32660:	e0bffd17 	ldw	r2,-12(fp)
   32664:	10000915 	stw	zero,36(r2)

  if (alt_alarm_start(&sp->alarm, alt_ticks_per_second(), 
   32668:	e0bffd17 	ldw	r2,-12(fp)
   3266c:	10c00204 	addi	r3,r2,8
 * Obtain the system clock rate in ticks/s. 
 */

static ALT_INLINE alt_u32 ALT_ALWAYS_INLINE alt_ticks_per_second (void)
{
  return _alt_tick_rate;
   32670:	00800134 	movhi	r2,4
   32674:	10a4e104 	addi	r2,r2,-27772
   32678:	10800017 	ldw	r2,0(r2)
   3267c:	1809883a 	mov	r4,r3
   32680:	100b883a 	mov	r5,r2
   32684:	018000f4 	movhi	r6,3
   32688:	318a3004 	addi	r6,r6,10432
   3268c:	e1fffd17 	ldw	r7,-12(fp)
   32690:	0032fdc0 	call	32fdc <alt_alarm_start>
   32694:	1000040e 	bge	r2,zero,326a8 <altera_avalon_jtag_uart_init+0xb0>
    &altera_avalon_jtag_uart_timeout, sp) < 0)
  {
    /* If we can't set the alarm then record "don't know if host present" 
     * and behave as though the host is present.
     */
    sp->timeout = INT_MAX;
   32698:	e0fffd17 	ldw	r3,-12(fp)
   3269c:	00a00034 	movhi	r2,32768
   326a0:	10bfffc4 	addi	r2,r2,-1
   326a4:	18800115 	stw	r2,4(r3)
  }

  /* ALT_LOG - see altera_hal/HAL/inc/sys/alt_log_printf.h */ 
  ALT_LOG_JTAG_UART_ALARM_REGISTER(sp, sp->base);
}
   326a8:	e037883a 	mov	sp,fp
   326ac:	dfc00117 	ldw	ra,4(sp)
   326b0:	df000017 	ldw	fp,0(sp)
   326b4:	dec00204 	addi	sp,sp,8
   326b8:	f800283a 	ret

000326bc <altera_avalon_jtag_uart_irq>:
#ifdef ALT_ENHANCED_INTERRUPT_API_PRESENT
static void altera_avalon_jtag_uart_irq(void* context)
#else
static void altera_avalon_jtag_uart_irq(void* context, alt_u32 id)
#endif
{
   326bc:	defff804 	addi	sp,sp,-32
   326c0:	df000715 	stw	fp,28(sp)
   326c4:	df000704 	addi	fp,sp,28
   326c8:	e13fff15 	stw	r4,-4(fp)
  altera_avalon_jtag_uart_state* sp = (altera_avalon_jtag_uart_state*) context;
   326cc:	e0bfff17 	ldw	r2,-4(fp)
   326d0:	e0bffb15 	stw	r2,-20(fp)
  unsigned int base = sp->base;
   326d4:	e0bffb17 	ldw	r2,-20(fp)
   326d8:	10800017 	ldw	r2,0(r2)
   326dc:	e0bffc15 	stw	r2,-16(fp)
  /* ALT_LOG - see altera_hal/HAL/inc/sys/alt_log_printf.h */ 
  ALT_LOG_JTAG_UART_ISR_FUNCTION(base, sp);

  for ( ; ; )
  {
    unsigned int control = IORD_ALTERA_AVALON_JTAG_UART_CONTROL(base);
   326e0:	e0bffc17 	ldw	r2,-16(fp)
   326e4:	10800104 	addi	r2,r2,4
   326e8:	10800037 	ldwio	r2,0(r2)
   326ec:	e0bffd15 	stw	r2,-12(fp)

    /* Return once nothing more to do */
    if ((control & (ALTERA_AVALON_JTAG_UART_CONTROL_RI_MSK | ALTERA_AVALON_JTAG_UART_CONTROL_WI_MSK)) == 0)
   326f0:	e0bffd17 	ldw	r2,-12(fp)
   326f4:	1080c00c 	andi	r2,r2,768
   326f8:	1000011e 	bne	r2,zero,32700 <altera_avalon_jtag_uart_irq+0x44>
      break;
   326fc:	00006c06 	br	328b0 <altera_avalon_jtag_uart_irq+0x1f4>

    if (control & ALTERA_AVALON_JTAG_UART_CONTROL_RI_MSK)
   32700:	e0bffd17 	ldw	r2,-12(fp)
   32704:	1080400c 	andi	r2,r2,256
   32708:	10003426 	beq	r2,zero,327dc <altera_avalon_jtag_uart_irq+0x120>
    {
      /* process a read irq.  Start by assuming that there is data in the
       * receive FIFO (otherwise why would we have been interrupted?)
       */
      unsigned int data = 1 << ALTERA_AVALON_JTAG_UART_DATA_RAVAIL_OFST;
   3270c:	00800074 	movhi	r2,1
   32710:	e0bff915 	stw	r2,-28(fp)
      for ( ; ; )
      {
        /* Check whether there is space in the buffer.  If not then we must not
         * read any characters from the buffer as they will be lost.
         */
        unsigned int next = (sp->rx_in + 1) % ALTERA_AVALON_JTAG_UART_BUF_LEN;
   32714:	e0bffb17 	ldw	r2,-20(fp)
   32718:	10800a17 	ldw	r2,40(r2)
   3271c:	10800044 	addi	r2,r2,1
   32720:	1081ffcc 	andi	r2,r2,2047
   32724:	e0bffe15 	stw	r2,-8(fp)
        if (next == sp->rx_out)
   32728:	e0bffb17 	ldw	r2,-20(fp)
   3272c:	10c00b17 	ldw	r3,44(r2)
   32730:	e0bffe17 	ldw	r2,-8(fp)
   32734:	1880011e 	bne	r3,r2,3273c <altera_avalon_jtag_uart_irq+0x80>
          break;
   32738:	00001606 	br	32794 <altera_avalon_jtag_uart_irq+0xd8>

        /* Try to remove a character from the FIFO and find out whether there
         * are any more characters remaining.
         */
        data = IORD_ALTERA_AVALON_JTAG_UART_DATA(base);
   3273c:	e0bffc17 	ldw	r2,-16(fp)
   32740:	10800037 	ldwio	r2,0(r2)
   32744:	e0bff915 	stw	r2,-28(fp)
        
        if ((data & ALTERA_AVALON_JTAG_UART_DATA_RVALID_MSK) == 0)
   32748:	e0bff917 	ldw	r2,-28(fp)
   3274c:	10a0000c 	andi	r2,r2,32768
   32750:	1000011e 	bne	r2,zero,32758 <altera_avalon_jtag_uart_irq+0x9c>
          break;
   32754:	00000f06 	br	32794 <altera_avalon_jtag_uart_irq+0xd8>

        sp->rx_buf[sp->rx_in] = (data & ALTERA_AVALON_JTAG_UART_DATA_DATA_MSK) >> ALTERA_AVALON_JTAG_UART_DATA_DATA_OFST;
   32758:	e0bffb17 	ldw	r2,-20(fp)
   3275c:	10800a17 	ldw	r2,40(r2)
   32760:	e0fff917 	ldw	r3,-28(fp)
   32764:	1809883a 	mov	r4,r3
   32768:	e0fffb17 	ldw	r3,-20(fp)
   3276c:	1885883a 	add	r2,r3,r2
   32770:	10800e04 	addi	r2,r2,56
   32774:	11000005 	stb	r4,0(r2)
        sp->rx_in = (sp->rx_in + 1) % ALTERA_AVALON_JTAG_UART_BUF_LEN;
   32778:	e0bffb17 	ldw	r2,-20(fp)
   3277c:	10800a17 	ldw	r2,40(r2)
   32780:	10800044 	addi	r2,r2,1
   32784:	10c1ffcc 	andi	r3,r2,2047
   32788:	e0bffb17 	ldw	r2,-20(fp)
   3278c:	10c00a15 	stw	r3,40(r2)

        /* Post an event to notify jtag_uart_read that a character has been read */
        ALT_FLAG_POST (sp->events, ALT_JTAG_UART_READ_RDY, OS_FLAG_SET);
      }
   32790:	003fe006 	br	32714 <__alt_data_end+0xffff2714>

      if (data & ALTERA_AVALON_JTAG_UART_DATA_RAVAIL_MSK)
   32794:	e0bff917 	ldw	r2,-28(fp)
   32798:	10bfffec 	andhi	r2,r2,65535
   3279c:	10000f26 	beq	r2,zero,327dc <altera_avalon_jtag_uart_irq+0x120>
      {
        /* If there is still data available here then the buffer is full 
         * so turn off receive interrupts until some space becomes available.
         */
        sp->irq_enable &= ~ALTERA_AVALON_JTAG_UART_CONTROL_RE_MSK;
   327a0:	e0bffb17 	ldw	r2,-20(fp)
   327a4:	10c00817 	ldw	r3,32(r2)
   327a8:	00bfff84 	movi	r2,-2
   327ac:	1886703a 	and	r3,r3,r2
   327b0:	e0bffb17 	ldw	r2,-20(fp)
   327b4:	10c00815 	stw	r3,32(r2)
        IOWR_ALTERA_AVALON_JTAG_UART_CONTROL(base, sp->irq_enable);
   327b8:	e0bffc17 	ldw	r2,-16(fp)
   327bc:	10800104 	addi	r2,r2,4
   327c0:	1007883a 	mov	r3,r2
   327c4:	e0bffb17 	ldw	r2,-20(fp)
   327c8:	10800817 	ldw	r2,32(r2)
   327cc:	18800035 	stwio	r2,0(r3)
        
        /* Dummy read to ensure IRQ is cleared prior to ISR completion */
        IORD_ALTERA_AVALON_JTAG_UART_CONTROL(base);
   327d0:	e0bffc17 	ldw	r2,-16(fp)
   327d4:	10800104 	addi	r2,r2,4
   327d8:	10800037 	ldwio	r2,0(r2)
      }
    }

    if (control & ALTERA_AVALON_JTAG_UART_CONTROL_WI_MSK)
   327dc:	e0bffd17 	ldw	r2,-12(fp)
   327e0:	1080800c 	andi	r2,r2,512
   327e4:	10003126 	beq	r2,zero,328ac <altera_avalon_jtag_uart_irq+0x1f0>
    {
      /* process a write irq */
      unsigned int space = (control & ALTERA_AVALON_JTAG_UART_CONTROL_WSPACE_MSK) >> ALTERA_AVALON_JTAG_UART_CONTROL_WSPACE_OFST;
   327e8:	e0bffd17 	ldw	r2,-12(fp)
   327ec:	1004d43a 	srli	r2,r2,16
   327f0:	e0bffa15 	stw	r2,-24(fp)

      while (space > 0 && sp->tx_out != sp->tx_in)
   327f4:	00001406 	br	32848 <altera_avalon_jtag_uart_irq+0x18c>
      {
        IOWR_ALTERA_AVALON_JTAG_UART_DATA(base, sp->tx_buf[sp->tx_out]);
   327f8:	e0bffc17 	ldw	r2,-16(fp)
   327fc:	e0fffb17 	ldw	r3,-20(fp)
   32800:	18c00d17 	ldw	r3,52(r3)
   32804:	e13ffb17 	ldw	r4,-20(fp)
   32808:	20c7883a 	add	r3,r4,r3
   3280c:	18c20e04 	addi	r3,r3,2104
   32810:	18c00003 	ldbu	r3,0(r3)
   32814:	18c03fcc 	andi	r3,r3,255
   32818:	18c0201c 	xori	r3,r3,128
   3281c:	18ffe004 	addi	r3,r3,-128
   32820:	10c00035 	stwio	r3,0(r2)

        sp->tx_out = (sp->tx_out + 1) % ALTERA_AVALON_JTAG_UART_BUF_LEN;
   32824:	e0bffb17 	ldw	r2,-20(fp)
   32828:	10800d17 	ldw	r2,52(r2)
   3282c:	10800044 	addi	r2,r2,1
   32830:	10c1ffcc 	andi	r3,r2,2047
   32834:	e0bffb17 	ldw	r2,-20(fp)
   32838:	10c00d15 	stw	r3,52(r2)

        /* Post an event to notify jtag_uart_write that a character has been written */
        ALT_FLAG_POST (sp->events, ALT_JTAG_UART_WRITE_RDY, OS_FLAG_SET);

        space--;
   3283c:	e0bffa17 	ldw	r2,-24(fp)
   32840:	10bfffc4 	addi	r2,r2,-1
   32844:	e0bffa15 	stw	r2,-24(fp)
    if (control & ALTERA_AVALON_JTAG_UART_CONTROL_WI_MSK)
    {
      /* process a write irq */
      unsigned int space = (control & ALTERA_AVALON_JTAG_UART_CONTROL_WSPACE_MSK) >> ALTERA_AVALON_JTAG_UART_CONTROL_WSPACE_OFST;

      while (space > 0 && sp->tx_out != sp->tx_in)
   32848:	e0bffa17 	ldw	r2,-24(fp)
   3284c:	10000526 	beq	r2,zero,32864 <altera_avalon_jtag_uart_irq+0x1a8>
   32850:	e0bffb17 	ldw	r2,-20(fp)
   32854:	10c00d17 	ldw	r3,52(r2)
   32858:	e0bffb17 	ldw	r2,-20(fp)
   3285c:	10800c17 	ldw	r2,48(r2)
   32860:	18bfe51e 	bne	r3,r2,327f8 <__alt_data_end+0xffff27f8>
        ALT_FLAG_POST (sp->events, ALT_JTAG_UART_WRITE_RDY, OS_FLAG_SET);

        space--;
      }

      if (space > 0)
   32864:	e0bffa17 	ldw	r2,-24(fp)
   32868:	10001026 	beq	r2,zero,328ac <altera_avalon_jtag_uart_irq+0x1f0>
      {
        /* If we don't have any more data available then turn off the TX interrupt */
        sp->irq_enable &= ~ALTERA_AVALON_JTAG_UART_CONTROL_WE_MSK;
   3286c:	e0bffb17 	ldw	r2,-20(fp)
   32870:	10c00817 	ldw	r3,32(r2)
   32874:	00bfff44 	movi	r2,-3
   32878:	1886703a 	and	r3,r3,r2
   3287c:	e0bffb17 	ldw	r2,-20(fp)
   32880:	10c00815 	stw	r3,32(r2)
        IOWR_ALTERA_AVALON_JTAG_UART_CONTROL(sp->base, sp->irq_enable);
   32884:	e0bffb17 	ldw	r2,-20(fp)
   32888:	10800017 	ldw	r2,0(r2)
   3288c:	10800104 	addi	r2,r2,4
   32890:	1007883a 	mov	r3,r2
   32894:	e0bffb17 	ldw	r2,-20(fp)
   32898:	10800817 	ldw	r2,32(r2)
   3289c:	18800035 	stwio	r2,0(r3)
        
        /* Dummy read to ensure IRQ is cleared prior to ISR completion */
        IORD_ALTERA_AVALON_JTAG_UART_CONTROL(base);
   328a0:	e0bffc17 	ldw	r2,-16(fp)
   328a4:	10800104 	addi	r2,r2,4
   328a8:	10800037 	ldwio	r2,0(r2)
      }
    }
  }
   328ac:	003f8c06 	br	326e0 <__alt_data_end+0xffff26e0>
}
   328b0:	e037883a 	mov	sp,fp
   328b4:	df000017 	ldw	fp,0(sp)
   328b8:	dec00104 	addi	sp,sp,4
   328bc:	f800283a 	ret

000328c0 <altera_avalon_jtag_uart_timeout>:
 * Timeout routine is called every second
 */

static alt_u32 
altera_avalon_jtag_uart_timeout(void* context) 
{
   328c0:	defff804 	addi	sp,sp,-32
   328c4:	df000715 	stw	fp,28(sp)
   328c8:	df000704 	addi	fp,sp,28
   328cc:	e13ffb15 	stw	r4,-20(fp)
  altera_avalon_jtag_uart_state* sp = (altera_avalon_jtag_uart_state *) context;
   328d0:	e0bffb17 	ldw	r2,-20(fp)
   328d4:	e0bff915 	stw	r2,-28(fp)

  unsigned int control = IORD_ALTERA_AVALON_JTAG_UART_CONTROL(sp->base);
   328d8:	e0bff917 	ldw	r2,-28(fp)
   328dc:	10800017 	ldw	r2,0(r2)
   328e0:	10800104 	addi	r2,r2,4
   328e4:	10800037 	ldwio	r2,0(r2)
   328e8:	e0bffa15 	stw	r2,-24(fp)

  if (control & ALTERA_AVALON_JTAG_UART_CONTROL_AC_MSK)
   328ec:	e0bffa17 	ldw	r2,-24(fp)
   328f0:	1081000c 	andi	r2,r2,1024
   328f4:	10000b26 	beq	r2,zero,32924 <altera_avalon_jtag_uart_timeout+0x64>
  {
    IOWR_ALTERA_AVALON_JTAG_UART_CONTROL(sp->base, sp->irq_enable | ALTERA_AVALON_JTAG_UART_CONTROL_AC_MSK);
   328f8:	e0bff917 	ldw	r2,-28(fp)
   328fc:	10800017 	ldw	r2,0(r2)
   32900:	10800104 	addi	r2,r2,4
   32904:	1007883a 	mov	r3,r2
   32908:	e0bff917 	ldw	r2,-28(fp)
   3290c:	10800817 	ldw	r2,32(r2)
   32910:	10810014 	ori	r2,r2,1024
   32914:	18800035 	stwio	r2,0(r3)
    sp->host_inactive = 0;
   32918:	e0bff917 	ldw	r2,-28(fp)
   3291c:	10000915 	stw	zero,36(r2)
   32920:	00000a06 	br	3294c <altera_avalon_jtag_uart_timeout+0x8c>
  }
  else if (sp->host_inactive < INT_MAX - 2) {
   32924:	e0bff917 	ldw	r2,-28(fp)
   32928:	10c00917 	ldw	r3,36(r2)
   3292c:	00a00034 	movhi	r2,32768
   32930:	10bfff04 	addi	r2,r2,-4
   32934:	10c00536 	bltu	r2,r3,3294c <altera_avalon_jtag_uart_timeout+0x8c>
    sp->host_inactive++;
   32938:	e0bff917 	ldw	r2,-28(fp)
   3293c:	10800917 	ldw	r2,36(r2)
   32940:	10c00044 	addi	r3,r2,1
   32944:	e0bff917 	ldw	r2,-28(fp)
   32948:	10c00915 	stw	r3,36(r2)
   3294c:	00800134 	movhi	r2,4
   32950:	10a4e104 	addi	r2,r2,-27772
   32954:	10800017 	ldw	r2,0(r2)
      ALT_FLAG_POST (sp->events, ALT_JTAG_UART_TIMEOUT, OS_FLAG_SET);
    }
  }

  return alt_ticks_per_second();
}
   32958:	e037883a 	mov	sp,fp
   3295c:	df000017 	ldw	fp,0(sp)
   32960:	dec00104 	addi	sp,sp,4
   32964:	f800283a 	ret

00032968 <altera_avalon_jtag_uart_close>:
 * The close routine is not implemented for the small driver; instead it will
 * map to null. This is because the small driver simply waits while characters
 * are transmitted; there is no interrupt-serviced buffer to empty 
 */
int altera_avalon_jtag_uart_close(altera_avalon_jtag_uart_state* sp, int flags)
{
   32968:	defffd04 	addi	sp,sp,-12
   3296c:	df000215 	stw	fp,8(sp)
   32970:	df000204 	addi	fp,sp,8
   32974:	e13ffe15 	stw	r4,-8(fp)
   32978:	e17fff15 	stw	r5,-4(fp)
  /* 
   * Wait for all transmit data to be emptied by the JTAG UART ISR, or
   * for a host-inactivity timeout, in which case transmit data will be lost
   */
  while ( (sp->tx_out != sp->tx_in) && (sp->host_inactive < sp->timeout) ) {
   3297c:	00000506 	br	32994 <altera_avalon_jtag_uart_close+0x2c>
    if (flags & O_NONBLOCK) {
   32980:	e0bfff17 	ldw	r2,-4(fp)
   32984:	1090000c 	andi	r2,r2,16384
   32988:	10000226 	beq	r2,zero,32994 <altera_avalon_jtag_uart_close+0x2c>
      return -EWOULDBLOCK; 
   3298c:	00bffd44 	movi	r2,-11
   32990:	00000b06 	br	329c0 <altera_avalon_jtag_uart_close+0x58>
{
  /* 
   * Wait for all transmit data to be emptied by the JTAG UART ISR, or
   * for a host-inactivity timeout, in which case transmit data will be lost
   */
  while ( (sp->tx_out != sp->tx_in) && (sp->host_inactive < sp->timeout) ) {
   32994:	e0bffe17 	ldw	r2,-8(fp)
   32998:	10c00d17 	ldw	r3,52(r2)
   3299c:	e0bffe17 	ldw	r2,-8(fp)
   329a0:	10800c17 	ldw	r2,48(r2)
   329a4:	18800526 	beq	r3,r2,329bc <altera_avalon_jtag_uart_close+0x54>
   329a8:	e0bffe17 	ldw	r2,-8(fp)
   329ac:	10c00917 	ldw	r3,36(r2)
   329b0:	e0bffe17 	ldw	r2,-8(fp)
   329b4:	10800117 	ldw	r2,4(r2)
   329b8:	18bff136 	bltu	r3,r2,32980 <__alt_data_end+0xffff2980>
    if (flags & O_NONBLOCK) {
      return -EWOULDBLOCK; 
    }
  }

  return 0;
   329bc:	0005883a 	mov	r2,zero
}
   329c0:	e037883a 	mov	sp,fp
   329c4:	df000017 	ldw	fp,0(sp)
   329c8:	dec00104 	addi	sp,sp,4
   329cc:	f800283a 	ret

000329d0 <altera_avalon_jtag_uart_ioctl>:
/* ----------------------------------------------------------- */

int 
altera_avalon_jtag_uart_ioctl(altera_avalon_jtag_uart_state* sp, int req,
  void* arg)
{
   329d0:	defffa04 	addi	sp,sp,-24
   329d4:	df000515 	stw	fp,20(sp)
   329d8:	df000504 	addi	fp,sp,20
   329dc:	e13ffd15 	stw	r4,-12(fp)
   329e0:	e17ffe15 	stw	r5,-8(fp)
   329e4:	e1bfff15 	stw	r6,-4(fp)
  int rc = -ENOTTY;
   329e8:	00bff9c4 	movi	r2,-25
   329ec:	e0bffb15 	stw	r2,-20(fp)

  switch (req)
   329f0:	e0bffe17 	ldw	r2,-8(fp)
   329f4:	10da8060 	cmpeqi	r3,r2,27137
   329f8:	1800031e 	bne	r3,zero,32a08 <altera_avalon_jtag_uart_ioctl+0x38>
   329fc:	109a80a0 	cmpeqi	r2,r2,27138
   32a00:	1000191e 	bne	r2,zero,32a68 <altera_avalon_jtag_uart_ioctl+0x98>
      rc = 0;
    }
    break;

  default:
    break;
   32a04:	00002806 	br	32aa8 <altera_avalon_jtag_uart_ioctl+0xd8>

  switch (req)
  {
  case TIOCSTIMEOUT:
    /* Set the time to wait until assuming host is not connected */
    if (sp->timeout != INT_MAX)
   32a08:	e0bffd17 	ldw	r2,-12(fp)
   32a0c:	10c00117 	ldw	r3,4(r2)
   32a10:	00a00034 	movhi	r2,32768
   32a14:	10bfffc4 	addi	r2,r2,-1
   32a18:	18801226 	beq	r3,r2,32a64 <altera_avalon_jtag_uart_ioctl+0x94>
    {
      int timeout = *((int *)arg);
   32a1c:	e0bfff17 	ldw	r2,-4(fp)
   32a20:	10800017 	ldw	r2,0(r2)
   32a24:	e0bffc15 	stw	r2,-16(fp)
      sp->timeout = (timeout >= 2 && timeout < INT_MAX) ? timeout : INT_MAX - 1;
   32a28:	e0bffc17 	ldw	r2,-16(fp)
   32a2c:	10800090 	cmplti	r2,r2,2
   32a30:	1000061e 	bne	r2,zero,32a4c <altera_avalon_jtag_uart_ioctl+0x7c>
   32a34:	e0fffc17 	ldw	r3,-16(fp)
   32a38:	00a00034 	movhi	r2,32768
   32a3c:	10bfffc4 	addi	r2,r2,-1
   32a40:	18800226 	beq	r3,r2,32a4c <altera_avalon_jtag_uart_ioctl+0x7c>
   32a44:	e0bffc17 	ldw	r2,-16(fp)
   32a48:	00000206 	br	32a54 <altera_avalon_jtag_uart_ioctl+0x84>
   32a4c:	00a00034 	movhi	r2,32768
   32a50:	10bfff84 	addi	r2,r2,-2
   32a54:	e0fffd17 	ldw	r3,-12(fp)
   32a58:	18800115 	stw	r2,4(r3)
      rc = 0;
   32a5c:	e03ffb15 	stw	zero,-20(fp)
    }
    break;
   32a60:	00001106 	br	32aa8 <altera_avalon_jtag_uart_ioctl+0xd8>
   32a64:	00001006 	br	32aa8 <altera_avalon_jtag_uart_ioctl+0xd8>

  case TIOCGCONNECTED:
    /* Find out whether host is connected */
    if (sp->timeout != INT_MAX)
   32a68:	e0bffd17 	ldw	r2,-12(fp)
   32a6c:	10c00117 	ldw	r3,4(r2)
   32a70:	00a00034 	movhi	r2,32768
   32a74:	10bfffc4 	addi	r2,r2,-1
   32a78:	18800a26 	beq	r3,r2,32aa4 <altera_avalon_jtag_uart_ioctl+0xd4>
    {
      *((int *)arg) = (sp->host_inactive < sp->timeout) ? 1 : 0;
   32a7c:	e0bffd17 	ldw	r2,-12(fp)
   32a80:	10c00917 	ldw	r3,36(r2)
   32a84:	e0bffd17 	ldw	r2,-12(fp)
   32a88:	10800117 	ldw	r2,4(r2)
   32a8c:	1885803a 	cmpltu	r2,r3,r2
   32a90:	10c03fcc 	andi	r3,r2,255
   32a94:	e0bfff17 	ldw	r2,-4(fp)
   32a98:	10c00015 	stw	r3,0(r2)
      rc = 0;
   32a9c:	e03ffb15 	stw	zero,-20(fp)
    }
    break;
   32aa0:	00000006 	br	32aa4 <altera_avalon_jtag_uart_ioctl+0xd4>
   32aa4:	0001883a 	nop

  default:
    break;
  }

  return rc;
   32aa8:	e0bffb17 	ldw	r2,-20(fp)
}
   32aac:	e037883a 	mov	sp,fp
   32ab0:	df000017 	ldw	fp,0(sp)
   32ab4:	dec00104 	addi	sp,sp,4
   32ab8:	f800283a 	ret

00032abc <altera_avalon_jtag_uart_read>:
/* ----------------------------------------------------------- */

int 
altera_avalon_jtag_uart_read(altera_avalon_jtag_uart_state* sp, 
  char * buffer, int space, int flags)
{
   32abc:	defff304 	addi	sp,sp,-52
   32ac0:	dfc00c15 	stw	ra,48(sp)
   32ac4:	df000b15 	stw	fp,44(sp)
   32ac8:	df000b04 	addi	fp,sp,44
   32acc:	e13ffc15 	stw	r4,-16(fp)
   32ad0:	e17ffd15 	stw	r5,-12(fp)
   32ad4:	e1bffe15 	stw	r6,-8(fp)
   32ad8:	e1ffff15 	stw	r7,-4(fp)
  char * ptr = buffer;
   32adc:	e0bffd17 	ldw	r2,-12(fp)
   32ae0:	e0bff515 	stw	r2,-44(fp)
   * When running in a multi threaded environment, obtain the "read_lock"
   * semaphore. This ensures that reading from the device is thread-safe.
   */
  ALT_SEM_PEND (sp->read_lock, 0);

  while (space > 0)
   32ae4:	00004906 	br	32c0c <altera_avalon_jtag_uart_read+0x150>
    unsigned int in, out;

    /* Read as much data as possible */
    do
    {
      in  = sp->rx_in;
   32ae8:	e0bffc17 	ldw	r2,-16(fp)
   32aec:	10800a17 	ldw	r2,40(r2)
   32af0:	e0bff715 	stw	r2,-36(fp)
      out = sp->rx_out;
   32af4:	e0bffc17 	ldw	r2,-16(fp)
   32af8:	10800b17 	ldw	r2,44(r2)
   32afc:	e0bff815 	stw	r2,-32(fp)

      if (in >= out)
   32b00:	e0fff717 	ldw	r3,-36(fp)
   32b04:	e0bff817 	ldw	r2,-32(fp)
   32b08:	18800536 	bltu	r3,r2,32b20 <altera_avalon_jtag_uart_read+0x64>
        n = in - out;
   32b0c:	e0fff717 	ldw	r3,-36(fp)
   32b10:	e0bff817 	ldw	r2,-32(fp)
   32b14:	1885c83a 	sub	r2,r3,r2
   32b18:	e0bff615 	stw	r2,-40(fp)
   32b1c:	00000406 	br	32b30 <altera_avalon_jtag_uart_read+0x74>
      else
        n = ALTERA_AVALON_JTAG_UART_BUF_LEN - out;
   32b20:	00c20004 	movi	r3,2048
   32b24:	e0bff817 	ldw	r2,-32(fp)
   32b28:	1885c83a 	sub	r2,r3,r2
   32b2c:	e0bff615 	stw	r2,-40(fp)

      if (n == 0)
   32b30:	e0bff617 	ldw	r2,-40(fp)
   32b34:	1000011e 	bne	r2,zero,32b3c <altera_avalon_jtag_uart_read+0x80>
        break; /* No more data available */
   32b38:	00001d06 	br	32bb0 <altera_avalon_jtag_uart_read+0xf4>

      if (n > space)
   32b3c:	e0fffe17 	ldw	r3,-8(fp)
   32b40:	e0bff617 	ldw	r2,-40(fp)
   32b44:	1880022e 	bgeu	r3,r2,32b50 <altera_avalon_jtag_uart_read+0x94>
        n = space;
   32b48:	e0bffe17 	ldw	r2,-8(fp)
   32b4c:	e0bff615 	stw	r2,-40(fp)

      memcpy(ptr, sp->rx_buf + out, n);
   32b50:	e0bff817 	ldw	r2,-32(fp)
   32b54:	10800e04 	addi	r2,r2,56
   32b58:	e0fffc17 	ldw	r3,-16(fp)
   32b5c:	1885883a 	add	r2,r3,r2
   32b60:	e13ff517 	ldw	r4,-44(fp)
   32b64:	100b883a 	mov	r5,r2
   32b68:	e1bff617 	ldw	r6,-40(fp)
   32b6c:	002ae240 	call	2ae24 <memcpy>
      ptr   += n;
   32b70:	e0fff517 	ldw	r3,-44(fp)
   32b74:	e0bff617 	ldw	r2,-40(fp)
   32b78:	1885883a 	add	r2,r3,r2
   32b7c:	e0bff515 	stw	r2,-44(fp)
      space -= n;
   32b80:	e0fffe17 	ldw	r3,-8(fp)
   32b84:	e0bff617 	ldw	r2,-40(fp)
   32b88:	1885c83a 	sub	r2,r3,r2
   32b8c:	e0bffe15 	stw	r2,-8(fp)

      sp->rx_out = (out + n) % ALTERA_AVALON_JTAG_UART_BUF_LEN;
   32b90:	e0fff817 	ldw	r3,-32(fp)
   32b94:	e0bff617 	ldw	r2,-40(fp)
   32b98:	1885883a 	add	r2,r3,r2
   32b9c:	10c1ffcc 	andi	r3,r2,2047
   32ba0:	e0bffc17 	ldw	r2,-16(fp)
   32ba4:	10c00b15 	stw	r3,44(r2)
    }
    while (space > 0);
   32ba8:	e0bffe17 	ldw	r2,-8(fp)
   32bac:	00bfce16 	blt	zero,r2,32ae8 <__alt_data_end+0xffff2ae8>

    /* If we read any data then return it */
    if (ptr != buffer)
   32bb0:	e0fff517 	ldw	r3,-44(fp)
   32bb4:	e0bffd17 	ldw	r2,-12(fp)
   32bb8:	18800126 	beq	r3,r2,32bc0 <altera_avalon_jtag_uart_read+0x104>
      break;
   32bbc:	00001506 	br	32c14 <altera_avalon_jtag_uart_read+0x158>

    /* If in non-blocking mode then return error */
    if (flags & O_NONBLOCK)
   32bc0:	e0bfff17 	ldw	r2,-4(fp)
   32bc4:	1090000c 	andi	r2,r2,16384
   32bc8:	10000126 	beq	r2,zero,32bd0 <altera_avalon_jtag_uart_read+0x114>
      break;
   32bcc:	00001106 	br	32c14 <altera_avalon_jtag_uart_read+0x158>
      while (in == sp->rx_in && sp->host_inactive < sp->timeout)
        ;
    }
#else
    /* No OS: Always spin */
    while (in == sp->rx_in && sp->host_inactive < sp->timeout)
   32bd0:	0001883a 	nop
   32bd4:	e0bffc17 	ldw	r2,-16(fp)
   32bd8:	10c00a17 	ldw	r3,40(r2)
   32bdc:	e0bff717 	ldw	r2,-36(fp)
   32be0:	1880051e 	bne	r3,r2,32bf8 <altera_avalon_jtag_uart_read+0x13c>
   32be4:	e0bffc17 	ldw	r2,-16(fp)
   32be8:	10c00917 	ldw	r3,36(r2)
   32bec:	e0bffc17 	ldw	r2,-16(fp)
   32bf0:	10800117 	ldw	r2,4(r2)
   32bf4:	18bff736 	bltu	r3,r2,32bd4 <__alt_data_end+0xffff2bd4>
      ;
#endif /* __ucosii__ */

    if (in == sp->rx_in)
   32bf8:	e0bffc17 	ldw	r2,-16(fp)
   32bfc:	10c00a17 	ldw	r3,40(r2)
   32c00:	e0bff717 	ldw	r2,-36(fp)
   32c04:	1880011e 	bne	r3,r2,32c0c <altera_avalon_jtag_uart_read+0x150>
      break;
   32c08:	00000206 	br	32c14 <altera_avalon_jtag_uart_read+0x158>
   * When running in a multi threaded environment, obtain the "read_lock"
   * semaphore. This ensures that reading from the device is thread-safe.
   */
  ALT_SEM_PEND (sp->read_lock, 0);

  while (space > 0)
   32c0c:	e0bffe17 	ldw	r2,-8(fp)
   32c10:	00bfb516 	blt	zero,r2,32ae8 <__alt_data_end+0xffff2ae8>
   * semaphore so that other threads can access the buffer.
   */

  ALT_SEM_POST (sp->read_lock);

  if (ptr != buffer)
   32c14:	e0fff517 	ldw	r3,-44(fp)
   32c18:	e0bffd17 	ldw	r2,-12(fp)
   32c1c:	18801826 	beq	r3,r2,32c80 <altera_avalon_jtag_uart_read+0x1c4>
static ALT_INLINE alt_irq_context ALT_ALWAYS_INLINE 
       alt_irq_disable_all (void)
{
  alt_irq_context context;

  NIOS2_READ_STATUS (context);
   32c20:	0005303a 	rdctl	r2,status
   32c24:	e0bffa15 	stw	r2,-24(fp)

  NIOS2_WRITE_STATUS (context & ~NIOS2_STATUS_PIE_MSK);
   32c28:	e0fffa17 	ldw	r3,-24(fp)
   32c2c:	00bfff84 	movi	r2,-2
   32c30:	1884703a 	and	r2,r3,r2
   32c34:	1001703a 	wrctl	status,r2
  
  return context;
   32c38:	e0bffa17 	ldw	r2,-24(fp)
  {
    /* If we read any data then there is space in the buffer so enable interrupts */
    context = alt_irq_disable_all();
   32c3c:	e0bff915 	stw	r2,-28(fp)
    sp->irq_enable |= ALTERA_AVALON_JTAG_UART_CONTROL_RE_MSK;
   32c40:	e0bffc17 	ldw	r2,-16(fp)
   32c44:	10800817 	ldw	r2,32(r2)
   32c48:	10c00054 	ori	r3,r2,1
   32c4c:	e0bffc17 	ldw	r2,-16(fp)
   32c50:	10c00815 	stw	r3,32(r2)
    IOWR_ALTERA_AVALON_JTAG_UART_CONTROL(sp->base, sp->irq_enable);
   32c54:	e0bffc17 	ldw	r2,-16(fp)
   32c58:	10800017 	ldw	r2,0(r2)
   32c5c:	10800104 	addi	r2,r2,4
   32c60:	1007883a 	mov	r3,r2
   32c64:	e0bffc17 	ldw	r2,-16(fp)
   32c68:	10800817 	ldw	r2,32(r2)
   32c6c:	18800035 	stwio	r2,0(r3)
   32c70:	e0bff917 	ldw	r2,-28(fp)
   32c74:	e0bffb15 	stw	r2,-20(fp)
  status &= ~NIOS2_STATUS_PIE_MSK;
  status |= (context & NIOS2_STATUS_PIE_MSK);
  
  NIOS2_WRITE_STATUS (status);
#else
  NIOS2_WRITE_STATUS (context);
   32c78:	e0bffb17 	ldw	r2,-20(fp)
   32c7c:	1001703a 	wrctl	status,r2
    alt_irq_enable_all(context);
  }

  if (ptr != buffer)
   32c80:	e0fff517 	ldw	r3,-44(fp)
   32c84:	e0bffd17 	ldw	r2,-12(fp)
   32c88:	18800426 	beq	r3,r2,32c9c <altera_avalon_jtag_uart_read+0x1e0>
    return ptr - buffer;
   32c8c:	e0fff517 	ldw	r3,-44(fp)
   32c90:	e0bffd17 	ldw	r2,-12(fp)
   32c94:	1885c83a 	sub	r2,r3,r2
   32c98:	00000606 	br	32cb4 <altera_avalon_jtag_uart_read+0x1f8>
  else if (flags & O_NONBLOCK)
   32c9c:	e0bfff17 	ldw	r2,-4(fp)
   32ca0:	1090000c 	andi	r2,r2,16384
   32ca4:	10000226 	beq	r2,zero,32cb0 <altera_avalon_jtag_uart_read+0x1f4>
    return -EWOULDBLOCK;
   32ca8:	00bffd44 	movi	r2,-11
   32cac:	00000106 	br	32cb4 <altera_avalon_jtag_uart_read+0x1f8>
  else
    return -EIO;
   32cb0:	00bffec4 	movi	r2,-5
}
   32cb4:	e037883a 	mov	sp,fp
   32cb8:	dfc00117 	ldw	ra,4(sp)
   32cbc:	df000017 	ldw	fp,0(sp)
   32cc0:	dec00204 	addi	sp,sp,8
   32cc4:	f800283a 	ret

00032cc8 <altera_avalon_jtag_uart_write>:
/* ----------------------------------------------------------- */

int 
altera_avalon_jtag_uart_write(altera_avalon_jtag_uart_state* sp, 
  const char * ptr, int count, int flags)
{
   32cc8:	defff304 	addi	sp,sp,-52
   32ccc:	dfc00c15 	stw	ra,48(sp)
   32cd0:	df000b15 	stw	fp,44(sp)
   32cd4:	df000b04 	addi	fp,sp,44
   32cd8:	e13ffc15 	stw	r4,-16(fp)
   32cdc:	e17ffd15 	stw	r5,-12(fp)
   32ce0:	e1bffe15 	stw	r6,-8(fp)
   32ce4:	e1ffff15 	stw	r7,-4(fp)
  /* Remove warning at optimisation level 03 by seting out to 0 */
  unsigned int in, out=0;
   32ce8:	e03ff515 	stw	zero,-44(fp)
  unsigned int n;
  alt_irq_context context;

  const char * start = ptr;
   32cec:	e0bffd17 	ldw	r2,-12(fp)
   32cf0:	e0bff715 	stw	r2,-36(fp)
  ALT_SEM_PEND (sp->write_lock, 0);

  do
  {
    /* Copy as much as we can into the transmit buffer */
    while (count > 0)
   32cf4:	00003806 	br	32dd8 <altera_avalon_jtag_uart_write+0x110>
    {
      /* We need a stable value of the out pointer to calculate the space available */
      in  = sp->tx_in;
   32cf8:	e0bffc17 	ldw	r2,-16(fp)
   32cfc:	10800c17 	ldw	r2,48(r2)
   32d00:	e0bff815 	stw	r2,-32(fp)
      out = sp->tx_out;
   32d04:	e0bffc17 	ldw	r2,-16(fp)
   32d08:	10800d17 	ldw	r2,52(r2)
   32d0c:	e0bff515 	stw	r2,-44(fp)

      if (in < out)
   32d10:	e0fff817 	ldw	r3,-32(fp)
   32d14:	e0bff517 	ldw	r2,-44(fp)
   32d18:	1880062e 	bgeu	r3,r2,32d34 <altera_avalon_jtag_uart_write+0x6c>
        n = out - 1 - in;
   32d1c:	e0fff517 	ldw	r3,-44(fp)
   32d20:	e0bff817 	ldw	r2,-32(fp)
   32d24:	1885c83a 	sub	r2,r3,r2
   32d28:	10bfffc4 	addi	r2,r2,-1
   32d2c:	e0bff615 	stw	r2,-40(fp)
   32d30:	00000b06 	br	32d60 <altera_avalon_jtag_uart_write+0x98>
      else if (out > 0)
   32d34:	e0bff517 	ldw	r2,-44(fp)
   32d38:	10000526 	beq	r2,zero,32d50 <altera_avalon_jtag_uart_write+0x88>
        n = ALTERA_AVALON_JTAG_UART_BUF_LEN - in;
   32d3c:	00c20004 	movi	r3,2048
   32d40:	e0bff817 	ldw	r2,-32(fp)
   32d44:	1885c83a 	sub	r2,r3,r2
   32d48:	e0bff615 	stw	r2,-40(fp)
   32d4c:	00000406 	br	32d60 <altera_avalon_jtag_uart_write+0x98>
      else
        n = ALTERA_AVALON_JTAG_UART_BUF_LEN - 1 - in;
   32d50:	00c1ffc4 	movi	r3,2047
   32d54:	e0bff817 	ldw	r2,-32(fp)
   32d58:	1885c83a 	sub	r2,r3,r2
   32d5c:	e0bff615 	stw	r2,-40(fp)

      if (n == 0)
   32d60:	e0bff617 	ldw	r2,-40(fp)
   32d64:	1000011e 	bne	r2,zero,32d6c <altera_avalon_jtag_uart_write+0xa4>
        break;
   32d68:	00001d06 	br	32de0 <altera_avalon_jtag_uart_write+0x118>

      if (n > count)
   32d6c:	e0fffe17 	ldw	r3,-8(fp)
   32d70:	e0bff617 	ldw	r2,-40(fp)
   32d74:	1880022e 	bgeu	r3,r2,32d80 <altera_avalon_jtag_uart_write+0xb8>
        n = count;
   32d78:	e0bffe17 	ldw	r2,-8(fp)
   32d7c:	e0bff615 	stw	r2,-40(fp)

      memcpy(sp->tx_buf + in, ptr, n);
   32d80:	e0bff817 	ldw	r2,-32(fp)
   32d84:	10820e04 	addi	r2,r2,2104
   32d88:	e0fffc17 	ldw	r3,-16(fp)
   32d8c:	1885883a 	add	r2,r3,r2
   32d90:	1009883a 	mov	r4,r2
   32d94:	e17ffd17 	ldw	r5,-12(fp)
   32d98:	e1bff617 	ldw	r6,-40(fp)
   32d9c:	002ae240 	call	2ae24 <memcpy>
      ptr   += n;
   32da0:	e0fffd17 	ldw	r3,-12(fp)
   32da4:	e0bff617 	ldw	r2,-40(fp)
   32da8:	1885883a 	add	r2,r3,r2
   32dac:	e0bffd15 	stw	r2,-12(fp)
      count -= n;
   32db0:	e0fffe17 	ldw	r3,-8(fp)
   32db4:	e0bff617 	ldw	r2,-40(fp)
   32db8:	1885c83a 	sub	r2,r3,r2
   32dbc:	e0bffe15 	stw	r2,-8(fp)

      sp->tx_in = (in + n) % ALTERA_AVALON_JTAG_UART_BUF_LEN;
   32dc0:	e0fff817 	ldw	r3,-32(fp)
   32dc4:	e0bff617 	ldw	r2,-40(fp)
   32dc8:	1885883a 	add	r2,r3,r2
   32dcc:	10c1ffcc 	andi	r3,r2,2047
   32dd0:	e0bffc17 	ldw	r2,-16(fp)
   32dd4:	10c00c15 	stw	r3,48(r2)
  ALT_SEM_PEND (sp->write_lock, 0);

  do
  {
    /* Copy as much as we can into the transmit buffer */
    while (count > 0)
   32dd8:	e0bffe17 	ldw	r2,-8(fp)
   32ddc:	00bfc616 	blt	zero,r2,32cf8 <__alt_data_end+0xffff2cf8>
static ALT_INLINE alt_irq_context ALT_ALWAYS_INLINE 
       alt_irq_disable_all (void)
{
  alt_irq_context context;

  NIOS2_READ_STATUS (context);
   32de0:	0005303a 	rdctl	r2,status
   32de4:	e0bffa15 	stw	r2,-24(fp)

  NIOS2_WRITE_STATUS (context & ~NIOS2_STATUS_PIE_MSK);
   32de8:	e0fffa17 	ldw	r3,-24(fp)
   32dec:	00bfff84 	movi	r2,-2
   32df0:	1884703a 	and	r2,r3,r2
   32df4:	1001703a 	wrctl	status,r2
  
  return context;
   32df8:	e0bffa17 	ldw	r2,-24(fp)
     * to enable interrupts if there is no space left in the FIFO
     *
     * For now kick the interrupt routine every time to make it transmit 
     * the data 
     */
    context = alt_irq_disable_all();
   32dfc:	e0bff915 	stw	r2,-28(fp)
    sp->irq_enable |= ALTERA_AVALON_JTAG_UART_CONTROL_WE_MSK;
   32e00:	e0bffc17 	ldw	r2,-16(fp)
   32e04:	10800817 	ldw	r2,32(r2)
   32e08:	10c00094 	ori	r3,r2,2
   32e0c:	e0bffc17 	ldw	r2,-16(fp)
   32e10:	10c00815 	stw	r3,32(r2)
    IOWR_ALTERA_AVALON_JTAG_UART_CONTROL(sp->base, sp->irq_enable);
   32e14:	e0bffc17 	ldw	r2,-16(fp)
   32e18:	10800017 	ldw	r2,0(r2)
   32e1c:	10800104 	addi	r2,r2,4
   32e20:	1007883a 	mov	r3,r2
   32e24:	e0bffc17 	ldw	r2,-16(fp)
   32e28:	10800817 	ldw	r2,32(r2)
   32e2c:	18800035 	stwio	r2,0(r3)
   32e30:	e0bff917 	ldw	r2,-28(fp)
   32e34:	e0bffb15 	stw	r2,-20(fp)
  status &= ~NIOS2_STATUS_PIE_MSK;
  status |= (context & NIOS2_STATUS_PIE_MSK);
  
  NIOS2_WRITE_STATUS (status);
#else
  NIOS2_WRITE_STATUS (context);
   32e38:	e0bffb17 	ldw	r2,-20(fp)
   32e3c:	1001703a 	wrctl	status,r2
    /* 
     * If there is any data left then either return now or block until 
     * some has been sent 
     */
    /* consider: test whether there is anything there while doing this and delay for at most 2s. */
    if (count > 0)
   32e40:	e0bffe17 	ldw	r2,-8(fp)
   32e44:	0080120e 	bge	zero,r2,32e90 <altera_avalon_jtag_uart_write+0x1c8>
    {
      if (flags & O_NONBLOCK)
   32e48:	e0bfff17 	ldw	r2,-4(fp)
   32e4c:	1090000c 	andi	r2,r2,16384
   32e50:	10000126 	beq	r2,zero,32e58 <altera_avalon_jtag_uart_write+0x190>
        break;
   32e54:	00001006 	br	32e98 <altera_avalon_jtag_uart_write+0x1d0>
      /*
       * No OS present: Always wait for data to be removed from buffer.  Once
       * the interrupt routine has removed some data then we will be able to
       * insert some more.
       */
      while (out == sp->tx_out && sp->host_inactive < sp->timeout)
   32e58:	0001883a 	nop
   32e5c:	e0bffc17 	ldw	r2,-16(fp)
   32e60:	10c00d17 	ldw	r3,52(r2)
   32e64:	e0bff517 	ldw	r2,-44(fp)
   32e68:	1880051e 	bne	r3,r2,32e80 <altera_avalon_jtag_uart_write+0x1b8>
   32e6c:	e0bffc17 	ldw	r2,-16(fp)
   32e70:	10c00917 	ldw	r3,36(r2)
   32e74:	e0bffc17 	ldw	r2,-16(fp)
   32e78:	10800117 	ldw	r2,4(r2)
   32e7c:	18bff736 	bltu	r3,r2,32e5c <__alt_data_end+0xffff2e5c>
        ;
#endif /* __ucosii__ */

      if  (sp->host_inactive)
   32e80:	e0bffc17 	ldw	r2,-16(fp)
   32e84:	10800917 	ldw	r2,36(r2)
   32e88:	10000126 	beq	r2,zero,32e90 <altera_avalon_jtag_uart_write+0x1c8>
         break;
   32e8c:	00000206 	br	32e98 <altera_avalon_jtag_uart_write+0x1d0>
    }
  }
  while (count > 0);
   32e90:	e0bffe17 	ldw	r2,-8(fp)
   32e94:	00bf9716 	blt	zero,r2,32cf4 <__alt_data_end+0xffff2cf4>
   * Now that access to the circular buffer is complete, release the write
   * semaphore so that other threads can access the buffer.
   */
  ALT_SEM_POST (sp->write_lock);

  if (ptr != start)
   32e98:	e0fffd17 	ldw	r3,-12(fp)
   32e9c:	e0bff717 	ldw	r2,-36(fp)
   32ea0:	18800426 	beq	r3,r2,32eb4 <altera_avalon_jtag_uart_write+0x1ec>
    return ptr - start;
   32ea4:	e0fffd17 	ldw	r3,-12(fp)
   32ea8:	e0bff717 	ldw	r2,-36(fp)
   32eac:	1885c83a 	sub	r2,r3,r2
   32eb0:	00000606 	br	32ecc <altera_avalon_jtag_uart_write+0x204>
  else if (flags & O_NONBLOCK)
   32eb4:	e0bfff17 	ldw	r2,-4(fp)
   32eb8:	1090000c 	andi	r2,r2,16384
   32ebc:	10000226 	beq	r2,zero,32ec8 <altera_avalon_jtag_uart_write+0x200>
    return -EWOULDBLOCK;
   32ec0:	00bffd44 	movi	r2,-11
   32ec4:	00000106 	br	32ecc <altera_avalon_jtag_uart_write+0x204>
    sp->tx_out = sp->tx_in = 0;
    return ptr - start + count;
  }
#endif
  else
    return -EIO; /* Host not connected */
   32ec8:	00bffec4 	movi	r2,-5
}
   32ecc:	e037883a 	mov	sp,fp
   32ed0:	dfc00117 	ldw	ra,4(sp)
   32ed4:	df000017 	ldw	fp,0(sp)
   32ed8:	dec00204 	addi	sp,sp,8
   32edc:	f800283a 	ret

00032ee0 <alt_avalon_timer_sc_irq>:
#ifdef ALT_ENHANCED_INTERRUPT_API_PRESENT
static void alt_avalon_timer_sc_irq (void* base)
#else
static void alt_avalon_timer_sc_irq (void* base, alt_u32 id)
#endif
{
   32ee0:	defffa04 	addi	sp,sp,-24
   32ee4:	dfc00515 	stw	ra,20(sp)
   32ee8:	df000415 	stw	fp,16(sp)
   32eec:	df000404 	addi	fp,sp,16
   32ef0:	e13fff15 	stw	r4,-4(fp)
  alt_irq_context cpu_sr;
  
  /* clear the interrupt */
  IOWR_ALTERA_AVALON_TIMER_STATUS (base, 0);
   32ef4:	0007883a 	mov	r3,zero
   32ef8:	e0bfff17 	ldw	r2,-4(fp)
   32efc:	10c00035 	stwio	r3,0(r2)
  /* 
   * Dummy read to ensure IRQ is negated before the ISR returns.
   * The control register is read because reading the status
   * register has side-effects per the register map documentation.
   */
  IORD_ALTERA_AVALON_TIMER_CONTROL (base);
   32f00:	e0bfff17 	ldw	r2,-4(fp)
   32f04:	10800104 	addi	r2,r2,4
   32f08:	10800037 	ldwio	r2,0(r2)
static ALT_INLINE alt_irq_context ALT_ALWAYS_INLINE 
       alt_irq_disable_all (void)
{
  alt_irq_context context;

  NIOS2_READ_STATUS (context);
   32f0c:	0005303a 	rdctl	r2,status
   32f10:	e0bffd15 	stw	r2,-12(fp)

  NIOS2_WRITE_STATUS (context & ~NIOS2_STATUS_PIE_MSK);
   32f14:	e0fffd17 	ldw	r3,-12(fp)
   32f18:	00bfff84 	movi	r2,-2
   32f1c:	1884703a 	and	r2,r3,r2
   32f20:	1001703a 	wrctl	status,r2
  
  return context;
   32f24:	e0bffd17 	ldw	r2,-12(fp)

  /* 
   * Notify the system of a clock tick. disable interrupts 
   * during this time to safely support ISR preemption
   */
  cpu_sr = alt_irq_disable_all();
   32f28:	e0bffc15 	stw	r2,-16(fp)
  alt_tick ();
   32f2c:	003214c0 	call	3214c <alt_tick>
   32f30:	e0bffc17 	ldw	r2,-16(fp)
   32f34:	e0bffe15 	stw	r2,-8(fp)
  status &= ~NIOS2_STATUS_PIE_MSK;
  status |= (context & NIOS2_STATUS_PIE_MSK);
  
  NIOS2_WRITE_STATUS (status);
#else
  NIOS2_WRITE_STATUS (context);
   32f38:	e0bffe17 	ldw	r2,-8(fp)
   32f3c:	1001703a 	wrctl	status,r2
  alt_irq_enable_all(cpu_sr);
}
   32f40:	e037883a 	mov	sp,fp
   32f44:	dfc00117 	ldw	ra,4(sp)
   32f48:	df000017 	ldw	fp,0(sp)
   32f4c:	dec00204 	addi	sp,sp,8
   32f50:	f800283a 	ret

00032f54 <alt_avalon_timer_sc_init>:
 * auto-generated alt_sys_init() function.
 */

void alt_avalon_timer_sc_init (void* base, alt_u32 irq_controller_id, 
                                alt_u32 irq, alt_u32 freq)
{
   32f54:	defff804 	addi	sp,sp,-32
   32f58:	dfc00715 	stw	ra,28(sp)
   32f5c:	df000615 	stw	fp,24(sp)
   32f60:	df000604 	addi	fp,sp,24
   32f64:	e13ffc15 	stw	r4,-16(fp)
   32f68:	e17ffd15 	stw	r5,-12(fp)
   32f6c:	e1bffe15 	stw	r6,-8(fp)
   32f70:	e1ffff15 	stw	r7,-4(fp)
   32f74:	e0bfff17 	ldw	r2,-4(fp)
   32f78:	e0bffb15 	stw	r2,-20(fp)
 * in order to initialise the value of the clock frequency.
 */

static ALT_INLINE int ALT_ALWAYS_INLINE alt_sysclk_init (alt_u32 nticks)
{
  if (! _alt_tick_rate)
   32f7c:	00800134 	movhi	r2,4
   32f80:	10a4e104 	addi	r2,r2,-27772
   32f84:	10800017 	ldw	r2,0(r2)
   32f88:	1000041e 	bne	r2,zero,32f9c <alt_avalon_timer_sc_init+0x48>
  {
    _alt_tick_rate = nticks;
   32f8c:	00800134 	movhi	r2,4
   32f90:	10a4e104 	addi	r2,r2,-27772
   32f94:	e0fffb17 	ldw	r3,-20(fp)
   32f98:	10c00015 	stw	r3,0(r2)
  
  alt_sysclk_init (freq);
  
  /* set to free running mode */
  
  IOWR_ALTERA_AVALON_TIMER_CONTROL (base, 
   32f9c:	e0bffc17 	ldw	r2,-16(fp)
   32fa0:	10800104 	addi	r2,r2,4
   32fa4:	00c001c4 	movi	r3,7
   32fa8:	10c00035 	stwio	r3,0(r2)
            ALTERA_AVALON_TIMER_CONTROL_CONT_MSK |
            ALTERA_AVALON_TIMER_CONTROL_START_MSK);

  /* register the interrupt handler, and enable the interrupt */
#ifdef ALT_ENHANCED_INTERRUPT_API_PRESENT
  alt_ic_isr_register(irq_controller_id, irq, alt_avalon_timer_sc_irq, 
   32fac:	d8000015 	stw	zero,0(sp)
   32fb0:	e13ffd17 	ldw	r4,-12(fp)
   32fb4:	e17ffe17 	ldw	r5,-8(fp)
   32fb8:	018000f4 	movhi	r6,3
   32fbc:	318bb804 	addi	r6,r6,12000
   32fc0:	e1fffc17 	ldw	r7,-16(fp)
   32fc4:	00334940 	call	33494 <alt_ic_isr_register>
                      base, NULL);
#else
  alt_irq_register (irq, base, alt_avalon_timer_sc_irq);
#endif  
}
   32fc8:	e037883a 	mov	sp,fp
   32fcc:	dfc00117 	ldw	ra,4(sp)
   32fd0:	df000017 	ldw	fp,0(sp)
   32fd4:	dec00204 	addi	sp,sp,8
   32fd8:	f800283a 	ret

00032fdc <alt_alarm_start>:
 */ 

int alt_alarm_start (alt_alarm* alarm, alt_u32 nticks,
                     alt_u32 (*callback) (void* context),
                     void* context)
{
   32fdc:	defff504 	addi	sp,sp,-44
   32fe0:	df000a15 	stw	fp,40(sp)
   32fe4:	df000a04 	addi	fp,sp,40
   32fe8:	e13ffc15 	stw	r4,-16(fp)
   32fec:	e17ffd15 	stw	r5,-12(fp)
   32ff0:	e1bffe15 	stw	r6,-8(fp)
   32ff4:	e1ffff15 	stw	r7,-4(fp)
  alt_irq_context irq_context;
  alt_u32 current_nticks = 0;
   32ff8:	e03ff615 	stw	zero,-40(fp)
 * Obtain the system clock rate in ticks/s. 
 */

static ALT_INLINE alt_u32 ALT_ALWAYS_INLINE alt_ticks_per_second (void)
{
  return _alt_tick_rate;
   32ffc:	00800134 	movhi	r2,4
   33000:	10a4e104 	addi	r2,r2,-27772
   33004:	10800017 	ldw	r2,0(r2)
  
  if (alt_ticks_per_second ())
   33008:	10003f26 	beq	r2,zero,33108 <alt_alarm_start+0x12c>
  {
    if (alarm)
   3300c:	e0bffc17 	ldw	r2,-16(fp)
   33010:	10003b26 	beq	r2,zero,33100 <alt_alarm_start+0x124>
    {
      alarm->callback = callback;
   33014:	e0bffc17 	ldw	r2,-16(fp)
   33018:	e0fffe17 	ldw	r3,-8(fp)
   3301c:	10c00315 	stw	r3,12(r2)
      alarm->context  = context;
   33020:	e0bffc17 	ldw	r2,-16(fp)
   33024:	e0ffff17 	ldw	r3,-4(fp)
   33028:	10c00515 	stw	r3,20(r2)
static ALT_INLINE alt_irq_context ALT_ALWAYS_INLINE 
       alt_irq_disable_all (void)
{
  alt_irq_context context;

  NIOS2_READ_STATUS (context);
   3302c:	0005303a 	rdctl	r2,status
   33030:	e0bff815 	stw	r2,-32(fp)

  NIOS2_WRITE_STATUS (context & ~NIOS2_STATUS_PIE_MSK);
   33034:	e0fff817 	ldw	r3,-32(fp)
   33038:	00bfff84 	movi	r2,-2
   3303c:	1884703a 	and	r2,r3,r2
   33040:	1001703a 	wrctl	status,r2
  
  return context;
   33044:	e0bff817 	ldw	r2,-32(fp)
 
      irq_context = alt_irq_disable_all ();
   33048:	e0bff715 	stw	r2,-36(fp)
 * alt_nticks() returns the elapsed number of system clock ticks since reset.
 */

static ALT_INLINE alt_u32 ALT_ALWAYS_INLINE alt_nticks (void)
{
  return _alt_nticks;
   3304c:	00800134 	movhi	r2,4
   33050:	10a4e204 	addi	r2,r2,-27768
   33054:	10800017 	ldw	r2,0(r2)
      
      current_nticks = alt_nticks();
   33058:	e0bff615 	stw	r2,-40(fp)
      
      alarm->time = nticks + current_nticks + 1; 
   3305c:	e0fffd17 	ldw	r3,-12(fp)
   33060:	e0bff617 	ldw	r2,-40(fp)
   33064:	1885883a 	add	r2,r3,r2
   33068:	10c00044 	addi	r3,r2,1
   3306c:	e0bffc17 	ldw	r2,-16(fp)
   33070:	10c00215 	stw	r3,8(r2)
      /* 
       * If the desired alarm time causes a roll-over, set the rollover
       * flag. This will prevent the subsequent tick event from causing
       * an alarm too early.
       */
      if(alarm->time < current_nticks)
   33074:	e0bffc17 	ldw	r2,-16(fp)
   33078:	10c00217 	ldw	r3,8(r2)
   3307c:	e0bff617 	ldw	r2,-40(fp)
   33080:	1880042e 	bgeu	r3,r2,33094 <alt_alarm_start+0xb8>
      {
        alarm->rollover = 1;
   33084:	e0bffc17 	ldw	r2,-16(fp)
   33088:	00c00044 	movi	r3,1
   3308c:	10c00405 	stb	r3,16(r2)
   33090:	00000206 	br	3309c <alt_alarm_start+0xc0>
      }
      else
      {
        alarm->rollover = 0;
   33094:	e0bffc17 	ldw	r2,-16(fp)
   33098:	10000405 	stb	zero,16(r2)
      }
    
      alt_llist_insert (&alt_alarm_list, &alarm->llist);
   3309c:	e0fffc17 	ldw	r3,-16(fp)
   330a0:	008000f4 	movhi	r2,3
   330a4:	109c3004 	addi	r2,r2,28864
   330a8:	e0bff915 	stw	r2,-28(fp)
   330ac:	e0fffa15 	stw	r3,-24(fp)
 */

static ALT_INLINE void ALT_ALWAYS_INLINE alt_llist_insert(alt_llist* list, 
                alt_llist* entry)
{
  entry->previous = list;
   330b0:	e0bffa17 	ldw	r2,-24(fp)
   330b4:	e0fff917 	ldw	r3,-28(fp)
   330b8:	10c00115 	stw	r3,4(r2)
  entry->next     = list->next;
   330bc:	e0bff917 	ldw	r2,-28(fp)
   330c0:	10c00017 	ldw	r3,0(r2)
   330c4:	e0bffa17 	ldw	r2,-24(fp)
   330c8:	10c00015 	stw	r3,0(r2)

  list->next->previous = entry;
   330cc:	e0bff917 	ldw	r2,-28(fp)
   330d0:	10800017 	ldw	r2,0(r2)
   330d4:	e0fffa17 	ldw	r3,-24(fp)
   330d8:	10c00115 	stw	r3,4(r2)
  list->next           = entry;
   330dc:	e0bff917 	ldw	r2,-28(fp)
   330e0:	e0fffa17 	ldw	r3,-24(fp)
   330e4:	10c00015 	stw	r3,0(r2)
   330e8:	e0bff717 	ldw	r2,-36(fp)
   330ec:	e0bffb15 	stw	r2,-20(fp)
  status &= ~NIOS2_STATUS_PIE_MSK;
  status |= (context & NIOS2_STATUS_PIE_MSK);
  
  NIOS2_WRITE_STATUS (status);
#else
  NIOS2_WRITE_STATUS (context);
   330f0:	e0bffb17 	ldw	r2,-20(fp)
   330f4:	1001703a 	wrctl	status,r2
      alt_irq_enable_all (irq_context);

      return 0;
   330f8:	0005883a 	mov	r2,zero
   330fc:	00000306 	br	3310c <alt_alarm_start+0x130>
    }
    else
    {
      return -EINVAL;
   33100:	00bffa84 	movi	r2,-22
   33104:	00000106 	br	3310c <alt_alarm_start+0x130>
    }
  }
  else
  {
    return -ENOTSUP;
   33108:	00bfde84 	movi	r2,-134
  }
}
   3310c:	e037883a 	mov	sp,fp
   33110:	df000017 	ldw	fp,0(sp)
   33114:	dec00104 	addi	sp,sp,4
   33118:	f800283a 	ret

0003311c <alt_busy_sleep>:
#include "alt_types.h"

#include "priv/alt_busy_sleep.h"

unsigned int alt_busy_sleep (unsigned int us)
{
   3311c:	defffa04 	addi	sp,sp,-24
   33120:	dfc00515 	stw	ra,20(sp)
   33124:	df000415 	stw	fp,16(sp)
   33128:	df000404 	addi	fp,sp,16
   3312c:	e13fff15 	stw	r4,-4(fp)
  {
    cycles_per_loop = 9;
  }
  else  
  {
    cycles_per_loop = 3;
   33130:	008000c4 	movi	r2,3
   33134:	e0bffd15 	stw	r2,-12(fp)
  }
  

  big_loops = us / (INT_MAX/
  (ALT_CPU_FREQ/(cycles_per_loop * 1000000)));
   33138:	e0fffd17 	ldw	r3,-12(fp)
   3313c:	008003f4 	movhi	r2,15
   33140:	10909004 	addi	r2,r2,16960
   33144:	1885383a 	mul	r2,r3,r2
   33148:	01017db4 	movhi	r4,1526
   3314c:	21384004 	addi	r4,r4,-7936
   33150:	100b883a 	mov	r5,r2
   33154:	0023ea00 	call	23ea0 <__udivsi3>
  {
    cycles_per_loop = 3;
  }
  

  big_loops = us / (INT_MAX/
   33158:	01200034 	movhi	r4,32768
   3315c:	213fffc4 	addi	r4,r4,-1
   33160:	100b883a 	mov	r5,r2
   33164:	0023ea00 	call	23ea0 <__udivsi3>
   33168:	e13fff17 	ldw	r4,-4(fp)
   3316c:	100b883a 	mov	r5,r2
   33170:	0023ea00 	call	23ea0 <__udivsi3>
   33174:	e0bffe15 	stw	r2,-8(fp)
  (ALT_CPU_FREQ/(cycles_per_loop * 1000000)));

  if (big_loops)
   33178:	e0bffe17 	ldw	r2,-8(fp)
   3317c:	10002a26 	beq	r2,zero,33228 <alt_busy_sleep+0x10c>
  {
    for(i=0;i<big_loops;i++)
   33180:	e03ffc15 	stw	zero,-16(fp)
   33184:	00001706 	br	331e4 <alt_busy_sleep+0xc8>
      /*
      * Do NOT Try to single step the asm statement below 
      * (single step will never return)
      * Step out of this function or set a breakpoint after the asm statements
      */
      __asm__ volatile (
   33188:	00a00034 	movhi	r2,32768
   3318c:	10bfffc4 	addi	r2,r2,-1
   33190:	10bfffc4 	addi	r2,r2,-1
   33194:	103ffe1e 	bne	r2,zero,33190 <__alt_data_end+0xffff3190>
        "\n\t.pushsection .debug_alt_sim_info"
        "\n\t.int 4, 0, 0b, 1b"
        "\n\t.popsection"
        :: "r" (INT_MAX));
      us -= (INT_MAX/(ALT_CPU_FREQ/
      (cycles_per_loop * 1000000)));
   33198:	e0fffd17 	ldw	r3,-12(fp)
   3319c:	008003f4 	movhi	r2,15
   331a0:	10909004 	addi	r2,r2,16960
   331a4:	1885383a 	mul	r2,r3,r2
        "\n1:"
        "\n\t.pushsection .debug_alt_sim_info"
        "\n\t.int 4, 0, 0b, 1b"
        "\n\t.popsection"
        :: "r" (INT_MAX));
      us -= (INT_MAX/(ALT_CPU_FREQ/
   331a8:	01017db4 	movhi	r4,1526
   331ac:	21384004 	addi	r4,r4,-7936
   331b0:	100b883a 	mov	r5,r2
   331b4:	0023ea00 	call	23ea0 <__udivsi3>
   331b8:	01200034 	movhi	r4,32768
   331bc:	213fffc4 	addi	r4,r4,-1
   331c0:	100b883a 	mov	r5,r2
   331c4:	0023ea00 	call	23ea0 <__udivsi3>
   331c8:	1007883a 	mov	r3,r2
   331cc:	e0bfff17 	ldw	r2,-4(fp)
   331d0:	10c5c83a 	sub	r2,r2,r3
   331d4:	e0bfff15 	stw	r2,-4(fp)
  big_loops = us / (INT_MAX/
  (ALT_CPU_FREQ/(cycles_per_loop * 1000000)));

  if (big_loops)
  {
    for(i=0;i<big_loops;i++)
   331d8:	e0bffc17 	ldw	r2,-16(fp)
   331dc:	10800044 	addi	r2,r2,1
   331e0:	e0bffc15 	stw	r2,-16(fp)
   331e4:	e0fffc17 	ldw	r3,-16(fp)
   331e8:	e0bffe17 	ldw	r2,-8(fp)
   331ec:	18bfe616 	blt	r3,r2,33188 <__alt_data_end+0xffff3188>
      "\n\tbne %0,zero,0b"
      "\n1:"
      "\n\t.pushsection .debug_alt_sim_info"
      "\n\t.int 4, 0, 0b, 1b"
      "\n\t.popsection"
      :: "r" (us*(ALT_CPU_FREQ/(cycles_per_loop * 1000000))));
   331f0:	e0fffd17 	ldw	r3,-12(fp)
   331f4:	008003f4 	movhi	r2,15
   331f8:	10909004 	addi	r2,r2,16960
   331fc:	1885383a 	mul	r2,r3,r2
   33200:	01017db4 	movhi	r4,1526
   33204:	21384004 	addi	r4,r4,-7936
   33208:	100b883a 	mov	r5,r2
   3320c:	0023ea00 	call	23ea0 <__udivsi3>
   33210:	1007883a 	mov	r3,r2
   33214:	e0bfff17 	ldw	r2,-4(fp)
   33218:	1885383a 	mul	r2,r3,r2
    /*
    * Do NOT Try to single step the asm statement below 
    * (single step will never return)
    * Step out of this function or set a breakpoint after the asm statements
    */
    __asm__ volatile (
   3321c:	10bfffc4 	addi	r2,r2,-1
   33220:	103ffe1e 	bne	r2,zero,3321c <__alt_data_end+0xffff321c>
   33224:	00000d06 	br	3325c <alt_busy_sleep+0x140>
      "\n\tbgt %0,zero,0b"
      "\n1:"
      "\n\t.pushsection .debug_alt_sim_info"
      "\n\t.int 4, 0, 0b, 1b"
      "\n\t.popsection"
      :: "r" (us*(ALT_CPU_FREQ/(cycles_per_loop * 1000000))));
   33228:	e0fffd17 	ldw	r3,-12(fp)
   3322c:	008003f4 	movhi	r2,15
   33230:	10909004 	addi	r2,r2,16960
   33234:	1885383a 	mul	r2,r3,r2
   33238:	01017db4 	movhi	r4,1526
   3323c:	21384004 	addi	r4,r4,-7936
   33240:	100b883a 	mov	r5,r2
   33244:	0023ea00 	call	23ea0 <__udivsi3>
   33248:	1007883a 	mov	r3,r2
   3324c:	e0bfff17 	ldw	r2,-4(fp)
   33250:	1885383a 	mul	r2,r3,r2
    /*
    * Do NOT Try to single step the asm statement below 
    * (single step will never return)
    * Step out of this function or set a breakpoint after the asm statements
    */
    __asm__ volatile (
   33254:	10bfffc4 	addi	r2,r2,-1
   33258:	00bffe16 	blt	zero,r2,33254 <__alt_data_end+0xffff3254>
      "\n\t.int 4, 0, 0b, 1b"
      "\n\t.popsection"
      :: "r" (us*(ALT_CPU_FREQ/(cycles_per_loop * 1000000))));
  }
#endif /* #ifndef ALT_SIM_OPTIMIZE */
  return 0;
   3325c:	0005883a 	mov	r2,zero
}
   33260:	e037883a 	mov	sp,fp
   33264:	dfc00117 	ldw	ra,4(sp)
   33268:	df000017 	ldw	fp,0(sp)
   3326c:	dec00204 	addi	sp,sp,8
   33270:	f800283a 	ret

00033274 <alt_dcache_flush_all>:
/*
 * alt_dcache_flush_all() is called to flush the entire data cache.
 */

void alt_dcache_flush_all (void)
{
   33274:	defffe04 	addi	sp,sp,-8
   33278:	df000115 	stw	fp,4(sp)
   3327c:	df000104 	addi	fp,sp,4
#if NIOS2_DCACHE_SIZE > 0
  char* i;
  
  for (i = (char*) 0; i < (char*) NIOS2_DCACHE_SIZE; i+= NIOS2_DCACHE_LINE_SIZE)
   33280:	e03fff15 	stw	zero,-4(fp)
   33284:	00000506 	br	3329c <alt_dcache_flush_all+0x28>
  { 
    __asm__ volatile ("flushd (%0)" :: "r" (i));
   33288:	e0bfff17 	ldw	r2,-4(fp)
   3328c:	1000003b 	flushd	0(r2)
void alt_dcache_flush_all (void)
{
#if NIOS2_DCACHE_SIZE > 0
  char* i;
  
  for (i = (char*) 0; i < (char*) NIOS2_DCACHE_SIZE; i+= NIOS2_DCACHE_LINE_SIZE)
   33290:	e0bfff17 	ldw	r2,-4(fp)
   33294:	10800804 	addi	r2,r2,32
   33298:	e0bfff15 	stw	r2,-4(fp)
   3329c:	e0bfff17 	ldw	r2,-4(fp)
   332a0:	10820030 	cmpltui	r2,r2,2048
   332a4:	103ff81e 	bne	r2,zero,33288 <__alt_data_end+0xffff3288>
  { 
    __asm__ volatile ("flushd (%0)" :: "r" (i));
  }
#endif /* NIOS2_DCACHE_SIZE > 0 */
}
   332a8:	e037883a 	mov	sp,fp
   332ac:	df000017 	ldw	fp,0(sp)
   332b0:	dec00104 	addi	sp,sp,4
   332b4:	f800283a 	ret

000332b8 <alt_get_errno>:
#undef errno

extern int errno;

static ALT_INLINE int* alt_get_errno(void)
{
   332b8:	defffe04 	addi	sp,sp,-8
   332bc:	dfc00115 	stw	ra,4(sp)
   332c0:	df000015 	stw	fp,0(sp)
   332c4:	d839883a 	mov	fp,sp
  return ((alt_errno) ? alt_errno() : &errno);
   332c8:	008000f4 	movhi	r2,3
   332cc:	109c2e04 	addi	r2,r2,28856
   332d0:	10800017 	ldw	r2,0(r2)
   332d4:	10000526 	beq	r2,zero,332ec <alt_get_errno+0x34>
   332d8:	008000f4 	movhi	r2,3
   332dc:	109c2e04 	addi	r2,r2,28856
   332e0:	10800017 	ldw	r2,0(r2)
   332e4:	103ee83a 	callr	r2
   332e8:	00000206 	br	332f4 <alt_get_errno+0x3c>
   332ec:	00800134 	movhi	r2,4
   332f0:	10a4da04 	addi	r2,r2,-27800
}
   332f4:	e037883a 	mov	sp,fp
   332f8:	dfc00117 	ldw	ra,4(sp)
   332fc:	df000017 	ldw	fp,0(sp)
   33300:	dec00204 	addi	sp,sp,8
   33304:	f800283a 	ret

00033308 <alt_dev_llist_insert>:
/*
 *
 */

int alt_dev_llist_insert (alt_dev_llist* dev, alt_llist* list)
{
   33308:	defffa04 	addi	sp,sp,-24
   3330c:	dfc00515 	stw	ra,20(sp)
   33310:	df000415 	stw	fp,16(sp)
   33314:	df000404 	addi	fp,sp,16
   33318:	e13ffe15 	stw	r4,-8(fp)
   3331c:	e17fff15 	stw	r5,-4(fp)
  /*
   * check that the device exists, and that it has a valid name.
   */

  if (!dev || !dev->name)
   33320:	e0bffe17 	ldw	r2,-8(fp)
   33324:	10000326 	beq	r2,zero,33334 <alt_dev_llist_insert+0x2c>
   33328:	e0bffe17 	ldw	r2,-8(fp)
   3332c:	10800217 	ldw	r2,8(r2)
   33330:	1000061e 	bne	r2,zero,3334c <alt_dev_llist_insert+0x44>
  {
    ALT_ERRNO = EINVAL;
   33334:	00332b80 	call	332b8 <alt_get_errno>
   33338:	1007883a 	mov	r3,r2
   3333c:	00800584 	movi	r2,22
   33340:	18800015 	stw	r2,0(r3)
    return -EINVAL;
   33344:	00bffa84 	movi	r2,-22
   33348:	00001306 	br	33398 <alt_dev_llist_insert+0x90>
  
  /*
   * register the device.
   */
  
  alt_llist_insert(list, &dev->llist);
   3334c:	e0bffe17 	ldw	r2,-8(fp)
   33350:	e0ffff17 	ldw	r3,-4(fp)
   33354:	e0fffc15 	stw	r3,-16(fp)
   33358:	e0bffd15 	stw	r2,-12(fp)
 */

static ALT_INLINE void ALT_ALWAYS_INLINE alt_llist_insert(alt_llist* list, 
                alt_llist* entry)
{
  entry->previous = list;
   3335c:	e0bffd17 	ldw	r2,-12(fp)
   33360:	e0fffc17 	ldw	r3,-16(fp)
   33364:	10c00115 	stw	r3,4(r2)
  entry->next     = list->next;
   33368:	e0bffc17 	ldw	r2,-16(fp)
   3336c:	10c00017 	ldw	r3,0(r2)
   33370:	e0bffd17 	ldw	r2,-12(fp)
   33374:	10c00015 	stw	r3,0(r2)

  list->next->previous = entry;
   33378:	e0bffc17 	ldw	r2,-16(fp)
   3337c:	10800017 	ldw	r2,0(r2)
   33380:	e0fffd17 	ldw	r3,-12(fp)
   33384:	10c00115 	stw	r3,4(r2)
  list->next           = entry;
   33388:	e0bffc17 	ldw	r2,-16(fp)
   3338c:	e0fffd17 	ldw	r3,-12(fp)
   33390:	10c00015 	stw	r3,0(r2)

  return 0;  
   33394:	0005883a 	mov	r2,zero
}
   33398:	e037883a 	mov	sp,fp
   3339c:	dfc00117 	ldw	ra,4(sp)
   333a0:	df000017 	ldw	fp,0(sp)
   333a4:	dec00204 	addi	sp,sp,8
   333a8:	f800283a 	ret

000333ac <_do_ctors>:
/*
 * Run the C++ static constructors.
 */

void _do_ctors(void)
{
   333ac:	defffd04 	addi	sp,sp,-12
   333b0:	dfc00215 	stw	ra,8(sp)
   333b4:	df000115 	stw	fp,4(sp)
   333b8:	df000104 	addi	fp,sp,4
  constructor* ctor;

  for (ctor = &__CTOR_END__[-1]; ctor >= __CTOR_LIST__; ctor--)
   333bc:	008000f4 	movhi	r2,3
   333c0:	10909404 	addi	r2,r2,16976
   333c4:	e0bfff15 	stw	r2,-4(fp)
   333c8:	00000606 	br	333e4 <_do_ctors+0x38>
        (*ctor) (); 
   333cc:	e0bfff17 	ldw	r2,-4(fp)
   333d0:	10800017 	ldw	r2,0(r2)
   333d4:	103ee83a 	callr	r2

void _do_ctors(void)
{
  constructor* ctor;

  for (ctor = &__CTOR_END__[-1]; ctor >= __CTOR_LIST__; ctor--)
   333d8:	e0bfff17 	ldw	r2,-4(fp)
   333dc:	10bfff04 	addi	r2,r2,-4
   333e0:	e0bfff15 	stw	r2,-4(fp)
   333e4:	e0ffff17 	ldw	r3,-4(fp)
   333e8:	008000f4 	movhi	r2,3
   333ec:	10909504 	addi	r2,r2,16980
   333f0:	18bff62e 	bgeu	r3,r2,333cc <__alt_data_end+0xffff33cc>
        (*ctor) (); 
}
   333f4:	e037883a 	mov	sp,fp
   333f8:	dfc00117 	ldw	ra,4(sp)
   333fc:	df000017 	ldw	fp,0(sp)
   33400:	dec00204 	addi	sp,sp,8
   33404:	f800283a 	ret

00033408 <_do_dtors>:
/*
 * Run the C++ static destructors.
 */

void _do_dtors(void)
{
   33408:	defffd04 	addi	sp,sp,-12
   3340c:	dfc00215 	stw	ra,8(sp)
   33410:	df000115 	stw	fp,4(sp)
   33414:	df000104 	addi	fp,sp,4
  destructor* dtor;

  for (dtor = &__DTOR_END__[-1]; dtor >= __DTOR_LIST__; dtor--)
   33418:	008000f4 	movhi	r2,3
   3341c:	10909404 	addi	r2,r2,16976
   33420:	e0bfff15 	stw	r2,-4(fp)
   33424:	00000606 	br	33440 <_do_dtors+0x38>
        (*dtor) (); 
   33428:	e0bfff17 	ldw	r2,-4(fp)
   3342c:	10800017 	ldw	r2,0(r2)
   33430:	103ee83a 	callr	r2

void _do_dtors(void)
{
  destructor* dtor;

  for (dtor = &__DTOR_END__[-1]; dtor >= __DTOR_LIST__; dtor--)
   33434:	e0bfff17 	ldw	r2,-4(fp)
   33438:	10bfff04 	addi	r2,r2,-4
   3343c:	e0bfff15 	stw	r2,-4(fp)
   33440:	e0ffff17 	ldw	r3,-4(fp)
   33444:	008000f4 	movhi	r2,3
   33448:	10909504 	addi	r2,r2,16980
   3344c:	18bff62e 	bgeu	r3,r2,33428 <__alt_data_end+0xffff3428>
        (*dtor) (); 
}
   33450:	e037883a 	mov	sp,fp
   33454:	dfc00117 	ldw	ra,4(sp)
   33458:	df000017 	ldw	fp,0(sp)
   3345c:	dec00204 	addi	sp,sp,8
   33460:	f800283a 	ret

00033464 <alt_icache_flush_all>:
/*
 * alt_icache_flush_all() is called to flush the entire instruction cache.
 */

void alt_icache_flush_all (void)
{
   33464:	defffe04 	addi	sp,sp,-8
   33468:	dfc00115 	stw	ra,4(sp)
   3346c:	df000015 	stw	fp,0(sp)
   33470:	d839883a 	mov	fp,sp
#if NIOS2_ICACHE_SIZE > 0
  alt_icache_flush (0, NIOS2_ICACHE_SIZE);
   33474:	0009883a 	mov	r4,zero
   33478:	01440004 	movi	r5,4096
   3347c:	0033d880 	call	33d88 <alt_icache_flush>
#endif
}
   33480:	e037883a 	mov	sp,fp
   33484:	dfc00117 	ldw	ra,4(sp)
   33488:	df000017 	ldw	fp,0(sp)
   3348c:	dec00204 	addi	sp,sp,8
   33490:	f800283a 	ret

00033494 <alt_ic_isr_register>:
  * @param irq              IRQ number
  * @return                 0 if successful, else error (-1)
  */
int alt_ic_isr_register(alt_u32 ic_id, alt_u32 irq, alt_isr_func isr, 
  void *isr_context, void *flags)
{
   33494:	defff904 	addi	sp,sp,-28
   33498:	dfc00615 	stw	ra,24(sp)
   3349c:	df000515 	stw	fp,20(sp)
   334a0:	df000504 	addi	fp,sp,20
   334a4:	e13ffc15 	stw	r4,-16(fp)
   334a8:	e17ffd15 	stw	r5,-12(fp)
   334ac:	e1bffe15 	stw	r6,-8(fp)
   334b0:	e1ffff15 	stw	r7,-4(fp)
    return alt_iic_isr_register(ic_id, irq, isr, isr_context, flags);
   334b4:	e0800217 	ldw	r2,8(fp)
   334b8:	d8800015 	stw	r2,0(sp)
   334bc:	e13ffc17 	ldw	r4,-16(fp)
   334c0:	e17ffd17 	ldw	r5,-12(fp)
   334c4:	e1bffe17 	ldw	r6,-8(fp)
   334c8:	e1ffff17 	ldw	r7,-4(fp)
   334cc:	00336740 	call	33674 <alt_iic_isr_register>
}  
   334d0:	e037883a 	mov	sp,fp
   334d4:	dfc00117 	ldw	ra,4(sp)
   334d8:	df000017 	ldw	fp,0(sp)
   334dc:	dec00204 	addi	sp,sp,8
   334e0:	f800283a 	ret

000334e4 <alt_ic_irq_enable>:
  * @param ic_id            Ignored.
  * @param irq              IRQ number
  * @return                 0 if successful, else error (-1)
  */
int alt_ic_irq_enable (alt_u32 ic_id, alt_u32 irq)
{
   334e4:	defff904 	addi	sp,sp,-28
   334e8:	df000615 	stw	fp,24(sp)
   334ec:	df000604 	addi	fp,sp,24
   334f0:	e13ffe15 	stw	r4,-8(fp)
   334f4:	e17fff15 	stw	r5,-4(fp)
   334f8:	e0bfff17 	ldw	r2,-4(fp)
   334fc:	e0bffa15 	stw	r2,-24(fp)
static ALT_INLINE alt_irq_context ALT_ALWAYS_INLINE 
       alt_irq_disable_all (void)
{
  alt_irq_context context;

  NIOS2_READ_STATUS (context);
   33500:	0005303a 	rdctl	r2,status
   33504:	e0bffb15 	stw	r2,-20(fp)

  NIOS2_WRITE_STATUS (context & ~NIOS2_STATUS_PIE_MSK);
   33508:	e0fffb17 	ldw	r3,-20(fp)
   3350c:	00bfff84 	movi	r2,-2
   33510:	1884703a 	and	r2,r3,r2
   33514:	1001703a 	wrctl	status,r2
  
  return context;
   33518:	e0bffb17 	ldw	r2,-20(fp)
static ALT_INLINE int ALT_ALWAYS_INLINE alt_irq_enable (alt_u32 id)
{
  alt_irq_context  status;
  extern volatile alt_u32 alt_irq_active;

  status = alt_irq_disable_all ();
   3351c:	e0bffc15 	stw	r2,-16(fp)

  alt_irq_active |= (1 << id);
   33520:	e0bffa17 	ldw	r2,-24(fp)
   33524:	00c00044 	movi	r3,1
   33528:	1884983a 	sll	r2,r3,r2
   3352c:	1007883a 	mov	r3,r2
   33530:	00800134 	movhi	r2,4
   33534:	10a4e304 	addi	r2,r2,-27764
   33538:	10800017 	ldw	r2,0(r2)
   3353c:	1886b03a 	or	r3,r3,r2
   33540:	00800134 	movhi	r2,4
   33544:	10a4e304 	addi	r2,r2,-27764
   33548:	10c00015 	stw	r3,0(r2)
  NIOS2_WRITE_IENABLE (alt_irq_active);
   3354c:	00800134 	movhi	r2,4
   33550:	10a4e304 	addi	r2,r2,-27764
   33554:	10800017 	ldw	r2,0(r2)
   33558:	100170fa 	wrctl	ienable,r2
   3355c:	e0bffc17 	ldw	r2,-16(fp)
   33560:	e0bffd15 	stw	r2,-12(fp)
  status &= ~NIOS2_STATUS_PIE_MSK;
  status |= (context & NIOS2_STATUS_PIE_MSK);
  
  NIOS2_WRITE_STATUS (status);
#else
  NIOS2_WRITE_STATUS (context);
   33564:	e0bffd17 	ldw	r2,-12(fp)
   33568:	1001703a 	wrctl	status,r2

  alt_irq_enable_all(status);

  return 0;
   3356c:	0005883a 	mov	r2,zero
    return alt_irq_enable(irq);
   33570:	0001883a 	nop
}
   33574:	e037883a 	mov	sp,fp
   33578:	df000017 	ldw	fp,0(sp)
   3357c:	dec00104 	addi	sp,sp,4
   33580:	f800283a 	ret

00033584 <alt_ic_irq_disable>:
  * @param ic_id            Ignored.
  * @param irq              IRQ number
  * @return                 0 if successful, else error (-1)
  */
int alt_ic_irq_disable(alt_u32 ic_id, alt_u32 irq)
{
   33584:	defff904 	addi	sp,sp,-28
   33588:	df000615 	stw	fp,24(sp)
   3358c:	df000604 	addi	fp,sp,24
   33590:	e13ffe15 	stw	r4,-8(fp)
   33594:	e17fff15 	stw	r5,-4(fp)
   33598:	e0bfff17 	ldw	r2,-4(fp)
   3359c:	e0bffa15 	stw	r2,-24(fp)
static ALT_INLINE alt_irq_context ALT_ALWAYS_INLINE 
       alt_irq_disable_all (void)
{
  alt_irq_context context;

  NIOS2_READ_STATUS (context);
   335a0:	0005303a 	rdctl	r2,status
   335a4:	e0bffb15 	stw	r2,-20(fp)

  NIOS2_WRITE_STATUS (context & ~NIOS2_STATUS_PIE_MSK);
   335a8:	e0fffb17 	ldw	r3,-20(fp)
   335ac:	00bfff84 	movi	r2,-2
   335b0:	1884703a 	and	r2,r3,r2
   335b4:	1001703a 	wrctl	status,r2
  
  return context;
   335b8:	e0bffb17 	ldw	r2,-20(fp)
static ALT_INLINE int ALT_ALWAYS_INLINE alt_irq_disable (alt_u32 id)
{
  alt_irq_context  status;
  extern volatile alt_u32 alt_irq_active;

  status = alt_irq_disable_all ();
   335bc:	e0bffc15 	stw	r2,-16(fp)

  alt_irq_active &= ~(1 << id);
   335c0:	e0bffa17 	ldw	r2,-24(fp)
   335c4:	00c00044 	movi	r3,1
   335c8:	1884983a 	sll	r2,r3,r2
   335cc:	0084303a 	nor	r2,zero,r2
   335d0:	1007883a 	mov	r3,r2
   335d4:	00800134 	movhi	r2,4
   335d8:	10a4e304 	addi	r2,r2,-27764
   335dc:	10800017 	ldw	r2,0(r2)
   335e0:	1886703a 	and	r3,r3,r2
   335e4:	00800134 	movhi	r2,4
   335e8:	10a4e304 	addi	r2,r2,-27764
   335ec:	10c00015 	stw	r3,0(r2)
  NIOS2_WRITE_IENABLE (alt_irq_active);
   335f0:	00800134 	movhi	r2,4
   335f4:	10a4e304 	addi	r2,r2,-27764
   335f8:	10800017 	ldw	r2,0(r2)
   335fc:	100170fa 	wrctl	ienable,r2
   33600:	e0bffc17 	ldw	r2,-16(fp)
   33604:	e0bffd15 	stw	r2,-12(fp)
  status &= ~NIOS2_STATUS_PIE_MSK;
  status |= (context & NIOS2_STATUS_PIE_MSK);
  
  NIOS2_WRITE_STATUS (status);
#else
  NIOS2_WRITE_STATUS (context);
   33608:	e0bffd17 	ldw	r2,-12(fp)
   3360c:	1001703a 	wrctl	status,r2

  alt_irq_enable_all(status);

  return 0;
   33610:	0005883a 	mov	r2,zero
    return alt_irq_disable(irq);
   33614:	0001883a 	nop
}
   33618:	e037883a 	mov	sp,fp
   3361c:	df000017 	ldw	fp,0(sp)
   33620:	dec00104 	addi	sp,sp,4
   33624:	f800283a 	ret

00033628 <alt_ic_irq_enabled>:
  * @param irq              IRQ number
  * @return                 Zero if corresponding interrupt is disabled and
  *                         non-zero otherwise.
  */
alt_u32 alt_ic_irq_enabled(alt_u32 ic_id, alt_u32 irq)
{
   33628:	defffc04 	addi	sp,sp,-16
   3362c:	df000315 	stw	fp,12(sp)
   33630:	df000304 	addi	fp,sp,12
   33634:	e13ffe15 	stw	r4,-8(fp)
   33638:	e17fff15 	stw	r5,-4(fp)
    alt_u32 irq_enabled;

    NIOS2_READ_IENABLE(irq_enabled);
   3363c:	000530fa 	rdctl	r2,ienable
   33640:	e0bffd15 	stw	r2,-12(fp)

    return (irq_enabled & (1 << irq)) ? 1: 0;
   33644:	e0bfff17 	ldw	r2,-4(fp)
   33648:	00c00044 	movi	r3,1
   3364c:	1884983a 	sll	r2,r3,r2
   33650:	1007883a 	mov	r3,r2
   33654:	e0bffd17 	ldw	r2,-12(fp)
   33658:	1884703a 	and	r2,r3,r2
   3365c:	1004c03a 	cmpne	r2,r2,zero
   33660:	10803fcc 	andi	r2,r2,255
}
   33664:	e037883a 	mov	sp,fp
   33668:	df000017 	ldw	fp,0(sp)
   3366c:	dec00104 	addi	sp,sp,4
   33670:	f800283a 	ret

00033674 <alt_iic_isr_register>:
  * @param flags            
  * @return                 0 if successful, else error (-1)
  */
int alt_iic_isr_register(alt_u32 ic_id, alt_u32 irq, alt_isr_func isr, 
  void *isr_context, void *flags)
{
   33674:	defff504 	addi	sp,sp,-44
   33678:	dfc00a15 	stw	ra,40(sp)
   3367c:	df000915 	stw	fp,36(sp)
   33680:	df000904 	addi	fp,sp,36
   33684:	e13ffc15 	stw	r4,-16(fp)
   33688:	e17ffd15 	stw	r5,-12(fp)
   3368c:	e1bffe15 	stw	r6,-8(fp)
   33690:	e1ffff15 	stw	r7,-4(fp)
  int rc = -EINVAL;  
   33694:	00bffa84 	movi	r2,-22
   33698:	e0bff715 	stw	r2,-36(fp)
  int id = irq;             /* IRQ interpreted as the interrupt ID. */
   3369c:	e0bffd17 	ldw	r2,-12(fp)
   336a0:	e0bff815 	stw	r2,-32(fp)
  alt_irq_context status;

  if (id < ALT_NIRQ)
   336a4:	e0bff817 	ldw	r2,-32(fp)
   336a8:	10800808 	cmpgei	r2,r2,32
   336ac:	1000271e 	bne	r2,zero,3374c <alt_iic_isr_register+0xd8>
static ALT_INLINE alt_irq_context ALT_ALWAYS_INLINE 
       alt_irq_disable_all (void)
{
  alt_irq_context context;

  NIOS2_READ_STATUS (context);
   336b0:	0005303a 	rdctl	r2,status
   336b4:	e0bffa15 	stw	r2,-24(fp)

  NIOS2_WRITE_STATUS (context & ~NIOS2_STATUS_PIE_MSK);
   336b8:	e0fffa17 	ldw	r3,-24(fp)
   336bc:	00bfff84 	movi	r2,-2
   336c0:	1884703a 	and	r2,r3,r2
   336c4:	1001703a 	wrctl	status,r2
  
  return context;
   336c8:	e0bffa17 	ldw	r2,-24(fp)
     * interrupts are disabled while the handler tables are updated to ensure
     * that an interrupt doesn't occur while the tables are in an inconsistant
     * state.
     */

    status = alt_irq_disable_all();
   336cc:	e0bff915 	stw	r2,-28(fp)

    alt_irq[id].handler = isr;
   336d0:	00800134 	movhi	r2,4
   336d4:	10a51104 	addi	r2,r2,-27580
   336d8:	e0fff817 	ldw	r3,-32(fp)
   336dc:	180690fa 	slli	r3,r3,3
   336e0:	10c5883a 	add	r2,r2,r3
   336e4:	e0fffe17 	ldw	r3,-8(fp)
   336e8:	10c00015 	stw	r3,0(r2)
    alt_irq[id].context = isr_context;
   336ec:	00800134 	movhi	r2,4
   336f0:	10a51104 	addi	r2,r2,-27580
   336f4:	e0fff817 	ldw	r3,-32(fp)
   336f8:	180690fa 	slli	r3,r3,3
   336fc:	10c5883a 	add	r2,r2,r3
   33700:	10800104 	addi	r2,r2,4
   33704:	e0ffff17 	ldw	r3,-4(fp)
   33708:	10c00015 	stw	r3,0(r2)

    rc = (isr) ? alt_ic_irq_enable(ic_id, id) : alt_ic_irq_disable(ic_id, id);
   3370c:	e0bffe17 	ldw	r2,-8(fp)
   33710:	10000526 	beq	r2,zero,33728 <alt_iic_isr_register+0xb4>
   33714:	e0bff817 	ldw	r2,-32(fp)
   33718:	e13ffc17 	ldw	r4,-16(fp)
   3371c:	100b883a 	mov	r5,r2
   33720:	00334e40 	call	334e4 <alt_ic_irq_enable>
   33724:	00000406 	br	33738 <alt_iic_isr_register+0xc4>
   33728:	e0bff817 	ldw	r2,-32(fp)
   3372c:	e13ffc17 	ldw	r4,-16(fp)
   33730:	100b883a 	mov	r5,r2
   33734:	00335840 	call	33584 <alt_ic_irq_disable>
   33738:	e0bff715 	stw	r2,-36(fp)
   3373c:	e0bff917 	ldw	r2,-28(fp)
   33740:	e0bffb15 	stw	r2,-20(fp)
  status &= ~NIOS2_STATUS_PIE_MSK;
  status |= (context & NIOS2_STATUS_PIE_MSK);
  
  NIOS2_WRITE_STATUS (status);
#else
  NIOS2_WRITE_STATUS (context);
   33744:	e0bffb17 	ldw	r2,-20(fp)
   33748:	1001703a 	wrctl	status,r2

    alt_irq_enable_all(status);
  }

  return rc; 
   3374c:	e0bff717 	ldw	r2,-36(fp)
}
   33750:	e037883a 	mov	sp,fp
   33754:	dfc00117 	ldw	ra,4(sp)
   33758:	df000017 	ldw	fp,0(sp)
   3375c:	dec00204 	addi	sp,sp,8
   33760:	f800283a 	ret

00033764 <alt_open_fd>:
 * If the device can not be succesfully opened, then the input file descriptor
 * remains unchanged.
 */

static void alt_open_fd(alt_fd* fd, const char* name, int flags, int mode)
{
   33764:	defff904 	addi	sp,sp,-28
   33768:	dfc00615 	stw	ra,24(sp)
   3376c:	df000515 	stw	fp,20(sp)
   33770:	df000504 	addi	fp,sp,20
   33774:	e13ffc15 	stw	r4,-16(fp)
   33778:	e17ffd15 	stw	r5,-12(fp)
   3377c:	e1bffe15 	stw	r6,-8(fp)
   33780:	e1ffff15 	stw	r7,-4(fp)
  int old;

  old = open (name, flags, mode);
   33784:	e13ffd17 	ldw	r4,-12(fp)
   33788:	e17ffe17 	ldw	r5,-8(fp)
   3378c:	e1bfff17 	ldw	r6,-4(fp)
   33790:	00339b80 	call	339b8 <open>
   33794:	e0bffb15 	stw	r2,-20(fp)

  if (old >= 0)
   33798:	e0bffb17 	ldw	r2,-20(fp)
   3379c:	10001c16 	blt	r2,zero,33810 <alt_open_fd+0xac>
  {
    fd->dev      = alt_fd_list[old].dev;
   337a0:	008000f4 	movhi	r2,3
   337a4:	1097a804 	addi	r2,r2,24224
   337a8:	e0fffb17 	ldw	r3,-20(fp)
   337ac:	18c00324 	muli	r3,r3,12
   337b0:	10c5883a 	add	r2,r2,r3
   337b4:	10c00017 	ldw	r3,0(r2)
   337b8:	e0bffc17 	ldw	r2,-16(fp)
   337bc:	10c00015 	stw	r3,0(r2)
    fd->priv     = alt_fd_list[old].priv;
   337c0:	008000f4 	movhi	r2,3
   337c4:	1097a804 	addi	r2,r2,24224
   337c8:	e0fffb17 	ldw	r3,-20(fp)
   337cc:	18c00324 	muli	r3,r3,12
   337d0:	10c5883a 	add	r2,r2,r3
   337d4:	10800104 	addi	r2,r2,4
   337d8:	10c00017 	ldw	r3,0(r2)
   337dc:	e0bffc17 	ldw	r2,-16(fp)
   337e0:	10c00115 	stw	r3,4(r2)
    fd->fd_flags = alt_fd_list[old].fd_flags;
   337e4:	008000f4 	movhi	r2,3
   337e8:	1097a804 	addi	r2,r2,24224
   337ec:	e0fffb17 	ldw	r3,-20(fp)
   337f0:	18c00324 	muli	r3,r3,12
   337f4:	10c5883a 	add	r2,r2,r3
   337f8:	10800204 	addi	r2,r2,8
   337fc:	10c00017 	ldw	r3,0(r2)
   33800:	e0bffc17 	ldw	r2,-16(fp)
   33804:	10c00215 	stw	r3,8(r2)

    alt_release_fd (old);
   33808:	e13ffb17 	ldw	r4,-20(fp)
   3380c:	0031fa40 	call	31fa4 <alt_release_fd>
  }
} 
   33810:	e037883a 	mov	sp,fp
   33814:	dfc00117 	ldw	ra,4(sp)
   33818:	df000017 	ldw	fp,0(sp)
   3381c:	dec00204 	addi	sp,sp,8
   33820:	f800283a 	ret

00033824 <alt_io_redirect>:
 */
 
void alt_io_redirect(const char* stdout_dev, 
                     const char* stdin_dev, 
                     const char* stderr_dev)
{
   33824:	defffb04 	addi	sp,sp,-20
   33828:	dfc00415 	stw	ra,16(sp)
   3382c:	df000315 	stw	fp,12(sp)
   33830:	df000304 	addi	fp,sp,12
   33834:	e13ffd15 	stw	r4,-12(fp)
   33838:	e17ffe15 	stw	r5,-8(fp)
   3383c:	e1bfff15 	stw	r6,-4(fp)
  /* Redirect the channels */

  alt_open_fd (&alt_fd_list[STDOUT_FILENO], stdout_dev, O_WRONLY, 0777);
   33840:	010000f4 	movhi	r4,3
   33844:	2117ab04 	addi	r4,r4,24236
   33848:	e17ffd17 	ldw	r5,-12(fp)
   3384c:	01800044 	movi	r6,1
   33850:	01c07fc4 	movi	r7,511
   33854:	00337640 	call	33764 <alt_open_fd>
  alt_open_fd (&alt_fd_list[STDIN_FILENO], stdin_dev, O_RDONLY, 0777);
   33858:	010000f4 	movhi	r4,3
   3385c:	2117a804 	addi	r4,r4,24224
   33860:	e17ffe17 	ldw	r5,-8(fp)
   33864:	000d883a 	mov	r6,zero
   33868:	01c07fc4 	movi	r7,511
   3386c:	00337640 	call	33764 <alt_open_fd>
  alt_open_fd (&alt_fd_list[STDERR_FILENO], stderr_dev, O_WRONLY, 0777);
   33870:	010000f4 	movhi	r4,3
   33874:	2117ae04 	addi	r4,r4,24248
   33878:	e17fff17 	ldw	r5,-4(fp)
   3387c:	01800044 	movi	r6,1
   33880:	01c07fc4 	movi	r7,511
   33884:	00337640 	call	33764 <alt_open_fd>
}  
   33888:	e037883a 	mov	sp,fp
   3388c:	dfc00117 	ldw	ra,4(sp)
   33890:	df000017 	ldw	fp,0(sp)
   33894:	dec00204 	addi	sp,sp,8
   33898:	f800283a 	ret

0003389c <alt_get_errno>:
#undef errno

extern int errno;

static ALT_INLINE int* alt_get_errno(void)
{
   3389c:	defffe04 	addi	sp,sp,-8
   338a0:	dfc00115 	stw	ra,4(sp)
   338a4:	df000015 	stw	fp,0(sp)
   338a8:	d839883a 	mov	fp,sp
  return ((alt_errno) ? alt_errno() : &errno);
   338ac:	008000f4 	movhi	r2,3
   338b0:	109c2e04 	addi	r2,r2,28856
   338b4:	10800017 	ldw	r2,0(r2)
   338b8:	10000526 	beq	r2,zero,338d0 <alt_get_errno+0x34>
   338bc:	008000f4 	movhi	r2,3
   338c0:	109c2e04 	addi	r2,r2,28856
   338c4:	10800017 	ldw	r2,0(r2)
   338c8:	103ee83a 	callr	r2
   338cc:	00000206 	br	338d8 <alt_get_errno+0x3c>
   338d0:	00800134 	movhi	r2,4
   338d4:	10a4da04 	addi	r2,r2,-27800
}
   338d8:	e037883a 	mov	sp,fp
   338dc:	dfc00117 	ldw	ra,4(sp)
   338e0:	df000017 	ldw	fp,0(sp)
   338e4:	dec00204 	addi	sp,sp,8
   338e8:	f800283a 	ret

000338ec <alt_file_locked>:
 * performed for devices. Filesystems are required to handle the ioctl() call
 * themselves, and report the error from the filesystems open() function. 
 */ 

static int alt_file_locked (alt_fd* fd)
{
   338ec:	defffd04 	addi	sp,sp,-12
   338f0:	df000215 	stw	fp,8(sp)
   338f4:	df000204 	addi	fp,sp,8
   338f8:	e13fff15 	stw	r4,-4(fp)

  /*
   * Mark the file descriptor as belonging to a device.
   */

  fd->fd_flags |= ALT_FD_DEV;
   338fc:	e0bfff17 	ldw	r2,-4(fp)
   33900:	10800217 	ldw	r2,8(r2)
   33904:	10d00034 	orhi	r3,r2,16384
   33908:	e0bfff17 	ldw	r2,-4(fp)
   3390c:	10c00215 	stw	r3,8(r2)
  /*
   * Loop through all current file descriptors searching for one that's locked
   * for exclusive access. If a match is found, generate an error.
   */

  for (i = 0; i <= alt_max_fd; i++)
   33910:	e03ffe15 	stw	zero,-8(fp)
   33914:	00001d06 	br	3398c <alt_file_locked+0xa0>
  {
    if ((alt_fd_list[i].dev == fd->dev) &&
   33918:	008000f4 	movhi	r2,3
   3391c:	1097a804 	addi	r2,r2,24224
   33920:	e0fffe17 	ldw	r3,-8(fp)
   33924:	18c00324 	muli	r3,r3,12
   33928:	10c5883a 	add	r2,r2,r3
   3392c:	10c00017 	ldw	r3,0(r2)
   33930:	e0bfff17 	ldw	r2,-4(fp)
   33934:	10800017 	ldw	r2,0(r2)
   33938:	1880111e 	bne	r3,r2,33980 <alt_file_locked+0x94>
        (alt_fd_list[i].fd_flags & ALT_FD_EXCL) &&
   3393c:	008000f4 	movhi	r2,3
   33940:	1097a804 	addi	r2,r2,24224
   33944:	e0fffe17 	ldw	r3,-8(fp)
   33948:	18c00324 	muli	r3,r3,12
   3394c:	10c5883a 	add	r2,r2,r3
   33950:	10800204 	addi	r2,r2,8
   33954:	10800017 	ldw	r2,0(r2)
   * for exclusive access. If a match is found, generate an error.
   */

  for (i = 0; i <= alt_max_fd; i++)
  {
    if ((alt_fd_list[i].dev == fd->dev) &&
   33958:	1000090e 	bge	r2,zero,33980 <alt_file_locked+0x94>
        (alt_fd_list[i].fd_flags & ALT_FD_EXCL) &&
        (&alt_fd_list[i] != fd))
   3395c:	e0bffe17 	ldw	r2,-8(fp)
   33960:	10c00324 	muli	r3,r2,12
   33964:	008000f4 	movhi	r2,3
   33968:	1097a804 	addi	r2,r2,24224
   3396c:	1887883a 	add	r3,r3,r2
   */

  for (i = 0; i <= alt_max_fd; i++)
  {
    if ((alt_fd_list[i].dev == fd->dev) &&
        (alt_fd_list[i].fd_flags & ALT_FD_EXCL) &&
   33970:	e0bfff17 	ldw	r2,-4(fp)
   33974:	18800226 	beq	r3,r2,33980 <alt_file_locked+0x94>
        (&alt_fd_list[i] != fd))
    {
      return -EACCES;
   33978:	00bffcc4 	movi	r2,-13
   3397c:	00000a06 	br	339a8 <alt_file_locked+0xbc>
  /*
   * Loop through all current file descriptors searching for one that's locked
   * for exclusive access. If a match is found, generate an error.
   */

  for (i = 0; i <= alt_max_fd; i++)
   33980:	e0bffe17 	ldw	r2,-8(fp)
   33984:	10800044 	addi	r2,r2,1
   33988:	e0bffe15 	stw	r2,-8(fp)
   3398c:	008000f4 	movhi	r2,3
   33990:	109c2d04 	addi	r2,r2,28852
   33994:	10800017 	ldw	r2,0(r2)
   33998:	1007883a 	mov	r3,r2
   3399c:	e0bffe17 	ldw	r2,-8(fp)
   339a0:	18bfdd2e 	bgeu	r3,r2,33918 <__alt_data_end+0xffff3918>
    }
  }
  
  /* The device is not locked */
 
  return 0;
   339a4:	0005883a 	mov	r2,zero
}
   339a8:	e037883a 	mov	sp,fp
   339ac:	df000017 	ldw	fp,0(sp)
   339b0:	dec00104 	addi	sp,sp,4
   339b4:	f800283a 	ret

000339b8 <open>:
 *
 * ALT_OPEN is mapped onto the open() system call in alt_syscall.h
 */
 
int ALT_OPEN (const char* file, int flags, int mode)
{ 
   339b8:	defff604 	addi	sp,sp,-40
   339bc:	dfc00915 	stw	ra,36(sp)
   339c0:	df000815 	stw	fp,32(sp)
   339c4:	df000804 	addi	fp,sp,32
   339c8:	e13ffd15 	stw	r4,-12(fp)
   339cc:	e17ffe15 	stw	r5,-8(fp)
   339d0:	e1bfff15 	stw	r6,-4(fp)
  alt_dev* dev;
  alt_fd*  fd;
  int index  = -1;
   339d4:	00bfffc4 	movi	r2,-1
   339d8:	e0bff915 	stw	r2,-28(fp)
  int status = -ENODEV;
   339dc:	00bffb44 	movi	r2,-19
   339e0:	e0bffa15 	stw	r2,-24(fp)
  int isafs = 0;
   339e4:	e03ffb15 	stw	zero,-20(fp)
  /* 
   * Check the device list, to see if a device with a matching name is 
   * registered.
   */
  
  if (!(dev = alt_find_dev (file, &alt_dev_list)))
   339e8:	e13ffd17 	ldw	r4,-12(fp)
   339ec:	014000f4 	movhi	r5,3
   339f0:	295c2b04 	addi	r5,r5,28844
   339f4:	0033b300 	call	33b30 <alt_find_dev>
   339f8:	e0bff815 	stw	r2,-32(fp)
   339fc:	e0bff817 	ldw	r2,-32(fp)
   33a00:	1000051e 	bne	r2,zero,33a18 <open+0x60>
  {
    /* No matching device, so try the filesystem list */

    dev   = alt_find_file (file);
   33a04:	e13ffd17 	ldw	r4,-12(fp)
   33a08:	0033bc00 	call	33bc0 <alt_find_file>
   33a0c:	e0bff815 	stw	r2,-32(fp)
    isafs = 1;
   33a10:	00800044 	movi	r2,1
   33a14:	e0bffb15 	stw	r2,-20(fp)

  /* 
   * If a matching device or filesystem is found, allocate a file descriptor. 
   */

  if (dev)
   33a18:	e0bff817 	ldw	r2,-32(fp)
   33a1c:	10002926 	beq	r2,zero,33ac4 <open+0x10c>
  {
    if ((index = alt_get_fd (dev)) < 0)
   33a20:	e13ff817 	ldw	r4,-32(fp)
   33a24:	0033cd40 	call	33cd4 <alt_get_fd>
   33a28:	e0bff915 	stw	r2,-28(fp)
   33a2c:	e0bff917 	ldw	r2,-28(fp)
   33a30:	1000030e 	bge	r2,zero,33a40 <open+0x88>
    {
      status = index;
   33a34:	e0bff917 	ldw	r2,-28(fp)
   33a38:	e0bffa15 	stw	r2,-24(fp)
   33a3c:	00002306 	br	33acc <open+0x114>
    }
    else
    {
      fd = &alt_fd_list[index];
   33a40:	e0bff917 	ldw	r2,-28(fp)
   33a44:	10c00324 	muli	r3,r2,12
   33a48:	008000f4 	movhi	r2,3
   33a4c:	1097a804 	addi	r2,r2,24224
   33a50:	1885883a 	add	r2,r3,r2
   33a54:	e0bffc15 	stw	r2,-16(fp)
      fd->fd_flags = (flags & ~ALT_FD_FLAGS_MASK);
   33a58:	e0fffe17 	ldw	r3,-8(fp)
   33a5c:	00900034 	movhi	r2,16384
   33a60:	10bfffc4 	addi	r2,r2,-1
   33a64:	1886703a 	and	r3,r3,r2
   33a68:	e0bffc17 	ldw	r2,-16(fp)
   33a6c:	10c00215 	stw	r3,8(r2)
      
      /* If this is a device, ensure it isn't already locked */

      if (isafs || ((status = alt_file_locked (fd)) >= 0))
   33a70:	e0bffb17 	ldw	r2,-20(fp)
   33a74:	1000051e 	bne	r2,zero,33a8c <open+0xd4>
   33a78:	e13ffc17 	ldw	r4,-16(fp)
   33a7c:	00338ec0 	call	338ec <alt_file_locked>
   33a80:	e0bffa15 	stw	r2,-24(fp)
   33a84:	e0bffa17 	ldw	r2,-24(fp)
   33a88:	10001016 	blt	r2,zero,33acc <open+0x114>
        /* 
         * If the device or filesystem provides an open() callback function,
         * call it now to perform any device/filesystem specific operations.
         */
    
        status = (dev->open) ? dev->open(fd, file, flags, mode): 0;
   33a8c:	e0bff817 	ldw	r2,-32(fp)
   33a90:	10800317 	ldw	r2,12(r2)
   33a94:	10000826 	beq	r2,zero,33ab8 <open+0x100>
   33a98:	e0bff817 	ldw	r2,-32(fp)
   33a9c:	10800317 	ldw	r2,12(r2)
   33aa0:	e13ffc17 	ldw	r4,-16(fp)
   33aa4:	e17ffd17 	ldw	r5,-12(fp)
   33aa8:	e1bffe17 	ldw	r6,-8(fp)
   33aac:	e1ffff17 	ldw	r7,-4(fp)
   33ab0:	103ee83a 	callr	r2
   33ab4:	00000106 	br	33abc <open+0x104>
   33ab8:	0005883a 	mov	r2,zero
   33abc:	e0bffa15 	stw	r2,-24(fp)
   33ac0:	00000206 	br	33acc <open+0x114>
      }
    }
  }
  else
  {
    status = -ENODEV;
   33ac4:	00bffb44 	movi	r2,-19
   33ac8:	e0bffa15 	stw	r2,-24(fp)
  }

  /* Allocation failed, so clean up and return an error */ 

  if (status < 0)
   33acc:	e0bffa17 	ldw	r2,-24(fp)
   33ad0:	1000090e 	bge	r2,zero,33af8 <open+0x140>
  {
    alt_release_fd (index);  
   33ad4:	e13ff917 	ldw	r4,-28(fp)
   33ad8:	0031fa40 	call	31fa4 <alt_release_fd>
    ALT_ERRNO = -status;
   33adc:	003389c0 	call	3389c <alt_get_errno>
   33ae0:	1007883a 	mov	r3,r2
   33ae4:	e0bffa17 	ldw	r2,-24(fp)
   33ae8:	0085c83a 	sub	r2,zero,r2
   33aec:	18800015 	stw	r2,0(r3)
    return -1;
   33af0:	00bfffc4 	movi	r2,-1
   33af4:	00000106 	br	33afc <open+0x144>
  }
  
  /* return the reference upon success */

  return index;
   33af8:	e0bff917 	ldw	r2,-28(fp)
}
   33afc:	e037883a 	mov	sp,fp
   33b00:	dfc00117 	ldw	ra,4(sp)
   33b04:	df000017 	ldw	fp,0(sp)
   33b08:	dec00204 	addi	sp,sp,8
   33b0c:	f800283a 	ret

00033b10 <altera_nios2_gen2_irq_init>:
/*
 * To initialize the internal interrupt controller, just clear the IENABLE
 * register so that all possible IRQs are disabled.
 */
void altera_nios2_gen2_irq_init(void) 
{
   33b10:	deffff04 	addi	sp,sp,-4
   33b14:	df000015 	stw	fp,0(sp)
   33b18:	d839883a 	mov	fp,sp
    NIOS2_WRITE_IENABLE(0);
   33b1c:	000170fa 	wrctl	ienable,zero
}
   33b20:	e037883a 	mov	sp,fp
   33b24:	df000017 	ldw	fp,0(sp)
   33b28:	dec00104 	addi	sp,sp,4
   33b2c:	f800283a 	ret

00033b30 <alt_find_dev>:
 * "name" must be an exact match for the devices registered name for a match to
 * be found.
 */
 
alt_dev* alt_find_dev(const char* name, alt_llist* llist)
{
   33b30:	defffa04 	addi	sp,sp,-24
   33b34:	dfc00515 	stw	ra,20(sp)
   33b38:	df000415 	stw	fp,16(sp)
   33b3c:	df000404 	addi	fp,sp,16
   33b40:	e13ffe15 	stw	r4,-8(fp)
   33b44:	e17fff15 	stw	r5,-4(fp)
  alt_dev* next = (alt_dev*) llist->next;
   33b48:	e0bfff17 	ldw	r2,-4(fp)
   33b4c:	10800017 	ldw	r2,0(r2)
   33b50:	e0bffc15 	stw	r2,-16(fp)
  alt_32 len;

  len  = strlen(name) + 1;
   33b54:	e13ffe17 	ldw	r4,-8(fp)
   33b58:	0025f740 	call	25f74 <strlen>
   33b5c:	10800044 	addi	r2,r2,1
   33b60:	e0bffd15 	stw	r2,-12(fp)
  /*
   * Check each list entry in turn, until a match is found, or we reach the
   * end of the list (i.e. next winds up pointing back to the list head).
   */ 

  while (next != (alt_dev*) llist)
   33b64:	00000d06 	br	33b9c <alt_find_dev+0x6c>
    /* 
     * memcmp() is used here rather than strcmp() in order to reduce the size
     * of the executable.
     */

    if (!memcmp (next->name, name, len))
   33b68:	e0bffc17 	ldw	r2,-16(fp)
   33b6c:	10c00217 	ldw	r3,8(r2)
   33b70:	e0bffd17 	ldw	r2,-12(fp)
   33b74:	1809883a 	mov	r4,r3
   33b78:	e17ffe17 	ldw	r5,-8(fp)
   33b7c:	100d883a 	mov	r6,r2
   33b80:	0033efc0 	call	33efc <memcmp>
   33b84:	1000021e 	bne	r2,zero,33b90 <alt_find_dev+0x60>
    {
      /* match found */

      return next;
   33b88:	e0bffc17 	ldw	r2,-16(fp)
   33b8c:	00000706 	br	33bac <alt_find_dev+0x7c>
    }
    next = (alt_dev*) next->llist.next;
   33b90:	e0bffc17 	ldw	r2,-16(fp)
   33b94:	10800017 	ldw	r2,0(r2)
   33b98:	e0bffc15 	stw	r2,-16(fp)
  /*
   * Check each list entry in turn, until a match is found, or we reach the
   * end of the list (i.e. next winds up pointing back to the list head).
   */ 

  while (next != (alt_dev*) llist)
   33b9c:	e0fffc17 	ldw	r3,-16(fp)
   33ba0:	e0bfff17 	ldw	r2,-4(fp)
   33ba4:	18bff01e 	bne	r3,r2,33b68 <__alt_data_end+0xffff3b68>
    next = (alt_dev*) next->llist.next;
  }
  
  /* No match found */
  
  return NULL;
   33ba8:	0005883a 	mov	r2,zero
}
   33bac:	e037883a 	mov	sp,fp
   33bb0:	dfc00117 	ldw	ra,4(sp)
   33bb4:	df000017 	ldw	fp,0(sp)
   33bb8:	dec00204 	addi	sp,sp,8
   33bbc:	f800283a 	ret

00033bc0 <alt_find_file>:
 * either '/' or '\0' is the prefix of the filename. For example the filename:
 * "/myfilesystem/junk.txt" would match: "/myfilesystem", but not: "/myfile". 
 */
 
alt_dev* alt_find_file (const char* name)
{
   33bc0:	defffb04 	addi	sp,sp,-20
   33bc4:	dfc00415 	stw	ra,16(sp)
   33bc8:	df000315 	stw	fp,12(sp)
   33bcc:	df000304 	addi	fp,sp,12
   33bd0:	e13fff15 	stw	r4,-4(fp)
  alt_dev* next = (alt_dev*) alt_fs_list.next;   
   33bd4:	008000f4 	movhi	r2,3
   33bd8:	109c2904 	addi	r2,r2,28836
   33bdc:	10800017 	ldw	r2,0(r2)
   33be0:	e0bffd15 	stw	r2,-12(fp)
  /*
   * Check each list entry in turn, until a match is found, or we reach the
   * end of the list (i.e. next winds up pointing back to the list head).
   */ 
 
  while (next != (alt_dev*) &alt_fs_list)
   33be4:	00003106 	br	33cac <alt_find_file+0xec>
  {
    len = strlen(next->name);
   33be8:	e0bffd17 	ldw	r2,-12(fp)
   33bec:	10800217 	ldw	r2,8(r2)
   33bf0:	1009883a 	mov	r4,r2
   33bf4:	0025f740 	call	25f74 <strlen>
   33bf8:	e0bffe15 	stw	r2,-8(fp)
    
    if (next->name[len-1] == '/')
   33bfc:	e0bffd17 	ldw	r2,-12(fp)
   33c00:	10c00217 	ldw	r3,8(r2)
   33c04:	e0bffe17 	ldw	r2,-8(fp)
   33c08:	10bfffc4 	addi	r2,r2,-1
   33c0c:	1885883a 	add	r2,r3,r2
   33c10:	10800003 	ldbu	r2,0(r2)
   33c14:	10803fcc 	andi	r2,r2,255
   33c18:	1080201c 	xori	r2,r2,128
   33c1c:	10bfe004 	addi	r2,r2,-128
   33c20:	10800bd8 	cmpnei	r2,r2,47
   33c24:	1000031e 	bne	r2,zero,33c34 <alt_find_file+0x74>
    {
      len -= 1;
   33c28:	e0bffe17 	ldw	r2,-8(fp)
   33c2c:	10bfffc4 	addi	r2,r2,-1
   33c30:	e0bffe15 	stw	r2,-8(fp)
    }

    if (((name[len] == '/') || (name[len] == '\0')) && 
   33c34:	e0bffe17 	ldw	r2,-8(fp)
   33c38:	e0ffff17 	ldw	r3,-4(fp)
   33c3c:	1885883a 	add	r2,r3,r2
   33c40:	10800003 	ldbu	r2,0(r2)
   33c44:	10803fcc 	andi	r2,r2,255
   33c48:	1080201c 	xori	r2,r2,128
   33c4c:	10bfe004 	addi	r2,r2,-128
   33c50:	10800be0 	cmpeqi	r2,r2,47
   33c54:	1000081e 	bne	r2,zero,33c78 <alt_find_file+0xb8>
   33c58:	e0bffe17 	ldw	r2,-8(fp)
   33c5c:	e0ffff17 	ldw	r3,-4(fp)
   33c60:	1885883a 	add	r2,r3,r2
   33c64:	10800003 	ldbu	r2,0(r2)
   33c68:	10803fcc 	andi	r2,r2,255
   33c6c:	1080201c 	xori	r2,r2,128
   33c70:	10bfe004 	addi	r2,r2,-128
   33c74:	10000a1e 	bne	r2,zero,33ca0 <alt_find_file+0xe0>
        !memcmp (next->name, name, len))
   33c78:	e0bffd17 	ldw	r2,-12(fp)
   33c7c:	10c00217 	ldw	r3,8(r2)
   33c80:	e0bffe17 	ldw	r2,-8(fp)
   33c84:	1809883a 	mov	r4,r3
   33c88:	e17fff17 	ldw	r5,-4(fp)
   33c8c:	100d883a 	mov	r6,r2
   33c90:	0033efc0 	call	33efc <memcmp>
    if (next->name[len-1] == '/')
    {
      len -= 1;
    }

    if (((name[len] == '/') || (name[len] == '\0')) && 
   33c94:	1000021e 	bne	r2,zero,33ca0 <alt_find_file+0xe0>
        !memcmp (next->name, name, len))
    {
      /* match found */

      return next;
   33c98:	e0bffd17 	ldw	r2,-12(fp)
   33c9c:	00000806 	br	33cc0 <alt_find_file+0x100>
    }
    next = (alt_dev*) next->llist.next;
   33ca0:	e0bffd17 	ldw	r2,-12(fp)
   33ca4:	10800017 	ldw	r2,0(r2)
   33ca8:	e0bffd15 	stw	r2,-12(fp)
  /*
   * Check each list entry in turn, until a match is found, or we reach the
   * end of the list (i.e. next winds up pointing back to the list head).
   */ 
 
  while (next != (alt_dev*) &alt_fs_list)
   33cac:	e0fffd17 	ldw	r3,-12(fp)
   33cb0:	008000f4 	movhi	r2,3
   33cb4:	109c2904 	addi	r2,r2,28836
   33cb8:	18bfcb1e 	bne	r3,r2,33be8 <__alt_data_end+0xffff3be8>
    next = (alt_dev*) next->llist.next;
  }
  
  /* No match found */
  
  return NULL;     
   33cbc:	0005883a 	mov	r2,zero
}
   33cc0:	e037883a 	mov	sp,fp
   33cc4:	dfc00117 	ldw	ra,4(sp)
   33cc8:	df000017 	ldw	fp,0(sp)
   33ccc:	dec00204 	addi	sp,sp,8
   33cd0:	f800283a 	ret

00033cd4 <alt_get_fd>:
 * the offset of the file descriptor within the file descriptor array). A
 * negative value indicates failure.
 */

int alt_get_fd (alt_dev* dev)
{
   33cd4:	defffc04 	addi	sp,sp,-16
   33cd8:	df000315 	stw	fp,12(sp)
   33cdc:	df000304 	addi	fp,sp,12
   33ce0:	e13fff15 	stw	r4,-4(fp)
  alt_32 i;
  int rc = -EMFILE;
   33ce4:	00bffa04 	movi	r2,-24
   33ce8:	e0bffe15 	stw	r2,-8(fp)
   * indicates the highest file descriptor ever allocated. This is used to
   * improve efficency when searching the file descriptor list, and 
   * therefore reduce contention on the alt_fd_list_lock semaphore. 
   */

  for (i = 0; i < ALT_MAX_FD; i++)
   33cec:	e03ffd15 	stw	zero,-12(fp)
   33cf0:	00001d06 	br	33d68 <alt_get_fd+0x94>
  {
    if (!alt_fd_list[i].dev)
   33cf4:	008000f4 	movhi	r2,3
   33cf8:	1097a804 	addi	r2,r2,24224
   33cfc:	e0fffd17 	ldw	r3,-12(fp)
   33d00:	18c00324 	muli	r3,r3,12
   33d04:	10c5883a 	add	r2,r2,r3
   33d08:	10800017 	ldw	r2,0(r2)
   33d0c:	1000131e 	bne	r2,zero,33d5c <alt_get_fd+0x88>
    {
      alt_fd_list[i].dev = dev;
   33d10:	008000f4 	movhi	r2,3
   33d14:	1097a804 	addi	r2,r2,24224
   33d18:	e0fffd17 	ldw	r3,-12(fp)
   33d1c:	18c00324 	muli	r3,r3,12
   33d20:	10c5883a 	add	r2,r2,r3
   33d24:	e0ffff17 	ldw	r3,-4(fp)
   33d28:	10c00015 	stw	r3,0(r2)
      if (i > alt_max_fd)
   33d2c:	008000f4 	movhi	r2,3
   33d30:	109c2d04 	addi	r2,r2,28852
   33d34:	10c00017 	ldw	r3,0(r2)
   33d38:	e0bffd17 	ldw	r2,-12(fp)
   33d3c:	1880040e 	bge	r3,r2,33d50 <alt_get_fd+0x7c>
      {
        alt_max_fd = i;
   33d40:	008000f4 	movhi	r2,3
   33d44:	109c2d04 	addi	r2,r2,28852
   33d48:	e0fffd17 	ldw	r3,-12(fp)
   33d4c:	10c00015 	stw	r3,0(r2)
      }
      rc = i;
   33d50:	e0bffd17 	ldw	r2,-12(fp)
   33d54:	e0bffe15 	stw	r2,-8(fp)
      goto alt_get_fd_exit;
   33d58:	00000606 	br	33d74 <alt_get_fd+0xa0>
   * indicates the highest file descriptor ever allocated. This is used to
   * improve efficency when searching the file descriptor list, and 
   * therefore reduce contention on the alt_fd_list_lock semaphore. 
   */

  for (i = 0; i < ALT_MAX_FD; i++)
   33d5c:	e0bffd17 	ldw	r2,-12(fp)
   33d60:	10800044 	addi	r2,r2,1
   33d64:	e0bffd15 	stw	r2,-12(fp)
   33d68:	e0bffd17 	ldw	r2,-12(fp)
   33d6c:	10800810 	cmplti	r2,r2,32
   33d70:	103fe01e 	bne	r2,zero,33cf4 <__alt_data_end+0xffff3cf4>
   * file descriptor pool.
   */

  ALT_SEM_POST(alt_fd_list_lock);

  return rc;
   33d74:	e0bffe17 	ldw	r2,-8(fp)
}
   33d78:	e037883a 	mov	sp,fp
   33d7c:	df000017 	ldw	fp,0(sp)
   33d80:	dec00104 	addi	sp,sp,4
   33d84:	f800283a 	ret

00033d88 <alt_icache_flush>:
 * alt_icache_flush() is called to flush the instruction cache for a memory
 * region of length "len" bytes, starting at address "start".
 */

void alt_icache_flush (void* start, alt_u32 len)
{
   33d88:	defffb04 	addi	sp,sp,-20
   33d8c:	df000415 	stw	fp,16(sp)
   33d90:	df000404 	addi	fp,sp,16
   33d94:	e13ffe15 	stw	r4,-8(fp)
   33d98:	e17fff15 	stw	r5,-4(fp)

  /*
   * This is the most we would ever need to flush.
   */
 
  if (len > NIOS2_ICACHE_SIZE)
   33d9c:	e0bfff17 	ldw	r2,-4(fp)
   33da0:	10840070 	cmpltui	r2,r2,4097
   33da4:	1000021e 	bne	r2,zero,33db0 <alt_icache_flush+0x28>
  {
    len = NIOS2_ICACHE_SIZE;
   33da8:	00840004 	movi	r2,4096
   33dac:	e0bfff15 	stw	r2,-4(fp)
  }

  end = ((char*) start) + len;
   33db0:	e0fffe17 	ldw	r3,-8(fp)
   33db4:	e0bfff17 	ldw	r2,-4(fp)
   33db8:	1885883a 	add	r2,r3,r2
   33dbc:	e0bffd15 	stw	r2,-12(fp)

  for (i = start; i < end; i+= NIOS2_ICACHE_LINE_SIZE)
   33dc0:	e0bffe17 	ldw	r2,-8(fp)
   33dc4:	e0bffc15 	stw	r2,-16(fp)
   33dc8:	00000506 	br	33de0 <alt_icache_flush+0x58>
  { 
    __asm__ volatile ("flushi %0" :: "r" (i)); 
   33dcc:	e0bffc17 	ldw	r2,-16(fp)
   33dd0:	1000603a 	flushi	r2
    len = NIOS2_ICACHE_SIZE;
  }

  end = ((char*) start) + len;

  for (i = start; i < end; i+= NIOS2_ICACHE_LINE_SIZE)
   33dd4:	e0bffc17 	ldw	r2,-16(fp)
   33dd8:	10800804 	addi	r2,r2,32
   33ddc:	e0bffc15 	stw	r2,-16(fp)
   33de0:	e0fffc17 	ldw	r3,-16(fp)
   33de4:	e0bffd17 	ldw	r2,-12(fp)
   33de8:	18bff836 	bltu	r3,r2,33dcc <__alt_data_end+0xffff3dcc>
   * For an unaligned flush request, we've got one more line left.
   * Note that this is dependent on NIOS2_ICACHE_LINE_SIZE to be a 
   * multiple of 2 (which it always is).
   */

  if (((alt_u32) start) & (NIOS2_ICACHE_LINE_SIZE - 1))
   33dec:	e0bffe17 	ldw	r2,-8(fp)
   33df0:	108007cc 	andi	r2,r2,31
   33df4:	10000226 	beq	r2,zero,33e00 <alt_icache_flush+0x78>
  {
    __asm__ volatile ("flushi %0" :: "r" (i));
   33df8:	e0bffc17 	ldw	r2,-16(fp)
   33dfc:	1000603a 	flushi	r2
  /* 
   * Having flushed the cache, flush any stale instructions in the 
   * pipeline 
   */

  __asm__ volatile ("flushp");
   33e00:	0000203a 	flushp

#endif /* NIOS2_ICACHE_SIZE > 0 */
}
   33e04:	e037883a 	mov	sp,fp
   33e08:	df000017 	ldw	fp,0(sp)
   33e0c:	dec00104 	addi	sp,sp,4
   33e10:	f800283a 	ret

00033e14 <alt_exception_cause_generated_bad_addr>:
 * Return: 1: BADADDR (bad_addr argument to handler) is valid
 *         0: BADADDR is not valid
 */
int 
alt_exception_cause_generated_bad_addr(alt_exception_cause cause)
{
   33e14:	defffe04 	addi	sp,sp,-8
   33e18:	df000115 	stw	fp,4(sp)
   33e1c:	df000104 	addi	fp,sp,4
   33e20:	e13fff15 	stw	r4,-4(fp)
  switch (cause) {
   33e24:	e0bfff17 	ldw	r2,-4(fp)
   33e28:	10bffe84 	addi	r2,r2,-6
   33e2c:	10c00428 	cmpgeui	r3,r2,16
   33e30:	18001a1e 	bne	r3,zero,33e9c <alt_exception_cause_generated_bad_addr+0x88>
   33e34:	100690ba 	slli	r3,r2,2
   33e38:	008000f4 	movhi	r2,3
   33e3c:	108f9304 	addi	r2,r2,15948
   33e40:	1885883a 	add	r2,r3,r2
   33e44:	10800017 	ldw	r2,0(r2)
   33e48:	1000683a 	jmp	r2
   33e4c:	00033e8c 	andi	zero,zero,3322
   33e50:	00033e8c 	andi	zero,zero,3322
   33e54:	00033e9c 	xori	zero,zero,3322
   33e58:	00033e9c 	xori	zero,zero,3322
   33e5c:	00033e9c 	xori	zero,zero,3322
   33e60:	00033e8c 	andi	zero,zero,3322
   33e64:	00033e94 	movui	zero,3322
   33e68:	00033e9c 	xori	zero,zero,3322
   33e6c:	00033e8c 	andi	zero,zero,3322
   33e70:	00033e8c 	andi	zero,zero,3322
   33e74:	00033e9c 	xori	zero,zero,3322
   33e78:	00033e8c 	andi	zero,zero,3322
   33e7c:	00033e94 	movui	zero,3322
   33e80:	00033e9c 	xori	zero,zero,3322
   33e84:	00033e9c 	xori	zero,zero,3322
   33e88:	00033e8c 	andi	zero,zero,3322
  case NIOS2_EXCEPTION_MISALIGNED_TARGET_PC:
  case NIOS2_EXCEPTION_TLB_READ_PERM_VIOLATION:
  case NIOS2_EXCEPTION_TLB_WRITE_PERM_VIOLATION:
  case NIOS2_EXCEPTION_MPU_DATA_REGION_VIOLATION:
  case NIOS2_EXCEPTION_ECC_DATA_ERR:
    return 1;
   33e8c:	00800044 	movi	r2,1
   33e90:	00000306 	br	33ea0 <alt_exception_cause_generated_bad_addr+0x8c>

  case NIOS2_EXCEPTION_TLB_MISS:
  case NIOS2_EXCEPTION_ECC_TLB_ERR:
    return 0;
   33e94:	0005883a 	mov	r2,zero
   33e98:	00000106 	br	33ea0 <alt_exception_cause_generated_bad_addr+0x8c>

  default:
    return 0;
   33e9c:	0005883a 	mov	r2,zero
  }
}
   33ea0:	e037883a 	mov	sp,fp
   33ea4:	df000017 	ldw	fp,0(sp)
   33ea8:	dec00104 	addi	sp,sp,4
   33eac:	f800283a 	ret

00033eb0 <atexit>:
   33eb0:	200b883a 	mov	r5,r4
   33eb4:	000d883a 	mov	r6,zero
   33eb8:	0009883a 	mov	r4,zero
   33ebc:	000f883a 	mov	r7,zero
   33ec0:	0033f781 	jmpi	33f78 <__register_exitproc>

00033ec4 <exit>:
   33ec4:	defffe04 	addi	sp,sp,-8
   33ec8:	000b883a 	mov	r5,zero
   33ecc:	dc000015 	stw	r16,0(sp)
   33ed0:	dfc00115 	stw	ra,4(sp)
   33ed4:	2021883a 	mov	r16,r4
   33ed8:	003408c0 	call	3408c <__call_exitprocs>
   33edc:	008000f4 	movhi	r2,3
   33ee0:	109c2504 	addi	r2,r2,28820
   33ee4:	11000017 	ldw	r4,0(r2)
   33ee8:	20800f17 	ldw	r2,60(r4)
   33eec:	10000126 	beq	r2,zero,33ef4 <exit+0x30>
   33ef0:	103ee83a 	callr	r2
   33ef4:	8009883a 	mov	r4,r16
   33ef8:	00342200 	call	34220 <_exit>

00033efc <memcmp>:
   33efc:	01c000c4 	movi	r7,3
   33f00:	3980192e 	bgeu	r7,r6,33f68 <memcmp+0x6c>
   33f04:	2144b03a 	or	r2,r4,r5
   33f08:	11c4703a 	and	r2,r2,r7
   33f0c:	10000f26 	beq	r2,zero,33f4c <memcmp+0x50>
   33f10:	20800003 	ldbu	r2,0(r4)
   33f14:	28c00003 	ldbu	r3,0(r5)
   33f18:	10c0151e 	bne	r2,r3,33f70 <memcmp+0x74>
   33f1c:	31bfff84 	addi	r6,r6,-2
   33f20:	01ffffc4 	movi	r7,-1
   33f24:	00000406 	br	33f38 <memcmp+0x3c>
   33f28:	20800003 	ldbu	r2,0(r4)
   33f2c:	28c00003 	ldbu	r3,0(r5)
   33f30:	31bfffc4 	addi	r6,r6,-1
   33f34:	10c00e1e 	bne	r2,r3,33f70 <memcmp+0x74>
   33f38:	21000044 	addi	r4,r4,1
   33f3c:	29400044 	addi	r5,r5,1
   33f40:	31fff91e 	bne	r6,r7,33f28 <__alt_data_end+0xffff3f28>
   33f44:	0005883a 	mov	r2,zero
   33f48:	f800283a 	ret
   33f4c:	20c00017 	ldw	r3,0(r4)
   33f50:	28800017 	ldw	r2,0(r5)
   33f54:	1880041e 	bne	r3,r2,33f68 <memcmp+0x6c>
   33f58:	31bfff04 	addi	r6,r6,-4
   33f5c:	21000104 	addi	r4,r4,4
   33f60:	29400104 	addi	r5,r5,4
   33f64:	39bff936 	bltu	r7,r6,33f4c <__alt_data_end+0xffff3f4c>
   33f68:	303fe91e 	bne	r6,zero,33f10 <__alt_data_end+0xffff3f10>
   33f6c:	003ff506 	br	33f44 <__alt_data_end+0xffff3f44>
   33f70:	10c5c83a 	sub	r2,r2,r3
   33f74:	f800283a 	ret

00033f78 <__register_exitproc>:
   33f78:	008000f4 	movhi	r2,3
   33f7c:	defffa04 	addi	sp,sp,-24
   33f80:	109c2504 	addi	r2,r2,28820
   33f84:	dc000315 	stw	r16,12(sp)
   33f88:	14000017 	ldw	r16,0(r2)
   33f8c:	dc400415 	stw	r17,16(sp)
   33f90:	dfc00515 	stw	ra,20(sp)
   33f94:	80805217 	ldw	r2,328(r16)
   33f98:	2023883a 	mov	r17,r4
   33f9c:	10003626 	beq	r2,zero,34078 <__register_exitproc+0x100>
   33fa0:	10c00117 	ldw	r3,4(r2)
   33fa4:	010007c4 	movi	r4,31
   33fa8:	20c00e16 	blt	r4,r3,33fe4 <__register_exitproc+0x6c>
   33fac:	1a400044 	addi	r9,r3,1
   33fb0:	8800211e 	bne	r17,zero,34038 <__register_exitproc+0xc0>
   33fb4:	18c00084 	addi	r3,r3,2
   33fb8:	18c7883a 	add	r3,r3,r3
   33fbc:	18c7883a 	add	r3,r3,r3
   33fc0:	12400115 	stw	r9,4(r2)
   33fc4:	10c7883a 	add	r3,r2,r3
   33fc8:	19400015 	stw	r5,0(r3)
   33fcc:	0005883a 	mov	r2,zero
   33fd0:	dfc00517 	ldw	ra,20(sp)
   33fd4:	dc400417 	ldw	r17,16(sp)
   33fd8:	dc000317 	ldw	r16,12(sp)
   33fdc:	dec00604 	addi	sp,sp,24
   33fe0:	f800283a 	ret
   33fe4:	008000b4 	movhi	r2,2
   33fe8:	10953604 	addi	r2,r2,21720
   33fec:	10002526 	beq	r2,zero,34084 <__register_exitproc+0x10c>
   33ff0:	01006404 	movi	r4,400
   33ff4:	d9400015 	stw	r5,0(sp)
   33ff8:	d9800115 	stw	r6,4(sp)
   33ffc:	d9c00215 	stw	r7,8(sp)
   34000:	00254d80 	call	254d8 <malloc>
   34004:	d9400017 	ldw	r5,0(sp)
   34008:	d9800117 	ldw	r6,4(sp)
   3400c:	d9c00217 	ldw	r7,8(sp)
   34010:	10001c26 	beq	r2,zero,34084 <__register_exitproc+0x10c>
   34014:	80c05217 	ldw	r3,328(r16)
   34018:	10000115 	stw	zero,4(r2)
   3401c:	02400044 	movi	r9,1
   34020:	10c00015 	stw	r3,0(r2)
   34024:	80805215 	stw	r2,328(r16)
   34028:	10006215 	stw	zero,392(r2)
   3402c:	10006315 	stw	zero,396(r2)
   34030:	0007883a 	mov	r3,zero
   34034:	883fdf26 	beq	r17,zero,33fb4 <__alt_data_end+0xffff3fb4>
   34038:	18d1883a 	add	r8,r3,r3
   3403c:	4211883a 	add	r8,r8,r8
   34040:	1211883a 	add	r8,r2,r8
   34044:	41802215 	stw	r6,136(r8)
   34048:	01000044 	movi	r4,1
   3404c:	11806217 	ldw	r6,392(r2)
   34050:	20c8983a 	sll	r4,r4,r3
   34054:	310cb03a 	or	r6,r6,r4
   34058:	11806215 	stw	r6,392(r2)
   3405c:	41c04215 	stw	r7,264(r8)
   34060:	01800084 	movi	r6,2
   34064:	89bfd31e 	bne	r17,r6,33fb4 <__alt_data_end+0xffff3fb4>
   34068:	11806317 	ldw	r6,396(r2)
   3406c:	3108b03a 	or	r4,r6,r4
   34070:	11006315 	stw	r4,396(r2)
   34074:	003fcf06 	br	33fb4 <__alt_data_end+0xffff3fb4>
   34078:	80805304 	addi	r2,r16,332
   3407c:	80805215 	stw	r2,328(r16)
   34080:	003fc706 	br	33fa0 <__alt_data_end+0xffff3fa0>
   34084:	00bfffc4 	movi	r2,-1
   34088:	003fd106 	br	33fd0 <__alt_data_end+0xffff3fd0>

0003408c <__call_exitprocs>:
   3408c:	008000f4 	movhi	r2,3
   34090:	109c2504 	addi	r2,r2,28820
   34094:	10800017 	ldw	r2,0(r2)
   34098:	defff404 	addi	sp,sp,-48
   3409c:	dd800815 	stw	r22,32(sp)
   340a0:	d8800015 	stw	r2,0(sp)
   340a4:	10805204 	addi	r2,r2,328
   340a8:	dd000615 	stw	r20,24(sp)
   340ac:	dc800415 	stw	r18,16(sp)
   340b0:	dfc00b15 	stw	ra,44(sp)
   340b4:	df000a15 	stw	fp,40(sp)
   340b8:	ddc00915 	stw	r23,36(sp)
   340bc:	dd400715 	stw	r21,28(sp)
   340c0:	dcc00515 	stw	r19,20(sp)
   340c4:	dc400315 	stw	r17,12(sp)
   340c8:	dc000215 	stw	r16,8(sp)
   340cc:	2025883a 	mov	r18,r4
   340d0:	2829883a 	mov	r20,r5
   340d4:	d8800115 	stw	r2,4(sp)
   340d8:	05bfffc4 	movi	r22,-1
   340dc:	d8800017 	ldw	r2,0(sp)
   340e0:	14c05217 	ldw	r19,328(r2)
   340e4:	98001d26 	beq	r19,zero,3415c <__call_exitprocs+0xd0>
   340e8:	dd400117 	ldw	r21,4(sp)
   340ec:	98800117 	ldw	r2,4(r19)
   340f0:	173fffc4 	addi	fp,r2,-1
   340f4:	e0000d16 	blt	fp,zero,3412c <__call_exitprocs+0xa0>
   340f8:	14000044 	addi	r16,r2,1
   340fc:	8421883a 	add	r16,r16,r16
   34100:	8421883a 	add	r16,r16,r16
   34104:	84402004 	addi	r17,r16,128
   34108:	9c63883a 	add	r17,r19,r17
   3410c:	9c21883a 	add	r16,r19,r16
   34110:	a0001e26 	beq	r20,zero,3418c <__call_exitprocs+0x100>
   34114:	80804017 	ldw	r2,256(r16)
   34118:	15001c26 	beq	r2,r20,3418c <__call_exitprocs+0x100>
   3411c:	e73fffc4 	addi	fp,fp,-1
   34120:	843fff04 	addi	r16,r16,-4
   34124:	8c7fff04 	addi	r17,r17,-4
   34128:	e5bff91e 	bne	fp,r22,34110 <__alt_data_end+0xffff4110>
   3412c:	008000b4 	movhi	r2,2
   34130:	10953b04 	addi	r2,r2,21740
   34134:	10000926 	beq	r2,zero,3415c <__call_exitprocs+0xd0>
   34138:	98800117 	ldw	r2,4(r19)
   3413c:	1000311e 	bne	r2,zero,34204 <__call_exitprocs+0x178>
   34140:	98800017 	ldw	r2,0(r19)
   34144:	10003426 	beq	r2,zero,34218 <__call_exitprocs+0x18c>
   34148:	9809883a 	mov	r4,r19
   3414c:	a8800015 	stw	r2,0(r21)
   34150:	00254ec0 	call	254ec <free>
   34154:	acc00017 	ldw	r19,0(r21)
   34158:	983fe41e 	bne	r19,zero,340ec <__alt_data_end+0xffff40ec>
   3415c:	dfc00b17 	ldw	ra,44(sp)
   34160:	df000a17 	ldw	fp,40(sp)
   34164:	ddc00917 	ldw	r23,36(sp)
   34168:	dd800817 	ldw	r22,32(sp)
   3416c:	dd400717 	ldw	r21,28(sp)
   34170:	dd000617 	ldw	r20,24(sp)
   34174:	dcc00517 	ldw	r19,20(sp)
   34178:	dc800417 	ldw	r18,16(sp)
   3417c:	dc400317 	ldw	r17,12(sp)
   34180:	dc000217 	ldw	r16,8(sp)
   34184:	dec00c04 	addi	sp,sp,48
   34188:	f800283a 	ret
   3418c:	98800117 	ldw	r2,4(r19)
   34190:	80c00017 	ldw	r3,0(r16)
   34194:	10bfffc4 	addi	r2,r2,-1
   34198:	17001526 	beq	r2,fp,341f0 <__call_exitprocs+0x164>
   3419c:	80000015 	stw	zero,0(r16)
   341a0:	183fde26 	beq	r3,zero,3411c <__alt_data_end+0xffff411c>
   341a4:	00800044 	movi	r2,1
   341a8:	1708983a 	sll	r4,r2,fp
   341ac:	98806217 	ldw	r2,392(r19)
   341b0:	9dc00117 	ldw	r23,4(r19)
   341b4:	2084703a 	and	r2,r4,r2
   341b8:	1000061e 	bne	r2,zero,341d4 <__call_exitprocs+0x148>
   341bc:	183ee83a 	callr	r3
   341c0:	98800117 	ldw	r2,4(r19)
   341c4:	15ffc51e 	bne	r2,r23,340dc <__alt_data_end+0xffff40dc>
   341c8:	a8800017 	ldw	r2,0(r21)
   341cc:	14ffd326 	beq	r2,r19,3411c <__alt_data_end+0xffff411c>
   341d0:	003fc206 	br	340dc <__alt_data_end+0xffff40dc>
   341d4:	98806317 	ldw	r2,396(r19)
   341d8:	2084703a 	and	r2,r4,r2
   341dc:	1000061e 	bne	r2,zero,341f8 <__call_exitprocs+0x16c>
   341e0:	89400017 	ldw	r5,0(r17)
   341e4:	9009883a 	mov	r4,r18
   341e8:	183ee83a 	callr	r3
   341ec:	003ff406 	br	341c0 <__alt_data_end+0xffff41c0>
   341f0:	9f000115 	stw	fp,4(r19)
   341f4:	003fea06 	br	341a0 <__alt_data_end+0xffff41a0>
   341f8:	89000017 	ldw	r4,0(r17)
   341fc:	183ee83a 	callr	r3
   34200:	003fef06 	br	341c0 <__alt_data_end+0xffff41c0>
   34204:	98800017 	ldw	r2,0(r19)
   34208:	982b883a 	mov	r21,r19
   3420c:	1027883a 	mov	r19,r2
   34210:	983fb61e 	bne	r19,zero,340ec <__alt_data_end+0xffff40ec>
   34214:	003fd106 	br	3415c <__alt_data_end+0xffff415c>
   34218:	0005883a 	mov	r2,zero
   3421c:	003ffa06 	br	34208 <__alt_data_end+0xffff4208>

00034220 <_exit>:
 *
 * ALT_EXIT is mapped onto the _exit() system call in alt_syscall.h
 */

void ALT_EXIT (int exit_code)
{
   34220:	defffd04 	addi	sp,sp,-12
   34224:	df000215 	stw	fp,8(sp)
   34228:	df000204 	addi	fp,sp,8
   3422c:	e13fff15 	stw	r4,-4(fp)
  ALT_LOG_PRINT_BOOT("[alt_exit.c] Entering _exit() function.\r\n");
  ALT_LOG_PRINT_BOOT("[alt_exit.c] Exit code from main was %d.\r\n",exit_code);
  /* Stop all other threads */

  ALT_LOG_PRINT_BOOT("[alt_exit.c] Calling ALT_OS_STOP().\r\n");
  ALT_OS_STOP();
   34230:	0001883a 	nop
   34234:	e0bfff17 	ldw	r2,-4(fp)
   34238:	e0bffe15 	stw	r2,-8(fp)
/*
 * Routine called on exit.
 */
static ALT_INLINE ALT_ALWAYS_INLINE void alt_sim_halt(int exit_code)
{
  register int r2 asm ("r2") = exit_code;
   3423c:	e0bffe17 	ldw	r2,-8(fp)
  __asm__ volatile ("\n0:\n\taddi %0,%0, -1\n\tbgt %0,zero,0b" : : "r" (ALT_CPU_FREQ/100) ); /* Delay for >30ms */

  __asm__ volatile ("break 2" : : "r"(r2), "r"(r3) ALT_GMON_DATA );

#else /* !DEBUG_STUB */
  if (r2) {
   34240:	10000226 	beq	r2,zero,3424c <_exit+0x2c>
    ALT_SIM_FAIL();
   34244:	002af070 	cmpltui	zero,zero,43969
   34248:	00000106 	br	34250 <_exit+0x30>
  } else {
    ALT_SIM_PASS();
   3424c:	002af0b0 	cmpltui	zero,zero,43970
  ALT_SIM_HALT(exit_code);

  /* spin forever, since there's no where to go back to */

  ALT_LOG_PRINT_BOOT("[alt_exit.c] Spinning forever.\r\n");
  while (1);
   34250:	003fff06 	br	34250 <__alt_data_end+0xffff4250>
